ccopy_reg
_reconstructor
p1
(cData.Book
Book
p2
c__builtin__
object
p3
NtRp4
(dp5
S'stored_object'
p6
S'Books/SuperFrog_Saves_Tokyo/Book_object.p'
p7
sS'title'
p8
S'SuperFrog Saves Tokyo'
p9
sS'main_text_path'
p10
S'Books/SuperFrog_Saves_Tokyo/main_cleaned.txt'
p11
sS'metadata_path'
p12
S'Books/SuperFrog_Saves_Tokyo/meta_data.csv'
p13
sS'book_path'
p14
S'Books/SuperFrog_Saves_Tokyo/'
p15
sS'characters'
p16
(dp17
S'katagiri'
p18
(dp19
S'list'
p20
(lp21
(lp22
V[
aVCHARACTER
p23
aV]
aV-
aVa
aVcollections
p24
aVofficer
p25
aVfor
p26
aVthe
p27
aVtokyo
p28
aVsecurity
p29
aVtrust
p30
aVbank
p31
aVand
p32
aVprotagonist
p33
aVof
p34
aVthe
p35
aVstory
p36
aV.
aa(lp37
V[
aVCHARACTER
p38
aV]
aVis
p39
aVshort
p40
aV,
aVbalding
p41
aV,
aVand
p42
aVseemingly
p43
aVunremarkable
p44
aV.
aa(lp45
Vnevertheless
p46
aV,
aV[
aVCHARACTER
p47
aV]
aVis
p48
aVa
aVtough
p49
aV,
aVreliable
p50
aVman
p51
aV,
aVand
p52
aVfrog
p53
aVchooses
p54
aVhim
p55
aVfor
p56
aVthe
p57
aVbattle
p58
aVwith
p59
aVworm
p60
aVbecause
p61
aVhe
p62
aVsees
p63
aVa
aVcourage
p64
aVand
p65
aVstaunchness
p66
aVin
p67
aVthe
p68
aVman
p69
aVwhom
p70
aVeveryone
p71
aVelse
p72
aVseems
p73
aVto
p74
aVoverlook
p75
aV.
aasS'analysis'
p76
(lp77
(lp78
V[
aVCHARACTER
p79
aV]
aVon
p80
aVthe
p81
aVsurface
p82
aV,
aVthere
p83
aVdoes
p84
aVn't
p85
aVseem
p86
aVto
p87
aVbe
p88
aVmuch
p89
aVto
p90
aV[
aVCHARACTER
p91
aV]
aV.
aa(lp92
Vforty
p93
aVand
p94
aVsocially
p95
aVawkward
p96
aV,
aVwith
p97
aVflat
p98
aVfeet
p99
aVand
p100
aVa
aVreceding
p101
aVhairline
p102
aV,
aV[
aVCHARACTER
p103
aV]
aVhas
p104
aVlittle
p105
aVfamily
p106
aVand
p107
aVfewer
p108
aVfriends
p109
aV.
aa(lp110
Vunderneath
p111
aVhis
p112
aVunremarkable
p113
aVexterior
p114
aV,
aVhowever
p115
aV,
aV[
aVCHARACTER
p116
aV]
aVharbors
p117
aVsome
p118
aVtruly
p119
aVremarkable
p120
aVqualities
p121
aV.
aa(lp122
Vfrog
p123
aVrespects
p124
aV[
aVCHARACTER
p125
aV]
aVfor
p126
aVhis
p127
aVwisdom
p128
aVand
p129
aVcourage
p130
aVas
p131
aVwell
p132
aVas
p133
aVfor
p134
aVthe
p135
aVquiet
p136
aV,
aVsteady
p137
aVway
p138
aVhe
p139
aVfaces
p140
aVchallenges
p141
aVwithout
p142
aVever
p143
aVseeking
p144
aVany
p145
aVreward
p146
aV.
aa(lp147
V[
aVCHARACTER
p148
aV]
aV's
p149
aVisolation
p150
aVmight
p151
aVbe
p152
aVseen
p153
aVas
p154
aVa
aVmanifestation
p155
aVof
p156
aVhis
p157
aVmodesty
p158
aV,
aVevidence
p159
aVof
p160
aVa
aVdesire
p161
aVto
p162
aVavoid
p163
aVimposing
p164
aVhimself
p165
aVon
p166
aVthe
p167
aVworld
p168
aVor
p169
aVasking
p170
aVtoo
p171
aVmuch
p172
aVof
p173
aVit
p174
aV.
aa(lp175
Vcompanionship
p176
aVis
p177
aVone
p178
aVof
p179
aVthe
p180
aVmany
p181
aVrewards
p182
aVthat
p183
aV[
aVCHARACTER
p184
aV]
aVdeserves
p185
aVbut
p186
aVnever
p187
aVreceives
p188
aV.
aa(lp189
Vin
p190
aVfrog
p191
aVand
p192
aVhis
p193
aVmission
p194
aV,
aV[
aVCHARACTER
p195
aV]
aVfinds
p196
aVrecognition
p197
aVand
p198
aVvalidation
p199
aVfor
p200
aVan
p201
aVentire
p202
aVlife
p203
aVof
p204
aVsilent
p205
aVstruggles
p206
aV.
aa(lp207
Valthough
p208
aV[
aVCHARACTER
p209
aV]
aVappears
p210
aVto
p211
aVbe
p212
aVright
p213
aVback
p214
aVwhere
p215
aVhe
p216
aVstarted
p217
aVat
p218
aVthe
p219
aVend
p220
aVof
p221
aVthe
p222
aVstory
p223
aV--
p224
aVwith
p225
aVno
p226
aVfriends
p227
aV,
aVreward
p228
aV,
aVor
p229
aVrecognition
p230
aVfor
p231
aVhaving
p232
aVhelped
p233
aVsave
p234
aVtokyo
p235
aV--
p236
aVthe
p237
aVdeep
p238
aV,
aVtranquil
p239
aVsleep
p240
aVthat
p241
aV[
aVCHARACTER
p242
aV]
aVfalls
p243
aVinto
p244
aVis
p245
aVone
p246
aVof
p247
aVsatisfaction
p248
aVand
p249
aVrelief
p250
aV.
aa(lp251
Vnot
p252
aVonly
p253
aVdid
p254
aVhe
p255
aVsave
p256
aV150,000
p257
aVlives
p258
aV,
aVbut
p259
aVfor
p260
aVonce
p261
aV,
aVafter
p262
aVa
aVlife
p263
aVof
p264
aVslipping
p265
aVthrough
p266
aVthe
p267
aVshadows
p268
aVand
p269
aVhovering
p270
aVin
p271
aVthe
p272
aVbackground
p273
aV,
aV[
aVCHARACTER
p274
aV]
aVknows
p275
aVhe
p276
aVhas
p277
aVtruly
p278
aVbeen
p279
aVperceived
p280
aVand
p281
aVwitnessed
p282
aVby
p283
aVanother
p284
aVperson
p285
aV--
p286
aVeven
p287
aVif
p288
aVthat
p289
aVperson
p290
aVhappened
p291
aVto
p292
aVbe
p293
aVa
aVgiant
p294
aV,
aVtalking
p295
aV--
p296
aVand
p297
aVpossibly
p298
aVimaginary
p299
aV--
p300
aVfrog
p301
aV.
aassS'worm'
p302
(dp303
g20
(lp304
(lp305
V[
aVCHARACTER
p306
aV]
aV-
aVa
aVgiant
p307
aV[
aVCHARACTER
p308
aV]
aVthat
p309
aVslumbers
p310
aVdeep
p311
aVbeneath
p312
aVtokyo
p313
aVcity
p314
aV,
aVdirectly
p315
aVunder
p316
aVthe
p317
aVoffices
p318
aVof
p319
aVkatagiri
p320
aV's
p321
aVbank
p322
aV.
aa(lp323
V[
aVCHARACTER
p324
aV]
aVabsorbs
p325
aVvibrations
p326
aVfrom
p327
aVthe
p328
aVcity
p329
aV,
aVwhich
p330
aVslowly
p331
aVbuild
p332
aVup
p333
aVin
p334
aVhis
p335
aVbody
p336
aVuntil
p337
aVthey
p338
aVare
p339
aVtransformed
p340
aVinto
p341
aVpure
p342
aVrage
p343
aV.
aa(lp344
Vwhen
p345
aVthe
p346
aVrage
p347
aVreaches
p348
aVa
aVcritical
p349
aVpoint
p350
aV,
aV[
aVCHARACTER
p351
aV]
aVreleases
p352
aVthat
p353
aVenergy
p354
aVin
p355
aVthe
p356
aVform
p357
aVof
p358
aVdevastating
p359
aVearthquakes
p360
aV.
aasg76
(lp361
(lp362
V[
aVCHARACTER
p363
aV]
aV[
aVCHARACTER
p364
aV]
aVis
p365
aVthe
p366
aVenemy
p367
aVin
p368
aV``
p369
aVsuper-frog
p370
aVsaves
p371
aVtokyo
p372
aV,
aV''
p373
aVbut
p374
aVhe
p375
aV's
p376
aVnot
p377
aVa
aVtrue
p378
aVvillain
p379
aV.
aa(lp380
Vfrog
p381
aVknows
p382
aVthat
p383
aV[
aVCHARACTER
p384
aV]
aVmust
p385
aVbe
p386
aVstopped
p387
aVto
p388
aVsave
p389
aVthe
p390
aVcitizens
p391
aVof
p392
aVtokyo
p393
aV,
aVbut
p394
aVhe
p395
aVdoes
p396
aVn't
p397
aVnecessarily
p398
aVbelieve
p399
aVthat
p400
aV[
aVCHARACTER
p401
aV]
aVis
p402
aVevil
p403
aVor
p404
aVthat
p405
aV[
aVCHARACTER
p406
aV]
aVdoes
p407
aVn't
p408
aVhave
p409
aVa
aVright
p410
aVto
p411
aVexist
p412
aV.
aa(lp413
Veven
p414
aVthough
p415
aVhe
p416
aVhas
p417
aVa
aVfrightful
p418
aVappearance
p419
aVand
p420
aVis
p421
aVprone
p422
aVto
p423
aVviolence
p424
aV,
aV[
aVCHARACTER
p425
aV]
aVis
p426
aVas
p427
aVmorally
p428
aVneutral
p429
aVas
p430
aVan
p431
aVactual
p432
aVearthquake
p433
aV.
aa(lp434
Vin
p435
aVfact
p436
aV,
aVfrog
p437
aV's
p438
aVdescription
p439
aVof
p440
aV[
aVCHARACTER
p441
aV]
aV's
p442
aVawakening
p443
aVseems
p444
aVto
p445
aVplace
p446
aVsome
p447
aVof
p448
aVthe
p449
aVblame
p450
aVon
p451
aVhuman
p452
aVbeings
p453
aV,
aVbecause
p454
aVit
p455
aVis
p456
aVthe
p457
aVclamor
p458
aVand
p459
aVtumult
p460
aVof
p461
aVthe
p462
aVcity
p463
aVitself
p464
aVthat
p465
aVproduces
p466
aV[
aVCHARACTER
p467
aV]
aV's
p468
aVrage
p469
aV.
aa(lp470
Vthe
p471
aVfigure
p472
aVof
p473
aV[
aVCHARACTER
p474
aV]
aVevokes
p475
aVthe
p476
aVtwo
p477
aVtragedies
p478
aVjapan
p479
aVsuffered
p480
aVin
p481
aV1995
p482
aV,
aVboth
p483
aVof
p484
aVwhich
p485
aVtook
p486
aVplace
p487
aVdeep
p488
aVunderground
p489
aV.
aa(lp490
Vfrog
p491
aVclaims
p492
aVthat
p493
aVthe
p494
aVkobe
p495
aVearthquake
p496
aVin
p497
aVjanuary
p498
aV1995
p499
aVpushed
p500
aV[
aVCHARACTER
p501
aV]
aV's
p502
aVpatience
p503
aVover
p504
aVthe
p505
aVlimit
p506
aV,
aVwhile
p507
aVthe
p508
aVpointed
p509
aVcomparison
p510
aVof
p511
aV[
aVCHARACTER
p512
aV]
aVand
p513
aVa
aVcommuter
p514
aVtrain
p515
aVevokes
p516
aVthe
p517
aVaum
p518
aVshirinkyo
p519
aVsubway
p520
aVtragedy
p521
aVof
p522
aVmarch
p523
aV1995
p524
aV.
aassS'frog'
p525
(dp526
g20
(lp527
(lp528
V[
aVCHARACTER
p529
aV]
aV-
aVa
aVgiant
p530
aVtalking
p531
aV[
aVCHARACTER
p532
aV]
aV.
aa(lp533
V[
aVCHARACTER
p534
aV]
aVenlists
p535
aVkatagiri
p536
aVto
p537
aVhelp
p538
aVhim
p539
aVbattle
p540
aVworm
p541
aVto
p542
aVsave
p543
aVtokyo
p544
aVfrom
p545
aVa
aVgiant
p546
aVearthquake
p547
aV.
aa(lp548
V[
aVCHARACTER
p549
aV]
aVhas
p550
aVa
aVdeeply
p551
aVphilosophical
p552
aVtemperament
p553
aV,
aVboth
p554
aVin
p555
aVthe
p556
aVsense
p557
aVthat
p558
aVhe
p559
aVenjoys
p560
aVknotty
p561
aVphilosophical
p562
aVpuzzles
p563
aVand
p564
aVthat
p565
aVhe
p566
aVis
p567
aVthoughtful
p568
aV,
aVcareful
p569
aV,
aVand
p570
aVarticulate
p571
aV.
aa(lp572
Veven
p573
aVthough
p574
aV[
aVCHARACTER
p575
aV]
aVtakes
p576
aVpains
p577
aVto
p578
aVprove
p579
aVthat
p580
aVhe
p581
aVis
p582
aVan
p583
aVactual
p584
aV[
aVCHARACTER
p585
aV]
aV,
aVit
p586
aVremains
p587
aVunclear
p588
aVwhether
p589
aVhe
p590
aVtruly
p591
aVexists
p592
aV.
aasg76
(lp593
(lp594
V[
aVCHARACTER
p595
aV]
aV[
aVCHARACTER
p596
aV]
aVis
p597
aVa
aVblend
p598
aVof
p599
aVcontradictions
p600
aV.
aa(lp601
Vhe
p602
aVis
p603
aVa
aVlighthearted
p604
aVpacifist
p605
aVwho
p606
aVloves
p607
aVart
p608
aVand
p609
aVnature
p610
aV,
aVyet
p611
aVwhen
p612
aVworm
p613
aV's
p614
aVgrowing
p615
aVinstability
p616
aVthreatens
p617
aVthe
p618
aVcity
p619
aVof
p620
aVtokyo
p621
aV,
aV[
aVCHARACTER
p622
aV]
aVshoulders
p623
aVhis
p624
aVmission
p625
aVbravely
p626
aVand
p627
aVresolutely
p628
aV.
aa(lp629
Vhe
p630
aVspeaks
p631
aVcourteously
p632
aVand
p633
aVrespectfully
p634
aVto
p635
aVkatagiri
p636
aVyet
p637
aVproves
p638
aVcapable
p639
aVof
p640
aVstirring
p641
aVfear
p642
aVand
p643
aVterror
p644
aVin
p645
aVhis
p646
aVenemies
p647
aVsuch
p648
aVas
p649
aVbig
p650
aVbear
p651
aVtrading
p652
aVand
p653
aVworm
p654
aV.
aa(lp655
V[
aVCHARACTER
p656
aV]
aVis
p657
aValso
p658
aVsurprisingly
p659
aVbookish
p660
aV,
aVand
p661
aVhis
p662
aVspeech
p663
aVis
p664
aVlittered
p665
aVwith
p666
aVhighbrow
p667
aVreferences
p668
aVto
p669
aVwestern
p670
aVthinkers
p671
aV,
aVincluding
p672
aVthe
p673
aVphilosopher
p674
aVfriedrich
p675
aVnietzsche
p676
aVand
p677
aVthe
p678
aVwriters
p679
aVjoseph
p680
aVconrad
p681
aV,
aVleo
p682
aVtolstoy
p683
aV,
aVand
p684
aVfyodor
p685
aVdostoevsky
p686
aV.
aa(lp687
Vperhaps
p688
aVthe
p689
aVgreatest
p690
aVcontradiction
p691
aVin
p692
aV[
aVCHARACTER
p693
aV]
aV's
p694
aVcharacter
p695
aVconcerns
p696
aVthe
p697
aVnature
p698
aVof
p699
aVhis
p700
aVexistence
p701
aV.
aa(lp702
V[
aVCHARACTER
p703
aV]
aVclaims
p704
aVto
p705
aVbe
p706
aV``
p707
aVa
aVreal
p708
aV[
aVCHARACTER
p709
aV]
aV''
p710
aVthat
p711
aVlooks
p712
aVand
p713
aVsounds
p714
aVlike
p715
aVan
p716
aVordinary
p717
aV[
aVCHARACTER
p718
aV]
aV(
aVthat
p719
aVis
p720
aV,
aVwhen
p721
aVhe
p722
aVis
p723
aVn't
p724
aVspeaking
p725
aVjapanese
p726
aVwith
p727
aVkatagiri
p728
aV)
aV.
aa(lp729
Vhe
p730
aV's
p731
aValso
p732
aVreal
p733
aVin
p734
aVthe
p735
aVsense
p736
aVthat
p737
aVhe
p738
aVcan
p739
aVhave
p740
aVan
p741
aVeffect
p742
aVon
p743
aVthe
p744
aVworld
p745
aVaround
p746
aVhim
p747
aV,
aVas
p748
aVhe
p749
aVproves
p750
aVwith
p751
aVbig
p752
aVbear
p753
aV.
aa(lp754
Vhowever
p755
aV,
aVreal
p756
aV[
aVCHARACTER
p757
aV]
aVs
aV--
p758
aVthat
p759
aVis
p760
aV,
aVthe
p761
aVanimals
p762
aVwe
p763
aVcommonly
p764
aVsee
p765
aVin
p766
aVlakes
p767
aVand
p768
aVin
p769
aVpet
p770
aVstores
p771
aV--
p772
aVcan
p773
aVnot
p774
aVwalk
p775
aVon
p776
aVtheir
p777
aVhind
p778
aVlegs
p779
aV,
aVspeak
p780
aV,
aVor
p781
aVchange
p782
aVtheir
p783
aVbodily
p784
aVform
p785
aVat
p786
aVwill
p787
aV.
aa(lp788
V[
aVCHARACTER
p789
aV]
aVis
p790
aVclearly
p791
aVa
aVsupernatural
p792
aV,
aVfantastic
p793
aVcreature
p794
aV,
aVand
p795
aVin
p796
aVthat
p797
aVsense
p798
aV,
aVhe
p799
aVcan
p800
aVnot
p801
aVbe
p802
aVreal
p803
aV.
aa(lp804
Vthe
p805
aVquestion
p806
aVof
p807
aV[
aVCHARACTER
p808
aV]
aV's
p809
aVreality
p810
aVis
p811
aVnever
p812
aVtruly
p813
aVresolved
p814
aVin
p815
aV``
p816
aVsuper-
p817
aV[
aVCHARACTER
p818
aV]
aVsaves
p819
aVtokyo
p820
aV,
aV''
p821
aVand
p822
aVthroughout
p823
aVthe
p824
aVstory
p825
aV,
aV[
aVCHARACTER
p826
aV]
aVpoints
p827
aVout
p828
aVseveral
p829
aVphilosophical
p830
aVparadoxes
p831
aVthat
p832
aVmay
p833
aVshed
p834
aVlight
p835
aVon
p836
aVhis
p837
aVexistence
p838
aV,
aVsuch
p839
aVas
p840
aVconrad
p841
aV's
p842
aVassertion
p843
aVthat
p844
aVpeople
p845
aVcan
p846
aVbe
p847
aVterrified
p848
aVmost
p849
aVby
p850
aVtheir
p851
aVown
p852
aVimaginations
p853
aV.
aassS'young man'
p854
(dp855
g20
(lp856
(lp857
V[
aVCHARACTER
p858
aV]
aV-
aVthe
p859
aVman
p860
aVwho
p861
aVshoots
p862
aVkatagiri
p863
aVshortly
p864
aVbefore
p865
aVhe
p866
aV's
p867
aVsupposed
p868
aVto
p869
aVbattle
p870
aVworm
p871
aV.
aa(lp872
Vbecause
p873
aVkatagiri
p874
aVshows
p875
aVno
p876
aVsigns
p877
aVof
p878
aVhaving
p879
aVbeen
p880
aVwounded
p881
aV,
aVit
p882
aVseems
p883
aVlikely
p884
aVthat
p885
aVthe
p886
aV[
aVCHARACTER
p887
aV]
aVis
p888
aVa
aVfigment
p889
aVof
p890
aVkatagiri
p891
aV's
p892
aVimagination
p893
aV.
aasg76
NssS'shiraoka'
p894
(dp895
g20
(lp896
(lp897
V[
aVCHARACTER
p898
aV]
aV-
aVan
p899
aVattorney
p900
aVfor
p901
aVbig
p902
aVbear
p903
aVtrading
p904
aV,
aVa
aVcompany
p905
aVthat
p906
aVhad
p907
aVbeen
p908
aVdefaulting
p909
aVon
p910
aVloan
p911
aVpayments
p912
aVto
p913
aVkatagiri
p914
aV's
p915
aVbank
p916
aV.
aa(lp917
Vafter
p918
aVfrog
p919
aVpays
p920
aVa
aVmysterious
p921
aVvisit
p922
aVto
p923
aVthe
p924
aVcompany
p925
aVleaders
p926
aV,
aV[
aVCHARACTER
p927
aV]
aVis
p928
aVdispatched
p929
aVto
p930
aVtell
p931
aVkatagiri
p932
aVthat
p933
aVbig
p934
aVbear
p935
aVwill
p936
aVpay
p937
aVits
p938
aVdebt
p939
aVas
p940
aVlong
p941
aVas
p942
aVfrog
p943
aVis
p944
aVkept
p945
aVaway
p946
aV.
aasg76
NssS'the nurse'
p947
(dp948
g20
(lp949
(lp950
Vthe
p951
aV[
aVCHARACTER
p952
aV]
aV-
aVa
aVwoman
p953
aVwho
p954
aVtends
p955
aVkatagiri
p956
aVin
p957
aVthe
p958
aVhospital
p959
aVafter
p960
aVhe
p961
aVis
p962
aVfound
p963
aVpassed
p964
aVout
p965
aVin
p966
aVthe
p967
aVstreet
p968
aV.
aa(lp969
Vshe
p970
aVis
p971
aVpatient
p972
aVand
p973
aVmotherly
p974
aVand
p975
aVtreats
p976
aVkatagiri
p977
aVwith
p978
aVgreat
p979
aVsympathy
p980
aV.
aasg76
NsssS'mainText'
p981
(lp982
(lp983
Vsuper-frog
p984
aVsaves
p985
aVtokyo
p986
aVby
p987
aVharuki
p988
aVmurakami
p989
aVtranslated
p990
aVby
p991
aVjay
p992
aVrubin
p993
aVkatagiri
p994
aVfound
p995
aVa
aVgiant
p996
aVfrog
p997
aVwaiting
p998
aVfor
p999
aVhim
p1000
aVin
p1001
aVhis
p1002
aVapartment
p1003
aV.
aa(lp1004
Vit
p1005
aVwas
p1006
aVpowerfully
p1007
aVbuilt
p1008
aV,
aVstanding
p1009
aVover
p1010
aVsix
p1011
aVfeet
p1012
aVtall
p1013
aVon
p1014
aVits
p1015
aVhind
p1016
aVlegs
p1017
aV.
aa(lp1018
Va
aVskinny
p1019
aVlittle
p1020
aVman
p1021
aVno
p1022
aVmore
p1023
aVthan
p1024
aVfive
p1025
aVfoot
p1026
aVthree
p1027
aV,
aVkatagiri
p1028
aVwas
p1029
aVoverwhelmed
p1030
aVby
p1031
aVthe
p1032
aVfrog\u2019s
p1033
aVimposing
p1034
aVbulk
p1035
aV.
aa(lp1036
V\u201ccall
p1037
aVme
p1038
aV\u2018frog
p1039
aV,
aV\u2019\u201d
p1040
aVsaid
p1041
aVthe
p1042
aVfrog
p1043
aVin
p1044
aVa
aVclear
p1045
aV,
aVstrong
p1046
aVvoice
p1047
aV.
aa(lp1048
Vkatagiri
p1049
aVstood
p1050
aVrooted
p1051
aVin
p1052
aVthe
p1053
aVdoorway
p1054
aV,
aVunable
p1055
aVto
p1056
aVspeak
p1057
aV.
aa(lp1058
V\u201cdon\u2019t
p1059
aVbe
p1060
aVafraid
p1061
aV.
aa(lp1062
Vi\u2019m
p1063
aVnot
p1064
aVhere
p1065
aVto
p1066
aVhurt
p1067
aVyou
p1068
aV.
aa(lp1069
Vjust
p1070
aVcome
p1071
aVand
p1072
aVclose
p1073
aVthe
p1074
aVdoor
p1075
aV.
aa(lp1076
Vplease.\u201d
p1077
aVbriefcase
p1078
aVin
p1079
aVhis
p1080
aVright
p1081
aVhand
p1082
aV,
aVgrocery
p1083
aVbag
p1084
aVwith
p1085
aVfresh
p1086
aVvegetables
p1087
aVand
p1088
aVcanned
p1089
aVsalmon
p1090
aVcradled
p1091
aVin
p1092
aVhis
p1093
aVleft
p1094
aVarm
p1095
aV,
aVkatagiri
p1096
aVdidn\u2019t
p1097
aVdare
p1098
aVmove
p1099
aV.
aa(lp1100
V\u201cplease
p1101
aV,
aVmr.
p1102
aVkatagiri
p1103
aV,
aVhurry
p1104
aVand
p1105
aVclose
p1106
aVthe
p1107
aVdoor
p1108
aV,
aVand
p1109
aVtake
p1110
aVoff
p1111
aVyour
p1112
aVshoes.\u201d
p1113
aVthe
p1114
aVsound
p1115
aVof
p1116
aVhis
p1117
aVown
p1118
aVname
p1119
aVhelped
p1120
aVkatagiri
p1121
aVto
p1122
aVsnap
p1123
aVout
p1124
aVof
p1125
aVit
p1126
aV.
aa(lp1127
Vhe
p1128
aVclosed
p1129
aVthe
p1130
aVdoor
p1131
aVas
p1132
aVordered
p1133
aV,
aVset
p1134
aVthe
p1135
aVgrocery
p1136
aVbag
p1137
aVon
p1138
aVthe
p1139
aVraised
p1140
aVwooden
p1141
aVfloor
p1142
aV,
aVpinned
p1143
aVthe
p1144
aVbriefcase
p1145
aVunder
p1146
aVone
p1147
aVarm
p1148
aVand
p1149
aVuntied
p1150
aVhis
p1151
aVshoes
p1152
aV.
aa(lp1153
Vfrog
p1154
aVgestured
p1155
aVfor
p1156
aVhim
p1157
aVto
p1158
aVtake
p1159
aVa
aVseat
p1160
aVat
p1161
aVthe
p1162
aVkitchen
p1163
aVtable
p1164
aV,
aVwhich
p1165
aVhe
p1166
aVdid
p1167
aV.
aa(lp1168
V\u201ci
p1169
aVmust
p1170
aVapologize
p1171
aV,
aVmr.
p1172
aVkatagiri
p1173
aV,
aVfor
p1174
aVhaving
p1175
aVbarged
p1176
aVin
p1177
aVwhile
p1178
aVyou
p1179
aVwere
p1180
aVout
p1181
aV,
aV\u201d
aVfrog
p1182
aVsaid
p1183
aV.
aa(lp1184
V\u201ci
p1185
aVknew
p1186
aVit
p1187
aVwould
p1188
aVbe
p1189
aVa
aVshock
p1190
aVfor
p1191
aVyou
p1192
aVto
p1193
aVfind
p1194
aVme
p1195
aVhere
p1196
aV.
aa(lp1197
Vi
aVbut
p1198
aVhad
p1199
aVno
p1200
aVchoice
p1201
aV.
aa(lp1202
Vhow
p1203
aVabout
p1204
aVa
aVcup
p1205
aVof
p1206
aVtea
p1207
aV?
aa(lp1208
Vi
aVthought
p1209
aVyou
p1210
aVwould
p1211
aVbe
p1212
aVcoming
p1213
aVhome
p1214
aVsoon
p1215
aV,
aVso
p1216
aVi
aVboiled
p1217
aVsome
p1218
aVwater.\u201d
p1219
aVkatagiri
p1220
aVstill
p1221
aVhad
p1222
aVhis
p1223
aVbriefcase
p1224
aVjammed
p1225
aVunder
p1226
aVhis
p1227
aVarm
p1228
aV.
aa(lp1229
Vsomebody\u2019s
p1230
aVplaying
p1231
aVa
aVjoke
p1232
aVon
p1233
aVme
p1234
aV,
aVhe
p1235
aVthought
p1236
aV.
aa(lp1237
Vsomebody\u2019s
p1238
aVrigged
p1239
aVhimself
p1240
aVup
p1241
aVin
p1242
aVthis
p1243
aVhuge
p1244
aVfrog
p1245
aVcostume
p1246
aVjust
p1247
aVto
p1248
aVhave
p1249
aVfun
p1250
aVwith
p1251
aVme
p1252
aV.
aa(lp1253
Vbut
p1254
aVhe
p1255
aVknew
p1256
aV,
aVas
p1257
aVhe
p1258
aVwatched
p1259
aVfrog
p1260
aVpour
p1261
aVboiling
p1262
aVwater
p1263
aVinto
p1264
aVthe
p1265
aVteapot
p1266
aV,
aVhumming
p1267
aVall
p1268
aVthe
p1269
aVwhile
p1270
aV,
aVthat
p1271
aVthese
p1272
aVhad
p1273
aVto
p1274
aVbe
p1275
aVthe
p1276
aVlimbs
p1277
aVand
p1278
aVmovements
p1279
aVof
p1280
aVa
aVreal
p1281
aVfrog
p1282
aV.
aa(lp1283
Vfrog
p1284
aVset
p1285
aVa
aVcup
p1286
aVof
p1287
aVgreen
p1288
aVtea
p1289
aVin
p1290
aVfront
p1291
aVof
p1292
aVkatagiri
p1293
aVand
p1294
aVpoured
p1295
aVanother
p1296
aVone
p1297
aVfor
p1298
aVhimself
p1299
aV.
aa(lp1300
Vsipping
p1301
aVhis
p1302
aVtea
p1303
aV,
aVfrog
p1304
aVasked
p1305
aV,
aV\u201ccalming
p1306
aVdown
p1307
aV?
aV\u201d
aVbut
p1308
aVstill
p1309
aVkatagiri
p1310
aVcould
p1311
aVnot
p1312
aVspeak
p1313
aV.
aa(lp1314
V\u201ci
p1315
aVknow
p1316
aVi
aVshould
p1317
aVhave
p1318
aVmade
p1319
aVan
p1320
aVappointment
p1321
aVto
p1322
aVvisit
p1323
aVyou
p1324
aV,
aVmr.
p1325
aVkatagiri
p1326
aV.
aa(lp1327
Vi
aVam
p1328
aVfully
p1329
aVaware
p1330
aVof
p1331
aVthe
p1332
aVproprieties
p1333
aV.
aa(lp1334
Vanyone
p1335
aVwould
p1336
aVbe
p1337
aVshocked
p1338
aVto
p1339
aVfind
p1340
aVa
aVbig
p1341
aVfrog
p1342
aVwaiting
p1343
aVfor
p1344
aVhim
p1345
aVat
p1346
aVhome
p1347
aV.
aa(lp1348
Vbut
p1349
aVan
p1350
aVurgent
p1351
aVmatter
p1352
aVbrings
p1353
aVme
p1354
aVhere
p1355
aV.
aa(lp1356
Vplease
p1357
aVforgive
p1358
aVme.\u201d
p1359
aV\u201curgent
p1360
aVmatter
p1361
aV?
aV\u201d
aVkatagiri
p1362
aVmanaged
p1363
aVto
p1364
aVproduce
p1365
aVwords
p1366
aVat
p1367
aVlast
p1368
aV.
aa(lp1369
V\u201cyes
p1370
aV,
aVindeed
p1371
aV,
aV\u201d
aVfrog
p1372
aVsaid
p1373
aV.
aa(lp1374
V\u201cwhy
p1375
aVelse
p1376
aVwould
p1377
aVi
aVtake
p1378
aVthe
p1379
aVliberty
p1380
aVof
p1381
aVbarging
p1382
aVinto
p1383
aVa
aVperson\u2019s
p1384
aVhome
p1385
aV?
aa(lp1386
Vsuch
p1387
aVdiscourtesy
p1388
aVis
p1389
aVnot
p1390
aVmy
p1391
aVcustomary
p1392
aVstyle.\u201d
p1393
aV\u201cdoes
p1394
aVthis
p1395
aV\u2018matter\u2019
p1396
aVhave
p1397
aVsomething
p1398
aVto
p1399
aVdo
p1400
aVwith
p1401
aVme
p1402
aV?
aV\u201d
aV\u201cyes
p1403
aVand
p1404
aVno.\u201d
p1405
aVfrog
p1406
aVsaid
p1407
aVwith
p1408
aVa
aVtilt
p1409
aVof
p1410
aVthe
p1411
aVhead
p1412
aV.
aa(lp1413
V\u201cno
p1414
aVand
p1415
aVyes.\u201d
p1416
aVi\u2019ve
p1417
aVgot
p1418
aVto
p1419
aVget
p1420
aVa
aVgrip
p1421
aVon
p1422
aVmyself
p1423
aVthought
p1424
aVkatagiri
p1425
aV.
aa(lp1426
V\u201cdo
p1427
aVyou
p1428
aVmind
p1429
aVif
p1430
aVi
aVsmoke
p1431
aV?
aV\u201d
aV\u201cnot
p1432
aVat
p1433
aVall
p1434
aV,
aVnot
p1435
aVat
p1436
aVall
p1437
aV,
aV\u201d
aVfrog
p1438
aVsaid
p1439
aVwith
p1440
aVa
aVsmile
p1441
aV.
aa(lp1442
V\u201cit\u2019s
p1443
aVyour
p1444
aVhome
p1445
aV.
aa(lp1446
Vyou
p1447
aVdon\u2019t
p1448
aVhave
p1449
aVto
p1450
aVask
p1451
aVmy
p1452
aVpermission
p1453
aV.
aa(lp1454
Vsmoke
p1455
aVand
p1456
aVdrink
p1457
aVas
p1458
aVmuch
p1459
aVas
p1460
aVyou
p1461
aVlike
p1462
aV.
aa(lp1463
Vi
aVmyself
p1464
aVam
p1465
aVnot
p1466
aVa
aVsmoker
p1467
aV,
aVbut
p1468
aVi
aVcan
p1469
aVhardly
p1470
aVimpose
p1471
aVmy
p1472
aVdistaste
p1473
aVfor
p1474
aVtobacco
p1475
aVon
p1476
aVothers
p1477
aVin
p1478
aVtheir
p1479
aVown
p1480
aVhomes.\u201d
p1481
aVkatagiri
p1482
aVpulled
p1483
aVa
aVpack
p1484
aVof
p1485
aVcigarettes
p1486
aVfrom
p1487
aVhis
p1488
aVcoat
p1489
aVpocket
p1490
aVand
p1491
aVstruck
p1492
aVa
aVmarch
p1493
aV.
aa(lp1494
Vhe
p1495
aVsaw
p1496
aVhis
p1497
aVhand
p1498
aVtrembling
p1499
aVas
p1500
aVhe
p1501
aVlit
p1502
aVup
p1503
aV.
aa(lp1504
Vseated
p1505
aVopposite
p1506
aVhim
p1507
aV,
aVfrog
p1508
aVseemed
p1509
aVto
p1510
aVhe
p1511
aVstudying
p1512
aVhis
p1513
aVevery
p1514
aVmovement
p1515
aV.
aa(lp1516
V\u201cyou
p1517
aVdon\u2019t
p1518
aVhappen
p1519
aVto
p1520
aVbe
p1521
aVconnected
p1522
aVwith
p1523
aVsome
p1524
aVkind
p1525
aVof
p1526
aVgang
p1527
aVby
p1528
aVany
p1529
aVchance
p1530
aV?
aV\u201d
aVkatagiri
p1531
aVfound
p1532
aVthe
p1533
aVcourage
p1534
aVto
p1535
aVask
p1536
aV.
aa(lp1537
V\u201cha
p1538
aVha
p1539
aVha
p1540
aVha
p1541
aVha
p1542
aVha
p1543
aV!
aa(lp1544
Vwhat
p1545
aVa
aVwonderful
p1546
aVsense
p1547
aVof
p1548
aVhumor
p1549
aVyou
p1550
aVhave
p1551
aV,
aVmr.
p1552
aVkatagiri
p1553
aV!
aV\u201d
aVfrog
p1554
aVsaid
p1555
aV,
aVslapping
p1556
aVhis
p1557
aVwebbed
p1558
aVhand
p1559
aVagainst
p1560
aVhis
p1561
aVthigh
p1562
aV.
aa(lp1563
V\u201cthere
p1564
aVmay
p1565
aVbe
p1566
aVa
aVshortage
p1567
aVof
p1568
aVskilled
p1569
aVlabor
p1570
aV,
aVbut
p1571
aVwhat
p1572
aVgang
p1573
aVis
p1574
aVgoing
p1575
aVto
p1576
aVhire
p1577
aVa
aVfrog
p1578
aVto
p1579
aVdo
p1580
aVtheir
p1581
aVdirty
p1582
aVwork
p1583
aV?
aa(lp1584
Vthey\u2019d
p1585
aVbe
p1586
aVmade
p1587
aVa
aVlaughingstock.\u201d
p1588
aV\u201cwell
p1589
aV,
aVif
p1590
aVyou\u2019re
p1591
aVhere
p1592
aVto
p1593
aVnegotiate
p1594
aVa
aVrepayment
p1595
aV,
aVyou\u2019re
p1596
aVwasting
p1597
aVyour
p1598
aVtime
p1599
aV.
aa(lp1600
Vi
aVhave
p1601
aVno
p1602
aVauthority
p1603
aVto
p1604
aVmake
p1605
aVsuch
p1606
aVdecisions
p1607
aV.
aa(lp1608
Vonly
p1609
aVmy
p1610
aVsuperiors
p1611
aVcan
p1612
aVdo
p1613
aVthat
p1614
aV,
aVi
aVjust
p1615
aVfollow
p1616
aVorders
p1617
aV.
aa(lp1618
Vi
aVcan\u2019t
p1619
aVdo
p1620
aVa
aVthing
p1621
aVfor
p1622
aVyou.\u201d
p1623
aV\u201cplease
p1624
aV,
aVmr.
p1625
aVkatagiri
p1626
aV,
aV\u201d
aVfrog
p1627
aVsaid
p1628
aV,
aVraising
p1629
aVone
p1630
aVwebbed
p1631
aVfinger
p1632
aV.
aa(lp1633
V\u201ci
p1634
aVhave
p1635
aVnot
p1636
aVcome
p1637
aVhere
p1638
aVon
p1639
aVsuch
p1640
aVpetty
p1641
aVbusiness
p1642
aV.
aa(lp1643
Vi
aVam
p1644
aVfully
p1645
aVaware
p1646
aVthat
p1647
aVyou
p1648
aVare
p1649
aVassistant
p1650
aVchief
p1651
aVof
p1652
aVthe
p1653
aVlending
p1654
aVdivision
p1655
aVof
p1656
aVthe
p1657
aVshinjuku
p1658
aVbranch
p1659
aVof
p1660
aVthe
p1661
aVtokyo
p1662
aVsecurity
p1663
aVtrust
p1664
aVbank
p1665
aV.
aa(lp1666
Vbut
p1667
aVmy
p1668
aVvisit
p1669
aVhas
p1670
aVnothing
p1671
aVto
p1672
aVdo
p1673
aVwith
p1674
aVthe
p1675
aVrepayment
p1676
aVof
p1677
aVloans
p1678
aV.
aa(lp1679
Vi
aVhave
p1680
aVcome
p1681
aVhere
p1682
aVto
p1683
aVsave
p1684
aVtokyo
p1685
aVfrom
p1686
aVdestruction.\u201d
p1687
aVkatagiri
p1688
aVscanned
p1689
aVthe
p1690
aVroom
p1691
aVfor
p1692
aVa
aVhidden
p1693
aVtv
p1694
aVcamera
p1695
aVin
p1696
aVcase
p1697
aVhe
p1698
aVwas
p1699
aVbeing
p1700
aVmade
p1701
aVthe
p1702
aVburr
p1703
aVof
p1704
aVsome
p1705
aVhuge
p1706
aV,
aVterrible
p1707
aVjoke
p1708
aV.
aa(lp1709
Vbut
p1710
aVthere
p1711
aVwas
p1712
aVno
p1713
aVcamera
p1714
aV.
aa(lp1715
Vit
p1716
aVwas
p1717
aVa
aVsmall
p1718
aVapartment
p1719
aV.
aa(lp1720
Vthere
p1721
aVwas
p1722
aVno
p1723
aVplace
p1724
aVfor
p1725
aVanyone
p1726
aVto
p1727
aVhide
p1728
aV.
aa(lp1729
V\u201cno
p1730
aV,
aV\u201d
aVfrog
p1731
aVsaid
p1732
aV.
aa(lp1733
V\u201cwe
p1734
aVare
p1735
aVthe
p1736
aVonly
p1737
aVones
p1738
aVhere
p1739
aV.
aa(lp1740
Vi
aVknow
p1741
aVyou
p1742
aVare
p1743
aVthinking
p1744
aVthat
p1745
aVi
aVmust
p1746
aVbe
p1747
aVmad
p1748
aVor
p1749
aVthat
p1750
aVyou
p1751
aVare
p1752
aVhaving
p1753
aVsome
p1754
aVkind
p1755
aVof
p1756
aVdream
p1757
aV,
aVbut
p1758
aVi
aVam
p1759
aVnot
p1760
aVcrazy
p1761
aVand
p1762
aVyou
p1763
aVare
p1764
aVnot
p1765
aVdreaming
p1766
aV.
aa(lp1767
Vthis
p1768
aVis
p1769
aVabsolutely
p1770
aV,
aVpositively
p1771
aVserious.\u201d
p1772
aV\u201cto
p1773
aVtell
p1774
aVyou
p1775
aVthe
p1776
aVtruth
p1777
aV,
aVmr.
p1778
aVfrog
p1779
aV--
p1780
aV.\u201d
p1781
aV\u201cplease
p1782
aV,
aV\u201d
aVfrog
p1783
aVsaid
p1784
aV,
aVraising
p1785
aVone
p1786
aVfinger
p1787
aVagain
p1788
aV.
aa(lp1789
V\u201ccall
p1790
aVme
p1791
aV\u2018frog\u2019.\u201d
p1792
aV\u201cto
p1793
aVtell
p1794
aVyou
p1795
aVthe
p1796
aVtruth
p1797
aV,
aVfrog
p1798
aV,
aV\u201d
aVkatagiri
p1799
aVsaid
p1800
aV,
aV\u201ci
p1801
aVcan\u2019t
p1802
aVquite
p1803
aVunderstand
p1804
aVwhat
p1805
aVis
p1806
aVgoing
p1807
aVon
p1808
aVhere
p1809
aV.
aa(lp1810
Vit\u2019s
p1811
aVnot
p1812
aVthat
p1813
aVi
aVdon\u2019t
p1814
aVtrust
p1815
aVyou
p1816
aV,
aVbut
p1817
aVi
aVdon\u2019t
p1818
aVseem
p1819
aVto
p1820
aVbe
p1821
aVable
p1822
aVto
p1823
aVgrasp
p1824
aVthe
p1825
aVsituation
p1826
aVexactly
p1827
aV.
aa(lp1828
Vdo
p1829
aVyou
p1830
aVmind
p1831
aVif
p1832
aVi
aVask
p1833
aVyou
p1834
aVa
aVquestion
p1835
aVor
p1836
aVtwo
p1837
aV?
aV\u201d
aV\u201cnot
p1838
aVat
p1839
aVall
p1840
aV,
aVnot
p1841
aVat
p1842
aVall
p1843
aV,
aV\u201d
aVfrog
p1844
aVsaid
p1845
aV.
aa(lp1846
V\u201cmutual
p1847
aVunderstanding
p1848
aVis
p1849
aVof
p1850
aVcritical
p1851
aVimportance
p1852
aV.
aa(lp1853
Vthere
p1854
aVare
p1855
aVthose
p1856
aVwho
p1857
aVsay
p1858
aVthat
p1859
aV\u2018understanding\u2019
p1860
aVis
p1861
aVmerely
p1862
aVthe
p1863
aVsum
p1864
aVtotal
p1865
aVof
p1866
aVour
p1867
aVmisunderstandings
p1868
aV,
aVand
p1869
aVwhile
p1870
aVi
aVdo
p1871
aVfind
p1872
aVthis
p1873
aVview
p1874
aVinteresting
p1875
aVin
p1876
aVits
p1877
aVown
p1878
aVway
p1879
aV,
aVi
aVam
p1880
aVafraid
p1881
aVwe
p1882
aVhave
p1883
aVno
p1884
aVtime
p1885
aVto
p1886
aVspare
p1887
aVon
p1888
aVpleasant
p1889
aVdigressions
p1890
aV.
aa(lp1891
Vthe
p1892
aVbest
p1893
aVthing
p1894
aVwould
p1895
aVbe
p1896
aVfor
p1897
aVus
p1898
aVto
p1899
aVachieve
p1900
aVmutual
p1901
aVunderstanding
p1902
aVvia
p1903
aVthe
p1904
aVshortest
p1905
aVpossible
p1906
aVroute
p1907
aV.
aa(lp1908
Vtherefore
p1909
aV,
aVby
p1910
aVall
p1911
aVmeans
p1912
aV,
aVask
p1913
aVas
p1914
aVmany
p1915
aVquestions
p1916
aVas
p1917
aVyou
p1918
aVwish.\u201d
p1919
aV\u201cnow
p1920
aV;
aVyou
p1921
aVare
p1922
aVa
aVreal
p1923
aVfrog
p1924
aV,
aVam
p1925
aVi
aVright
p1926
aV?
aV\u201d
aV\u201cyes
p1927
aV,
aVof
p1928
aVcourse
p1929
aV,
aVas
p1930
aVyou
p1931
aVcan
p1932
aVsee
p1933
aV.
aa(lp1934
Va
aVreal
p1935
aVfrog
p1936
aVis
p1937
aVexactly
p1938
aVwhat
p1939
aVi
aVam
p1940
aV.
aa(lp1941
Va
aVproduct
p1942
aVneither
p1943
aVof
p1944
aVmetaphor
p1945
aVnor
p1946
aVallusion
p1947
aVnor
p1948
aVdeconstruction
p1949
aVnor
p1950
aVsampling
p1951
aVnor
p1952
aVany
p1953
aVother
p1954
aVsuch
p1955
aVcomplex
p1956
aVprocess
p1957
aV,
aVi
aVam
p1958
aVa
aVgenuine
p1959
aVfrog
p1960
aV.
aa(lp1961
Vshall
p1962
aVi
aVcroak
p1963
aVfor
p1964
aVyou
p1965
aV?
aV\u201d
aVfrog
p1966
aVtilted
p1967
aVback
p1968
aVhis
p1969
aVhead
p1970
aVand
p1971
aVflexed
p1972
aVthe
p1973
aVmuscles
p1974
aVof
p1975
aVhis
p1976
aVhuge
p1977
aVthroat
p1978
aVribit
p1979
aV,
aVri-i-i-bit
p1980
aV,
aVribit
p1981
aVribit
p1982
aVribit
p1983
aVribit
p1984
aVribit
p1985
aVri-i-i
p1986
aVbit
p1987
aV.
aa(lp1988
Vhis
p1989
aVgigantic
p1990
aVcroaks
p1991
aVrattled
p1992
aVthe
p1993
aVpictures
p1994
aVhanging
p1995
aVon
p1996
aVthe
p1997
aVwalls
p1998
aV.
aa(lp1999
V\u201cfine
p2000
aV,
aVi
aVsee
p2001
aV,
aVi
aVsee
p2002
aV!
aV\u201d
aVkatagiri
p2003
aVsaid
p2004
aV,
aVworried
p2005
aVabout
p2006
aVthe
p2007
aVthin
p2008
aVwalls
p2009
aVof
p2010
aVthe
p2011
aVcheap
p2012
aVapartment
p2013
aVhouse
p2014
aVin
p2015
aVwhich
p2016
aVhe
p2017
aVlived
p2018
aV.
aa(lp2019
V\u201cthat\u2019s
p2020
aVgreat
p2021
aV.
aa(lp2022
Vyou
p2023
aVare
p2024
aV,
aVwithout
p2025
aVquestion
p2026
aVa
aVreal
p2027
aVfrog.\u201d
p2028
aV\u201cone
p2029
aVmight
p2030
aValso
p2031
aVsay
p2032
aVthat
p2033
aVi
aVam
p2034
aVthe
p2035
aVsum
p2036
aVtotal
p2037
aVof
p2038
aVall
p2039
aVfrogs
p2040
aV.
aa(lp2041
Vnonetheless
p2042
aV,
aVthis
p2043
aVdoes
p2044
aVnothing
p2045
aVto
p2046
aVchange
p2047
aVthe
p2048
aVfact
p2049
aVthat
p2050
aVi
aVam
p2051
aVa
aVfrog
p2052
aV.
aa(lp2053
Vanyone
p2054
aVclaiming
p2055
aVthat
p2056
aVi
aVam
p2057
aVnot
p2058
aVa
aVfrog
p2059
aVwould
p2060
aVbe
p2061
aVa
aVdirty
p2062
aVliar
p2063
aV.
aa(lp2064
Vi
aVwould
p2065
aVsmash
p2066
aVsuch
p2067
aVa
aVperson
p2068
aVto
p2069
aVbits
p2070
aV!
aV\u201d
aVkatagiri
p2071
aVnodded
p2072
aV.
aa(lp2073
Vhoping
p2074
aVto
p2075
aVcalm
p2076
aVhimself
p2077
aV,
aVhe
p2078
aVpicked
p2079
aVup
p2080
aVhis
p2081
aVcup
p2082
aVand
p2083
aVswallowed
p2084
aVa
aVmouthful
p2085
aVof
p2086
aVtea
p2087
aV.
aa(lp2088
V\u201cyou
p2089
aVsaid
p2090
aVbefore
p2091
aVthat
p2092
aVyou
p2093
aVhave
p2094
aVcome
p2095
aVhere
p2096
aVto
p2097
aVsave
p2098
aVtokyo
p2099
aVfrom
p2100
aVdestruction
p2101
aV?
aV\u201d
aV\u201cthat
p2102
aVis
p2103
aVwhat
p2104
aVi
aVsaid.\u201d
p2105
aV\u201cwhat
p2106
aVkind
p2107
aVof
p2108
aVdestruction
p2109
aV?
aV\u201d
aV\u201cearthquake
p2110
aV,
aV\u201d
aVfrog
p2111
aVsaid
p2112
aVwith
p2113
aVthe
p2114
aVutmost
p2115
aVgravity
p2116
aV.
aa(lp2117
Vmouth
p2118
aVdropping
p2119
aVopen
p2120
aV,
aVkatagiri
p2121
aVlooked
p2122
aVat
p2123
aVfrog
p2124
aV.
aa(lp2125
Vand
p2126
aVfrog
p2127
aV,
aVsaying
p2128
aVnothing
p2129
aV,
aVlooked
p2130
aVat
p2131
aVkatagiri
p2132
aV.
aa(lp2133
Vthey
p2134
aVwent
p2135
aVon
p2136
aVstaring
p2137
aVat
p2138
aVeach
p2139
aVother
p2140
aVlike
p2141
aVthis
p2142
aVfor
p2143
aVsome
p2144
aVtime
p2145
aV.
aa(lp2146
Vnext
p2147
aVit
p2148
aVwas
p2149
aVfrog\u2019s
p2150
aVturn
p2151
aVto
p2152
aVopen
p2153
aVhis
p2154
aVmouth
p2155
aV.
aa(lp2156
V\u201ca
p2157
aVvery
p2158
aV,
aVvery
p2159
aVbig
p2160
aVearthquake
p2161
aV.
aa(lp2162
Vit
p2163
aVis
p2164
aVset
p2165
aVto
p2166
aVstrike
p2167
aVtokyo
p2168
aVat
p2169
aV8:30
p2170
aVa.m.
p2171
aVon
p2172
aVfebruary
p2173
aV18.
p2174
aVthree
p2175
aVdays
p2176
aVfrom
p2177
aVnow
p2178
aV.
aa(lp2179
Va
aVmuch
p2180
aVbigger
p2181
aVearthquake
p2182
aVthan
p2183
aVthe
p2184
aVone
p2185
aVthat
p2186
aVstruck
p2187
aVkobe
p2188
aVlast
p2189
aVmonth
p2190
aV.
aa(lp2191
Vthe
p2192
aVnumber
p2193
aVof
p2194
aVdead
p2195
aVfrom
p2196
aVsuch
p2197
aVa
aVquake
p2198
aVwould
p2199
aVprobably
p2200
aVexceed
p2201
aV150,000\u2014mostly
p2202
aVfrom
p2203
aVaccidents
p2204
aVinvolving
p2205
aVthe
p2206
aVcommuter
p2207
aVsystem
p2208
aV:
aVderailments
p2209
aV,
aVfalling
p2210
aVvehicles
p2211
aV,
aVcrashes
p2212
aV,
aVthe
p2213
aVcollapse
p2214
aVof
p2215
aVelevated
p2216
aVexpressways
p2217
aVand
p2218
aVrail
p2219
aVlines
p2220
aV,
aVthe
p2221
aVcrushing
p2222
aVof
p2223
aVsubways
p2224
aV,
aVthe
p2225
aVexplosion
p2226
aVof
p2227
aVtanker
p2228
aVtrucks
p2229
aV.
aa(lp2230
Vbuildings
p2231
aVwill
p2232
aVbe
p2233
aVtransformed
p2234
aVinto
p2235
aVpiles
p2236
aVof
p2237
aVrubble
p2238
aV,
aVtheir
p2239
aVinhabitants
p2240
aVcrushed
p2241
aVto
p2242
aVdeath
p2243
aV.
aa(lp2244
Vfires
p2245
aVeverywhere
p2246
aV,
aVthe
p2247
aVroad
p2248
aVsystem
p2249
aVin
p2250
aVa
aVstare
p2251
aVof
p2252
aVcollapse
p2253
aV,
aVambulances
p2254
aVand
p2255
aVfire
p2256
aVtrucks
p2257
aVuseless
p2258
aV,
aVpeople
p2259
aVjust
p2260
aVlying
p2261
aVthere
p2262
aV,
aVdying
p2263
aV.
aa(lp2264
Vone
p2265
aVhundred
p2266
aVand
p2267
aVfifty
p2268
aVthousand
p2269
aVof
p2270
aVthem
p2271
aV!
aa(lp2272
Vpure
p2273
aVhell
p2274
aV.
aa(lp2275
Vpeople
p2276
aVwill
p2277
aVbe
p2278
aVmade
p2279
aVto
p2280
aVrealize
p2281
aVwhat
p2282
aVa
aVfragile
p2283
aVcondition
p2284
aVthe
p2285
aVintensive
p2286
aVcollectivity
p2287
aVknown
p2288
aVas
p2289
aV\u2018city\u2019
p2290
aVreally
p2291
aVis.\u201d
p2292
aVfrog
p2293
aVsaid
p2294
aVthis
p2295
aVwith
p2296
aVa
aVgentle
p2297
aVshake
p2298
aVof
p2299
aVthe
p2300
aVbead
p2301
aV.
aa(lp2302
V\u201cthe
p2303
aVepicenter
p2304
aVwill
p2305
aVbe
p2306
aVclose
p2307
aVto
p2308
aVthe
p2309
aVshinjuku
p2310
aVward
p2311
aVoffice.\u201d
p2312
aV\u201cclose
p2313
aVto
p2314
aVthe
p2315
aVshinjuku
p2316
aVward
p2317
aVoffice
p2318
aV?
aV\u201d
aV\u201cto
p2319
aVbe
p2320
aVprecise
p2321
aV,
aVit
p2322
aVwill
p2323
aVhit
p2324
aVdirectly
p2325
aVbeneath
p2326
aVthe
p2327
aVshinjuku
p2328
aVbranch
p2329
aVof
p2330
aVthe
p2331
aVtokyo
p2332
aVsecurity
p2333
aVtrust
p2334
aVbank.\u201d
p2335
aVa
aVheavy
p2336
aVsilence
p2337
aVfollowed
p2338
aV.
aa(lp2339
V\u201cand
p2340
aVyou
p2341
aV,
aV\u201d
aVkatagiri
p2342
aVsaid
p2343
aV,
aV\u201care
p2344
aVplanning
p2345
aVto
p2346
aVstop
p2347
aVthis
p2348
aVearthquake
p2349
aV?
aV\u201d
aV\u201cexactly\u201d
p2350
aVfrog
p2351
aVsaid
p2352
aV,
aVnodding
p2353
aV.
aa(lp2354
V\u201cthat
p2355
aVis
p2356
aVexactly
p2357
aVwhat
p2358
aVi
aVpropose
p2359
aVto
p2360
aVdo
p2361
aV.
aa(lp2362
Vyou
p2363
aVand
p2364
aVi
aVwill
p2365
aVgo
p2366
aVunderground
p2367
aVbeneath
p2368
aVthe
p2369
aVshinjuku
p2370
aVbranch
p2371
aVof
p2372
aVthe
p2373
aVtokyo
p2374
aVsecurity
p2375
aVtrust
p2376
aVbank
p2377
aVto
p2378
aVdo
p2379
aVmortal
p2380
aVcombat
p2381
aVwith
p2382
aVworm.\u201d
p2383
aV*
aV*
aV*
aV*
aV*
aV*
aVas
p2384
aVa
aVmember
p2385
aVof
p2386
aVthe
p2387
aVtrust
p2388
aVbank
p2389
aVlending
p2390
aVdivision
p2391
aV,
aVkatagiri
p2392
aVhad
p2393
aVfought
p2394
aVhis
p2395
aVway
p2396
aVthrough
p2397
aVmany
p2398
aVa
aVbattle
p2399
aV.
aa(lp2400
Vhe
p2401
aVhad
p2402
aVweathered
p2403
aVsixteen
p2404
aVyears
p2405
aVof
p2406
aVdaily
p2407
aVcombat
p2408
aVsince
p2409
aVthe
p2410
aVday
p2411
aVhe
p2412
aVgraduated
p2413
aVfrom
p2414
aVthe
p2415
aVuniversity
p2416
aVand
p2417
aVjoined
p2418
aVthe
p2419
aVbank\u2019s
p2420
aVstaff
p2421
aV.
aa(lp2422
Vhe
p2423
aVwas
p2424
aV,
aVin
p2425
aVa
aVword
p2426
aV,
aVa
aVcollection
p2427
aVofficer
p2428
aV--
p2429
aVa
aVpost
p2430
aVthat
p2431
aVwon
p2432
aVhim
p2433
aVlittle
p2434
aVpopularity
p2435
aV.
aa(lp2436
Veveryone
p2437
aVin
p2438
aVhis
p2439
aVdivision
p2440
aVpreferred
p2441
aVto
p2442
aVmake
p2443
aVloans
p2444
aV,
aVespecially
p2445
aVat
p2446
aVthe
p2447
aVtime
p2448
aVof
p2449
aVthe
p2450
aVbubble
p2451
aV.
aa(lp2452
Vthey
p2453
aVhad
p2454
aVso
p2455
aVmuch
p2456
aVmoney
p2457
aVin
p2458
aVthose
p2459
aVdays
p2460
aVthat
p2461
aValmost
p2462
aVany
p2463
aVlikely
p2464
aVpiece
p2465
aVof
p2466
aVcollateral
p2467
aV--
p2468
aVbe
p2469
aVit
p2470
aVland
p2471
aVor
p2472
aVstock-
p2473
aV-was
p2474
aVenough
p2475
aVto
p2476
aVconvince
p2477
aVloan
p2478
aVofficers
p2479
aVto
p2480
aVgive
p2481
aVaway
p2482
aVwhatever
p2483
aVthey
p2484
aVwere
p2485
aVasked
p2486
aVfor
p2487
aV,
aVthe
p2488
aVbigger
p2489
aVthe
p2490
aVloan
p2491
aVthe
p2492
aVbetter
p2493
aVtheir
p2494
aVreputations
p2495
aVin
p2496
aVthe
p2497
aVcompany
p2498
aV.
aa(lp2499
Vsome
p2500
aVloans
p2501
aV,
aVthough
p2502
aV,
aVnever
p2503
aVmade
p2504
aVit
p2505
aVback
p2506
aVto
p2507
aVthe
p2508
aVbank
p2509
aV:
aVthey
p2510
aVgot
p2511
aV\u201cstuck
p2512
aVto
p2513
aVthe
p2514
aVbottom
p2515
aVof
p2516
aVthe
p2517
aVpan.\u201d
p2518
aVit
p2519
aVwas
p2520
aVkatagiri\u2019s
p2521
aVjob
p2522
aVto
p2523
aVtake
p2524
aVcare
p2525
aVof
p2526
aVthose
p2527
aV.
aa(lp2528
Vand
p2529
aVwhen
p2530
aVthe
p2531
aVbubble
p2532
aVburst
p2533
aV,
aVthe
p2534
aVwork
p2535
aVpiled
p2536
aVon
p2537
aV.
aa(lp2538
Vfirst
p2539
aVstock
p2540
aVprices
p2541
aVfell
p2542
aV,
aVand
p2543
aVthen
p2544
aVland
p2545
aVvalues
p2546
aV,
aVand
p2547
aVcollateral
p2548
aVlost
p2549
aVall
p2550
aVsignificance
p2551
aV.
aa(lp2552
V\u201cget
p2553
aVout
p2554
aVthere
p2555
aV,
aV\u201d
aVhis
p2556
aVboss
p2557
aVcommanded
p2558
aVhim
p2559
aV,
aV\u201cand
p2560
aVsqueeze
p2561
aVwhatever
p2562
aVyou
p2563
aVcan
p2564
aVout
p2565
aVof
p2566
aVthem.\u201d
p2567
aVthe
p2568
aVkabukicho
p2569
aVneighborhood
p2570
aVof
p2571
aVshinjuku
p2572
aVwas
p2573
aVa
aVlabyrinth
p2574
aVof
p2575
aVviolence
p2576
aV:
aVold-time
p2577
aVgangsters
p2578
aV,
aVkorean
p2579
aVmobsters
p2580
aV,
aVchinese
p2581
aVmafia
p2582
aV,
aVguns
p2583
aVand
p2584
aVdrugs
p2585
aV,
aVmoney
p2586
aVflowing
p2587
aVbeneath
p2588
aVthe
p2589
aVsurface
p2590
aVfrom
p2591
aVone
p2592
aVmurky
p2593
aVden
p2594
aVto
p2595
aVanother
p2596
aV,
aVpeople
p2597
aVvanishing
p2598
aVevery
p2599
aVnow
p2600
aVand
p2601
aVthen
p2602
aVlike
p2603
aVpuffs
p2604
aVof
p2605
aVsmoke
p2606
aV.
aa(lp2607
Vplunging
p2608
aVinto
p2609
aVkabukicho
p2610
aVto
p2611
aVcollect
p2612
aVa
aVbad
p2613
aVdebt
p2614
aV,
aVkatagiri
p2615
aVhad
p2616
aVbeen
p2617
aVsurrounded
p2618
aVmore
p2619
aVthan
p2620
aVonce
p2621
aVby
p2622
aVmobsters
p2623
aVthreatening
p2624
aVto
p2625
aVkill
p2626
aVhim
p2627
aV,
aVbut
p2628
aVhe
p2629
aVhad
p2630
aVnever
p2631
aVbeen
p2632
aVfrightened
p2633
aV.
aa(lp2634
Vwhat
p2635
aVgood
p2636
aVwould
p2637
aVit
p2638
aVhave
p2639
aVdone
p2640
aVthem
p2641
aVto
p2642
aVkill
p2643
aVone
p2644
aVman
p2645
aVrunning
p2646
aVaround
p2647
aVfor
p2648
aVthe
p2649
aVbank
p2650
aV?
aa(lp2651
Vthey
p2652
aVcould
p2653
aVstab
p2654
aVhim
p2655
aVif
p2656
aVthey
p2657
aVwanted
p2658
aVto
p2659
aV.
aa(lp2660
Vthey
p2661
aVcould
p2662
aVbeat
p2663
aVhim
p2664
aVup
p2665
aV.
aa(lp2666
Vhe
p2667
aVwas
p2668
aVperfect
p2669
aVfor
p2670
aVthe
p2671
aVjob
p2672
aV:
aVno
p2673
aVwife
p2674
aV,
aVno
p2675
aVkids
p2676
aV,
aVboth
p2677
aVparents
p2678
aVdead
p2679
aV,
aVa
aVbrother
p2680
aVand
p2681
aVsister
p2682
aVhe
p2683
aVhad
p2684
aVput
p2685
aVthrough
p2686
aVcollege
p2687
aVmarried
p2688
aVoff
p2689
aV.
aa(lp2690
Vso
p2691
aVwhat
p2692
aVif
p2693
aVthey
p2694
aVkilled
p2695
aVhim
p2696
aV?
aa(lp2697
Vit
p2698
aVwouldn\u2019t
p2699
aVchange
p2700
aVanything
p2701
aVfor
p2702
aVanybody\u2014least
p2703
aVof
p2704
aVall
p2705
aVfor
p2706
aVkatagiri
p2707
aVhimself
p2708
aV.
aa(lp2709
Vit
p2710
aVwas
p2711
aVnot
p2712
aVkatagiri
p2713
aVbut
p2714
aVthe
p2715
aVthugs
p2716
aVsurrounding
p2717
aVhim
p2718
aVwho
p2719
aVgot
p2720
aVnervous
p2721
aVwhen
p2722
aVthey
p2723
aVsaw
p2724
aVhim
p2725
aVso
p2726
aVcalm
p2727
aVand
p2728
aVcool
p2729
aV.
aa(lp2730
Vhe
p2731
aVsoon
p2732
aVearned
p2733
aVa
aVkind
p2734
aVof
p2735
aVreputation
p2736
aVin
p2737
aVtheir
p2738
aVworld
p2739
aVas
p2740
aVa
aVtough
p2741
aVguy
p2742
aV.
aa(lp2743
Vnow
p2744
aV,
aVthough
p2745
aV,
aVthe
p2746
aVtough
p2747
aVkatagiri
p2748
aVwas
p2749
aVat
p2750
aVa
aVtotal
p2751
aVloss
p2752
aV.
aa(lp2753
Vwhat
p2754
aVthe
p2755
aVhell
p2756
aVwas
p2757
aVthis
p2758
aVfrog
p2759
aVtalking
p2760
aVabout
p2761
aV?
aa(lp2762
V\u201cworm
p2763
aV?
aa(lp2764
Vwho
p2765
aVis
p2766
aVworm
p2767
aV?
aV\u201d
aVhe
p2768
aVasked
p2769
aVwith
p2770
aVsome
p2771
aVhesitation
p2772
aV.
aa(lp2773
V\u201cworm
p2774
aVlives
p2775
aVunderground
p2776
aV.
aa(lp2777
Vhe
p2778
aVis
p2779
aVa
aVgigantic
p2780
aVworm
p2781
aV.
aa(lp2782
Vwhen
p2783
aVhe
p2784
aVgets
p2785
aVangry
p2786
aV,
aVhe
p2787
aVcauses
p2788
aVearthquakes
p2789
aV,
aV\u201d
aVfrog
p2790
aVsaid
p2791
aV.
aa(lp2792
V\u201cand
p2793
aVright
p2794
aVnow
p2795
aVhe
p2796
aVis
p2797
aVvery
p2798
aV,
aVvery
p2799
aVangry.\u201d
p2800
aV\u201cwhat
p2801
aVis
p2802
aVhe
p2803
aVangry
p2804
aVabout
p2805
aV?
aV\u201d
aVkatagiri
p2806
aVasked
p2807
aV.
aa(lp2808
V\u201ci
p2809
aVhave
p2810
aVno
p2811
aVidea
p2812
aV,
aV\u201d
aVfrog
p2813
aVsaid
p2814
aV.
aa(lp2815
V\u201cnobody
p2816
aVknows
p2817
aVwhat
p2818
aVworm
p2819
aVis
p2820
aVthinking
p2821
aVinside
p2822
aVthat
p2823
aVmurky
p2824
aVhead
p2825
aVof
p2826
aVhis
p2827
aV.
aa(lp2828
Vfew
p2829
aVhave
p2830
aVever
p2831
aVseen
p2832
aVhim
p2833
aV.
aa(lp2834
Vhe
p2835
aVis
p2836
aVusually
p2837
aVasleep
p2838
aV.
aa(lp2839
Vthat\u2019s
p2840
aVwhat
p2841
aVhe
p2842
aVreally
p2843
aVlikes
p2844
aVto
p2845
aVdo
p2846
aV:
aVtake
p2847
aVlong
p2848
aV,
aVlong
p2849
aVnaps
p2850
aV.
aa(lp2851
Vhe
p2852
aVgoes
p2853
aVon
p2854
aVsleeping
p2855
aVfor
p2856
aVyears\u2014decades\u2014in
p2857
aVthe
p2858
aVwarmth
p2859
aVand
p2860
aVdarkness
p2861
aVunderground
p2862
aV.
aa(lp2863
Vhis
p2864
aVeyes
p2865
aV,
aVas
p2866
aVyou
p2867
aVmight
p2868
aVimagine
p2869
aV,
aVhave
p2870
aVatrophied
p2871
aV,
aVhis
p2872
aVbrain
p2873
aVhas
p2874
aVturned
p2875
aVto
p2876
aVjelly
p2877
aVas
p2878
aVhe
p2879
aVsleeps
p2880
aV.
aa(lp2881
Vif
p2882
aVyou
p2883
aVask
p2884
aVme
p2885
aV,
aVi\u2019d
p2886
aVguess
p2887
aVhe
p2888
aVprobably
p2889
aVisn\u2019t
p2890
aVthinking
p2891
aVanything
p2892
aVat
p2893
aVall
p2894
aV,
aVjust
p2895
aVlying
p2896
aVthere
p2897
aVand
p2898
aVfeeling
p2899
aVevery
p2900
aVlittle
p2901
aVrumble
p2902
aVand
p2903
aVreverberation
p2904
aVthat
p2905
aVcomes
p2906
aVhis
p2907
aVway
p2908
aV,
aVabsorbing
p2909
aVthem
p2910
aVinto
p2911
aVhis
p2912
aVbody
p2913
aVand
p2914
aVstoring
p2915
aVthem
p2916
aVup
p2917
aV.
aa(lp2918
Vand
p2919
aVthen
p2920
aV,
aVthrough
p2921
aVsome
p2922
aVkind
p2923
aVof
p2924
aVchemical
p2925
aVprocess
p2926
aV,
aVhe
p2927
aVreplaces
p2928
aVmost
p2929
aVof
p2930
aVthem
p2931
aVwith
p2932
aVrage
p2933
aV.
aa(lp2934
Vwhy
p2935
aVthis
p2936
aVhappens
p2937
aVi
aVhave
p2938
aVno
p2939
aVidea
p2940
aV.
aa(lp2941
Vi
aVcould
p2942
aVnever
p2943
aVexplain
p2944
aVit.\u201d
p2945
aVfrog
p2946
aVfell
p2947
aVsilent
p2948
aVwatching
p2949
aVkatagiri
p2950
aVand
p2951
aVwaiting
p2952
aVuntil
p2953
aVhis
p2954
aVwords
p2955
aVhad
p2956
aVsunk
p2957
aVin
p2958
aV.
aa(lp2959
Vthen
p2960
aVhe
p2961
aVwent
p2962
aVon
p2963
aV:
aV\u201cplease
p2964
aVdon\u2019t
p2965
aVmisunderstand
p2966
aVme
p2967
aV,
aVthough
p2968
aV.
aa(lp2969
Vi
aVfeel
p2970
aVno
p2971
aVpersonal
p2972
aVanimosity
p2973
aVtoward
p2974
aVworm
p2975
aV.
aa(lp2976
Vi
aVdon\u2019t
p2977
aVsee
p2978
aVhim
p2979
aVas
p2980
aVthe
p2981
aVembodiment
p2982
aVof
p2983
aVevil
p2984
aV.
aa(lp2985
Vnot
p2986
aVthat
p2987
aVi
aVwould
p2988
aVwant
p2989
aVto
p2990
aVbe
p2991
aVhis
p2992
aVfriend
p2993
aV,
aVeither
p2994
aV:
aVi
aVjust
p2995
aVthink
p2996
aVthat
p2997
aVas
p2998
aVfar
p2999
aVas
p3000
aVthe
p3001
aVworld
p3002
aVis
p3003
aVconcerned
p3004
aV,
aVit
p3005
aVis
p3006
aV,
aVin
p3007
aVa
aVsense
p3008
aV,
aVall
p3009
aVright
p3010
aVfor
p3011
aVa
aVbeing
p3012
aVlike
p3013
aVhim
p3014
aVto
p3015
aVexist
p3016
aV.
aa(lp3017
Vthe
p3018
aVworld
p3019
aVis
p3020
aVlike
p3021
aVa
aVgreat
p3022
aVbig
p3023
aVovercoat
p3024
aV,
aVand
p3025
aVit
p3026
aVneeds
p3027
aVpockets
p3028
aVof
p3029
aVvarious
p3030
aVshapes
p3031
aVand
p3032
aVsizes
p3033
aV.
aa(lp3034
Vbut
p3035
aVright
p3036
aVat
p3037
aVthe
p3038
aVmoment
p3039
aV,
aVworm
p3040
aVhas
p3041
aVreached
p3042
aVthe
p3043
aVpoint
p3044
aVwhere
p3045
aVhe
p3046
aVis
p3047
aVtoo
p3048
aVdangerous
p3049
aVto
p3050
aVignore
p3051
aV.
aa(lp3052
Vwith
p3053
aVall
p3054
aVthe
p3055
aVdifferent
p3056
aVkinds
p3057
aVof
p3058
aVhatred
p3059
aVhe
p3060
aVhas
p3061
aVabsorbed
p3062
aVand
p3063
aVstored
p3064
aVinside
p3065
aVhimself
p3066
aVover
p3067
aVthe
p3068
aVyears
p3069
aV,
aVhis
p3070
aVheart
p3071
aVand
p3072
aVbody
p3073
aVhave
p3074
aVswollen
p3075
aVto
p3076
aVgargantuan
p3077
aVproportions\u2014bigger
p3078
aVthan
p3079
aVever
p3080
aVbefore
p3081
aV.
aa(lp3082
Vand
p3083
aVto
p3084
aVmake
p3085
aVmatters
p3086
aVworse
p3087
aV,
aVlast
p3088
aVmonth\u2019s
p3089
aVkobe
p3090
aVearthquake
p3091
aVshook
p3092
aVhim
p3093
aVout
p3094
aVof
p3095
aVthe
p3096
aVdeep
p3097
aVsleep
p3098
aVhe
p3099
aVwas
p3100
aVenjoying
p3101
aV.
aa(lp3102
Vhe
p3103
aVexperienced
p3104
aVa
aVrevelation
p3105
aVinspired
p3106
aVby
p3107
aVhis
p3108
aVprofound
p3109
aVrage
p3110
aV:
aVit
p3111
aVwas
p3112
aVtime
p3113
aVnow
p3114
aVfor
p3115
aVhim
p3116
aV,
aVtoo
p3117
aV,
aVto
p3118
aVcause
p3119
aVa
aVmassive
p3120
aVearthquake
p3121
aV,
aVand
p3122
aVhe\u2019d
p3123
aVdo
p3124
aVit
p3125
aVhere
p3126
aV,
aVin
p3127
aVtokyo
p3128
aV.
aa(lp3129
Vi
aVknow
p3130
aVwhat
p3131
aVi\u2019m
p3132
aVtalking
p3133
aVabout
p3134
aV,
aVmr.
p3135
aVkatagiri
p3136
aV:
aVi
aVhave
p3137
aVreceived
p3138
aVreliable
p3139
aVinformation
p3140
aVon
p3141
aVthe
p3142
aVtiming
p3143
aVand
p3144
aVscale
p3145
aVof
p3146
aVthe
p3147
aVearthquake
p3148
aVfrom
p3149
aVsome
p3150
aVof
p3151
aVmy
p3152
aVbest
p3153
aVbug
p3154
aVfriends.\u201d
p3155
aVfrog
p3156
aVsnapped
p3157
aVhis
p3158
aVmouth
p3159
aVshut
p3160
aVand
p3161
aVclosed
p3162
aVhis
p3163
aVround
p3164
aVeyes
p3165
aVin
p3166
aVapparent
p3167
aVfatigue
p3168
aV.
aa(lp3169
V\u201cso
p3170
aVwhat
p3171
aVyou\u2019re
p3172
aVsaying
p3173
aVis
p3174
aV,
aV\u201d
aVkatagiri
p3175
aVsaid
p3176
aV,
aV\u201cthat
p3177
aVyou
p3178
aVand
p3179
aVi
aVhave
p3180
aVto
p3181
aVgo
p3182
aVunderground
p3183
aVtogether
p3184
aVand
p3185
aVfight
p3186
aVworm
p3187
aVto
p3188
aVstop
p3189
aVthe
p3190
aVearthquake.\u201d
p3191
aV\u201cexactly.\u201d
p3192
aVkatagiri
p3193
aVreached
p3194
aVfor
p3195
aVhis
p3196
aVcup
p3197
aVof
p3198
aVtea
p3199
aV,
aVpicked
p3200
aVit
p3201
aVup
p3202
aVand
p3203
aVput
p3204
aVit
p3205
aVback
p3206
aV.
aa(lp3207
V\u201ci
p3208
aVstill
p3209
aVdon\u2019t
p3210
aVget
p3211
aVit
p3212
aV,
aV\u201d
aVhe
p3213
aVsaid
p3214
aV.
aa(lp3215
V\u201cwhy
p3216
aVdid
p3217
aVyou
p3218
aVchoose
p3219
aVme
p3220
aVto
p3221
aVgo
p3222
aVwith
p3223
aVyou
p3224
aV?
aV\u201d
aVfrog
p3225
aVlooked
p3226
aVstraight
p3227
aVinto
p3228
aVkatagiri\u2019s
p3229
aVeyes
p3230
aVand
p3231
aVsaid
p3232
aV\u201ci
p3233
aVhave
p3234
aValways
p3235
aVhad
p3236
aVthe
p3237
aVprofoundest
p3238
aVrespect
p3239
aVfor
p3240
aVyou
p3241
aV,
aVmr.
p3242
aVkatagiri
p3243
aV.
aa(lp3244
Vfor
p3245
aVsixteen
p3246
aVlong
p3247
aVyears
p3248
aV,
aVyou
p3249
aVhave
p3250
aVsilently
p3251
aVaccepted
p3252
aVthe
p3253
aVmost
p3254
aVdangerous
p3255
aV,
aVleast
p3256
aVglamorous
p3257
aVassignments\u2014the
p3258
aVjobs
p3259
aVthat
p3260
aVothers
p3261
aVhave
p3262
aVavoided\u2014and
p3263
aVyou
p3264
aVhave
p3265
aVcarried
p3266
aVthem
p3267
aVoff
p3268
aVbeautifully
p3269
aV.
aa(lp3270
Vi
aVknow
p3271
aVfull
p3272
aVwell
p3273
aVhow
p3274
aVdifficult
p3275
aVthis
p3276
aVhas
p3277
aVbeen
p3278
aVfor
p3279
aVyou
p3280
aV,
aVand
p3281
aVi
aVdo
p3282
aVnot
p3283
aVbelieve
p3284
aVthat
p3285
aVeither
p3286
aVyour
p3287
aVsuperiors
p3288
aVor
p3289
aVyour
p3290
aVcolleagues
p3291
aVproperly
p3292
aVappreciate
p3293
aVyour
p3294
aVaccomplishments
p3295
aV.
aa(lp3296
Vthey
p3297
aVare
p3298
aVblind
p3299
aV,
aVthe
p3300
aVwhole
p3301
aVlot
p3302
aVof
p3303
aVthem
p3304
aV.
aa(lp3305
Vbut
p3306
aVyou
p3307
aV,
aVunappreciated
p3308
aVand
p3309
aVunpromoted
p3310
aV,
aVhave
p3311
aVnever
p3312
aVonce
p3313
aVcomplained
p3314
aV.
aa(lp3315
V\u201cnor
p3316
aVis
p3317
aVit
p3318
aVsimply
p3319
aVa
aVmatter
p3320
aVof
p3321
aVyour
p3322
aVwork
p3323
aV.
aa(lp3324
Vafter
p3325
aVyour
p3326
aVparents
p3327
aVdied
p3328
aVyou
p3329
aVraised
p3330
aVyour
p3331
aVteenage
p3332
aVbrother
p3333
aVand
p3334
aVsister
p3335
aVsingle-handedly
p3336
aV,
aVput
p3337
aVthem
p3338
aVthrough
p3339
aVcollege
p3340
aVand
p3341
aVeven
p3342
aVarranged
p3343
aVfor
p3344
aVthem
p3345
aVto
p3346
aVmarry
p3347
aV,
aVall
p3348
aVat
p3349
aVgreat
p3350
aVsacrifice
p3351
aVof
p3352
aVyour
p3353
aVtime
p3354
aVand
p3355
aVincome
p3356
aV,
aVand
p3357
aVat
p3358
aVthe
p3359
aVexpense
p3360
aVof
p3361
aVyour
p3362
aVown
p3363
aVmarriage
p3364
aVprospects
p3365
aV.
aa(lp3366
Vin
p3367
aVspite
p3368
aVof
p3369
aVthis
p3370
aV,
aVyour
p3371
aVbrother
p3372
aVand
p3373
aVsister
p3374
aVhave
p3375
aVnever
p3376
aVonce
p3377
aVexpressed
p3378
aVgratitude
p3379
aVfor
p3380
aVyour
p3381
aVefforts
p3382
aVon
p3383
aVtheir
p3384
aVbehalf
p3385
aV.
aa(lp3386
Vfar
p3387
aVfrom
p3388
aVit
p3389
aV.
aa(lp3390
Vthey
p3391
aVhave
p3392
aVshown
p3393
aVyou
p3394
aVno
p3395
aVrespect
p3396
aVand
p3397
aVacted
p3398
aVwith
p3399
aVthe
p3400
aVmost
p3401
aVcallous
p3402
aVdisregard
p3403
aVfor
p3404
aVyour
p3405
aVloving
p3406
aVkindness
p3407
aV.
aa(lp3408
Vin
p3409
aVmy
p3410
aVopinion
p3411
aV,
aVtheir
p3412
aVbehavior
p3413
aVis
p3414
aVunconscionable
p3415
aV.
aa(lp3416
Vi
aValmost
p3417
aVwish
p3418
aVi
aVcould
p3419
aVbeat
p3420
aVthem
p3421
aVto
p3422
aVa
aVpulp
p3423
aVon
p3424
aVyour
p3425
aVbehalf
p3426
aV.
aa(lp3427
Vbut
p3428
aVyou
p3429
aV,
aVmeanwhile
p3430
aV,
aVshow
p3431
aVno
p3432
aVtrace
p3433
aVof
p3434
aVanger
p3435
aV.
aa(lp3436
V\u201cto
p3437
aVbe
p3438
aVquite
p3439
aVhonest
p3440
aV,
aVmr.
p3441
aVkatagiri
p3442
aV,
aVyou
p3443
aVare
p3444
aVnothing
p3445
aVmuch
p3446
aVto
p3447
aVlook
p3448
aVat
p3449
aV,
aVand
p3450
aVyou
p3451
aVare
p3452
aVfar
p3453
aVfrom
p3454
aVeloquent
p3455
aV,
aVso
p3456
aVyou
p3457
aVtend
p3458
aVto
p3459
aVbe
p3460
aVlooked
p3461
aVdown
p3462
aVupon
p3463
aVby
p3464
aVthose
p3465
aVaround
p3466
aVyou
p3467
aV.
aa(lp3468
Vi
aV,
aVhowever
p3469
aV,
aVcan
p3470
aVsee
p3471
aVwhat
p3472
aVa
aVsensible
p3473
aVand
p3474
aVcourageous
p3475
aVman
p3476
aVyou
p3477
aVare
p3478
aV.
aa(lp3479
Vin
p3480
aVall
p3481
aVof
p3482
aVtokyo
p3483
aV,
aVwith
p3484
aVits
p3485
aVteeming
p3486
aVmillions
p3487
aV,
aVthere
p3488
aVis
p3489
aVno
p3490
aVone
p3491
aVelse
p3492
aVi
aVcould
p3493
aVtrust
p3494
aVas
p3495
aVmuch
p3496
aVas
p3497
aVyou
p3498
aVto
p3499
aVfight
p3500
aVby
p3501
aVmy
p3502
aVside.\u201d
p3503
aV\u201ctell
p3504
aVme
p3505
aV,
aVmr.
p3506
aVfrog
p3507
aV,
aV\u201d
aVkatagiri
p3508
aVsaid
p3509
aV.
aa(lp3510
V\u201cplease
p3511
aV,
aV\u201d
aVfrog
p3512
aVsaid
p3513
aV,
aVraising
p3514
aVone
p3515
aVfinger
p3516
aVagain
p3517
aV.
aa(lp3518
V\u201ccall
p3519
aVme
p3520
aV\u2018frog\u2019.\u201d
p3521
aV\u201ctell
p3522
aVme
p3523
aV,
aVfrog
p3524
aV,
aV\u201d
aVkatagiri
p3525
aVsaid
p3526
aV,
aV\u201chow
p3527
aVdo
p3528
aVyou
p3529
aVknow
p3530
aVso
p3531
aVmuch
p3532
aVabout
p3533
aVme
p3534
aV?
aV\u201d
aV\u2018well
p3535
aV,
aVmr.
p3536
aVkatagiri
p3537
aV,
aVi
aVhave
p3538
aVnot
p3539
aVbeen
p3540
aVfrogging
p3541
aVall
p3542
aVthese
p3543
aVyears
p3544
aVfor
p3545
aVnothing
p3546
aV.
aa(lp3547
Vi
aVkeep
p3548
aVmy
p3549
aVeye
p3550
aVon
p3551
aVthe
p3552
aVimportant
p3553
aVthings
p3554
aVin
p3555
aVlife.\u201d
p3556
aV\u201cbut
p3557
aVstill
p3558
aV,
aVfrog
p3559
aV,
aV\u201d
aVkatagiri
p3560
aVsaid
p3561
aV.
aa(lp3562
V\u201ci\u2019m
p3563
aVnot
p3564
aVparticularly
p3565
aVstrong
p3566
aV,
aVand
p3567
aVi
aVdon\u2019t
p3568
aVknow
p3569
aVanything
p3570
aVabout
p3571
aVwhat\u2019s
p3572
aVhappening
p3573
aVunderground
p3574
aV.
aa(lp3575
Vi
aVdon\u2019t
p3576
aVhave
p3577
aVthe
p3578
aVkind
p3579
aVof
p3580
aVmuscle
p3581
aVit
p3582
aVwill
p3583
aVtake
p3584
aVto
p3585
aVfight
p3586
aVworm
p3587
aVin
p3588
aVthe
p3589
aVdarkness
p3590
aV.
aa(lp3591
Vi\u2019m
p3592
aVsure
p3593
aVyou
p3594
aVcan
p3595
aVfind
p3596
aVsomebody
p3597
aVa
aVlot
p3598
aVstronger
p3599
aVthan
p3600
aVme\u2014a
p3601
aVman
p3602
aVwho
p3603
aVdoes
p3604
aVkarate
p3605
aV,
aVsay
p3606
aV,
aVor
p3607
aVa
aVselfdefense
p3608
aVforces
p3609
aVcommando.\u201d
p3610
aVfrog
p3611
aVrolled
p3612
aVhis
p3613
aVlarge
p3614
aVeyes
p3615
aV.
aa(lp3616
V\u201ctell
p3617
aVyou
p3618
aVthe
p3619
aVtruth
p3620
aV,
aVmr.
p3621
aVkatagiri
p3622
aV,
aV\u201d
aVhe
p3623
aVsaid
p3624
aV,
aV\u201ci\u2019m
p3625
aVthe
p3626
aVone
p3627
aVwho
p3628
aVwill
p3629
aVdo
p3630
aVall
p3631
aVthe
p3632
aVfighting
p3633
aV.
aa(lp3634
Vbut
p3635
aVi
aVcan\u2019t
p3636
aVdo
p3637
aVit
p3638
aValone
p3639
aV.
aa(lp3640
Vthis
p3641
aVis
p3642
aVthe
p3643
aVkey
p3644
aVthing
p3645
aV:
aVi
aVneed
p3646
aVyour
p3647
aVcourage
p3648
aVand
p3649
aVyour
p3650
aVpassion
p3651
aVfor
p3652
aVjustice
p3653
aV.
aa(lp3654
Vi
aVneed
p3655
aVyou
p3656
aVto
p3657
aVstand
p3658
aVbehind
p3659
aVme
p3660
aVand
p3661
aVsay
p3662
aV,
aV\u2018way
p3663
aVto
p3664
aVgo
p3665
aV,
aVfrog
p3666
aV!
aa(lp3667
Vyou\u2019re
p3668
aVdoing
p3669
aVgreat
p3670
aV!
aa(lp3671
Vi
aVknow
p3672
aVyou
p3673
aVcan
p3674
aVwin
p3675
aV!
aa(lp3676
Vyou\u2019re
p3677
aVfighting
p3678
aVthe
p3679
aVgood
p3680
aVfight
p3681
aV!
aV\u2019\u201d
p3682
aVfrog
p3683
aVopened
p3684
aVhis
p3685
aVarms
p3686
aVwide
p3687
aV,
aVthen
p3688
aVslapped
p3689
aVhis
p3690
aVwebbed
p3691
aVhands
p3692
aVdown
p3693
aVon
p3694
aVhis
p3695
aVknees
p3696
aVagain
p3697
aV.
aa(lp3698
V\u201cin
p3699
aVall
p3700
aVhonesty
p3701
aV,
aVmr.
p3702
aVkatagiri
p3703
aV,
aVthe
p3704
aVthought
p3705
aVof
p3706
aVfighting
p3707
aVworm
p3708
aVin
p3709
aVthe
p3710
aVdark
p3711
aVfrightens
p3712
aVme
p3713
aV,
aVtoo
p3714
aV.
aa(lp3715
Vfor
p3716
aVmany
p3717
aVyears
p3718
aVi
aVlived
p3719
aVas
p3720
aVa
aVpacifist
p3721
aV,
aVloving
p3722
aVart
p3723
aV,
aVliving
p3724
aVwith
p3725
aVnature
p3726
aV.
aa(lp3727
Vfighting
p3728
aVis
p3729
aVnot
p3730
aVsomething
p3731
aVi
aVlike
p3732
aVto
p3733
aVdo
p3734
aV.
aa(lp3735
Vi
aVdo
p3736
aVit
p3737
aVbecause
p3738
aVi
aVhave
p3739
aVto
p3740
aV.
aa(lp3741
Vand
p3742
aVthis
p3743
aVparticular
p3744
aVfight
p3745
aVwill
p3746
aVbe
p3747
aVa
aVfierce
p3748
aVone
p3749
aV;
aVthat
p3750
aVis
p3751
aVcertain
p3752
aV.
aa(lp3753
Vi
aVmay
p3754
aVnot
p3755
aVreturn
p3756
aVfrom
p3757
aVit
p3758
aValive
p3759
aV.
aa(lp3760
Vi
aVmay
p3761
aVlose
p3762
aVa
aVlimb
p3763
aVor
p3764
aVtwo
p3765
aVin
p3766
aVthe
p3767
aVprocess
p3768
aV.
aa(lp3769
Vbut
p3770
aVi
aVcan
p3771
aVnot
p3772
aV\u2014i
p3773
aVwill
p3774
aVnot-run
p3775
aVaway
p3776
aV.
aa(lp3777
Vas
p3778
aVnietzsche
p3779
aVsaid
p3780
aV,
aVthe
p3781
aVhighest
p3782
aVwisdom
p3783
aVis
p3784
aVto
p3785
aVhave
p3786
aVno
p3787
aVfear
p3788
aV.
aa(lp3789
Vwhat
p3790
aVi
aVwant
p3791
aVfrom
p3792
aVyou
p3793
aV,
aVmr.
p3794
aVkatagiri
p3795
aV,
aVis
p3796
aVfor
p3797
aVyou
p3798
aVto
p3799
aVshare
p3800
aVyour
p3801
aVsimple
p3802
aVcourage
p3803
aVwith
p3804
aVme
p3805
aV,
aVto
p3806
aVsupport
p3807
aVme
p3808
aVwith
p3809
aVyour
p3810
aVwhole
p3811
aVheart
p3812
aVas
p3813
aVa
aVtrue
p3814
aVfriend
p3815
aV.
aa(lp3816
Vdo
p3817
aVyou
p3818
aVunderstand
p3819
aVwhat
p3820
aVi
aVam
p3821
aVtrying
p3822
aVto
p3823
aVtell
p3824
aVyou
p3825
aV?
aV\u201d
aVnone
p3826
aVof
p3827
aVthis
p3828
aVmade
p3829
aVany
p3830
aVsense
p3831
aVto
p3832
aVkatagiri
p3833
aV,
aVbut
p3834
aVstill
p3835
aVhe
p3836
aVfelt
p3837
aVthat\u2014unreal
p3838
aVas
p3839
aVit
p3840
aVsounded\u2014he
p3841
aVcould
p3842
aVbelieve
p3843
aVwhatever
p3844
aVfrog
p3845
aVsaid
p3846
aVto
p3847
aVhim
p3848
aV.
aa(lp3849
Vsomething
p3850
aVabout
p3851
aVfrog\u2014the
p3852
aVlook
p3853
aVon
p3854
aVhis
p3855
aVface
p3856
aV,
aVthe
p3857
aVway
p3858
aVhe
p3859
aVspoke\u2014had
p3860
aVa
aVsimple
p3861
aVhonesty
p3862
aVthat
p3863
aVappealed
p3864
aVdirectly
p3865
aVto
p3866
aVthe
p3867
aVheart
p3868
aV.
aa(lp3869
Vafter
p3870
aVyears
p3871
aVof
p3872
aVwork
p3873
aVin
p3874
aVthe
p3875
aVtoughest
p3876
aVdivision
p3877
aVof
p3878
aVthe
p3879
aVsecurity
p3880
aVtrust
p3881
aVbank
p3882
aV,
aVkatagiri
p3883
aVpossessed
p3884
aVthe
p3885
aVability
p3886
aVto
p3887
aVsense
p3888
aVsuch
p3889
aVthings
p3890
aV.
aa(lp3891
Vit
p3892
aVwas
p3893
aVall
p3894
aVbut
p3895
aVsecond
p3896
aVnature
p3897
aVto
p3898
aVhim
p3899
aV.
aa(lp3900
V\u201ci
p3901
aVknow
p3902
aVthis
p3903
aVmust
p3904
aVbe
p3905
aVdifficult
p3906
aVfor
p3907
aVyou
p3908
aV,
aVmr.
p3909
aVkatagiri
p3910
aV.
aa(lp3911
Va
aVhuge
p3912
aVfrog
p3913
aVcomes
p3914
aVbarging
p3915
aVinto
p3916
aVyour
p3917
aVplace
p3918
aVand
p3919
aVasks
p3920
aVyou
p3921
aVto
p3922
aVbelieve
p3923
aVall
p3924
aVthese
p3925
aVoutlandish
p3926
aVthings
p3927
aV.
aa(lp3928
Vyour
p3929
aVreaction
p3930
aVis
p3931
aVperfectly
p3932
aVnatural
p3933
aV.
aa(lp3934
Vand
p3935
aVso
p3936
aVi
aVintend
p3937
aVto
p3938
aVprovide
p3939
aVyou
p3940
aVwith
p3941
aVproof
p3942
aVthat
p3943
aVi
aVexist
p3944
aV.
aa(lp3945
Vtell
p3946
aVme
p3947
aV,
aVmr.
p3948
aVkatagiri
p3949
aV:
aVyou
p3950
aVhave
p3951
aVbeen
p3952
aVhaving
p3953
aVa
aVgreat
p3954
aVdeal
p3955
aVof
p3956
aVtrouble
p3957
aVrecovering
p3958
aVa
aVloan
p3959
aVthe
p3960
aVbank
p3961
aVmade
p3962
aVto
p3963
aVbig
p3964
aVbear
p3965
aVtrading
p3966
aV,
aVhave
p3967
aVyou
p3968
aVnot
p3969
aV?
aV\u201d
aV\u201cthat\u2019s
p3970
aVtrue
p3971
aV,
aV\u201d
aVkatagiri
p3972
aVsaid
p3973
aV.
aa(lp3974
V\u201cwell
p3975
aV,
aVthey
p3976
aVhave
p3977
aVa
aVnumber
p3978
aVof
p3979
aVextortionist
p3980
aVworking
p3981
aVbehind
p3982
aVthe
p3983
aVscenes
p3984
aV,
aVand
p3985
aVthose
p3986
aVindividuals
p3987
aVare
p3988
aVmixed
p3989
aVup
p3990
aVwith
p3991
aVthe
p3992
aVmobsters
p3993
aV.
aa(lp3994
Vthey\u2019re
p3995
aVscheming
p3996
aVto
p3997
aVmake
p3998
aVthe
p3999
aVcompany
p4000
aVgo
p4001
aVbankrupt
p4002
aVand
p4003
aVget
p4004
aVout
p4005
aVof
p4006
aVits
p4007
aVdebts
p4008
aV.
aa(lp4009
Vyour
p4010
aVbank\u2019s
p4011
aVloan
p4012
aVofficer
p4013
aVshoved
p4014
aVa
aVpile
p4015
aVof
p4016
aVcash
p4017
aVat
p4018
aVthem
p4019
aVwithout
p4020
aVa
aVdecent
p4021
aVbackground
p4022
aVcheck
p4023
aV,
aVand
p4024
aV,
aVas
p4025
aVusual
p4026
aV,
aVthe
p4027
aVone
p4028
aVwho\u2019s
p4029
aVleft
p4030
aVto
p4031
aVclean
p4032
aVup
p4033
aVafter
p4034
aVhim
p4035
aVis
p4036
aVyou
p4037
aV,
aVmr.
p4038
aVkatagiri
p4039
aV.
aa(lp4040
Vbut
p4041
aVyou\u2019re
p4042
aVhaving
p4043
aVa
aVhard
p4044
aVtime
p4045
aVsinking
p4046
aVyour
p4047
aVteeth
p4048
aVinto
p4049
aVthese
p4050
aVfellows
p4051
aV:
aVthey\u2019re
p4052
aVno
p4053
aVpushovers
p4054
aV.
aa(lp4055
Vand
p4056
aVthere
p4057
aVmay
p4058
aVbe
p4059
aVa
aVpowerful
p4060
aVpolitician
p4061
aVbacking
p4062
aVthem
p4063
aVup
p4064
aV.
aa(lp4065
Vthey\u2019re
p4066
aVinto
p4067
aVyou
p4068
aVfor
p4069
aV700
p4070
aVmillion
p4071
aV.
aa(lp4072
Vthat
p4073
aVis
p4074
aVthe
p4075
aVsituation
p4076
aVyou
p4077
aVare
p4078
aVdealing
p4079
aVwith
p4080
aV,
aVam
p4081
aVi
aVright
p4082
aV?
aV\u201d
aV\u201cyou
p4083
aVcertainly
p4084
aVare.\u201d
p4085
aVfrog
p4086
aVstretched
p4087
aVhis
p4088
aVarms
p4089
aVout
p4090
aVwide
p4091
aV,
aVhis
p4092
aVbig
p4093
aVgreen
p4094
aVwebs
p4095
aVopening
p4096
aVlike
p4097
aVpale
p4098
aVwings
p4099
aV.
aa(lp4100
V\u201cdon\u2019t
p4101
aVworry
p4102
aV,
aVmr.
p4103
aVkatagiri
p4104
aV.
aa(lp4105
Vleave
p4106
aVeverything
p4107
aVto
p4108
aVme
p4109
aV.
aa(lp4110
Vby
p4111
aVtomorrow
p4112
aVmorning
p4113
aV,
aVold
p4114
aVfrog
p4115
aVwill
p4116
aVhave
p4117
aVyour
p4118
aVproblems
p4119
aVsolved
p4120
aV.
aa(lp4121
Vrelax
p4122
aVand
p4123
aVhave
p4124
aVa
aVgood
p4125
aVnight\u2019s
p4126
aVsleep.\u201d
p4127
aVwith
p4128
aVa
aVbig
p4129
aVsmile
p4130
aVon
p4131
aVhis
p4132
aVface
p4133
aV,
aVfrog
p4134
aVstood
p4135
aVup
p4136
aV.
aa(lp4137
Vthen
p4138
aV,
aVflattening
p4139
aVhimself
p4140
aVlike
p4141
aVa
aVdried
p4142
aVsquid
p4143
aV,
aVhe
p4144
aVslipped
p4145
aVout
p4146
aVthrough
p4147
aVthe
p4148
aVgap
p4149
aVat
p4150
aVthe
p4151
aVside
p4152
aVof
p4153
aVthe
p4154
aVclosed
p4155
aVdoor
p4156
aV,
aVleaving
p4157
aVkatagiri
p4158
aVall
p4159
aValone
p4160
aV.
aa(lp4161
Vthe
p4162
aVtwo
p4163
aVteacups
p4164
aVon
p4165
aVthe
p4166
aVkitchen
p4167
aVtable
p4168
aVwere
p4169
aVthe
p4170
aVonly
p4171
aVindication
p4172
aVthat
p4173
aVfrog
p4174
aVhad
p4175
aVever
p4176
aVbeen
p4177
aVin
p4178
aVkatagiri\u2019s
p4179
aVapartment
p4180
aV.
aa(lp4181
V*
aV*
aV*
aV*
aV*
aV*
aVthe
p4182
aVmoment
p4183
aVkatagiri
p4184
aVarrived
p4185
aVat
p4186
aVwork
p4187
aVthe
p4188
aVnext
p4189
aVmorning
p4190
aVat
p4191
aVnine
p4192
aV,
aVthe
p4193
aVphone
p4194
aVon
p4195
aVhis
p4196
aVdesk
p4197
aVrang
p4198
aV.
aa(lp4199
V\u201cmr
p4200
aV.
aa(lp4201
Vkatagiri
p4202
aV,
aV\u201d
aVsaid
p4203
aVa
aVman\u2019s
p4204
aVvoice
p4205
aV.
aa(lp4206
Vit
p4207
aVwas
p4208
aVcold
p4209
aVand
p4210
aVbusinesslike
p4211
aV.
aa(lp4212
V\u201cmy
p4213
aVname
p4214
aVis
p4215
aVshiraoka
p4216
aV.
aa(lp4217
Vi\u2019m
p4218
aVan
p4219
aVattorney
p4220
aVwith
p4221
aVthe
p4222
aVbig
p4223
aVbear
p4224
aVcase
p4225
aV.
aa(lp4226
Vi
aVreceived
p4227
aVa
aVcall
p4228
aVfrom
p4229
aVmy
p4230
aVclient
p4231
aVthis
p4232
aVmorning
p4233
aVwith
p4234
aVregard
p4235
aVto
p4236
aVthe
p4237
aVpending
p4238
aVloan
p4239
aVmatter
p4240
aV.
aa(lp4241
Vhe
p4242
aVwants
p4243
aVyou
p4244
aVto
p4245
aVknow
p4246
aVthat
p4247
aVhe
p4248
aVwill
p4249
aVtake
p4250
aVfull
p4251
aVresponsibility
p4252
aVfor
p4253
aVreturning
p4254
aVthe
p4255
aVentire
p4256
aVamount
p4257
aVrequested
p4258
aV,
aVby
p4259
aVthe
p4260
aVdue
p4261
aVdate
p4262
aV.
aa(lp4263
Vhe
p4264
aVwill
p4265
aValso
p4266
aVgive
p4267
aVyou
p4268
aVa
aVsigned
p4269
aVmemorandum
p4270
aVto
p4271
aVthat
p4272
aVeffect
p4273
aV.
aa(lp4274
Vhis
p4275
aVonly
p4276
aVrequest
p4277
aVis
p4278
aVthat
p4279
aVyou
p4280
aVdo
p4281
aVnot
p4282
aVsend
p4283
aVfrog
p4284
aVto
p4285
aVhis
p4286
aVhome
p4287
aVagain
p4288
aV.
aa(lp4289
Vi
aVrepeat
p4290
aV:
aVhe
p4291
aVwants
p4292
aVyou
p4293
aVto
p4294
aVask
p4295
aVfrog
p4296
aVnever
p4297
aVto
p4298
aVvisit
p4299
aVhis
p4300
aVhome
p4301
aVagain
p4302
aV.
aa(lp4303
Vi\u2019m
p4304
aVnot
p4305
aVentirely
p4306
aVsure
p4307
aVwhat
p4308
aVthis
p4309
aVis
p4310
aVsupposed
p4311
aVto
p4312
aVmean
p4313
aV,
aVbut
p4314
aVi
aVbelieve
p4315
aVit
p4316
aVshould
p4317
aVbe
p4318
aVclear
p4319
aVto
p4320
aVyou
p4321
aV,
aVmr.
p4322
aVkatagiri
p4323
aV.
aa(lp4324
Vam
p4325
aVi
aVcorrect
p4326
aV?
aV\u201d
aV\u201cyou
p4327
aVare
p4328
aVindeed.\u201d
p4329
aVkatagiri
p4330
aVsaid
p4331
aV.
aa(lp4332
V\u201cyou
p4333
aVwill
p4334
aVbe
p4335
aVkind
p4336
aVenough
p4337
aVto
p4338
aVconvey
p4339
aVmy
p4340
aVmessage
p4341
aVto
p4342
aVfrog
p4343
aV,
aVi
aVtrust.\u201d
p4344
aV\u201cthat
p4345
aVi
aVwill
p4346
aVdo
p4347
aV.
aa(lp4348
Vyour
p4349
aVclient
p4350
aVwill
p4351
aVnever
p4352
aVsee
p4353
aVfrog
p4354
aVagain.\u201d
p4355
aV\u201cthank
p4356
aVyou
p4357
aVvery
p4358
aVmuch
p4359
aV.
aa(lp4360
Vi
aVwill
p4361
aVprepare
p4362
aVthe
p4363
aVmemorandum
p4364
aVfor
p4365
aVyou
p4366
aVby
p4367
aVtomorrow.\u201d
p4368
aV\u201ci
p4369
aVappreciate
p4370
aVit
p4371
aV,
aV\u201d
aVkatagiri
p4372
aVsaid
p4373
aV.
aa(lp4374
Vthe
p4375
aVconnection
p4376
aVwas
p4377
aVcut
p4378
aV.
aa(lp4379
Vfrog
p4380
aVvisited
p4381
aVkatagiri
p4382
aVin
p4383
aVhis
p4384
aVtrust
p4385
aVbank
p4386
aVoffice
p4387
aVat
p4388
aVlunchtime
p4389
aV.
aa(lp4390
V\u201ci
p4391
aVassume
p4392
aVthat
p4393
aVbig
p4394
aVbear
p4395
aVcase
p4396
aVis
p4397
aVworking
p4398
aVout
p4399
aVwell
p4400
aVfor
p4401
aVyou
p4402
aV?
aV\u201d
aVkatagiri
p4403
aVglanced
p4404
aVaround
p4405
aVuneasily
p4406
aV.
aa(lp4407
V\u201cdon\u2019t
p4408
aVworry
p4409
aV,
aV\u201d
aVfrog
p4410
aVsaid
p4411
aV.
aa(lp4412
V\u201cyou
p4413
aVare
p4414
aVthe
p4415
aVonly
p4416
aVone
p4417
aVwho
p4418
aVcan
p4419
aVsee
p4420
aVme
p4421
aV.
aa(lp4422
Vbut
p4423
aVnow
p4424
aVi
aVam
p4425
aVsure
p4426
aVyou
p4427
aVrealize
p4428
aVi
aVactually
p4429
aVexist
p4430
aV.
aa(lp4431
Vi
aVam
p4432
aVnot
p4433
aVa
aVproduct
p4434
aVof
p4435
aVyour
p4436
aVimagination
p4437
aV.
aa(lp4438
Vi
aVcan
p4439
aVtake
p4440
aVaction
p4441
aVand
p4442
aVproduce
p4443
aVresults
p4444
aV.
aa(lp4445
Vi
aVam
p4446
aVa
aVliving
p4447
aVbeing.\u201d
p4448
aV\u201ctell
p4449
aVme
p4450
aV,
aVmr.
p4451
aVfrog
p4452
aV,
aV\u201d
aVkatagiri
p4453
aVsaid
p4454
aV.
aa(lp4455
V\u201cplease
p4456
aV,
aV\u201d
aVfrog
p4457
aVsaid
p4458
aV,
aVraising
p4459
aVone
p4460
aVfinger
p4461
aV,
aV\u201ccall
p4462
aVme
p4463
aV\u2018frog.\u2019\u201d
p4464
aV\u201ctell
p4465
aVme
p4466
aV,
aVfrog
p4467
aV,
aV\u201d
aVkatagiri
p4468
aVsaid
p4469
aV.
aa(lp4470
V\u201cwhat
p4471
aVdid
p4472
aVyou
p4473
aVdo
p4474
aVto
p4475
aVthem
p4476
aV?
aV\u201d
aV\u201coh
p4477
aV,
aVnothing
p4478
aVmuch
p4479
aV,
aV\u201d
aVfrog
p4480
aVsaid
p4481
aV.
aa(lp4482
V\u201cnothing
p4483
aVmuch
p4484
aVmore
p4485
aVcomplicated
p4486
aVthan
p4487
aVboiling
p4488
aVbrussels
p4489
aVsprouts
p4490
aV.
aa(lp4491
Vi
aVjust
p4492
aVgave
p4493
aVthem
p4494
aVa
aVlittle
p4495
aVscare
p4496
aV.
aa(lp4497
Va
aVtouch
p4498
aVof
p4499
aVpsychological
p4500
aVterror
p4501
aV.
aa(lp4502
Vas
p4503
aVjoseph
p4504
aVconrad
p4505
aVonce
p4506
aVwrote
p4507
aV,
aVtrue
p4508
aVterror
p4509
aVis
p4510
aVthe
p4511
aVkind
p4512
aVthat
p4513
aVmen
p4514
aVfeel
p4515
aVtoward
p4516
aVtheir
p4517
aVimagination
p4518
aV.
aa(lp4519
Vbut
p4520
aVnever
p4521
aVmind
p4522
aVthat
p4523
aV,
aVmr.
p4524
aV.
aa(lp4525
V.
aa(lp4526
Vkatagiri
p4527
aV.
aa(lp4528
Vtell
p4529
aVme
p4530
aVabout
p4531
aVthe
p4532
aVbig
p4533
aVbear
p4534
aVcase
p4535
aV.
aa(lp4536
Vit
p4537
aVis
p4538
aVworking
p4539
aVout
p4540
aVwell
p4541
aV,
aVi
aVassume
p4542
aV?
aV\u201d
aVkatagiri
p4543
aVnodded
p4544
aVand
p4545
aVlit
p4546
aVa
aVcigarette
p4547
aV.
aa(lp4548
V\u201cseems
p4549
aVto
p4550
aVbe.\u201d
p4551
aV\u201cso
p4552
aV,
aVthen
p4553
aV,
aVhave
p4554
aVi
aVsucceeded
p4555
aVin
p4556
aVgaining
p4557
aVyour
p4558
aVtrust
p4559
aVwith
p4560
aVregard
p4561
aVto
p4562
aVthe
p4563
aVmatter
p4564
aVi
aVbroached
p4565
aVto
p4566
aVyou
p4567
aVlast
p4568
aVnight
p4569
aV?
aa(lp4570
Vwill
p4571
aVyou
p4572
aVjoin
p4573
aVme
p4574
aVto
p4575
aVfight
p4576
aVagainst
p4577
aVworm
p4578
aV?
aV\u201d
aVsighing
p4579
aV,
aVkatagiri
p4580
aVremoved
p4581
aVhis
p4582
aVglasses
p4583
aVand
p4584
aVwiped
p4585
aVthem
p4586
aV.
aa(lp4587
V\u201cto
p4588
aVtell
p4589
aVyou
p4590
aVthe
p4591
aVtruth
p4592
aV,
aVi
aVam
p4593
aVnot
p4594
aVtoo
p4595
aVcrazy
p4596
aVabout
p4597
aVthe
p4598
aVidea
p4599
aV,
aVbut
p4600
aVi
aVdon\u2019t
p4601
aVsuppose
p4602
aVthat\u2019s
p4603
aVenough
p4604
aVto
p4605
aVget
p4606
aVme
p4607
aVout
p4608
aVof
p4609
aVit.\u201d
p4610
aV\u201cno
p4611
aV,
aV\u201d
aVfrog
p4612
aVsaid
p4613
aV.
aa(lp4614
V\u201cit
p4615
aVis
p4616
aVa
aVmatter
p4617
aVof
p4618
aVresponsibility
p4619
aVand
p4620
aVhonor
p4621
aV.
aa(lp4622
Vyou
p4623
aVmay
p4624
aVnot
p4625
aVbe
p4626
aV\u2018too
p4627
aVcrazy\u2019
p4628
aVabout
p4629
aVthe
p4630
aVidea
p4631
aV,
aVbut
p4632
aVwe
p4633
aVhave
p4634
aVno
p4635
aVchoice
p4636
aV:
aVyou
p4637
aVand
p4638
aVi
aVmust
p4639
aVgo
p4640
aVunderground
p4641
aVand
p4642
aVface
p4643
aVworm
p4644
aV.
aa(lp4645
Vif
p4646
aVwe
p4647
aVshould
p4648
aVhappen
p4649
aVto
p4650
aVlose
p4651
aVour
p4652
aVlives
p4653
aVin
p4654
aVthe
p4655
aVprocess
p4656
aV,
aVwe
p4657
aVwill
p4658
aVgain
p4659
aVno
p4660
aVone\u2019s
p4661
aVsympathy
p4662
aV.
aa(lp4663
Vand
p4664
aVeven
p4665
aVif
p4666
aVwe
p4667
aVmanage
p4668
aVto
p4669
aVdefeat
p4670
aVworm
p4671
aV,
aVno
p4672
aVone
p4673
aVwill
p4674
aVpraise
p4675
aVus
p4676
aV.
aa(lp4677
Vno
p4678
aVone
p4679
aVwill
p4680
aVever
p4681
aVknow
p4682
aVthat
p4683
aVsuch
p4684
aVa
aVbattle
p4685
aVeven
p4686
aVraged
p4687
aVfar
p4688
aVbeneath
p4689
aVtheir
p4690
aVfeet
p4691
aV.
aa(lp4692
Vonly
p4693
aVyou
p4694
aVand
p4695
aVi
aVwill
p4696
aVknow
p4697
aV,
aVmr.
p4698
aVkatagiri
p4699
aV.
aa(lp4700
Vhowever
p4701
aVit
p4702
aVturns
p4703
aVout
p4704
aV,
aVours
p4705
aVwill
p4706
aVbe
p4707
aVa
aVlonely
p4708
aVbattle.\u201d
p4709
aVkatagiri
p4710
aVlooked
p4711
aVat
p4712
aVhis
p4713
aVown
p4714
aVhand
p4715
aVfor
p4716
aVa
aVwhile
p4717
aV,
aVthen
p4718
aVwatched
p4719
aVthe
p4720
aVsmoke
p4721
aVrising
p4722
aVfrom
p4723
aVhis
p4724
aVcigarette
p4725
aV.
aa(lp4726
Vfinally
p4727
aV,
aVhe
p4728
aVspoke
p4729
aV.
aa(lp4730
V\u201cyou
p4731
aVknow
p4732
aVmr.
p4733
aVfrog
p4734
aV,
aVi\u2019m
p4735
aVjust
p4736
aVan
p4737
aVordinary
p4738
aVperson.\u201d
p4739
aV\u201cmake
p4740
aVthat
p4741
aV\u2018frog
p4742
aV,
aV\u2019
aVplease
p4743
aV,
aV\u201d
aVfrog
p4744
aVsaid
p4745
aV,
aVbut
p4746
aVkatagiri
p4747
aVlet
p4748
aVit
p4749
aVgo
p4750
aV.
aa(lp4751
V\u201ci\u2019m
p4752
aVan
p4753
aVabsolutely
p4754
aVordinary
p4755
aVguy
p4756
aV.
aa(lp4757
Vless
p4758
aVthan
p4759
aVordinary
p4760
aV.
aa(lp4761
Vi\u2019m
p4762
aVgoing
p4763
aVbald
p4764
aV,
aVi\u2019m
p4765
aVgetting
p4766
aVa
aVpotbelly
p4767
aV,
aVi
aVturned
p4768
aV40
p4769
aVlast
p4770
aVmonth
p4771
aV.
aa(lp4772
Vmy
p4773
aVfeet
p4774
aVare
p4775
aVflat
p4776
aV.
aa(lp4777
Vthe
p4778
aVdoctor
p4779
aVtold
p4780
aVme
p4781
aVrecently
p4782
aVthat
p4783
aVi
aVhave
p4784
aVdiabetic
p4785
aVtendencies
p4786
aV.
aa(lp4787
Vit\u2019s
p4788
aVbeen
p4789
aVthree
p4790
aVmonths
p4791
aVor
p4792
aVmore
p4793
aVsince
p4794
aVi
aVlast
p4795
aVslept
p4796
aVwith
p4797
aVa
aVwoman\u2014and
p4798
aVi
aVhad
p4799
aVto
p4800
aVpay
p4801
aVfor
p4802
aVit
p4803
aV.
aa(lp4804
Vi
aVdo
p4805
aVget
p4806
aVsome
p4807
aVrecognition
p4808
aVwithin
p4809
aVthe
p4810
aVdivision
p4811
aVfor
p4812
aVmy
p4813
aVability
p4814
aVto
p4815
aVcollect
p4816
aVon
p4817
aVloans
p4818
aV,
aVbut
p4819
aVno
p4820
aVreal
p4821
aVrespect
p4822
aV.
aa(lp4823
Vi
aVdon\u2019t
p4824
aVhave
p4825
aVa
aVsingle
p4826
aVperson
p4827
aVwho
p4828
aVlikes
p4829
aVme
p4830
aV,
aVeither
p4831
aVat
p4832
aVwork
p4833
aVor
p4834
aVin
p4835
aVmy
p4836
aVprivate
p4837
aVlife
p4838
aV.
aa(lp4839
Vi
aVdon\u2019t
p4840
aVknow
p4841
aVhow
p4842
aVto
p4843
aVtalk
p4844
aVto
p4845
aVpeople
p4846
aV,
aVand
p4847
aVi\u2019m
p4848
aVbad
p4849
aVwith
p4850
aVstrangers
p4851
aV,
aVso
p4852
aVi
aVnever
p4853
aVmake
p4854
aVfriends
p4855
aV.
aa(lp4856
Vi
aVhave
p4857
aVno
p4858
aVathletic
p4859
aVability
p4860
aV,
aVi\u2019m
p4861
aVtone-deaf
p4862
aV,
aVshort
p4863
aV,
aVphimotic
p4864
aV,
aVnearsighted\u2014and
p4865
aVastigmatic
p4866
aV.
aa(lp4867
Vi
aVlive
p4868
aVa
aVhorrible
p4869
aVlife
p4870
aV.
aa(lp4871
Vall
p4872
aVi
aVdo
p4873
aVis
p4874
aVeat
p4875
aV,
aVs1eep
p4876
aVand
p4877
aVshit
p4878
aV.
aa(lp4879
Vi
aVdon\u2019t
p4880
aVknow
p4881
aVwhy
p4882
aVi\u2019m
p4883
aVeven
p4884
aVliving
p4885
aV.
aa(lp4886
Vwhy
p4887
aVshould
p4888
aVa
aVperson
p4889
aVlike
p4890
aVme
p4891
aVhave
p4892
aVto
p4893
aVbe
p4894
aVthe
p4895
aVone
p4896
aVto
p4897
aVsave
p4898
aVtokyo
p4899
aV?
aV\u201d
aV\u201cbecause
p4900
aV,
aVmr..
p4901
aVkatagiri
p4902
aV,
aVtokyo
p4903
aVcan
p4904
aVonly
p4905
aVbe
p4906
aVsaved
p4907
aVby
p4908
aVa
aVperson
p4909
aVlike
p4910
aVyou
p4911
aV.
aa(lp4912
Vand
p4913
aVit\u2019s
p4914
aVfor
p4915
aVpeople
p4916
aVlike
p4917
aVyou
p4918
aVthat
p4919
aVi
aVam
p4920
aVtying
p4921
aVto
p4922
aVsave
p4923
aVtokyo.\u201d
p4924
aVkatagiri
p4925
aVsighed
p4926
aVagain
p4927
aV,
aVmore
p4928
aVdeeply
p4929
aVthis
p4930
aVtime
p4931
aV.
aa(lp4932
V\u201call
p4933
aVright
p4934
aV,
aVthen
p4935
aV,
aVwhat
p4936
aVdo
p4937
aVyou
p4938
aVwant
p4939
aVme
p4940
aVto
p4941
aVdo
p4942
aV?
aV\u201d
aV*
aV*
aV*
aV*
aV*
aV*
aVfrog
p4943
aVtold
p4944
aVkatagiri
p4945
aVhis
p4946
aVplan
p4947
aV.
aa(lp4948
Vthey
p4949
aVwould
p4950
aVgo
p4951
aVunderground
p4952
aVon
p4953
aVthe
p4954
aVnight
p4955
aVof
p4956
aVfebruary
p4957
aV17
p4958
aV(
aVone
p4959
aVday
p4960
aVbefore
p4961
aVthe
p4962
aVearthquake
p4963
aVwas
p4964
aVscheduled
p4965
aVto
p4966
aVhappen
p4967
aV)
aV.
aa(lp4968
Vtheir
p4969
aVway
p4970
aVin
p4971
aVwould
p4972
aVbe
p4973
aVthrough
p4974
aVthe
p4975
aVbasement
p4976
aVboiler
p4977
aVroom
p4978
aVof
p4979
aVthe
p4980
aVshinjuku
p4981
aVbranch
p4982
aVof
p4983
aVthe
p4984
aVtokyo
p4985
aVsecurity
p4986
aVtrust
p4987
aVbank
p4988
aV.
aa(lp4989
Vthey
p4990
aVwould
p4991
aVmeet
p4992
aVthere
p4993
aVlate
p4994
aVat
p4995
aVnight
p4996
aV(
aVkatagiri
p4997
aVwould
p4998
aVstay
p4999
aVin
p5000
aVthe
p5001
aVbuilding
p5002
aVon
p5003
aVthe
p5004
aVpretext
p5005
aVof
p5006
aVworking
p5007
aVovertime
p5008
aV)
aV.
aa(lp5009
Vbehind
p5010
aVa
aVsection
p5011
aVof
p5012
aVwall
p5013
aVwas
p5014
aVa
aVvertical
p5015
aVshaft
p5016
aV,
aVand
p5017
aVthey
p5018
aVwould
p5019
aVfind
p5020
aVworm
p5021
aVat
p5022
aVthe
p5023
aVbottom
p5024
aVby
p5025
aVclimbing
p5026
aVdown
p5027
aVa
aV150-foot
p5028
aVrope
p5029
aVladder
p5030
aV.
aa(lp5031
V\u201cdo
p5032
aVyou
p5033
aVhave
p5034
aVa
aVbattle
p5035
aVplan
p5036
aVin
p5037
aVmind
p5038
aV?
aV\u201d
aVkatagiri
p5039
aVasked
p5040
aV.
aa(lp5041
V\u201cof
p5042
aVcourse
p5043
aVi
aVdo
p5044
aV.
aa(lp5045
Vwe
p5046
aVwould
p5047
aVhave
p5048
aVno
p5049
aVhope
p5050
aVof
p5051
aVdefeating
p5052
aVan
p5053
aVenemy
p5054
aVlike
p5055
aVworm
p5056
aVwithout
p5057
aVa
aVbattle
p5058
aVplan
p5059
aV.
aa(lp5060
Vhe
p5061
aVis
p5062
aVa
aVslimy
p5063
aVcreature
p5064
aV:
aVyou
p5065
aVcan\u2019t
p5066
aVtell
p5067
aVhis
p5068
aVmouth
p5069
aVfrom
p5070
aVhis
p5071
aVanus
p5072
aV.
aa(lp5073
Vand
p5074
aVhe
p5075
aVis
p5076
aVas
p5077
aVbig
p5078
aVas
p5079
aVa
aVcommuter
p5080
aVtrain.\u201d
p5081
aV\u201cwhat
p5082
aVis
p5083
aVyour
p5084
aVbattle
p5085
aVplan
p5086
aV?
aV\u201d
aVafter
p5087
aVa
aVthoughtful
p5088
aVpause
p5089
aVfrog
p5090
aVanswered
p5091
aV,
aV\u201chmm
p5092
aV,
aVwhat
p5093
aVis
p5094
aVit
p5095
aVthey
p5096
aVsay\u2014\u2019silence
p5097
aVis
p5098
aVgolden
p5099
aV?
aV\u201d
aV\u201cyou
p5100
aVmean
p5101
aVi
aVshouldn\u2019t
p5102
aVask
p5103
aV?
aV\u201d
aV\u201cthat\u2019s
p5104
aVone
p5105
aVway
p5106
aVof
p5107
aVputting
p5108
aVit.\u201d
p5109
aV\u201cwhat
p5110
aVif
p5111
aVi
aVget
p5112
aVscared
p5113
aVat
p5114
aVthe
p5115
aVlast
p5116
aVminute
p5117
aVand
p5118
aVrun
p5119
aVaway
p5120
aV?
aa(lp5121
Vwhet
p5122
aVwould
p5123
aVyou
p5124
aVdo
p5125
aVthen
p5126
aV,
aVmr.
p5127
aVfrog
p5128
aV?
aV\u201d
aV\u201c\u2018frog\u2019.\u201d
p5129
aV\u201cfrog
p5130
aV.
aa(lp5131
Vwhat
p5132
aVwould
p5133
aVyou
p5134
aVdo
p5135
aVthen
p5136
aV?
aV\u201d
aVfrog
p5137
aVthought
p5138
aVabout
p5139
aVthis
p5140
aVawhile
p5141
aVand
p5142
aVanswered
p5143
aV,
aV\u201ci
p5144
aVwould
p5145
aVfight
p5146
aVon
p5147
aValone
p5148
aV.
aa(lp5149
Vmy
p5150
aVchances
p5151
aVof
p5152
aVbeating
p5153
aVhim
p5154
aVby
p5155
aVmyself
p5156
aVare
p5157
aVperhaps
p5158
aVjust
p5159
aVslightly
p5160
aVbetter
p5161
aVthan
p5162
aVanna
p5163
aVkarenina\u2019s
p5164
aVchances
p5165
aVof
p5166
aVbeating
p5167
aVthat
p5168
aVspeeding
p5169
aVlocomotive
p5170
aV.
aa(lp5171
Vhave
p5172
aVyou
p5173
aVread
p5174
aVanna
p5175
aVkarenina
p5176
aV,
aVmr..
p5177
aVkatagiri
p5178
aV?
aV\u201d
aVwhen
p5179
aVhe
p5180
aVheard
p5181
aVthat
p5182
aVkatagiri
p5183
aVhad
p5184
aVnot
p5185
aVread
p5186
aVthe
p5187
aVnovel
p5188
aV,
aVfrog
p5189
aVgave
p5190
aVhim
p5191
aVa
aVlook
p5192
aVas
p5193
aVif
p5194
aVto
p5195
aVsay
p5196
aV\u201cwhat
p5197
aVa
aVshame.\u201d
p5198
aVapparently
p5199
aV,
aVfrog
p5200
aVwas
p5201
aVvery
p5202
aVfond
p5203
aVof
p5204
aVanna
p5205
aVkarenina
p5206
aV.
aa(lp5207
V\u201cstill
p5208
aV,
aVmr.
p5209
aVkatagiri
p5210
aV,
aVi
aVdo
p5211
aVnot
p5212
aVbelieve
p5213
aVthat
p5214
aVyou
p5215
aVwill
p5216
aVleave
p5217
aVme
p5218
aVto
p5219
aVfight
p5220
aValone
p5221
aV.
aa(lp5222
Vi
aVcan
p5223
aVtell
p5224
aV.
aa(lp5225
Vit\u2019s
p5226
aVa
aVquestion
p5227
aVof
p5228
aVballs\u2014which
p5229
aV,
aVunfortunately
p5230
aV,
aVi
aVdo
p5231
aVnot
p5232
aVhappen
p5233
aVto
p5234
aVpossess
p5235
aV.
aa(lp5236
Vha
p5237
aVha
p5238
aVha
p5239
aVha.\u201d
p5240
aVfrog
p5241
aVlaughed
p5242
aVwith
p5243
aVhis
p5244
aVmouth
p5245
aVwide
p5246
aVopen
p5247
aV.
aa(lp5248
Vballs
p5249
aVwere
p5250
aVnot
p5251
aVall
p5252
aVthat
p5253
aVfrog
p5254
aVlacked
p5255
aV.
aa(lp5256
Vhe
p5257
aVhad
p5258
aVno
p5259
aVteeth
p5260
aVeither
p5261
aV.
aa(lp5262
V*
aV*
aV*
aV*
aV*
aV*
aVunexpected
p5263
aVthings
p5264
aVdo
p5265
aVhappen
p5266
aV,
aVhowever
p5267
aV.
aa(lp5268
Vkatagiri
p5269
aVwas
p5270
aVshot
p5271
aVon
p5272
aVthe
p5273
aVevening
p5274
aVof
p5275
aVfebruary
p5276
aV17.
p5277
aVhe
p5278
aVhad
p5279
aVfinished
p5280
aVhis
p5281
aVrounds
p5282
aVfor
p5283
aVthe
p5284
aVday
p5285
aVand
p5286
aVwas
p5287
aVwalking
p5288
aVdown
p5289
aVthe
p5290
aVstreet
p5291
aVin
p5292
aVshinjuku
p5293
aVon
p5294
aVhis
p5295
aVway
p5296
aVback
p5297
aVto
p5298
aVthe
p5299
aVtrust
p5300
aVbank
p5301
aVwhen
p5302
aVa
aVyoung
p5303
aVman
p5304
aVin
p5305
aVa
aVleather
p5306
aVjacket
p5307
aVleaped
p5308
aVin
p5309
aVfront
p5310
aVof
p5311
aVhim
p5312
aV.
aa(lp5313
Vthe
p5314
aVman\u2019s
p5315
aVface
p5316
aVwas
p5317
aVa
aVblank
p5318
aV,
aVand
p5319
aVbe
p5320
aVgripped
p5321
aVa
aVsmall
p5322
aVblack
p5323
aVgun
p5324
aVin
p5325
aVone
p5326
aVhand
p5327
aV.
aa(lp5328
Vthe
p5329
aVgun
p5330
aVwas
p5331
aVso
p5332
aVsmall
p5333
aVand
p5334
aVso
p5335
aVblack
p5336
aVthat
p5337
aVit
p5338
aVhardly
p5339
aVlooked
p5340
aVreal
p5341
aV.
aa(lp5342
Vkatagiri
p5343
aVstared
p5344
aVat
p5345
aVthe
p5346
aVobject
p5347
aVin
p5348
aVthe
p5349
aVman\u2019s
p5350
aVhand
p5351
aV,
aVnot
p5352
aVregistering
p5353
aVthe
p5354
aVfact
p5355
aVthat
p5356
aVit
p5357
aVwas
p5358
aVaimed
p5359
aVat
p5360
aVhim
p5361
aVand
p5362
aVthat
p5363
aVthe
p5364
aVman
p5365
aVwas
p5366
aVpulling
p5367
aVthe
p5368
aVtrigger
p5369
aV.
aa(lp5370
Vit
p5371
aVall
p5372
aVhappened
p5373
aVtoo
p5374
aVquickly
p5375
aV:
aVit
p5376
aVdidn\u2019t
p5377
aVmake
p5378
aVsense
p5379
aVto
p5380
aVhim
p5381
aV.
aa(lp5382
Vbut
p5383
aVthe
p5384
aVgun
p5385
aV,
aVin
p5386
aVfact
p5387
aV,
aVwent
p5388
aVoff
p5389
aV.
aa(lp5390
Vkatagiri
p5391
aVsaw
p5392
aVthe
p5393
aVbarrel
p5394
aVjerk
p5395
aVin
p5396
aVthe
p5397
aVair
p5398
aVand
p5399
aV,
aVat
p5400
aVthe
p5401
aVsame
p5402
aVmoment
p5403
aV,
aVfelt
p5404
aVan
p5405
aVimpact
p5406
aVas
p5407
aVthough
p5408
aVsomeone
p5409
aVhad
p5410
aVstruck
p5411
aVhis
p5412
aVright
p5413
aVshoulder
p5414
aVwith
p5415
aVa
aVsledgehammer
p5416
aV.
aa(lp5417
Vhe
p5418
aVfelt
p5419
aVno
p5420
aVpain
p5421
aV,
aVbut
p5422
aVthe
p5423
aVblow
p5424
aVsent
p5425
aVhim
p5426
aVsprawling
p5427
aVon
p5428
aVthe
p5429
aVsidewalk
p5430
aV.
aa(lp5431
Vthe
p5432
aVleather
p5433
aVbriefcase
p5434
aVin
p5435
aVhis
p5436
aVright
p5437
aVhand
p5438
aVwent
p5439
aVflying
p5440
aVin
p5441
aVthe
p5442
aVother
p5443
aVdirection
p5444
aV.
aa(lp5445
Vthe
p5446
aVman
p5447
aVaimed
p5448
aVthe
p5449
aVgun
p5450
aVat
p5451
aVhim
p5452
aVagain
p5453
aV.
aa(lp5454
Va
aVsecond
p5455
aVshot
p5456
aVrang
p5457
aVout
p5458
aV.
aa(lp5459
Va
aVsmall
p5460
aVeatery\u2019s
p5461
aVsidewalk
p5462
aVsignboard
p5463
aVexploded
p5464
aVbefore
p5465
aVhis
p5466
aVeyes
p5467
aV.
aa(lp5468
Vhe
p5469
aVheard
p5470
aVpeople
p5471
aVscreaming
p5472
aV.
aa(lp5473
Vhis
p5474
aVglasses
p5475
aVhad
p5476
aVflown
p5477
aVoff
p5478
aV,
aVand
p5479
aVeverything
p5480
aVwas
p5481
aVa
aVblur
p5482
aV.
aa(lp5483
Vhe
p5484
aVwas
p5485
aVvaguely
p5486
aVaware
p5487
aVthat
p5488
aVthe
p5489
aVman
p5490
aVwas
p5491
aVapproaching
p5492
aVwith
p5493
aVthe
p5494
aVpistol
p5495
aVpointed
p5496
aVat
p5497
aVhim
p5498
aV.
aa(lp5499
Vi\u2019m
p5500
aVgoing
p5501
aVto
p5502
aVdie
p5503
aV,
aVhe
p5504
aVthought
p5505
aV.
aa(lp5506
Vfrog
p5507
aVhad
p5508
aVsaid
p5509
aVthat
p5510
aVtrue
p5511
aVterror
p5512
aVis
p5513
aVthe
p5514
aVkind
p5515
aVmen
p5516
aVfeel
p5517
aVtoward
p5518
aVtheir
p5519
aVimagination
p5520
aV.
aa(lp5521
Vkatagiri
p5522
aVcut
p5523
aVthe
p5524
aVswitch
p5525
aVof
p5526
aVhis
p5527
aVimagination
p5528
aVand
p5529
aVsank
p5530
aVinto
p5531
aVa
aVweightless
p5532
aVsilence
p5533
aV.
aa(lp5534
V*
aV*
aV*
aV*
aV*
aV*
aVwhen
p5535
aVhe
p5536
aVwoke
p5537
aVup
p5538
aV,
aVhe
p5539
aVwas
p5540
aVin
p5541
aVbed
p5542
aV.
aa(lp5543
Vhe
p5544
aVopened
p5545
aVone
p5546
aVeye
p5547
aV,
aVtook
p5548
aVa
aVmoment
p5549
aVto
p5550
aVsurvey
p5551
aVhis
p5552
aVsurroundings
p5553
aVand
p5554
aVthen
p5555
aVopened
p5556
aVthe
p5557
aVother
p5558
aVeye
p5559
aV.
aa(lp5560
Vthe
p5561
aVfirst
p5562
aVthing
p5563
aVthat
p5564
aVentered
p5565
aVhis
p5566
aVfield
p5567
aVof
p5568
aVvision
p5569
aVwas
p5570
aVa
aVmetal
p5571
aVstand
p5572
aVby
p5573
aVthe
p5574
aVhead
p5575
aVof
p5576
aVthe
p5577
aVbed
p5578
aVand
p5579
aVan
p5580
aVintravenous
p5581
aVfeeding
p5582
aVtube
p5583
aVthat
p5584
aVstretched
p5585
aVfrom
p5586
aVthe
p5587
aVstand
p5588
aVto
p5589
aVwhere
p5590
aVhe
p5591
aVlay
p5592
aV.
aa(lp5593
Vnext
p5594
aVhe
p5595
aVsaw
p5596
aVa
aVnurse
p5597
aVdressed
p5598
aVin
p5599
aVwhite
p5600
aV.
aa(lp5601
Vhe
p5602
aVrealized
p5603
aVhe
p5604
aVwas
p5605
aVlying
p5606
aVon
p5607
aVhis
p5608
aVback
p5609
aVon
p5610
aVa
aVhard
p5611
aVbed
p5612
aVand
p5613
aVwearing
p5614
aVsome
p5615
aVstrange
p5616
aVpiece
p5617
aVof
p5618
aVclothing
p5619
aVunder
p5620
aVwhich
p5621
aVhe
p5622
aVseemed
p5623
aVto
p5624
aVbe
p5625
aVnaked
p5626
aV.
aa(lp5627
Voh
p5628
aVyeah
p5629
aV,
aVhe
p5630
aVthought
p5631
aV,
aVi
aVwas
p5632
aVwalking
p5633
aValong
p5634
aVthe
p5635
aVsidewalk
p5636
aVwhen
p5637
aVsome
p5638
aVguy
p5639
aVshot
p5640
aVme
p5641
aV.
aa(lp5642
Vprobably
p5643
aVin
p5644
aVthe
p5645
aVshoulder
p5646
aV.
aa(lp5647
Vthe
p5648
aVright
p5649
aVone
p5650
aV.
aa(lp5651
Vhe
p5652
aVrelived
p5653
aVthe
p5654
aVscene
p5655
aVin
p5656
aVhis
p5657
aVmind
p5658
aV.
aa(lp5659
Vwhen
p5660
aVhe
p5661
aVremembered
p5662
aVthe
p5663
aVsmall
p5664
aVblack
p5665
aVgun
p5666
aVin
p5667
aVthe
p5668
aVyoung
p5669
aVman\u2019s
p5670
aVhand
p5671
aV,
aVhis
p5672
aVheart
p5673
aVmade
p5674
aVa
aVdisturbing
p5675
aVthump
p5676
aV.
aa(lp5677
Vthe
p5678
aVsons
p5679
aVof
p5680
aVbitches
p5681
aVwere
p5682
aVtrying
p5683
aVto
p5684
aVkill
p5685
aVme
p5686
aV!
aa(lp5687
Vhe
p5688
aVthought
p5689
aV.
aa(lp5690
Vbut
p5691
aVit
p5692
aVlooks
p5693
aVas
p5694
aVif
p5695
aVi
aVmade
p5696
aVit
p5697
aVthrough
p5698
aVok.
p5699
aVmy
p5700
aVmemory
p5701
aVis
p5702
aVfine
p5703
aV.
aa(lp5704
Vi
aVdon\u2019t
p5705
aVhave
p5706
aVany
p5707
aVpain
p5708
aV.
aa(lp5709
Vand
p5710
aVnot
p5711
aVjust
p5712
aVpain
p5713
aV:
aVi
aVdon\u2019t
p5714
aVhave
p5715
aVany
p5716
aVfeeling
p5717
aVat
p5718
aVall
p5719
aV.
aa(lp5720
Vi
aVcan\u2019t
p5721
aVlift
p5722
aVmy
p5723
aVarm\u2026..
p5724
aVthe
p5725
aVhospital
p5726
aVroom
p5727
aVhad
p5728
aVno
p5729
aVwindows
p5730
aV.
aa(lp5731
Vhe
p5732
aVcould
p5733
aVnot
p5734
aVtell
p5735
aVwhether
p5736
aVit
p5737
aVwas
p5738
aVday
p5739
aVor
p5740
aVnight
p5741
aV.
aa(lp5742
Vhe
p5743
aVhad
p5744
aVbeen
p5745
aVshot
p5746
aVjust
p5747
aVbefore
p5748
aVfive
p5749
aVin
p5750
aVthe
p5751
aVevening
p5752
aV.
aa(lp5753
Vhow
p5754
aVmuch
p5755
aVtime
p5756
aVhad
p5757
aVpassed
p5758
aVsince
p5759
aVthen
p5760
aV?
aa(lp5761
Vhad
p5762
aVthe
p5763
aVhour
p5764
aVof
p5765
aVhis
p5766
aVnighttime
p5767
aVrendezvous
p5768
aVwith
p5769
aVfrog
p5770
aVgone
p5771
aVby
p5772
aV?
aa(lp5773
Vkatagiri
p5774
aVsearched
p5775
aVthe
p5776
aVroom
p5777
aVfor
p5778
aVa
aVclock
p5779
aV,
aVbut
p5780
aVwithout
p5781
aVhis
p5782
aVglasses
p5783
aVhe
p5784
aVcould
p5785
aVsee
p5786
aVnothing
p5787
aVat
p5788
aVa
aVdistance
p5789
aV.
aa(lp5790
V\u201cexcuse
p5791
aVme
p5792
aV,
aV\u201d
aVhe
p5793
aVcalled
p5794
aVto
p5795
aVthe
p5796
aVnurse
p5797
aV.
aa(lp5798
V\u201coh
p5799
aV,
aVgood
p5800
aV.
aa(lp5801
Vyou\u2019re
p5802
aVfinally
p5803
aVawake
p5804
aV,
aV\u201d
aVthe
p5805
aVnurse
p5806
aVsaid
p5807
aV.
aa(lp5808
V\u201cwhat
p5809
aVtime
p5810
aVis
p5811
aVit
p5812
aV?
aV\u201d
aVshe
p5813
aVglanced
p5814
aVat
p5815
aVher
p5816
aVwatch
p5817
aV.
aa(lp5818
V\u201cnine-fifteen.\u201d
p5819
aV\u201cp.m
p5820
aV.
aa(lp5821
V?
aV\u201d
aV\u201cdon\u2019t
p5822
aVbe
p5823
aVsilly
p5824
aV;
aVit\u2019s
p5825
aVmorning
p5826
aV!
aV\u201d
aV\u201cnine-fifteen
p5827
aVa.m.
p5828
aV?
aV\u201d
aVkatagiri
p5829
aVgroaned
p5830
aV,
aVbarely
p5831
aVmanaging
p5832
aVto
p5833
aVlift
p5834
aVhis
p5835
aVhead
p5836
aVfrom
p5837
aVthe
p5838
aVpillow
p5839
aV.
aa(lp5840
Vthe
p5841
aVragged
p5842
aVnoise
p5843
aVthat
p5844
aVemerged
p5845
aVfrom
p5846
aVhis
p5847
aVthroat
p5848
aVsounded
p5849
aVlike
p5850
aVsomeone
p5851
aVelse\u2019s
p5852
aVvoice
p5853
aV.
aa(lp5854
V\u201cnine-fifteen
p5855
aVa.m.
p5856
aVon
p5857
aVfebruary
p5858
aV18
p5859
aV?
aV\u201d
aV\u201cright
p5860
aV,
aV\u201d
aVthe
p5861
aVnurse
p5862
aVsaid
p5863
aV,
aVlifting
p5864
aVher
p5865
aVarm
p5866
aVonce
p5867
aVmore
p5868
aVto
p5869
aVcheck
p5870
aVthe
p5871
aVdate
p5872
aVon
p5873
aVher
p5874
aVdigital
p5875
aVwatch
p5876
aV.
aa(lp5877
V\u201ctoday
p5878
aVis
p5879
aVfebruary
p5880
aV18
p5881
aV,
aV1995.\u201d
p5882
aV\u201cwasn\u2019t
p5883
aVthere
p5884
aVa
aVbig
p5885
aVearthquake
p5886
aVin
p5887
aVtokyo
p5888
aVthis
p5889
aVmorning
p5890
aV?
aV\u201d
aV\u201cin
p5891
aVtokyo
p5892
aV?
aV\u201d
aV\u201cin
p5893
aVtokyo.\u201d
p5894
aVthe
p5895
aVnurse
p5896
aVshook
p5897
aVher
p5898
aVhead
p5899
aV.
aa(lp5900
V\u201cnot
p5901
aVas
p5902
aVfar
p5903
aVas
p5904
aVi
aVknow.\u201d
p5905
aVhe
p5906
aVbreathed
p5907
aVa
aVsigh
p5908
aVof
p5909
aVrelief
p5910
aV.
aa(lp5911
Vwhatever
p5912
aVhad
p5913
aVhappened
p5914
aV,
aVthe
p5915
aVearthquake
p5916
aVat
p5917
aVleast
p5918
aVhad
p5919
aVbeen
p5920
aVaverted
p5921
aV.
aa(lp5922
V\u201chow\u2019s
p5923
aVmy
p5924
aVwound
p5925
aVdoing
p5926
aV?
aV\u201d
aV\u201cyour
p5927
aVwound
p5928
aV?
aV\u201d
aVshe
p5929
aVasked
p5930
aV.
aa(lp5931
V\u201cwhat
p5932
aVwound
p5933
aV?
aV\u201d
aV\u201cwhere
p5934
aVi
aVwas
p5935
aVshot.\u201d
p5936
aV\u201cshot
p5937
aV?
aV\u201d
aV\u201cyeah
p5938
aV,
aVnear
p5939
aVthe
p5940
aVentrance
p5941
aVto
p5942
aVthe
p5943
aVtrust
p5944
aVbank
p5945
aV.
aa(lp5946
Vsome
p5947
aVyoung
p5948
aVguy
p5949
aVshot
p5950
aVme
p5951
aV.
aa(lp5952
Vin
p5953
aVthe
p5954
aVright
p5955
aVshoulder
p5956
aV,
aVi
aVthink.\u201d
p5957
aVthe
p5958
aVnurse
p5959
aVflashed
p5960
aVa
aVnervous
p5961
aVsmile
p5962
aVin
p5963
aVhis
p5964
aVdirection
p5965
aV.
aa(lp5966
V\u201ci\u2019m
p5967
aVsorry
p5968
aV,
aVmr.
p5969
aVkatagiri
p5970
aV,
aVbut
p5971
aVyou
p5972
aVhaven\u2019t
p5973
aVbeen
p5974
aVshot.\u201d
p5975
aV\u201ci
p5976
aVhaven\u2019t
p5977
aV?
aa(lp5978
Vare
p5979
aVyou
p5980
aVsure
p5981
aV?
aV\u201d
aV\u201cas
p5982
aVsure
p5983
aVas
p5984
aVi
aVam
p5985
aVthat
p5986
aVthere
p5987
aVwas
p5988
aVno
p5989
aVearthquake
p5990
aVthis
p5991
aVmorning.\u201d
p5992
aVkatagiri
p5993
aVwas
p5994
aVstunned
p5995
aV.
aa(lp5996
V\u201cthen
p5997
aVwhat
p5998
aVthe
p5999
aVhell
p6000
aVam
p6001
aVi
aVdoing
p6002
aVin
p6003
aVa
aVhospital
p6004
aV?
aV\u201d
aV\u201csomebody
p6005
aVfound
p6006
aVyou
p6007
aVlying
p6008
aVin
p6009
aVthe
p6010
aVstreet
p6011
aV,
aVunconscious
p6012
aV.
aa(lp6013
Vin
p6014
aVthe
p6015
aVkabukicho
p6016
aVneighborhood
p6017
aVof
p6018
aVshinjuku
p6019
aV.
aa(lp6020
Vyou
p6021
aVdidn\u2019t
p6022
aVhave
p6023
aVany
p6024
aVexternal
p6025
aVwounds
p6026
aV.
aa(lp6027
Vyou
p6028
aVwere
p6029
aVjust
p6030
aVout
p6031
aVcold
p6032
aV.
aa(lp6033
Vand
p6034
aVwe
p6035
aVstill
p6036
aVhaven\u2019t
p6037
aVfigured
p6038
aVout
p6039
aVwhy
p6040
aV.
aa(lp6041
Vthe
p6042
aVdoctor\u2019s
p6043
aVgoing
p6044
aVto
p6045
aVbe
p6046
aVhere
p6047
aVsoon
p6048
aV.
aa(lp6049
Vyou\u2019d
p6050
aVbetter
p6051
aVtalk
p6052
aVto
p6053
aVhim.\u201d
p6054
aVlying
p6055
aVin
p6056
aVthe
p6057
aVstreet
p6058
aVunconscious
p6059
aV?
aa(lp6060
Vkatagiri
p6061
aVwas
p6062
aVsure
p6063
aVhe
p6064
aVhad
p6065
aVseen
p6066
aVthe
p6067
aVpistol
p6068
aVgo
p6069
aVoff
p6070
aV,
aVaimed
p6071
aVat
p6072
aVhim
p6073
aV.
aa(lp6074
Vhe
p6075
aVtook
p6076
aVa
aVdeep
p6077
aVbreath
p6078
aVand
p6079
aVtried
p6080
aVto
p6081
aVget
p6082
aVhis
p6083
aVhead
p6084
aVstraight
p6085
aV.
aa(lp6086
Vhe
p6087
aVwould
p6088
aVstart
p6089
aVby
p6090
aVputting
p6091
aVall
p6092
aVthe
p6093
aVfacts
p6094
aVin
p6095
aVorder
p6096
aV.
aa(lp6097
V\u201cwhat
p6098
aVyou\u2019re
p6099
aVtelling
p6100
aVme
p6101
aVis
p6102
aV,
aVi\u2019ve
p6103
aVbeen
p6104
aVlying
p6105
aVin
p6106
aVthis
p6107
aVhospital
p6108
aVbed
p6109
aV,
aVunconscious
p6110
aV,
aVsince
p6111
aVearly
p6112
aVevening
p6113
aVyesterday
p6114
aV,
aVis
p6115
aVthat
p6116
aVright
p6117
aV?
aV\u201d
aV\u201cright
p6118
aV,
aV\u201d
aVthe
p6119
aVnurse
p6120
aVsaid
p6121
aV.
aa(lp6122
V\u201cand
p6123
aVyou
p6124
aVhad
p6125
aVa
aVreally
p6126
aVbad
p6127
aVnight
p6128
aV,
aVmr.
p6129
aVkatagiri
p6130
aV.
aa(lp6131
Vyou
p6132
aVmust
p6133
aVhave
p6134
aVhad
p6135
aVsome
p6136
aVawful
p6137
aVnightmares
p6138
aV.
aa(lp6139
Vi
aVheard
p6140
aVyou
p6141
aVyelling
p6142
aV,
aV\u2018frog
p6143
aV!
aa(lp6144
Vhey
p6145
aV,
aVfrog
p6146
aV!
aV\u2019
aVyou
p6147
aVdid
p6148
aVit
p6149
aVa
aVlot
p6150
aV.
aa(lp6151
Vyou
p6152
aVhave
p6153
aVa
aVfriend
p6154
aVnicknamed
p6155
aVfrog
p6156
aV?
aV\u201d
aVkatagiri
p6157
aVclosed
p6158
aVhis
p6159
aVeyes
p6160
aVand
p6161
aVlistened
p6162
aVto
p6163
aVthe
p6164
aVslow
p6165
aV,
aVrhythmic
p6166
aVbeating
p6167
aVof
p6168
aVhis
p6169
aVheart
p6170
aVas
p6171
aVit
p6172
aVticked
p6173
aVoff
p6174
aVthe
p6175
aVminutes
p6176
aVof
p6177
aVhis
p6178
aVlife
p6179
aV.
aa(lp6180
Vhow
p6181
aVmuch
p6182
aVof
p6183
aVwhat
p6184
aVhe
p6185
aVremembered
p6186
aVhad
p6187
aVactually
p6188
aVhappened
p6189
aVand
p6190
aVhow
p6191
aVmuch
p6192
aVwas
p6193
aVhallucination
p6194
aV?
aa(lp6195
Vdid
p6196
aVfrog
p6197
aVreally
p6198
aVexist
p6199
aV,
aVand
p6200
aVhad
p6201
aVfrog
p6202
aVfought
p6203
aVwith
p6204
aVworm
p6205
aVto
p6206
aVput
p6207
aVa
aVstop
p6208
aVto
p6209
aVthe
p6210
aVearthquake
p6211
aV?
aa(lp6212
Vor
p6213
aVhad
p6214
aVthat
p6215
aVjust
p6216
aVbeen
p6217
aVpart
p6218
aVof
p6219
aVa
aVlong
p6220
aVdream
p6221
aV?
aa(lp6222
Vkatagiri
p6223
aVhad
p6224
aVno
p6225
aVidea
p6226
aVwhat
p6227
aVwas
p6228
aVtrue
p6229
aVanymore
p6230
aV.
aa(lp6231
V*
aV*
aV*
aV*
aV*
aV*
aVfrog
p6232
aVcame
p6233
aVto
p6234
aVhis
p6235
aVhospital
p6236
aVroom
p6237
aVthat
p6238
aVnight
p6239
aV.
aa(lp6240
Vkatagiri
p6241
aVawoke
p6242
aVto
p6243
aVfind
p6244
aVhim
p6245
aVin
p6246
aVthe
p6247
aVdim
p6248
aVlight
p6249
aV,
aVsitting
p6250
aVon
p6251
aVa
aVsteel
p6252
aVfolding
p6253
aVchair
p6254
aV,
aVhis
p6255
aVback
p6256
aVagainst
p6257
aVthe
p6258
aVwall
p6259
aV.
aa(lp6260
Vfrog\u2019s
p6261
aVbig
p6262
aV,
aVbulging
p6263
aVeyelids
p6264
aVwere
p6265
aVclosed
p6266
aVin
p6267
aVstraight
p6268
aVslits
p6269
aV.
aa(lp6270
V\u201cfrog
p6271
aV,
aV\u201d
aVkatagiri
p6272
aVcalled
p6273
aVout
p6274
aVto
p6275
aVhim
p6276
aV.
aa(lp6277
Vfrog
p6278
aVslowly
p6279
aVopened
p6280
aVhis
p6281
aVeyes
p6282
aV.
aa(lp6283
Vhis
p6284
aVbig
p6285
aVwhite
p6286
aVstomach
p6287
aVswelled
p6288
aVand
p6289
aVshrank
p6290
aVwith
p6291
aVhis
p6292
aVbreathing
p6293
aV.
aa(lp6294
V\u201ci
p6295
aVmeant
p6296
aVto
p6297
aVmeet
p6298
aVyou
p6299
aVin
p6300
aVthe
p6301
aVboiler
p6302
aVroom
p6303
aVat
p6304
aVnight
p6305
aVthe
p6306
aVway
p6307
aVi
aVpromised
p6308
aV,
aV\u201d
aVkatagiri
p6309
aVsaid
p6310
aV,
aV\u201cbut
p6311
aVi
aVhad
p6312
aVan
p6313
aVaccident
p6314
aVin
p6315
aVthe
p6316
aVevening
p6317
aV--
p6318
aVsomething
p6319
aVtotally
p6320
aVunexpected
p6321
aV--
p6322
aVand
p6323
aVthey
p6324
aVbrought
p6325
aVme
p6326
aVhere.\u201d
p6327
aVfrog
p6328
aVgave
p6329
aVhis
p6330
aVhead
p6331
aVa
aVslight
p6332
aVshake
p6333
aV.
aa(lp6334
V\u201ci
p6335
aVknow
p6336
aV.
aa(lp6337
Vit\u2019s
p6338
aVok.
p6339
aVdon\u2019t
p6340
aVworry
p6341
aV.
aa(lp6342
Vyou
p6343
aVwere
p6344
aVa
aVgreat
p6345
aVhelp
p6346
aVto
p6347
aVme
p6348
aVin
p6349
aVmy
p6350
aVfight
p6351
aV,
aVmr.
p6352
aVkatagiri.\u201d
p6353
aV\u201ci
p6354
aVwas
p6355
aV?
aV\u201d
aV\u201cyes
p6356
aV,
aVyou
p6357
aVwere
p6358
aV.
aa(lp6359
Vyou
p6360
aVdid
p6361
aVa
aVgreat
p6362
aVjob
p6363
aVin
p6364
aVyour
p6365
aVdreams
p6366
aV.
aa(lp6367
Vthat\u2019s
p6368
aVwhat
p6369
aVmade
p6370
aVit
p6371
aVpossible
p6372
aVfor
p6373
aVme
p6374
aVto
p6375
aVfight
p6376
aVworm
p6377
aVto
p6378
aVthe
p6379
aVfinish
p6380
aV.
aa(lp6381
Vi
aVhave
p6382
aVyou
p6383
aVto
p6384
aVthank
p6385
aVfor
p6386
aVmy
p6387
aVvictory.\u201d
p6388
aV\u201ci
p6389
aVdon\u2019t
p6390
aVget
p6391
aVit
p6392
aV,
aV\u201d
aVkatagiri
p6393
aVsaid
p6394
aV.
aa(lp6395
V\u201ci
p6396
aVwas
p6397
aVunconscious
p6398
aVthe
p6399
aVwhole
p6400
aVtime
p6401
aV.
aa(lp6402
Vthey
p6403
aVwere
p6404
aVfeeding
p6405
aVme
p6406
aVintravenously
p6407
aV.
aa(lp6408
Vi
aVdon\u2019t
p6409
aVremember
p6410
aVdoing
p6411
aVanything
p6412
aVin
p6413
aVmy
p6414
aVdream.\u201d
p6415
aV\u201cthat\u2019s
p6416
aVfine
p6417
aV,
aVmr.
p6418
aVkatagiri
p6419
aV.
aa(lp6420
Vit\u2019s
p6421
aVbetter
p6422
aVthat
p6423
aVyou
p6424
aVdon\u2019t
p6425
aVremember
p6426
aV.
aa(lp6427
Vthe
p6428
aVwhole
p6429
aVterrible
p6430
aVfight
p6431
aVoccurred
p6432
aVin
p6433
aVthe
p6434
aVarea
p6435
aVof
p6436
aVimagination
p6437
aV.
aa(lp6438
Vthat
p6439
aVis
p6440
aVthe
p6441
aVprecise
p6442
aVlocation
p6443
aVof
p6444
aVour
p6445
aVbattlefield
p6446
aV.
aa(lp6447
Vit
p6448
aVis
p6449
aVthere
p6450
aVthat
p6451
aVwe
p6452
aVexperience
p6453
aVour
p6454
aVvictories
p6455
aVand
p6456
aVour
p6457
aVdefeats
p6458
aV.
aa(lp6459
Veach
p6460
aVand
p6461
aVevery
p6462
aVon
p6463
aVof
p6464
aVus
p6465
aVis
p6466
aVa
aVbeing
p6467
aVof
p6468
aVlimited
p6469
aVduration
p6470
aV:
aVall
p6471
aVof
p6472
aVus
p6473
aVeventually
p6474
aVgo
p6475
aVdown
p6476
aVto
p6477
aVdefeat
p6478
aV.
aa(lp6479
Vbut
p6480
aVas
p6481
aVernest
p6482
aVhemingway
p6483
aVsaw
p6484
aVso
p6485
aVclearly
p6486
aV,
aVthe
p6487
aVultimate
p6488
aVvalue
p6489
aVof
p6490
aVour
p6491
aVlives
p6492
aVis
p6493
aVdecided
p6494
aVnot
p6495
aVby
p6496
aVhow
p6497
aVwe
p6498
aVwin
p6499
aVbut
p6500
aVby
p6501
aVhow
p6502
aVwe
p6503
aVlose
p6504
aV.
aa(lp6505
Vyou
p6506
aVand
p6507
aVi
aVtogether
p6508
aV,
aVmr.
p6509
aVkatagiri
p6510
aV,
aVwere
p6511
aVable
p6512
aVto
p6513
aVprevent
p6514
aVthe
p6515
aVannihilation
p6516
aVof
p6517
aVtokyo
p6518
aV.
aa(lp6519
Vwe
p6520
aVsaved
p6521
aV150,000
p6522
aVpeople
p6523
aVfrom
p6524
aVthe
p6525
aVjaws
p6526
aVof
p6527
aVdeath
p6528
aV.
aa(lp6529
Vno
p6530
aVone
p6531
aVrealizes
p6532
aVit
p6533
aV,
aVbut
p6534
aVthat
p6535
aVis
p6536
aVwhat
p6537
aVwe
p6538
aVaccomplished.\u201d
p6539
aV\u201chow
p6540
aVdid
p6541
aVwe
p6542
aVmanage
p6543
aVto
p6544
aVdefeat
p6545
aVworm
p6546
aV?
aa(lp6547
Vand
p6548
aVwhat
p6549
aVdid
p6550
aVi
aVdo
p6551
aV?
aV\u201d
aV\u201cwe
p6552
aVgave
p6553
aVeverything
p6554
aVwe
p6555
aVhad
p6556
aVin
p6557
aVa
aVfight
p6558
aVto
p6559
aVthe
p6560
aVbitter
p6561
aVend
p6562
aV.
aa(lp6563
Vwe
p6564
aV--
p6565
aV\u201d
aVfrog
p6566
aVsnapped
p6567
aVhis
p6568
aVmouth
p6569
aVshut
p6570
aVand
p6571
aVtook
p6572
aVone
p6573
aVgreat
p6574
aVbreath
p6575
aV.
aa(lp6576
V\u201cwe
p6577
aVused
p6578
aVevery
p6579
aVweapon
p6580
aVwe
p6581
aVcould
p6582
aVget
p6583
aVour
p6584
aVhands
p6585
aVon
p6586
aV,
aVmr.
p6587
aVkatagiri
p6588
aV.
aa(lp6589
Vwe
p6590
aVused
p6591
aVall
p6592
aVthe
p6593
aVcourage
p6594
aVwe
p6595
aVcould
p6596
aVmuster
p6597
aV.
aa(lp6598
Vdarkness
p6599
aVwas
p6600
aVour
p6601
aVenemy\u2019s
p6602
aVally
p6603
aV.
aa(lp6604
Vyou
p6605
aVbrought
p6606
aVin
p6607
aVa
aVfoot-powered
p6608
aVgenerator
p6609
aVand
p6610
aVused
p6611
aVevery
p6612
aVounce
p6613
aVof
p6614
aVyour
p6615
aVstrength
p6616
aVto
p6617
aVfill
p6618
aVthe
p6619
aVplace
p6620
aVwith
p6621
aVlight
p6622
aV.
aa(lp6623
Vworm
p6624
aVtried
p6625
aVto
p6626
aVfrighten
p6627
aVyou
p6628
aVaway
p6629
aVwith
p6630
aVphantoms
p6631
aVof
p6632
aVthe
p6633
aVdarkness
p6634
aV,
aVbut
p6635
aVyou
p6636
aVstood
p6637
aVyour
p6638
aVground
p6639
aV.
aa(lp6640
Vdarkness
p6641
aVvied
p6642
aVwith
p6643
aVlight
p6644
aVin
p6645
aVa
aVhorrific
p6646
aVbattle
p6647
aV,
aVand
p6648
aVin
p6649
aVthe
p6650
aVlight
p6651
aVi
aVgrappled
p6652
aVwith
p6653
aVthe
p6654
aVmonstrous
p6655
aVworm
p6656
aV.
aa(lp6657
Vhe
p6658
aVcoiled
p6659
aVhimself
p6660
aVaround
p6661
aVme
p6662
aVand
p6663
aVbathed
p6664
aVme
p6665
aVin
p6666
aVhis
p6667
aVhorrid
p6668
aVslime
p6669
aV.
aa(lp6670
Vi
aVtore
p6671
aVhim
p6672
aVto
p6673
aVshreds
p6674
aV,
aVbut
p6675
aVstill
p6676
aVhe
p6677
aVrefused
p6678
aVto
p6679
aVdie
p6680
aV.
aa(lp6681
Vall
p6682
aVhe
p6683
aVdid
p6684
aVwas
p6685
aVdivide
p6686
aVinto
p6687
aVsmaller
p6688
aVpieces
p6689
aV.
aa(lp6690
Vand
p6691
aVthen
p6692
aV...
p6693
aV\u201d
aVfrog
p6694
aVfell
p6695
aVsilent
p6696
aV,
aVbut
p6697
aVsoon
p6698
aV,
aVas
p6699
aVif
p6700
aVdredging
p6701
aVup
p6702
aVhis
p6703
aVlast
p6704
aVounce
p6705
aVof
p6706
aVstrength
p6707
aV,
aVhe
p6708
aVbegan
p6709
aVto
p6710
aVspeak
p6711
aVagain
p6712
aV.
aa(lp6713
V\u201cfyodor
p6714
aVdostoevsky
p6715
aV,
aVwith
p6716
aVunparalleled
p6717
aVtenderness
p6718
aV,
aVdepicted
p6719
aVthose
p6720
aVwho
p6721
aVhave
p6722
aVbeen
p6723
aVforsaken
p6724
aVby
p6725
aVgod
p6726
aV.
aa(lp6727
Vhe
p6728
aVdiscovered
p6729
aVthe
p6730
aVprecious
p6731
aVquality
p6732
aVof
p6733
aVhuman
p6734
aVexistence
p6735
aVin
p6736
aVthe
p6737
aVghastly
p6738
aVparadox
p6739
aVwhereby
p6740
aVmen
p6741
aVwho
p6742
aVhave
p6743
aVinvented
p6744
aVgod
p6745
aVwere
p6746
aVforsaken
p6747
aVby
p6748
aVthat
p6749
aVvery
p6750
aVgod
p6751
aV.
aa(lp6752
Vfighting
p6753
aVwith
p6754
aVworm
p6755
aVin
p6756
aVthe
p6757
aVdarkness
p6758
aV,
aVi
aVfound
p6759
aVmyself
p6760
aVthinking
p6761
aVof
p6762
aVdotoevsky\u2019s
p6763
aV\u2018white
p6764
aVknights.\u2019
p6765
aVi
aV...
p6766
aV\u201d
aVfrog\u2019s
p6767
aVwords
p6768
aVseemed
p6769
aVto
p6770
aVfounder
p6771
aV.
aa(lp6772
V\u201cmr
p6773
aV.
aa(lp6774
Vkatagiri
p6775
aV,
aVdo
p6776
aVyou
p6777
aVmind
p6778
aVif
p6779
aVi
aVtake
p6780
aVa
aVbrief
p6781
aVnap
p6782
aV?
aa(lp6783
Vi
aVam
p6784
aVutterly
p6785
aVexhausted.\u201d
p6786
aV\u201cplease
p6787
aV,
aV\u201d
aVkatagiri
p6788
aVsaid
p6789
aV.
aa(lp6790
V\u201ctake
p6791
aVa
aVgood
p6792
aV,
aVdeep
p6793
aVsleep.\u201d
p6794
aV\u201ci
p6795
aVwas
p6796
aVfinally
p6797
aVunable
p6798
aVto
p6799
aVdefeat
p6800
aVworm
p6801
aV,
aV\u201d
aVfrog
p6802
aVsaid
p6803
aV,
aVclosing
p6804
aVhis
p6805
aVeyes
p6806
aV.
aa(lp6807
V\u201ci
p6808
aVdid
p6809
aVmanage
p6810
aVto
p6811
aVstop
p6812
aVthe
p6813
aVearthquake
p6814
aV,
aVbut
p6815
aVi
aVwas
p6816
aVonly
p6817
aVable
p6818
aVto
p6819
aVcarry
p6820
aVour
p6821
aVbattle
p6822
aVto
p6823
aVa
aVdraw
p6824
aV.
aa(lp6825
Vi
aVinflicted
p6826
aVinjury
p6827
aVon
p6828
aVhim
p6829
aV,
aVand
p6830
aVhe
p6831
aVon
p6832
aVme
p6833
aV.
aa(lp6834
Vbut
p6835
aVto
p6836
aVtell
p6837
aVyou
p6838
aVthe
p6839
aVtruth
p6840
aV,
aVmr.
p6841
aVkatagiri
p6842
aV...
p6843
aV\u201d
aV\u201cwhat
p6844
aVis
p6845
aVit
p6846
aV,
aVfrog
p6847
aV?
aV\u201d
aV\u201ci
p6848
aVam
p6849
aV,
aVindeed
p6850
aV,
aVpure
p6851
aVfrog
p6852
aV,
aVbut
p6853
aVat
p6854
aVthe
p6855
aVsame
p6856
aVtime
p6857
aVi
aVam
p6858
aVa
aVthing
p6859
aVthat
p6860
aVstands
p6861
aVfor
p6862
aVa
aVworld
p6863
aVof
p6864
aVun-frog.\u201d
p6865
aV\u201chmm
p6866
aV,
aVi
aVdon\u2019t
p6867
aVget
p6868
aVthat
p6869
aVat
p6870
aVall.\u201d
p6871
aV\u201cneither
p6872
aVdo
p6873
aVi
aV,
aV\u201d
aVfrog
p6874
aVsaid
p6875
aV,
aVhis
p6876
aVeyes
p6877
aVstill
p6878
aVclosed
p6879
aV.
aa(lp6880
V\u201cit\u2019s
p6881
aVjust
p6882
aVa
aVfeeling
p6883
aVi
aVhave
p6884
aV.
aa(lp6885
Vwhat
p6886
aVyou
p6887
aVsee
p6888
aVwith
p6889
aVyour
p6890
aVeyes
p6891
aVis
p6892
aVnot
p6893
aVnecessarily
p6894
aVreal
p6895
aV.
aa(lp6896
Vmy
p6897
aVenemy
p6898
aVis
p6899
aV,
aVamong
p6900
aVother
p6901
aVthings
p6902
aV,
aVthe
p6903
aVme
p6904
aVinside
p6905
aVme
p6906
aV.
aa(lp6907
Vinside
p6908
aVme
p6909
aVis
p6910
aVthe
p6911
aVun-me
p6912
aV.
aa(lp6913
Vmy
p6914
aVbrain
p6915
aVis
p6916
aVgrowing
p6917
aVmurky
p6918
aV.
aa(lp6919
Vthe
p6920
aVlocomotive
p6921
aVis
p6922
aVcoming
p6923
aV.
aa(lp6924
Vbut
p6925
aVi
aVreally
p6926
aVwant
p6927
aVyou
p6928
aVto
p6929
aVunderstand
p6930
aVwhat
p6931
aVi
aVam
p6932
aVsaying
p6933
aV,
aVmr.
p6934
aVkatagiri.\u201d
p6935
aV\u201cyou\u2019re
p6936
aVtired
p6937
aV,
aVfrog
p6938
aV.
aa(lp6939
Vgo
p6940
aVto
p6941
aVsleep
p6942
aV.
aa(lp6943
Vyou\u2019ll
p6944
aVget
p6945
aVbetter.\u201d
p6946
aV\u201ci
p6947
aVam
p6948
aVslowly
p6949
aVreturning
p6950
aVto
p6951
aVthe
p6952
aVmurk
p6953
aV,
aVmr.
p6954
aVkatagiri
p6955
aV.
aa(lp6956
Vand
p6957
aVyet
p6958
aV...
p6959
aVi
aV...
p6960
aV\u201d
aVfrog
p6961
aVlost
p6962
aVhis
p6963
aVgrasp
p6964
aVon
p6965
aVwords
p6966
aVand
p6967
aVslipped
p6968
aVinto
p6969
aVa
aVcoma
p6970
aV.
aa(lp6971
Vhis
p6972
aVarms
p6973
aVhung
p6974
aVdown
p6975
aValmost
p6976
aVto
p6977
aVthe
p6978
aVfloor
p6979
aV,
aVand
p6980
aVhis
p6981
aVbig
p6982
aV,
aVwide
p6983
aVmouth
p6984
aVdrooped
p6985
aVopen
p6986
aV.
aa(lp6987
Vstraining
p6988
aVto
p6989
aVfocus
p6990
aVhis
p6991
aVeyes
p6992
aV,
aVkatagiri
p6993
aVwas
p6994
aVable
p6995
aVto
p6996
aVmake
p6997
aVout
p6998
aVdeep
p6999
aVcuts
p7000
aVcovering
p7001
aVfrog\u2019s
p7002
aVentire
p7003
aVbody
p7004
aV.
aa(lp7005
Vdiscolored
p7006
aVstreaks
p7007
aVran
p7008
aVthrough
p7009
aVhis
p7010
aVskin
p7011
aV,
aVand
p7012
aVthere
p7013
aVwas
p7014
aVa
aVsunken
p7015
aVspot
p7016
aVon
p7017
aVhis
p7018
aVhead
p7019
aVwhere
p7020
aVthe
p7021
aVflesh
p7022
aVhad
p7023
aVbeen
p7024
aVtorn
p7025
aVaway
p7026
aV.
aa(lp7027
Vkatagiri
p7028
aVstared
p7029
aVlong
p7030
aVand
p7031
aVhard
p7032
aVat
p7033
aVfrog
p7034
aV,
aVwho
p7035
aVsat
p7036
aVthere
p7037
aVnow
p7038
aVwrapped
p7039
aVin
p7040
aVthe
p7041
aVthick
p7042
aVcloak
p7043
aVof
p7044
aVsleep
p7045
aV.
aa(lp7046
Vas
p7047
aVsoon
p7048
aVas
p7049
aVi
aVget
p7050
aVout
p7051
aVof
p7052
aVthis
p7053
aVhospital
p7054
aV,
aVhe
p7055
aVthought
p7056
aV,
aVi\u2019ll
p7057
aVbuy
p7058
aVanna
p7059
aVkarenina
p7060
aVand
p7061
aV\u201cwhite
p7062
aVnights\u201d
p7063
aVand
p7064
aVread
p7065
aVthem
p7066
aVboth
p7067
aV.
aa(lp7068
Vthen
p7069
aVi\u2019ll
p7070
aVhave
p7071
aVa
aVnice
p7072
aV,
aVlong
p7073
aVliterary
p7074
aVdiscussion
p7075
aVabout
p7076
aVthem
p7077
aVwith
p7078
aVfrog
p7079
aV.
aa(lp7080
Vbefore
p7081
aVlong
p7082
aV,
aVfrog
p7083
aVbegan
p7084
aVto
p7085
aVtwitch
p7086
aVall
p7087
aVover
p7088
aV.
aa(lp7089
Vkatagiri
p7090
aVassumed
p7091
aVat
p7092
aVfirst
p7093
aVthat
p7094
aVthese
p7095
aVwere
p7096
aVjust
p7097
aVnormal
p7098
aVinvoluntary
p7099
aVmovements
p7100
aVin
p7101
aVsleep
p7102
aV,
aVbut
p7103
aVhe
p7104
aVsoon
p7105
aVrealized
p7106
aVhis
p7107
aVmistake
p7108
aV.
aa(lp7109
Vthere
p7110
aVwas
p7111
aVsomething
p7112
aVunnatural
p7113
aVabout
p7114
aVthe
p7115
aVway
p7116
aVfrog\u2019s
p7117
aVbody
p7118
aVwent
p7119
aVon
p7120
aVjerking
p7121
aV,
aVlike
p7122
aVa
aVbig
p7123
aVdoll
p7124
aVbeing
p7125
aVshaken
p7126
aVby
p7127
aVsomeone
p7128
aVfrom
p7129
aVbehind
p7130
aV.
aa(lp7131
Vkatagiri
p7132
aVheld
p7133
aVhis
p7134
aVbreath
p7135
aVand
p7136
aVwatched
p7137
aV.
aa(lp7138
Vhe
p7139
aVwanted
p7140
aVto
p7141
aVrun
p7142
aVover
p7143
aVto
p7144
aVfrog
p7145
aV,
aVbut
p7146
aVhis
p7147
aVown
p7148
aVbody
p7149
aVremained
p7150
aVparalyzed
p7151
aV.
aa(lp7152
Vafter
p7153
aVa
aVwhile
p7154
aV,
aVa
aVbig
p7155
aVlump
p7156
aVformed
p7157
aVover
p7158
aVfrog\u2019s
p7159
aVright
p7160
aVeye
p7161
aV.
aa(lp7162
Vthe
p7163
aVsame
p7164
aVkind
p7165
aVof
p7166
aVhuge
p7167
aV,
aVugly
p7168
aVboil
p7169
aVbroke
p7170
aVout
p7171
aVon
p7172
aVfrog\u2019s
p7173
aVshoulder
p7174
aVand
p7175
aVside
p7176
aVand
p7177
aVthen
p7178
aVover
p7179
aVhis
p7180
aVwhole
p7181
aVbody
p7182
aV.
aa(lp7183
Vkatagiri
p7184
aVcould
p7185
aVnot
p7186
aVimagine
p7187
aVwhat
p7188
aVwas
p7189
aVhappening
p7190
aVto
p7191
aVfrog
p7192
aV.
aa(lp7193
Vhe
p7194
aVstared
p7195
aVat
p7196
aVthe
p7197
aVspectacle
p7198
aV,
aVbarely
p7199
aVbreathing
p7200
aV.
aa(lp7201
Vthen
p7202
aV,
aVall
p7203
aVof
p7204
aVa
aVsudden
p7205
aV,
aVone
p7206
aVof
p7207
aVthe
p7208
aVboils
p7209
aVburst
p7210
aVwith
p7211
aVa
aVloud
p7212
aVpop
p7213
aV.
aa(lp7214
Vthe
p7215
aVskin
p7216
aVflew
p7217
aVoff
p7218
aV,
aVand
p7219
aVa
aVsticky
p7220
aVliquid
p7221
aVoozed
p7222
aVout
p7223
aV,
aVsending
p7224
aVa
aVhorrible
p7225
aVsmell
p7226
aVacross
p7227
aVthe
p7228
aVroom
p7229
aV.
aa(lp7230
Vthe
p7231
aVrest
p7232
aVof
p7233
aVthe
p7234
aVboils
p7235
aVstarted
p7236
aVpopping
p7237
aV,
aVone
p7238
aVafter
p7239
aVanother
p7240
aV,
aVtwenty
p7241
aVor
p7242
aVthirty
p7243
aVin
p7244
aVall
p7245
aV,
aVflinging
p7246
aVskin
p7247
aVand
p7248
aVfluid
p7249
aVonto
p7250
aVthe
p7251
aVwalls
p7252
aV.
aa(lp7253
Vthe
p7254
aVsickening
p7255
aV,
aVunbearable
p7256
aVsmell
p7257
aVfilled
p7258
aVthe
p7259
aVhospital
p7260
aVroom
p7261
aV.
aa(lp7262
Vbig
p7263
aVblack
p7264
aVholes
p7265
aVwere
p7266
aVleft
p7267
aVon
p7268
aVfrog\u2019s
p7269
aVbody
p7270
aVwhere
p7271
aVthe
p7272
aVboils
p7273
aVhad
p7274
aVburst
p7275
aV,
aVand
p7276
aVwriggling
p7277
aV,
aVmaggot-like
p7278
aVworms
p7279
aVof
p7280
aVall
p7281
aVshapes
p7282
aVand
p7283
aVsizes
p7284
aVcame
p7285
aVcrawling
p7286
aVout
p7287
aV.
aa(lp7288
Vpuffy
p7289
aVwhite
p7290
aVmaggots
p7291
aV.
aa(lp7292
Vafter
p7293
aVthem
p7294
aVemerged
p7295
aVsome
p7296
aVkind
p7297
aVof
p7298
aVsmall
p7299
aV,
aVcentipede-like
p7300
aVcreatures
p7301
aV,
aVwhose
p7302
aVhundreds
p7303
aVof
p7304
aVlegs
p7305
aVmade
p7306
aVa
aVcreepy
p7307
aVrustling
p7308
aVsound
p7309
aV.
aa(lp7310
Van
p7311
aVendless
p7312
aVstream
p7313
aVof
p7314
aVthese
p7315
aVthings
p7316
aVcame
p7317
aVcrawling
p7318
aVout
p7319
aVof
p7320
aVthe
p7321
aVholes
p7322
aV.
aa(lp7323
Vfrog\u2019s
p7324
aVbody
p7325
aV--
p7326
aVor
p7327
aVthe
p7328
aVthing
p7329
aVthat
p7330
aVhad
p7331
aVonce
p7332
aVbeen
p7333
aVfrog\u2019s
p7334
aVbody
p7335
aV--
p7336
aVwas
p7337
aVtotally
p7338
aVcovered
p7339
aVby
p7340
aVthese
p7341
aVcreatures
p7342
aVof
p7343
aVthe
p7344
aVnight
p7345
aV.
aa(lp7346
Vhis
p7347
aVtwo
p7348
aVbig
p7349
aVeyeballs
p7350
aVfell
p7351
aVfrom
p7352
aVtheir
p7353
aVsockets
p7354
aVonto
p7355
aVthe
p7356
aVfloor
p7357
aV,
aVwhere
p7358
aVthey
p7359
aVwere
p7360
aVdevoured
p7361
aVby
p7362
aVblack
p7363
aVbugs
p7364
aVwith
p7365
aVstrong
p7366
aVjaws
p7367
aV.
aa(lp7368
Vcrowds
p7369
aVof
p7370
aVslimy
p7371
aVworms
p7372
aVraced
p7373
aVeach
p7374
aVother
p7375
aVup
p7376
aVthe
p7377
aVwalls
p7378
aVto
p7379
aVthe
p7380
aVceiling
p7381
aV,
aVwhere
p7382
aVthey
p7383
aVcovered
p7384
aVthe
p7385
aVfluorescent
p7386
aVlights
p7387
aVand
p7388
aVburrowed
p7389
aVinto
p7390
aVthe
p7391
aVsmoke
p7392
aValarm
p7393
aV.
aa(lp7394
Vthe
p7395
aVfloor
p7396
aV,
aVtoo
p7397
aV,
aVwas
p7398
aVcovered
p7399
aVwith
p7400
aVworms
p7401
aVand
p7402
aVbugs
p7403
aV.
aa(lp7404
Vthey
p7405
aVclimbed
p7406
aVup
p7407
aVthe
p7408
aVlamp
p7409
aVand
p7410
aVblocked
p7411
aVthe
p7412
aVlight
p7413
aV,
aVand
p7414
aV,
aVof
p7415
aVcourse
p7416
aV,
aVthey
p7417
aVcrept
p7418
aVonto
p7419
aVkatagiri\u2019s
p7420
aVbed
p7421
aV.
aa(lp7422
Vhundreds
p7423
aVof
p7424
aVthem
p7425
aVcame
p7426
aVburrowing
p7427
aVunder
p7428
aVthe
p7429
aVcovers
p7430
aV.
aa(lp7431
Vthey
p7432
aVcrawled
p7433
aVup
p7434
aVhis
p7435
aVlegs
p7436
aV,
aVunder
p7437
aVhis
p7438
aVbed
p7439
aVgown
p7440
aV,
aVbetween
p7441
aVhis
p7442
aVthighs
p7443
aV.
aa(lp7444
Vthe
p7445
aVsmallest
p7446
aVworms
p7447
aVand
p7448
aVmaggots
p7449
aVcrawled
p7450
aVinside
p7451
aVhis
p7452
aVanus
p7453
aVand
p7454
aVears
p7455
aVand
p7456
aVnostrils
p7457
aV.
aa(lp7458
Vcentipedes
p7459
aVpried
p7460
aVopen
p7461
aVhis
p7462
aVmouth
p7463
aVand
p7464
aVcrawled
p7465
aVinside
p7466
aV,
aVone
p7467
aVafter
p7468
aVanother
p7469
aV.
aa(lp7470
Vfilled
p7471
aVwith
p7472
aVan
p7473
aVintense
p7474
aVdespair
p7475
aV,
aVkatagiri
p7476
aVscreamed
p7477
aV.
aa(lp7478
Vsomeone
p7479
aVsnapped
p7480
aVa
aVswitch
p7481
aVand
p7482
aVlight
p7483
aVfilled
p7484
aVthe
p7485
aVroom
p7486
aV.
aa(lp7487
V\u201cmr
p7488
aV.
aa(lp7489
Vkatagiri
p7490
aV!
aV\u201d
aVcalled
p7491
aVthe
p7492
aVnurse
p7493
aV.
aa(lp7494
Vkatagiri
p7495
aVopened
p7496
aVhis
p7497
aVeyes
p7498
aVto
p7499
aVthe
p7500
aVlight
p7501
aV.
aa(lp7502
Vhis
p7503
aVbody
p7504
aVwas
p7505
aVsoaked
p7506
aVin
p7507
aVsweat
p7508
aV.
aa(lp7509
Vthe
p7510
aVbugs
p7511
aVwere
p7512
aVgone
p7513
aV.
aa(lp7514
Vall
p7515
aVthey
p7516
aVhad
p7517
aVleft
p7518
aVbehind
p7519
aVin
p7520
aVhim
p7521
aVwas
p7522
aVa
aVhorrible
p7523
aV,
aVslimy
p7524
aVsensation
p7525
aV.
aa(lp7526
V\u201canother
p7527
aVbad
p7528
aVdream
p7529
aV,
aVeh
p7530
aV?
aa(lp7531
Vpoor
p7532
aVdear.\u201d
p7533
aVwith
p7534
aVquick
p7535
aV,
aVefficient
p7536
aVmovements
p7537
aV,
aVthe
p7538
aVnurse
p7539
aVreadied
p7540
aVan
p7541
aVinjection
p7542
aVand
p7543
aVstabbed
p7544
aVthe
p7545
aVneedle
p7546
aVinto
p7547
aVhis
p7548
aVarm
p7549
aV.
aa(lp7550
Vhe
p7551
aVtook
p7552
aVa
aVlong
p7553
aV,
aVdeep
p7554
aVbreath
p7555
aVand
p7556
aVlet
p7557
aVit
p7558
aVout
p7559
aV.
aa(lp7560
Vhis
p7561
aVheart
p7562
aVwas
p7563
aVexpanding
p7564
aVand
p7565
aVcontracting
p7566
aVviolently
p7567
aV.
aa(lp7568
V\u201cwhat
p7569
aVwere
p7570
aVyou
p7571
aVdreaming
p7572
aVabout
p7573
aV?
aV\u201d
aVkatagiri
p7574
aVwas
p7575
aVhaving
p7576
aVtrouble
p7577
aVdifferentiating
p7578
aVdream
p7579
aVfrom
p7580
aVreality
p7581
aV.
aa(lp7582
V\u201cwhat
p7583
aVyou
p7584
aVsee
p7585
aVwith
p7586
aVyour
p7587
aVeyes
p7588
aVis
p7589
aVnot
p7590
aVnecessarily
p7591
aVreal
p7592
aV,
aV\u201d
aVhe
p7593
aVtold
p7594
aVhimself
p7595
aValoud
p7596
aV.
aa(lp7597
V\u201cthat\u2019s
p7598
aVso
p7599
aVtrue
p7600
aV,
aV\u201d
aVthe
p7601
aVnurse
p7602
aVsaid
p7603
aVwith
p7604
aVa
aVsmile
p7605
aV.
aa(lp7606
V\u201cespecially
p7607
aVwhere
p7608
aVthose
p7609
aVdreams
p7610
aVare
p7611
aVconcerned.\u201d
p7612
aV\u201cfrog
p7613
aV,
aV\u201d
aVhe
p7614
aVmurmured
p7615
aV.
aa(lp7616
V\u201cdid
p7617
aVsomething
p7618
aVhappen
p7619
aVto
p7620
aVfrog
p7621
aV?
aV\u201d
aVshe
p7622
aVasked
p7623
aV.
aa(lp7624
V\u201che
p7625
aVsaved
p7626
aVtokyo
p7627
aVfrom
p7628
aVbeing
p7629
aVdestroyed
p7630
aVby
p7631
aVan
p7632
aVearthquake
p7633
aV.
aa(lp7634
Vall
p7635
aVby
p7636
aVhimself.\u201d
p7637
aV\u201cthat\u2019s
p7638
aVnice
p7639
aV,
aV\u201d
aVthe
p7640
aVnurse
p7641
aVsaid
p7642
aV,
aVreplacing
p7643
aVhis
p7644
aVnear-empty
p7645
aVintravenous-feeding
p7646
aVbottle
p7647
aVwith
p7648
aVa
aVnew
p7649
aVone
p7650
aV.
aa(lp7651
V\u201cwe
p7652
aVdon\u2019t
p7653
aVneed
p7654
aVany
p7655
aVmore
p7656
aVawful
p7657
aVthings
p7658
aVhappening
p7659
aVin
p7660
aVtokyo
p7661
aV.
aa(lp7662
Vwe
p7663
aVhave
p7664
aVplenty
p7665
aValready.\u201d
p7666
aV\u201cbut
p7667
aVit
p7668
aVcost
p7669
aVhim
p7670
aVhis
p7671
aVlife
p7672
aV.
aa(lp7673
Vhe\u2019s
p7674
aVgone
p7675
aV.
aa(lp7676
Vi
aVthink
p7677
aVhe
p7678
aVwent
p7679
aVback
p7680
aVto
p7681
aVthe
p7682
aVmurk
p7683
aV.
aa(lp7684
Vhe\u2019ll
p7685
aVnever
p7686
aVcome
p7687
aVhere
p7688
aVagain.\u201d
p7689
aVsmiling
p7690
aV,
aVthe
p7691
aVnurse
p7692
aVtoweled
p7693
aVthe
p7694
aVsweat
p7695
aVfrom
p7696
aVhis
p7697
aVforehead
p7698
aV.
aa(lp7699
V\u201cyou
p7700
aVwere
p7701
aVvery
p7702
aVfond
p7703
aVof
p7704
aVfrog
p7705
aV,
aVweren\u2019t
p7706
aVyou
p7707
aV,
aVkatagiri
p7708
aV?
aV\u201d
aV\u201clocomotive
p7709
aV,
aV\u201d
aVkatagiri
p7710
aVmumbled
p7711
aV.
aa(lp7712
V\u201cmore
p7713
aVthan
p7714
aVanybody.\u201d
p7715
aVthen
p7716
aVhe
p7717
aVclosed
p7718
aVhis
p7719
aVeyes
p7720
aVand
p7721
aVsank
p7722
aVinto
p7723
aVa
aVrestful
p7724
aV,
aVdreamless
p7725
aVsleep
p7726
aV.
aasb.