ccopy_reg
_reconstructor
p1
(cData.Book
Book
p2
c__builtin__
object
p3
NtRp4
(dp5
S'stored_object'
p6
S'Books/Electra/Book_object.p'
p7
sS'title'
p8
S'Electra'
p9
sS'main_text_path'
p10
S'Books/Electra/main_cleaned.txt'
p11
sS'metadata_path'
p12
S'Books/Electra/meta_data.csv'
p13
sS'book_path'
p14
S'Books/Electra/'
p15
sS'characters'
p16
(dp17
S'pylades'
p18
(dp19
S'list'
p20
(lp21
(lp22
V[
aVCHARACTER
p23
aV]
aV-
aV[
aVCHARACTER
p24
aV]
aVis
p25
aVorestes
p26
aV's
p27
aVsilent
p28
aVfriend
p29
aVwho
p30
aVaccompanies
p31
aVhim
p32
aVand
p33
aVthe
p34
aVold
p35
aVman
p36
aVto
p37
aVmycenae
p38
aVto
p39
aVexact
p40
aVrevenge
p41
aVfor
p42
aVagamemnon
p43
aV's
p44
aVdeath
p45
aV.
aa(lp46
Vhe
p47
aVis
p48
aVthe
p49
aVmute
p50
aVwitness
p51
aVto
p52
aVthe
p53
aVplay
p54
aV's
p55
aVdrama
p56
aVin
p57
aVmuch
p58
aVthe
p59
aVsame
p60
aVway
p61
aVthat
p62
aVthe
p63
aVaudience
p64
aVis
p65
aV.
aasS'analysis'
p66
NssS'orestes'
p67
(dp68
g20
(lp69
(lp70
V[
aVCHARACTER
p71
aV]
aV-
aV[
aVCHARACTER
p72
aV]
aVis
p73
aVthe
p74
aVson
p75
aVof
p76
aVclytemnestra
p77
aVand
p78
aVagamemnon
p79
aV,
aVand
p80
aVtherefore
p81
aV,
aVhe
p82
aVis
p83
aVthe
p84
aVrightful
p85
aVking
p86
aVof
p87
aVargos
p88
aV.
aa(lp89
Vsaved
p90
aVas
p91
aVa
aVyoung
p92
aVchild
p93
aVby
p94
aVelectra
p95
aVand
p96
aVsmuggled
p97
aVaway
p98
aVto
p99
aVphocia
p100
aVafter
p101
aVagamemnon
p102
aV's
p103
aVmurder
p104
aV,
aVhe
p105
aVhas
p106
aVnow
p107
aVreturned
p108
aVto
p109
aVmycenae
p110
aVto
p111
aVavenge
p112
aVhis
p113
aVfather
p114
aV's
p115
aVdeath
p116
aV,
aVas
p117
aVinstructed
p118
aVby
p119
aVthe
p120
aVoracle
p121
aVof
p122
aVapollo
p123
aV.
aa(lp124
Vhe
p125
aVis
p126
aVadvised
p127
aVand
p128
aVaccompanied
p129
aVby
p130
aVhis
p131
aVtutor
p132
aVand
p133
aVkeeper
p134
aV,
aVthe
p135
aVold
p136
aVman
p137
aV,
aVand
p138
aVhis
p139
aVsilent
p140
aVfriend
p141
aV,
aVpylades
p142
aV.
aa(lp143
Vstill
p144
aVa
aVyouth
p145
aV,
aV[
aVCHARACTER
p146
aV]
aVis
p147
aVsomewhat
p148
aVnaive
p149
aVand
p150
aVinexperienced
p151
aV.
aa(lp152
Vhe
p153
aVacts
p154
aVbecause
p155
aVhe
p156
aVhas
p157
aVbeen
p158
aVso
p159
aVinstructed
p160
aVby
p161
aVapollo
p162
aV's
p163
aVoracle
p164
aV,
aVand
p165
aVnot
p166
aVas
p167
aVmotivated
p168
aVby
p169
aVintense
p170
aVor
p171
aVdeep
p172
aVemotion
p173
aV.
aasg66
(lp174
(lp175
V[
aVCHARACTER
p176
aV]
aVstill
p177
aVquite
p178
aVyouthful
p179
aVwhen
p180
aVinstructed
p181
aVby
p182
aVapollo
p183
aV's
p184
aVoracle
p185
aVto
p186
aVavenge
p187
aVagamemnon
p188
aV's
p189
aVmurder
p190
aV,
aV[
aVCHARACTER
p191
aV]
aVdisplays
p192
aVa
aVlevel
p193
aVof
p194
aVimmaturity
p195
aVthat
p196
aVrenders
p197
aVthe
p198
aVultimate
p199
aVrevenge
p200
aV--
p201
aVthe
p202
aVserious
p203
aVmatter
p204
aVof
p205
aVmatricide
p206
aV--
p207
aVmorally
p208
aVambiguous
p209
aV.
aa(lp210
Vhis
p211
aVinitial
p212
aVuneasiness
p213
aVabout
p214
aVlying
p215
aVabout
p216
aVhis
p217
aVown
p218
aVdeath
p219
aVsuggests
p220
aVa
aVcertain
p221
aVlevel
p222
aVof
p223
aVchildish
p224
aVsuperstition
p225
aV,
aVand
p226
aVhis
p227
aVlie
p228
aVof
p229
aVchoice
p230
aV--
p231
aVthat
p232
aVhe
p233
aVwas
p234
aVkilled
p235
aVin
p236
aVa
aVchariot
p237
aVrace
p238
aV--
p239
aVreflects
p240
aVthe
p241
aVnaivete
p242
aVof
p243
aVboth
p244
aVyouth
p245
aVand
p246
aVwealth
p247
aV.
aa(lp248
Vhis
p249
aVdesire
p250
aVto
p251
aVavenge
p252
aVhis
p253
aVfather
p254
aV's
p255
aVdeath
p256
aVis
p257
aVnot
p258
aVmotivated
p259
aVby
p260
aVintense
p261
aVemotion
p262
aVor
p263
aVthe
p264
aVprinciples
p265
aVof
p266
aVhonor
p267
aVor
p268
aVjustice
p269
aV.
aa(lp270
V[
aVCHARACTER
p271
aV]
aVacts
p272
aVas
p273
aVhe
p274
aVdoes
p275
aVbecause
p276
aVhe
p277
aVhas
p278
aVbeen
p279
aVso
p280
aVinstructed
p281
aVby
p282
aVthe
p283
aVoracle
p284
aVof
p285
aVapollo
p286
aV.
aa(lp287
V[
aVCHARACTER
p288
aV]
aV's
p289
aVinexperience
p290
aVreveals
p291
aVitself
p292
aVon
p293
aVseveral
p294
aVoccasions
p295
aV.
aa(lp296
Vwhen
p297
aVat
p298
aVfirst
p299
aVhe
p300
aVhears
p301
aVelectra
p302
aVcrying
p303
aVwithin
p304
aVthe
p305
aVhouse
p306
aV,
aVhe
p307
aVexpresses
p308
aVa
aVdesire
p309
aVto
p310
aVgreet
p311
aVher
p312
aVimmediately
p313
aV,
aValready
p314
aVdemonstrating
p315
aVa
aVtendency
p316
aVto
p317
aVwander
p318
aVfrom
p319
aVthe
p320
aVtask
p321
aVat
p322
aVhand
p323
aV,
aVwhich
p324
aV,
aVas
p325
aVthe
p326
aVold
p327
aVman
p328
aVreminds
p329
aVhim
p330
aV,
aVis
p331
aVto
p332
aVset
p333
aVthe
p334
aVplan
p335
aVfor
p336
aVrevenge
p337
aVin
p338
aVmotion
p339
aV.
aa(lp340
Vwhen
p341
aVhe
p342
aVfinally
p343
aVdoes
p344
aVmeet
p345
aVelectra
p346
aV,
aVhe
p347
aVis
p348
aVunable
p349
aVto
p350
aVconceal
p351
aVhis
p352
aVidentity
p353
aVfrom
p354
aVher
p355
aVfor
p356
aVlong
p357
aV.
aa(lp358
Vhe
p359
aVjeopardizes
p360
aVthe
p361
aVsecrecy
p362
aVof
p363
aVhis
p364
aVplan
p365
aVby
p366
aVletting
p367
aVher
p368
aVknow
p369
aVwho
p370
aVhe
p371
aVis
p372
aV,
aVfor
p373
aVwhich
p374
aVthe
p375
aVold
p376
aVman
p377
aVscolds
p378
aVhim
p379
aV.
aa(lp380
Vonce
p381
aVhe
p382
aVhas
p383
aVembarked
p384
aVon
p385
aVthe
p386
aVactual
p387
aVact
p388
aVof
p389
aVrevenge
p390
aV,
aVhowever
p391
aV,
aV[
aVCHARACTER
p392
aV]
aV's
p393
aVcharacter
p394
aVdoes
p395
aVgain
p396
aVa
aVlevel
p397
aVof
p398
aVmaturity
p399
aV.
aa(lp400
Valthough
p401
aVstill
p402
aVprincipally
p403
aVmotivated
p404
aVby
p405
aVapollo
p406
aV's
p407
aVinstructions
p408
aV--
p409
aVinsisting
p410
aVthat
p411
aVthe
p412
aVrevenge
p413
aVis
p414
aVonly
p415
aVas
p416
aV``
p417
aVgood
p418
aV''
p419
aVas
p420
aVapollo
p421
aV's
p422
aVoracle
p423
aVwas
p424
aV``
p425
aVgood
p426
aV''
p427
aV--
p428
aVhe
p429
aVdemonstrates
p430
aVan
p431
aVunderstanding
p432
aVof
p433
aVthe
p434
aVjustice
p435
aVat
p436
aVstake
p437
aV.
aa(lp438
Vhe
p439
aVtakes
p440
aVaegisthus
p441
aVto
p442
aVkill
p443
aVhim
p444
aVin
p445
aVthe
p446
aVexact
p447
aVspot
p448
aVwhere
p449
aVaegisthus
p450
aVmurdered
p451
aVagamemnon
p452
aV.
aa(lp453
V[
aVCHARACTER
p454
aV]
aV'
aVseeming
p455
aVmaturation
p456
aVas
p457
aVthe
p458
aVrevenge
p459
aVunfolds
p460
aVcompensates
p461
aV,
aVin
p462
aVa
aVsense
p463
aV,
aVfor
p464
aVelectra
p465
aV's
p466
aVincreasing
p467
aVirrationality
p468
aV,
aVbut
p469
aVhis
p470
aVinitial
p471
aVimmaturity
p472
aVand
p473
aVthe
p474
aVcold
p475
aVsource
p476
aVof
p477
aVhis
p478
aVmotivation
p479
aVmake
p480
aVthe
p481
aVaudience
p482
aVshudder
p483
aVat
p484
aVthe
p485
aVplay
p486
aV's
p487
aVfinal
p488
aVoutcome
p489
aV,
aVwondering
p490
aVif
p491
aVwhat
p492
aVhas
p493
aVhappened
p494
aVis
p495
aVright
p496
aV.
aassS'old man'
p497
(dp498
g20
(lp499
(lp500
V[
aVCHARACTER
p501
aV]
aV-
aVthe
p502
aV[
aVCHARACTER
p503
aV]
aVis
p504
aVthe
p505
aVfaithful
p506
aVservant
p507
aVto
p508
aVwhom
p509
aVelectra
p510
aVentrusted
p511
aVorestes
p512
aVas
p513
aVa
aVyoung
p514
aVboy
p515
aV.
aa(lp516
Vthe
p517
aV[
aVCHARACTER
p518
aV]
aVsmuggle
p519
aVorestes
p520
aVto
p521
aVphocia
p522
aV,
aVwhere
p523
aVhe
p524
aVserved
p525
aVas
p526
aVthe
p527
aVboy
p528
aV's
p529
aVtutor
p530
aVand
p531
aVguardian
p532
aV.
aa(lp533
Va
aVvoice
p534
aVof
p535
aVwisdom
p536
aVand
p537
aVpracticality
p538
aV,
aVhe
p539
aVacts
p540
aVas
p541
aVorestes
p542
aV'
aVadvisor
p543
aVin
p544
aVexacting
p545
aVrevenge
p546
aVfor
p547
aVagamemnon
p548
aV's
p549
aVdeath
p550
aV,
aVpaying
p551
aVstrict
p552
aVattention
p553
aVto
p554
aVdetail
p555
aV,
aVfocus
p556
aV,
aVand
p557
aVtiming
p558
aV.
aasg66
NssS'chorus'
p559
(dp560
g20
(lp561
(lp562
V[
aVCHARACTER
p563
aV]
aV-
aVthe
p564
aV[
aVCHARACTER
p565
aV]
aVis
p566
aVcomprised
p567
aVof
p568
aVthe
p569
aVvirgins
p570
aVof
p571
aVthe
p572
aVpalace
p573
aV.
aa(lp574
Vtraditionally
p575
aVreserved
p576
aVand
p577
aVconservative
p578
aV,
aVthis
p579
aV[
aVCHARACTER
p580
aV]
aVabandons
p581
aVits
p582
aVconventional
p583
aVstance
p584
aVto
p585
aVwhole-heartedly
p586
aVsupport
p587
aVboth
p588
aVelectra
p589
aVand
p590
aVthe
p591
aVplay
p592
aV's
p593
aVfinal
p594
aVact
p595
aVof
p596
aVvengeance
p597
aV.
aasg66
NssS'electra'
p598
(dp599
g20
(lp600
(lp601
V[
aVCHARACTER
p602
aV]
aV-
aV[
aVCHARACTER
p603
aV]
aVis
p604
aVthe
p605
aVeldest
p606
aVdaughter
p607
aVof
p608
aVclytemnestra
p609
aVand
p610
aVagamemnon
p611
aV.
aa(lp612
Vpoorly
p613
aVtreated
p614
aVby
p615
aVher
p616
aVmother
p617
aVand
p618
aVher
p619
aVmother
p620
aV's
p621
aVhusband
p622
aV,
aVaegisthus
p623
aV,
aVshe
p624
aVspends
p625
aVher
p626
aVdays
p627
aVmourning
p628
aVher
p629
aVfather
p630
aV's
p631
aVmurder
p632
aVand
p633
aVawaiting
p634
aVthe
p635
aVreturn
p636
aVof
p637
aVher
p638
aVbrother
p639
aV,
aVorestes
p640
aV,
aVwhom
p641
aVshe
p642
aVbelieves
p643
aVwill
p644
aVhelp
p645
aVher
p646
aVto
p647
aVcarry
p648
aVout
p649
aVthat
p650
aVwhich
p651
aVshe
p652
aVmost
p653
aVlongs
p654
aVfor
p655
aV:
aVvengeance
p656
aVfor
p657
aVher
p658
aVfather
p659
aV's
p660
aVdeath
p661
aV.
aa(lp662
Vshe
p663
aVis
p664
aVstubbornly
p665
aVdevoted
p666
aVto
p667
aVthe
p668
aVprinciples
p669
aVof
p670
aVjustice
p671
aV,
aVreverence
p672
aV,
aVand
p673
aVhonor
p674
aV,
aValthough
p675
aVoftentimes
p676
aVher
p677
aVgrasp
p678
aVon
p679
aVthese
p680
aVprinciples
p681
aVseems
p682
aVquestionable
p683
aV.
aasg66
(lp684
(lp685
V[
aVCHARACTER
p686
aV]
aV[
aVCHARACTER
p687
aV]
aV,
aVthe
p688
aVprotagonist
p689
aVof
p690
aVthe
p691
aVdrama
p692
aV,
aVhas
p693
aVan
p694
aVextremely
p695
aVcomplex
p696
aVrole
p697
aVin
p698
aVthat
p699
aVthe
p700
aVprinciples
p701
aVof
p702
aVjustice
p703
aVand
p704
aVhonor
p705
aVto
p706
aVwhich
p707
aVshe
p708
aVso
p709
aVstubbornly
p710
aVadheres
p711
aVrequire
p712
aVher
p713
aVto
p714
aVdo
p715
aVthe
p716
aVunthinkable
p717
aV--
p718
aVto
p719
aVparticipate
p720
aVin
p721
aVher
p722
aVmother
p723
aV's
p724
aVdeath
p725
aV.
aa(lp726
Vwhat
p727
aVadds
p728
aVto
p729
aVthe
p730
aVinherent
p731
aVcomplexity
p732
aVof
p733
aV[
aVCHARACTER
p734
aV]
aV's
p735
aVposition
p736
aVis
p737
aVthe
p738
aVincreasing
p739
aVevidence
p740
aVthroughout
p741
aVthe
p742
aVplay
p743
aVof
p744
aVthe
p745
aVuncertainty
p746
aVof
p747
aV[
aVCHARACTER
p748
aV]
aV's
p749
aVgrasp
p750
aVon
p751
aVthe
p752
aVvery
p753
aVstandards
p754
aVof
p755
aVjustice
p756
aVthat
p757
aVmotivate
p758
aVher
p759
aV.
aa(lp760
Vit
p761
aVis
p762
aVclear
p763
aVfrom
p764
aVthe
p765
aVoutset
p766
aVthat
p767
aV[
aVCHARACTER
p768
aV]
aVis
p769
aVright
p770
aVto
p771
aVmourn
p772
aVher
p773
aVfather
p774
aV's
p775
aVmurder
p776
aVby
p777
aVher
p778
aVmother
p779
aV.
aa(lp780
Vher
p781
aVmourning
p782
aVis
p783
aVa
aVnatural
p784
aVresponse
p785
aVto
p786
aVan
p787
aVawful
p788
aVoccurrence
p789
aV,
aVand
p790
aVshe
p791
aVclaims
p792
aVthat
p793
aValthough
p794
aVshe
p795
aVdoes
p796
aVnot
p797
aVnecessarily
p798
aVchoose
p799
aVgrief
p800
aV,
aVshe
p801
aVfeels
p802
aVforced
p803
aV,
aVas
p804
aVif
p805
aVby
p806
aVthe
p807
aVprinciples
p808
aVof
p809
aVhonor
p810
aV,
aVto
p811
aVact
p812
aVas
p813
aVshe
p814
aVdoes
p815
aV.
aa(lp816
V[
aVCHARACTER
p817
aV]
aV's
p818
aVmourning
p819
aVresults
p820
aVin
p821
aVher
p822
aVabuse
p823
aVby
p824
aVboth
p825
aVclytemnestra
p826
aVand
p827
aVaegisthus
p828
aV,
aVwho
p829
aV,
aVperhaps
p830
aVthreatened
p831
aVby
p832
aV[
aVCHARACTER
p833
aV]
aV's
p834
aVrefusal
p835
aVto
p836
aVlet
p837
aVgo
p838
aVof
p839
aVthe
p840
aVpast
p841
aV,
aVtreat
p842
aVher
p843
aVas
p844
aVlittle
p845
aVbetter
p846
aVthan
p847
aVa
aVslave
p848
aVin
p849
aVher
p850
aVown
p851
aVhouse
p852
aV.
aa(lp853
V[
aVCHARACTER
p854
aV]
aVis
p855
aVwilling
p856
aVto
p857
aVsuffer
p858
aVin
p859
aVthe
p860
aVname
p861
aVof
p862
aVhonor
p863
aV,
aVand
p864
aV,
aVin
p865
aVthe
p866
aVname
p867
aVof
p868
aVjustice
p869
aV,
aVshe
p870
aVrightfully
p871
aVlongs
p872
aVto
p873
aVavenge
p874
aVher
p875
aVfather
p876
aV's
p877
aVdeath
p878
aV.
aa(lp879
Vyet
p880
aV[
aVCHARACTER
p881
aV]
aVsoon
p882
aVundermines
p883
aVher
p884
aVposition
p885
aVin
p886
aVher
p887
aVinitial
p888
aVencounter
p889
aVwith
p890
aVclytemnestra
p891
aV.
aa(lp892
Vclytemnestra
p893
aVinsists
p894
aVthat
p895
aVshe
p896
aVmurdered
p897
aVagamemnon
p898
aVto
p899
aVexact
p900
aVrevenge
p901
aVfor
p902
aVhis
p903
aVsacrifice
p904
aVof
p905
aVtheir
p906
aVdaughter
p907
aV.
aa(lp908
V[
aVCHARACTER
p909
aV]
aVcounters
p910
aVby
p911
aVarguing
p912
aVthat
p913
aVjustice
p914
aVcan
p915
aVnot
p916
aVbe
p917
aVachieved
p918
aVby
p919
aVanswering
p920
aVa
aVkilling
p921
aVwith
p922
aVanother
p923
aVkilling
p924
aVbut
p925
aVthis
p926
aVraises
p927
aVquestions
p928
aVabout
p929
aVthe
p930
aVintegrity
p931
aVof
p932
aV[
aVCHARACTER
p933
aV]
aV's
p934
aVcharacter
p935
aVfor
p936
aV[
aVCHARACTER
p937
aV]
aVherself
p938
aVlongs
p939
aVto
p940
aVavenge
p941
aVher
p942
aVfather
p943
aV's
p944
aVdeath
p945
aV.
aa(lp946
V[
aVCHARACTER
p947
aV]
aV's
p948
aVcharacter
p949
aVis
p950
aVcalled
p951
aVinto
p952
aVfurther
p953
aVquestion
p954
aVas
p955
aVthe
p956
aVplay
p957
aVprogresses
p958
aV.
aa(lp959
Vafter
p960
aVorestes
p961
aVhas
p962
aVrevealed
p963
aVhis
p964
aVtrue
p965
aVidentity
p966
aVto
p967
aVher
p968
aV,
aVher
p969
aVenthusiasm
p970
aVat
p971
aVthe
p972
aVprospect
p973
aVof
p974
aVfinally
p975
aVexacting
p976
aVrevenge
p977
aVsnowballs
p978
aV,
aVand
p979
aVshe
p980
aVseems
p981
aVto
p982
aVlose
p983
aVan
p984
aVelement
p985
aVof
p986
aVrationality
p987
aV,
aVdemonstrating
p988
aVa
aVprofound
p989
aVcontradiction
p990
aVto
p991
aVher
p992
aVinitial
p993
aVinsistence
p994
aVon
p995
aVjustice
p996
aVand
p997
aVhonor
p998
aV.
aa(lp999
V[
aVCHARACTER
p1000
aV]
aVcries
p1001
aVout
p1002
aVfor
p1003
aVfurther
p1004
aVviolence
p1005
aVas
p1006
aVshe
p1007
aVlistens
p1008
aVto
p1009
aVorestes
p1010
aVdeal
p1011
aVfatal
p1012
aVblows
p1013
aVto
p1014
aVclytemnestra
p1015
aV,
aVand
p1016
aVshe
p1017
aVbaits
p1018
aVaegisthus
p1019
aVas
p1020
aVhe
p1021
aVreturns
p1022
aVhome
p1023
aV,
aVfeigning
p1024
aVa
aVhumbleness
p1025
aVthat
p1026
aVshe
p1027
aVsadistically
p1028
aVturns
p1029
aVon
p1030
aVits
p1031
aVhead
p1032
aVas
p1033
aVsoon
p1034
aVas
p1035
aVaegisthus
p1036
aVrealizes
p1037
aVhe
p1038
aVis
p1039
aVtrapped
p1040
aV.
aa(lp1041
Vshe
p1042
aVdenies
p1043
aVaegisthus
p1044
aVthe
p1045
aVright
p1046
aVto
p1047
aVspeak
p1048
aVbefore
p1049
aVhe
p1050
aVdies
p1051
aV,
aVand
p1052
aVshe
p1053
aVadvocates
p1054
aVleaving
p1055
aVhis
p1056
aVcorpse
p1057
aVout
p1058
aVfor
p1059
aVscavengers
p1060
aVto
p1061
aVeat
p1062
aV.
aa(lp1063
Vinitially
p1064
aVthe
p1065
aVexclusive
p1066
aVvehicle
p1067
aVfor
p1068
aVjustice
p1069
aVand
p1070
aVhonor
p1071
aV,
aV[
aVCHARACTER
p1072
aV]
aVbecomes
p1073
aVfilled
p1074
aVwith
p1075
aVcontradictions
p1076
aVthat
p1077
aVrender
p1078
aVthe
p1079
aVplay
p1080
aVmorally
p1081
aVambiguous
p1082
aV.
aassS'chrysothemis'
p1083
(dp1084
g20
(lp1085
(lp1086
V[
aVCHARACTER
p1087
aV]
aV-
aV[
aVCHARACTER
p1088
aV]
aVis
p1089
aVthe
p1090
aVyounger
p1091
aVdaughter
p1092
aVof
p1093
aVclytemnestra
p1094
aVand
p1095
aVagamemnon
p1096
aV.
aa(lp1097
Valthough
p1098
aVshe
p1099
aVrecognizes
p1100
aVher
p1101
aVmother
p1102
aV's
p1103
aVcorruption
p1104
aVand
p1105
aValthough
p1106
aVshe
p1107
aVunderstands
p1108
aVthe
p1109
aVinjustice
p1110
aVof
p1111
aVher
p1112
aVfather
p1113
aV's
p1114
aVmurder
p1115
aV,
aVshe
p1116
aVrefuses
p1117
aVto
p1118
aVmourn
p1119
aVin
p1120
aVthe
p1121
aVway
p1122
aVthat
p1123
aVher
p1124
aVsister
p1125
aV,
aVelectra
p1126
aV,
aVdoes
p1127
aV.
aa(lp1128
Vshe
p1129
aVrealizes
p1130
aVthat
p1131
aVshe
p1132
aVwill
p1133
aVgain
p1134
aVthe
p1135
aVgreatest
p1136
aVbenefits
p1137
aVby
p1138
aVsiding
p1139
aVwith
p1140
aVthose
p1141
aVin
p1142
aVcontrol
p1143
aV.
aa(lp1144
Vunlike
p1145
aVelectra
p1146
aV,
aVwho
p1147
aVadheres
p1148
aVto
p1149
aVthe
p1150
aVprinciples
p1151
aVof
p1152
aVjustice
p1153
aV,
aV[
aVCHARACTER
p1154
aV]
aVclings
p1155
aVto
p1156
aVthe
p1157
aVprinciple
p1158
aVof
p1159
aVexpediency
p1160
aVin
p1161
aVthe
p1162
aVhopes
p1163
aVof
p1164
aVmaximizing
p1165
aVher
p1166
aVown
p1167
aVcomfort
p1168
aVand
p1169
aVprofit
p1170
aV.
aasg66
NssS'aegisthus'
p1171
(dp1172
g20
(lp1173
(lp1174
V[
aVCHARACTER
p1175
aV]
aV-
aV[
aVCHARACTER
p1176
aV]
aVis
p1177
aVthe
p1178
aVparamour
p1179
aVof
p1180
aVclytemnestra
p1181
aVand
p1182
aVresponsible
p1183
aVfor
p1184
aVthe
p1185
aVmurder
p1186
aVof
p1187
aVagamemnon
p1188
aV.
aa(lp1189
Vlike
p1190
aVclytemnestra
p1191
aV,
aVhe
p1192
aVis
p1193
aVaware
p1194
aVof
p1195
aVthe
p1196
aVuneasy
p1197
aVfoundations
p1198
aVupon
p1199
aVwhich
p1200
aVhis
p1201
aVposition
p1202
aVrests
p1203
aV.
aa(lp1204
Vhis
p1205
aVgreat
p1206
aVdesire
p1207
aVis
p1208
aVto
p1209
aVeliminate
p1210
aVthreats
p1211
aVto
p1212
aVhis
p1213
aVway
p1214
aVof
p1215
aVlife
p1216
aV;
aValways
p1217
aVcruel
p1218
aVto
p1219
aVelectra
p1220
aV,
aVhe
p1221
aVwants
p1222
aVto
p1223
aVlock
p1224
aVher
p1225
aVaway
p1226
aValong
p1227
aVwith
p1228
aVher
p1229
aVperpetual
p1230
aVgrieving
p1231
aV,
aVand
p1232
aVhe
p1233
aVcelebrates
p1234
aVorestes
p1235
aV'
aVsupposed
p1236
aVdeath
p1237
aV.
aasg66
NssS'clytemnestra'
p1238
(dp1239
g20
(lp1240
(lp1241
V[
aVCHARACTER
p1242
aV]
aV-
aV[
aVCHARACTER
p1243
aV]
aVis
p1244
aVthe
p1245
aVqueen
p1246
aVof
p1247
aVargos
p1248
aV.
aa(lp1249
Vformerly
p1250
aVmarried
p1251
aVto
p1252
aVagamemnon
p1253
aV,
aVwhom
p1254
aVshe
p1255
aVmurdered
p1256
aV,
aVshe
p1257
aVnow
p1258
aVreigns
p1259
aVcorruptly
p1260
aValongside
p1261
aVaegisthus
p1262
aV,
aVher
p1263
aVparamour
p1264
aV.
aa(lp1265
Vshe
p1266
aVdespises
p1267
aVand
p1268
aVpoorly
p1269
aVtreats
p1270
aVher
p1271
aVdaughter
p1272
aV,
aVelectra
p1273
aV,
aVwhose
p1274
aVconstant
p1275
aVmourning
p1276
aVand
p1277
aVdesire
p1278
aVfor
p1279
aVrevenge
p1280
aVthreatens
p1281
aV[
aVCHARACTER
p1282
aV]
aV.
aa(lp1283
Vshe
p1284
aVloves
p1285
aVwealth
p1286
aVand
p1287
aVwell
p1288
aVbeing
p1289
aV,
aVboth
p1290
aVof
p1291
aVwhich
p1292
aVshe
p1293
aVenjoys
p1294
aV,
aVbut
p1295
aVshe
p1296
aVis
p1297
aVclearly
p1298
aVhaunted
p1299
aVby
p1300
aVher
p1301
aVpast
p1302
aVactions
p1303
aVand
p1304
aVaware
p1305
aVthat
p1306
aVher
p1307
aVcurrent
p1308
aVhappiness
p1309
aVrests
p1310
aVon
p1311
aVuneasy
p1312
aVground
p1313
aV.
aasg66
(lp1314
(lp1315
V[
aVCHARACTER
p1316
aV]
aV[
aVCHARACTER
p1317
aV]
aValso
p1318
aVadds
p1319
aVto
p1320
aVthe
p1321
aVcomplexity
p1322
aVof
p1323
aVthe
p1324
aVfinal
p1325
aVrevenge
p1326
aV.
aa(lp1327
Velectra
p1328
aVtells
p1329
aVus
p1330
aVthat
p1331
aV[
aVCHARACTER
p1332
aV]
aVis
p1333
aVa
aVcruel
p1334
aV,
aVpitiless
p1335
aV,
aVwoman
p1336
aV,
aVa
aVkiller
p1337
aVof
p1338
aVher
p1339
aVown
p1340
aVhusband
p1341
aVwho
p1342
aVdeserves
p1343
aVto
p1344
aVbe
p1345
aVpunished
p1346
aVfor
p1347
aVher
p1348
aVactions
p1349
aV.
aa(lp1350
Vaccording
p1351
aVto
p1352
aVelectra
p1353
aV,
aV[
aVCHARACTER
p1354
aV]
aVkilled
p1355
aVagamemnon
p1356
aVso
p1357
aVthat
p1358
aVshe
p1359
aVcould
p1360
aVbe
p1361
aVwith
p1362
aVaegisthus
p1363
aV.
aa(lp1364
V[
aVCHARACTER
p1365
aV]
aV,
aVhowever
p1366
aV,
aVpaints
p1367
aVa
aVvery
p1368
aVdifferent
p1369
aVpicture
p1370
aVof
p1371
aVthe
p1372
aVmurder
p1373
aV.
aa(lp1374
Vshe
p1375
aVsays
p1376
aVthat
p1377
aVshe
p1378
aVwas
p1379
aVexacting
p1380
aVrevenge
p1381
aVfor
p1382
aVagamemnon
p1383
aV's
p1384
aVunnecessary
p1385
aVsacrifice
p1386
aVof
p1387
aVtheir
p1388
aVdaughter
p1389
aV.
aa(lp1390
Vif
p1391
aVthis
p1392
aVis
p1393
aVthe
p1394
aVcase
p1395
aV,
aVthe
p1396
aVproblem
p1397
aVof
p1398
aVrevenge
p1399
aVtakes
p1400
aVon
p1401
aVa
aVnew
p1402
aVshape
p1403
aV.
aa(lp1404
Vthe
p1405
aVunsettling
p1406
aVambiguity
p1407
aVof
p1408
aV[
aVCHARACTER
p1409
aV]
aV's
p1410
aVmotivation
p1411
aVin
p1412
aVkilling
p1413
aVagamemnon
p1414
aVcalls
p1415
aVinto
p1416
aVquestion
p1417
aVthe
p1418
aVvery
p1419
aVneed
p1420
aVfor
p1421
aVrevenge
p1422
aV.
aa(lp1423
V[
aVCHARACTER
p1424
aV]
aV's
p1425
aVresponse
p1426
aVto
p1427
aVthe
p1428
aVnews
p1429
aVof
p1430
aVorestes
p1431
aV'
aVdeath
p1432
aVis
p1433
aValso
p1434
aVunsettling
p1435
aV.
aa(lp1436
Vshe
p1437
aVprays
p1438
aVthat
p1439
aVorestes
p1440
aVmight
p1441
aVnever
p1442
aVreturn
p1443
aVto
p1444
aVdisrupt
p1445
aVher
p1446
aVlife
p1447
aV,
aVbut
p1448
aVher
p1449
aVreaction
p1450
aVto
p1451
aVhis
p1452
aVdeath
p1453
aVis
p1454
aVnot
p1455
aVone
p1456
aVof
p1457
aVunqualified
p1458
aVdelight
p1459
aV.
aa(lp1460
Vher
p1461
aVexpression
p1462
aVof
p1463
aVmaternal
p1464
aVfeelings
p1465
aV,
aVhowever
p1466
aVbrief
p1467
aV,
aVpoint
p1468
aVa
aVlevel
p1469
aVof
p1470
aVhuman
p1471
aVdecency
p1472
aVand
p1473
aVundermine
p1474
aVelectra
p1475
aV's
p1476
aVvillainous
p1477
aVdepiction
p1478
aVof
p1479
aVher
p1480
aV.
aa(lp1481
Vwe
p1482
aVcan
p1483
aVnot
p1484
aVhelp
p1485
aVbut
p1486
aVrecall
p1487
aVher
p1488
aVbrief
p1489
aVexpression
p1490
aVof
p1491
aVmaternal
p1492
aVpain
p1493
aVand
p1494
aVlove
p1495
aVas
p1496
aVher
p1497
aVown
p1498
aVson
p1499
aVstands
p1500
aVabove
p1501
aVher
p1502
aV,
aVdealing
p1503
aVher
p1504
aVher
p1505
aVfatal
p1506
aVblows
p1507
aV.
aasssS'mainText'
p1508
(lp1509
(lp1510
Vdramatis
p1511
aVpersonae
p1512
aVklytemnestra
p1513
aVmezzo
p1514
aVsoprano
p1515
aVelektpa
p1516
aV1
aVtt
p1517
aV~
aVf
aVsoprano
p1518
aV^
aV4.1
p1519
aV.
aa(lp1520
V4
aV?
aVher
p1521
aVdaughters
p1522
aV<
aVc
aV*
aVchrysothemis
p1523
aV/
aVv
aVsoprano
p1524
aVaegistheus
p1525
aVtenor
p1526
aVorestes
p1527
aVbaritone
p1528
aVthe
p1529
aVguardian
p1530
aVof
p1531
aVorestes
p1532
aVbass
p1533
aVthe
p1534
aVconfidante
p1535
aVsoprano
p1536
aVthe
p1537
aVtrainbearer
p1538
aVsoprano
p1539
aVa
aVyoung
p1540
aVservant
p1541
aVtenor
p1542
aVan
p1543
aVold
p1544
aVservant
p1545
aVbass
p1546
aVthe
p1547
aVoverseer
p1548
aVsoprano
p1549
aVf
aV1.
p1550
aVcontralto
p1551
aVfive
p1552
aVmaid
p1553
aVservants
p1554
aVj
aV2
aV.
aa(lp1555
V3.
p1556
aVmezzo
p1557
aVsoprano
p1558
aV[
aV4
aV.
aa(lp1559
V5.
p1560
aVsoprano
p1561
aVmen
p1562
aVservants
p1563
aVand
p1564
aVmaid
p1565
aVservants
p1566
aV.
aa(lp1567
Vscene
p1568
aV:
aVmykene
p1569
aV.
aa(lp1570
Vthe
p1571
aVinner
p1572
aVcourtyard
p1573
aVt
aVbounded
p1574
aVby
p1575
aVthe
p1576
aVback
p1577
aVof
p1578
aVthe
p1579
aVpalace
p1580
aV,
aVand
p1581
aVlow
p1582
aVbuildings
p1583
aVin
p1584
aVwhich
p1585
aVthe
p1586
aVservants
p1587
aVlive
p1588
aV.
aa(lp1589
Vmaid
p1590
aVservants
p1591
aVat
p1592
aVthe
p1593
aVdraw-well
p1594
aVat
p1595
aVthe
p1596
aVfront
p1597
aVof
p1598
aVthe
p1599
aVstage
p1600
aVto
p1601
aVthe
p1602
aVleft
p1603
aV.
aa(lp1604
Vthe
p1605
aVoverseer
p1606
aVis
p1607
aVamong
p1608
aVthem
p1609
aV.
aa(lp1610
Vfirst
p1611
aVmaid
p1612
aVservant
p1613
aV(
aVlifting
p1614
aVher
p1615
aVpitcher
p1616
aV)
aV.
aa(lp1617
Vwhere
p1618
aVstays
p1619
aVelektra
p1620
aV?
aa(lp1621
Vsecond
p1622
aVmaid
p1623
aVservant
p1624
aV.
aa(lp1625
Vis
p1626
aVit
p1627
aVnot
p1628
aVthe
p1629
aVseason
p1630
aV,
aVthe
p1631
aVseason
p1632
aVwhen
p1633
aVshe
p1634
aVfor
p1635
aVher
p1636
aVfather
p1637
aVhowls
p1638
aV,
aVthat
p1639
aVall
p1640
aVthe
p1641
aVwalls
p1642
aVre-echo
p1643
aV?
aa(lp1644
V{
aVelektra
p1645
aVruns
p1646
aVout
p1647
aVof
p1648
aVthe
p1649
aVhouse
p1650
aVwhich
p1651
aVis
p1652
aValready
p1653
aVgrowing
p1654
aVdark
p1655
aV.
aa(lp1656
Vall
p1657
aVturn
p1658
aVto
p1659
aVlook
p1660
aVat
p1661
aVher
p1662
aV.
aa(lp1663
Velektra
p1664
aVdarts
p1665
aVback
p1666
aVlike
p1667
aVan
p1668
aVanimal
p1669
aVto
p1670
aVits
p1671
aVlair
p1672
aV,
aVone
p1673
aVarm
p1674
aVheld
p1675
aVbefore
p1676
aVher
p1677
aVface
p1678
aV.
aV)
aa(lp1679
Vfirst
p1680
aVmaid
p1681
aVservant
p1682
aV,
aVdid
p1683
aVyou
p1684
aVnot
p1685
aVsee
p1686
aVwhat
p1687
aVlooks
p1688
aVshe
p1689
aVgave
p1690
aVus
p1691
aV?
aa(lp1692
Vsecond
p1693
aVmaid
p1694
aVservant
p1695
aV.
aa(lp1696
Vsurely
p1697
aVpoisonous
p1698
aV,
aVlike
p1699
aVa
aVwild
p1700
aVcat
p1701
aV's
p1702
aV.
aa(lp1703
Vthird
p1704
aVmaid
p1705
aVservant
p1706
aV.
aa(lp1707
Vyesterday
p1708
aVshe
p1709
aVlay
p1710
aVthere
p1711
aVgroaning
p1712
aV.
aa(lp1713
Vfirst
p1714
aVmaid
p1715
aVservant
p1716
aV.
aa(lp1717
Valways
p1718
aVwhen
p1719
aVthe
p1720
aVsun
p1721
aVis
p1722
aVsinking
p1723
aV,
aVshe
p1724
aVlies
p1725
aVand
p1726
aVgroans
p1727
aV.
aa(lp1728
Vthird
p1729
aVmaid
p1730
aVservant
p1731
aV.
aa(lp1732
Vand
p1733
aVthen
p1734
aVwe
p1735
aVwent
p1736
aV,
aVwe
p1737
aVtwo
p1738
aV,
aVapproaching
p1739
aVher
p1740
aVtoo
p1741
aVnear
p1742
aV.
aa(lp1743
Vfirst
p1744
aVmaid
p1745
aVservant
p1746
aV.
aa(lp1747
Vit
p1748
aVmaddens
p1749
aVher
p1750
aVto
p1751
aVknow
p1752
aVwe
p1753
aVwatch
p1754
aVher
p1755
aV.
aa(lp1756
Vthird
p1757
aVmaid
p1758
aVservant
p1759
aV.
aa(lp1760
Vyes
p1761
aV,
aVtoo
p1762
aVclosely
p1763
aVwe
p1764
aVapproached
p1765
aV:
aVshe
p1766
aVspat
p1767
aVat
p1768
aVus
p1769
aVjust
p1770
aVlike
p1771
aVa
aVcat
p1772
aVat
p1773
aVa
aVdog
p1774
aV.
aa(lp1775
V``
p1776
aVhence
p1777
aV,
aVfoul
p1778
aVflies
p1779
aV,
aV''
p1780
aVcried
p1781
aVshe
p1782
aV,
aV``
p1783
aVhence
p1784
aV!
aV''
p1785
aa(lp1786
Vfourth
p1787
aVmaid
p1788
aVservant
p1789
aV.
aa(lp1790
V``
p1791
aVfoul
p1792
aVhorse-flies
p1793
aV,
aVhence
p1794
aV!
aV''
p1795
aa(lp1796
Vthird
p1797
aVmaid
p1798
aVservant
p1799
aV.
aa(lp1800
V``
p1801
aVfeed
p1802
aVnot
p1803
aVon
p1804
aVmy
p1805
aVsore
p1806
aVplaces
p1807
aV!
aV''
p1808
aa(lp1809
Vand
p1810
aVwith
p1811
aVwisps
p1812
aVof
p1813
aVstraw
p1814
aVshe
p1815
aVtried
p1816
aVto
p1817
aVsmite
p1818
aVus
p1819
aV.
aa(lp1820
Vfourth
p1821
aVmaid
p1822
aVservant
p1823
aV.
aa(lp1824
V``
p1825
aVfoul
p1826
aVflies
p1827
aV,
aVaway
p1828
aV!
aV''
p1829
aa(lp1830
Vthird
p1831
aVmaid
p1832
aVservant
p1833
aV.
aa(lp1834
V``
p1835
aVbuzz
p1836
aVnot
p1837
aVabout
p1838
aVme
p1839
aV,
aVsucking
p1840
aVsweetness
p1841
aVfrom
p1842
aVmy
p1843
aVpain
p1844
aV.
aa(lp1845
Vnor
p1846
aVshall
p1847
aVmy
p1848
aVwrithings
p1849
aVmake
p1850
aVyou
p1851
aVto
p1852
aVsmack
p1853
aVyour
p1854
aVlips
p1855
aV.
aV''
p1856
aa(lp1857
Vfourth
p1858
aVmaid
p1859
aVservant
p1860
aV.
aa(lp1861
V``
p1862
aVaway
p1863
aV''
p1864
aV,
aVshe
p1865
aVcried
p1866
aV,
aV''
p1867
aVback
p1868
aVto
p1869
aVwhence
p1870
aVye
p1871
aVcame
p1872
aV.
aa(lp1873
Veat
p1874
aVcarrion
p1875
aVand
p1876
aVeat
p1877
aVsweetmeats
p1878
aV!
aa(lp1879
Vaway
p1880
aVto
p1881
aVbed
p1882
aV;
aVyour
p1883
aVmen
p1884
aVawait
p1885
aVyou
p1886
aV''
p1887
aVcried
p1888
aVshe
p1889
aV,
aVand
p1890
aVshe
p1891
aVthird
p1892
aVmaid
p1893
aVservant
p1894
aV.
aa(lp1895
Vi
aVwas
p1896
aVnot
p1897
aVslow
p1898
aVfourth
p1899
aVmaid
p1900
aVservant
p1901
aV.
aa(lp1902
Vshe
p1903
aVgave
p1904
aVher
p1905
aVanswer
p1906
aV!
aa(lp1907
Vthird
p1908
aVmaid
p1909
aVservant
p1910
aV.
aa(lp1911
V``
p1912
aVsurely
p1913
aVwhen
p1914
aVhunger
p1915
aVcalls
p1916
aV''
p1917
aV,
aVthus
p1918
aVi
aVmade
p1919
aVanswer
p1920
aV''
p1921
aVyou
p1922
aVtoo
p1923
aVwill
p1924
aVeat
p1925
aV.
aV''
p1926
aa(lp1927
Vthen
p1928
aVup
p1929
aVshe
p1930
aVleaped
p1931
aV,
aVher
p1932
aVeyes
p1933
aVflaming
p1934
aVwith
p1935
aVpassion
p1936
aV,
aVstretching
p1937
aVout
p1938
aVher
p1939
aVfingers
p1940
aV,
aVlike
p1941
aVcrooked
p1942
aVclaws
p1943
aVat
p1944
aVus
p1945
aV,
aVand
p1946
aVcried
p1947
aV:
aV``
p1948
aVa
aVvulture
p1949
aVbattens
p1950
aVon
p1951
aVmy
p1952
aVflesh
p1953
aV.
aV''
p1954
aa(lp1955
Vsecond
p1956
aVmaid
p1957
aVservant
p1958
aV.
aa(lp1959
Vand
p1960
aVwhat
p1961
aVsaid
p1962
aVyou
p1963
aV?
aa(lp1964
Vthird
p1965
aVmaid
p1966
aVservant
p1967
aV.
aa(lp1968
V``
p1969
aVtherefore
p1970
aVyou
p1971
aVever
p1972
aVcrawl
p1973
aV''
p1974
aV,
aVi
aVanswered
p1975
aVback
p1976
aV,
aVwhere
p1977
aVcarrion
p1978
aVstench
p1979
aVis
p1980
aVworst
p1981
aV,
aVand
p1982
aVdig
p1983
aV,
aVand
p1984
aVseek
p1985
aVan
p1986
aVancient
p1987
aVcarcase
p1988
aV!
aV''
p1989
aa(lp1990
Vsecond
p1991
aVmaid
p1992
aVservant
p1993
aV.
aa(lp1994
Vand
p1995
aVwhat
p1996
aVsaid
p1997
aVshe
p1998
aVthen
p1999
aV?
aa(lp2000
Vthird
p2001
aVmaid
p2002
aVservant
p2003
aV.
aa(lp2004
Vshe
p2005
aVdid
p2006
aVbut
p2007
aVhowl
p2008
aVagain
p2009
aVand
p2010
aVflung
p2011
aVherself
p2012
aVinto
p2013
aVher
p2014
aVcorner
p2015
aV.
aa(lp2016
V10
p2017
aVfirst
p2018
aVmaid
p2019
aVservant
p2020
aV.
aa(lp2021
Vthat
p2022
aVthe
p2023
aVqueen
p2024
aVshould
p2025
aVstill
p2026
aVsuffer
p2027
aVa
aVdemon
p2028
aVlike
p2029
aVto
p2030
aVher
p2031
aVto
p2032
aVroam
p2033
aVabroad
p2034
aVis
p2035
aVpassing
p2036
aVstrange
p2037
aV.
aa(lp2038
Vsecond
p2039
aVmaid
p2040
aVservant
p2041
aV.
aa(lp2042
V't
p2043
aVis
p2044
aVher
p2045
aVown
p2046
aVchild
p2047
aV!
aa(lp2048
Vfirst
p2049
aVmaid
p2050
aVservant
p2051
aV.
aa(lp2052
Vwere
p2053
aVshe
p2054
aVmy
p2055
aVchild
p2056
aV,
aVi
aV'd
p2057
aVhold
p2058
aVher
p2059
aV,
aVi
aVby
p2060
aVheav'n
p2061
aV!
aa(lp2062
Vsafe
p2063
aVunder
p2064
aVlock
p2065
aVand
p2066
aVkey
p2067
aV!
aa(lp2068
Vfourth
p2069
aVmaid
p2070
aVservant
p2071
aV.
aa(lp2072
Vdost
p2073
aVthou
p2074
aVnot
p2075
aVthink
p2076
aVthem
p2077
aVhard
p2078
aVenough
p2079
aVwith
p2080
aVher
p2081
aV?
aa(lp2082
Vis
p2083
aVnot
p2084
aVher
p2085
aVplatter
p2086
aVset
p2087
aV,
aVfull
p2088
aVof
p2089
aVoffal
p2090
aV,
aVin
p2091
aVthe
p2092
aVkennel
p2093
aV?
aa(lp2094
Vdoes
p2095
aVnot
p2096
aVthe
p2097
aVmaster
p2098
aVlay
p2099
aVhands
p2100
aVon
p2101
aVher
p2102
aV?
aa(lp2103
Vfifth
p2104
aVmaid
p2105
aVservant
p2106
aV(
aVquite
p2107
aVyoung
p2108
aV,
aVwith
p2109
aVtrembling
p2110
aVagitated
p2111
aVvoice
p2112
aV)
aV.
aa(lp2113
Vlet
p2114
aVme
p2115
aVbefore
p2116
aVher
p2117
aVdo
p2118
aVobeisance
p2119
aV,
aVand
p2120
aVher
p2121
aVfeet
p2122
aVcover
p2123
aVwith
p2124
aVkisses
p2125
aV.
aa(lp2126
Vis
p2127
aVshe
p2128
aVnot
p2129
aVa
aVchild
p2130
aVof
p2131
aVkings
p2132
aV,
aVyet
p2133
aVsuffers
p2134
aVshame
p2135
aV?
aa(lp2136
Vto
p2137
aVbathe
p2138
aVher
p2139
aVfeet
p2140
aVbe
p2141
aVmy
p2142
aVoffice
p2143
aV,
aVmine
p2144
aVtoo
p2145
aVwith
p2146
aVmy
p2147
aVhair
p2148
aVto
p2149
aVwipe
p2150
aVthem
p2151
aV.
aa(lp2152
Vthe
p2153
aVoverseer
p2154
aV(
aVflushes
p2155
aVher
p2156
aVback
p2157
aV)
aV.
aa(lp2158
Vwithin
p2159
aVwith
p2160
aVtheel
p2161
aVfifth
p2162
aVmaid
p2163
aVservant
p2164
aV.
aa(lp2165
Vthere
p2166
aVis
p2167
aVnaught
p2168
aVin
p2169
aVthe
p2170
aVworld
p2171
aV,
aVmore
p2172
aVking-like
p2173
aV,
aVmore
p2174
aVdivine
p2175
aVthan
p2176
aVshe
p2177
aV.
aa(lp2178
Vshe
p2179
aVlies
p2180
aVin
p2181
aVtatters
p2182
aVon
p2183
aVthe
p2184
aVthreshold
p2185
aV,
aVbut
p2186
aVyet
p2187
aVno
p2188
aVone
p2189
aV,
aVis
p2190
aVthere
p2191
aVin
p2192
aVall
p2193
aVthe
p2194
aVcourt
p2195
aV,
aVbut
p2196
aVquails
p2197
aVbefore
p2198
aVher
p2199
aVglance
p2200
aV!
aa(lp2201
V11
p2202
aV-
aVoverseer
p2203
aV.
aa(lp2204
Vwithin
p2205
aV!
aa(lp2206
Vfifth
p2207
aVmaid
p2208
aVservant
p2209
aV(
aVcaught
p2210
aVin
p2211
aVthe
p2212
aVdoorway
p2213
aV)
aV.
aa(lp2214
Vyou
p2215
aVare
p2216
aVunworthy
p2217
aVall
p2218
aV,
aVto
p2219
aVbreathe
p2220
aVthe
p2221
aVsame
p2222
aVair
p2223
aVthat
p2224
aVshe
p2225
aVbreathes
p2226
aV!
aa(lp2227
Vah
p2228
aVme
p2229
aV!
aa(lp2230
Vcould
p2231
aVi
aVbut
p2232
aVsee
p2233
aVyou
p2234
aVall
p2235
aVin
p2236
aVsome
p2237
aVdark
p2238
aVdungeon
p2239
aV,
aVhung
p2240
aVby
p2241
aVthe
p2242
aVneck
p2243
aVand
p2244
aVdead
p2245
aV,
aVmeet
p2246
aVpunishment
p2247
aVfor
p2248
aVall
p2249
aVthe
p2250
aVevil
p2251
aVthat
p2252
aVye
p2253
aVto
p2254
aVelektra
p2255
aVhave
p2256
aVwrought
p2257
aV!
aa(lp2258
Vhear
p2259
aVye
p2260
aVthat
p2261
aV?
aa(lp2262
Vwe
p2263
aVto
p2264
aVelektra
p2265
aV,
aVshe
p2266
aVwho
p2267
aVher
p2268
aVplatter
p2269
aVfrom
p2270
aVour
p2271
aVtable
p2272
aVtossed
p2273
aV,
aVwhen
p2274
aVonce
p2275
aVthey
p2276
aVbade
p2277
aVher
p2278
aVeat
p2279
aVwith
p2280
aVus
p2281
aV,
aVand
p2282
aVspitting
p2283
aVon
p2284
aVus
p2285
aV,
aVmiscalled
p2286
aVus
p2287
aVcurs
p2288
aVand
p2289
aVmongrels
p2290
aV.
aa(lp2291
Vfirst
p2292
aVmaid
p2293
aVservant
p2294
aV.
aa(lp2295
Vwhat
p2296
aV?
aa(lp2297
Vshe
p2298
aVsaid
p2299
aV:
aV``
p2300
aVno
p2301
aVmongrel
p2302
aVcur
p2303
aVcan
p2304
aVye
p2305
aVso
p2306
aVlower
p2307
aV,
aVto
p2308
aVlive
p2309
aVfor
p2310
aVaye
p2311
aV,
aVas
p2312
aVwe
p2313
aV,
aVin
p2314
aVdegradation
p2315
aV,
aVto
p2316
aVwash
p2317
aVwith
p2318
aVwater
p2319
aV,
aVever
p2320
aVmore
p2321
aVfresh
p2322
aVwater
p2323
aVthe
p2324
aVeverlasting
p2325
aVstain
p2326
aVof
p2327
aVmurder
p2328
aVfrom
p2329
aVthis
p2330
aVpalace
p2331
aV.
aV''
p2332
aa(lp2333
Vthird
p2334
aVmaid
p2335
aVservant
p2336
aV.
aa(lp2337
V``
p2338
aVand
p2339
aVthe
p2340
aVshame
p2341
aV,
aV''
p2342
aVso
p2343
aVwent
p2344
aVshe
p2345
aVon
p2346
aV,
aV''
p2347
aVthe
p2348
aVshame
p2349
aVthat
p2350
aVdaily
p2351
aV,
aVnightly
p2352
aVis
p2353
aVrenewed
p2354
aV,
aVsweep
p2355
aVback
p2356
aVto
p2357
aVdarkness
p2358
aV''
p2359
aVfirst
p2360
aVmaid
p2361
aVservant
p2362
aV.
aa(lp2363
V``
p2364
aVall
p2365
aVour
p2366
aVbodies
p2367
aV''
p2368
aV,
aVcries
p2369
aVshe
p2370
aV,
aV''
p2371
aVreek
p2372
aVwith
p2373
aVthe
p2374
aVfoulness
p2375
aVthat
p2376
aVenslaveth
p2377
aVus
p2378
aV.
aV''
p2379
aa(lp2380
V(
aVthe
p2381
aVmaids
p2382
aVcarry
p2383
aVthe
p2384
aVvessels
p2385
aVinto
p2386
aVthe
p2387
aVhouse
p2388
aVl.
p2389
aV)
aV12
p2390
aVthe
p2391
aVoverseer
p2392
aV(
aVwho
p2393
aVhas
p2394
aVopened
p2395
aVthe
p2396
aVdoor
p2397
aVfor
p2398
aVthem
p2399
aV)
aV.
aa(lp2400
Vand
p2401
aVwhen
p2402
aVshe
p2403
aVsees
p2404
aVus
p2405
aVwith
p2406
aVour
p2407
aVbabes
p2408
aVabroad
p2409
aVthen
p2410
aVcries
p2411
aVshe
p2412
aV:
aV``
p2413
aVnought
p2414
aVis
p2415
aVso
p2416
aVaccursed
p2417
aV,
aVnought
p2418
aV,
aVas
p2419
aVchildren
p2420
aVthus
p2421
aVconceived
p2422
aVand
p2423
aVthus
p2424
aVborn
p2425
aV,
aVhere
p2426
aVin
p2427
aVthe
p2428
aVpalace
p2429
aVwhere
p2430
aVthe
p2431
aVpavements
p2432
aVall
p2433
aVare
p2434
aVslippery
p2435
aVwith
p2436
aVthe
p2437
aVtaint
p2438
aVof
p2439
aVbloodshed
p2440
aV.
aV''
p2441
aa(lp2442
Vsays
p2443
aVshe
p2444
aVthis
p2445
aVor
p2446
aVnot
p2447
aV?
aa(lp2448
Vthe
p2449
aVother
p2450
aVmaids
p2451
aV(
aVas
p2452
aVthey
p2453
aVgo
p2454
aVin
p2455
aV)
aV.
aa(lp2456
Vyes
p2457
aV,
aVyes
p2458
aV!
aa(lp2459
Vthe
p2460
aVoverseer
p2461
aV.
aa(lp2462
Vsays
p2463
aVshe
p2464
aVthis
p2465
aV?
aa(lp2466
Vyes
p2467
aVor
p2468
aVno
p2469
aV?
aa(lp2470
V(
aVshe
p2471
aVgoes
p2472
aVin
p2473
aV,
aVthe
p2474
aVdoor
p2475
aVcloses
p2476
aV!
aV)
aa(lp2477
Vthe
p2478
aVfour
p2479
aVmaids
p2480
aV(
aVwithin
p2481
aV)
aV.
aa(lp2482
Vyes
p2483
aV,
aVyesl
p2484
aVthe
p2485
aVfifth
p2486
aVmaid
p2487
aV.
aa(lp2488
Vthey
p2489
aVbeat
p2490
aVme
p2491
aVhelp
p2492
aV!
aa(lp2493
Velektra
p2494
aV(
aVappears
p2495
aVfrom
p2496
aVthe
p2497
aVhouse
p2498
aV)
aV.
aa(lp2499
Valone
p2500
aV!
aa(lp2501
Vwoe
p2502
aV!
aa(lp2503
Vquite
p2504
aValone
p2505
aV!
aa(lp2506
Vmy
p2507
aVfather
p2508
aVgone
p2509
aVto
p2510
aVdwell
p2511
aVaffrighted
p2512
aVin
p2513
aVthe
p2514
aVtomb
p2515
aV's
p2516
aVchill
p2517
aVdarkness
p2518
aV!
aa(lp2519
Vagamemnon
p2520
aV!
aa(lp2521
Vagamemnon
p2522
aV!
aa(lp2523
Vwhere
p2524
aVart
p2525
aVthou
p2526
aV,
aVfather
p2527
aV?
aa(lp2528
Vhast
p2529
aVthou
p2530
aVnot
p2531
aVthe
p2532
aVstrength
p2533
aVto
p2534
aVlift
p2535
aVthy
p2536
aVcountenance
p2537
aVto
p2538
aVme
p2539
aV,
aVthy
p2540
aVdaughter
p2541
aV?
aa(lp2542
V(
aVsoftly
p2543
aV)
aVthe
p2544
aVhour
p2545
aVapproacheth
p2546
aV,
aVsacred
p2547
aVto
p2548
aVus
p2549
aVtwain
p2550
aV,
aVthe
p2551
aVvery
p2552
aVhour
p2553
aV,
aVwhen
p2554
aVthou
p2555
aVwert
p2556
aVfoully
p2557
aVslaughtered
p2558
aV,
aVby
p2559
aVher
p2560
aV,
aVthy
p2561
aVqueen
p2562
aV,
aVand
p2563
aVhim
p2564
aVwho
p2565
aVnow
p2566
aVsupplants
p2567
aVthee
p2568
aV,
aVand
p2569
aVon
p2570
aVthy
p2571
aVroyal
p2572
aVcouch
p2573
aVdoth
p2574
aVtoy
p2575
aVwith
p2576
aVher
p2577
aV.
aa(lp2578
V18
p2579
aVthere
p2580
aVin
p2581
aVthe
p2582
aVbath
p2583
aVthey
p2584
aVmurdered
p2585
aVthee
p2586
aV.
aa(lp2587
Vthine
p2588
aVeyes
p2589
aVwith
p2590
aVthy
p2591
aVred
p2592
aVblood
p2593
aVwere
p2594
aVdeluged
p2595
aV.
aa(lp2596
Vfrom
p2597
aVthe
p2598
aVbath
p2599
aVthe
p2600
aVsteam
p2601
aVof
p2602
aVblood
p2603
aVarose
p2604
aV.
aa(lp2605
Vthen
p2606
aVtook
p2607
aVhe
p2608
aVthee
p2609
aV,
aVthe
p2610
aVcraven
p2611
aV,
aVby
p2612
aVthe
p2613
aVshoulders
p2614
aVdragging
p2615
aVthee
p2616
aV,
aVheadforemost
p2617
aVfrom
p2618
aVthe
p2619
aVhall
p2620
aV,
aVthy
p2621
aVfeet
p2622
aVthe
p2623
aVwhile
p2624
aVbehind
p2625
aVthee
p2626
aVtrailing
p2627
aVon
p2628
aVthe
p2629
aVground
p2630
aV,
aVthine
p2631
aVeyes
p2632
aVdistended
p2633
aVopen
p2634
aV,
aVglaring
p2635
aVat
p2636
aVthe
p2637
aVhouse
p2638
aV.
aa(lp2639
Vso
p2640
aVthou
p2641
aVreturn'st
p2642
aV,
aVwith
p2643
aVslow
p2644
aVrelentless
p2645
aVstep
p2646
aVunlooked
p2647
aVfor
p2648
aV,
aVstand'st
p2649
aVthou
p2650
aVthere
p2651
aV,
aVwith
p2652
aVvengeful
p2653
aVeyes
p2654
aV,
aVwide-open
p2655
aV:
aVon
p2656
aVthy
p2657
aVroyal
p2658
aVbrow
p2659
aVa
aVround
p2660
aVof
p2661
aVcrimson
p2662
aVgleams
p2663
aV,
aVthat
p2664
aVgroweth
p2665
aVaye
p2666
aVmore
p2667
aVdark
p2668
aV.
aa(lp2669
Vfrom
p2670
aVthe
p2671
aVblood
p2672
aVthy
p2673
aVwound
p2674
aVdistilleth
p2675
aV.
aa(lp2676
Vagamemnon
p2677
aV!
aa(lp2678
Vfather
p2679
aV!
aa(lp2680
Vlet
p2681
aVme
p2682
aVbehold
p2683
aVthee
p2684
aV,
aVleave
p2685
aVme
p2686
aVnot
p2687
aVthis
p2688
aVday
p2689
aValone
p2690
aV!
aa(lp2691
Vbut
p2692
aVas
p2693
aVthy
p2694
aVwont
p2695
aVis
p2696
aV,
aVlike
p2697
aVa
aVshadow
p2698
aV,
aVfrom
p2699
aVthe
p2700
aVwall
p2701
aV's
p2702
aVrecesses
p2703
aVcome
p2704
aVto
p2705
aVgreet
p2706
aVthy
p2707
aVchild
p2708
aV!
aa(lp2709
Vfather
p2710
aV!
aa(lp2711
Vagamemnon
p2712
aV!
aa(lp2713
Vthy
p2714
aVday
p2715
aVapproacheth
p2716
aV.
aa(lp2717
Vas
p2718
aVthe
p2719
aVseasons
p2720
aVall
p2721
aVfrom
p2722
aVthe
p2723
aVstars
p2724
aVrain
p2725
aVdown
p2726
aV,
aVso
p2727
aVwill
p2728
aVan
p2729
aVhundred
p2730
aVthroats
p2731
aVof
p2732
aVvictims
p2733
aVrain
p2734
aVtheir
p2735
aVlife-blood
p2736
aVon
p2737
aVthy
p2738
aVtomb
p2739
aV.
aa(lp2740
Vand
p2741
aV,
aVas
p2742
aVfrom
p2743
aVvessels
p2744
aVoverturned
p2745
aV,
aVblood
p2746
aVwill
p2747
aVfrom
p2748
aVthe
p2749
aVfettered
p2750
aVmurderers
p2751
aVflow
p2752
aVand
p2753
aVin
p2754
aVone
p2755
aVwild
p2756
aVwave
p2757
aV,
aVone
p2758
aVtorrent
p2759
aVfrom
p2760
aVthem
p2761
aVwill
p2762
aVrain
p2763
aVtheir
p2764
aVvery
p2765
aVlife
p2766
aV's
p2767
aVred
p2768
aVlife-blood
p2769
aV,
aVand
p2770
aVdrench
p2771
aVthe
p2772
aValtars
p2773
aV.
aa(lp2774
V(
aVwith
p2775
aVsolemn
p2776
aVpathos
p2777
aV.
aV)
aa(lp2778
Vand
p2779
aVwe
p2780
aVslay
p2781
aVfor
p2782
aVthee
p2783
aVthe
p2784
aVchargers
p2785
aVthat
p2786
aVare
p2787
aVhoused
p2788
aVhere
p2789
aVwe
p2790
aVdrive
p2791
aVthem
p2792
aVall
p2793
aVto
p2794
aVthe
p2795
aVtomb
p2796
aVtogether
p2797
aV,
aVand
p2798
aVthey
p2799
aVknow
p2800
aV,
aV'tis
p2801
aVdeath
p2802
aV,
aVand
p2803
aVneigh
p2804
aVin
p2805
aVthe
p2806
aVdeath-laden
p2807
aVbreeze
p2808
aV,
aVand
p2809
aVperish
p2810
aV.
aa(lp2811
Vand
p2812
aVwe
p2813
aVslaughter
p2814
aVall
p2815
aVthe
p2816
aVhounds
p2817
aVthat
p2818
aVonce
p2819
aVdid
p2820
aVlick
p2821
aVthy
p2822
aVsandals
p2823
aV,
aVthat
p2824
aVwent
p2825
aVwith
p2826
aVthee
p2827
aVto
p2828
aVhunt
p2829
aV,
aVand
p2830
aVfawned
p2831
aVon
p2832
aVthee
p2833
aVfor
p2834
aVdainty
p2835
aVmorsels
p2836
aV.
aa(lp2837
Vtherefore
p2838
aVmust
p2839
aVtheir
p2840
aVblood
p2841
aVdescend
p2842
aVto
p2843
aVdo
p2844
aVthee
p2845
aVhomage
p2846
aVmeet
p2847
aV;
aVand
p2848
aVwe
p2849
aV,
aVthy
p2850
aVson
p2851
aVorestes
p2852
aVand
p2853
aVthy
p2854
aVdaughters
p2855
aVtwain
p2856
aV,
aVwe
p2857
aVthree
p2858
aV,
aVwhen
p2859
aVall
p2860
aVthese
p2861
aVthings
p2862
aVare
p2863
aVdone
p2864
aV,
aVand
p2865
aVsteam
p2866
aV14
p2867
aVof
p2868
aVblood
p2869
aVhas
p2870
aVveiled
p2871
aVthe
p2872
aVmurky
p2873
aVair
p2874
aVwith
p2875
aVpalls
p2876
aVof
p2877
aVcrimson
p2878
aV,
aVwhich
p2879
aVthe
p2880
aVsun
p2881
aVsucks
p2882
aVupwards
p2883
aV,
aVthen
p2884
aVdance
p2885
aVwe
p2886
aV,
aVall
p2887
aVthy
p2888
aVblood
p2889
aV,
aVaround
p2890
aVthy
p2891
aVtomb
p2892
aV(
aVin
p2893
aVecstatic
p2894
aVpathos
p2895
aV.
aV)
aa(lp2896
Vand
p2897
aVo'er
p2898
aVthe
p2899
aVcorpses
p2900
aVpiled
p2901
aV,
aVhigh
p2902
aVwill
p2903
aVi
aVlift
p2904
aV,
aVhigh
p2905
aVwith
p2906
aVeach
p2907
aVstep
p2908
aV,
aVmy
p2909
aVlimbs
p2910
aV;
aVand
p2911
aVall
p2912
aVthe
p2913
aVfolk
p2914
aVwho
p2915
aVsee
p2916
aVme
p2917
aVdance
p2918
aVyea
p2919
aVall
p2920
aVwho
p2921
aVfrom
p2922
aVafar
p2923
aVmy
p2924
aVshadow
p2925
aVsee
p2926
aV,
aVwill
p2927
aVsay
p2928
aV:
aV``
p2929
aVfor
p2930
aVa
aVgreat
p2931
aVking
p2932
aVall
p2933
aVof
p2934
aVhis
p2935
aVflesh
p2936
aVand
p2937
aVblood
p2938
aVhigh
p2939
aVfestival
p2940
aVand
p2941
aVsolemn
p2942
aVrevel
p2943
aVhold
p2944
aV;
aVand
p2945
aVblessed
p2946
aVhe
p2947
aVthat
p2948
aVchildren
p2949
aVhath
p2950
aVwho
p2951
aVround
p2952
aVhis
p2953
aVholy
p2954
aVtomb
p2955
aVwill
p2956
aVdance
p2957
aVsuch
p2958
aVroyal
p2959
aVdance
p2960
aVof
p2961
aVvictory
p2962
aV!
aV''
p2963
aa(lp2964
Vagamemnon
p2965
aV!
aa(lp2966
Vagamemnon
p2967
aV!
aa(lp2968
Vchrysothemis
p2969
aV(
aVthe
p2970
aVyounger
p2971
aVsister
p2972
aV,
aVstanding
p2973
aVat
p2974
aVthe
p2975
aVdoor
p2976
aVof
p2977
aVthe
p2978
aVhouse
p2979
aV,
aVsoftly
p2980
aV)
aV.
aa(lp2981
Velektra
p2982
aV!
aa(lp2983
Velektra
p2984
aV(
aVstarts
p2985
aVas
p2986
aVthough
p2987
aVwaking
p2988
aVfrom
p2989
aVa
aVdream
p2990
aVand
p2991
aVgazes
p2992
aVat
p2993
aVchrysothemis
p2994
aV)
aV.
aa(lp2995
Vah
p2996
aV,
aV't
p2997
aVis
p2998
aVher
p2999
aVface
p3000
aV.
aa(lp3001
Vchrysothemis
p3002
aV(
aVstands
p3003
aVclose
p3004
aVto
p3005
aVthe
p3006
aVdoor
p3007
aV,
aVsoftly
p3008
aV,
aVquietly
p3009
aV)
aV.
aa(lp3010
Vdost
p3011
aVthou
p3012
aVthen
p3013
aVhate
p3014
aVmy
p3015
aVface
p3016
aVso
p3017
aVmuch
p3018
aV?
aa(lp3019
Velektra
p3020
aV(
aVvehemently
p3021
aV)
aV.
aa(lp3022
Vwhat
p3023
aVwouldst
p3024
aVthou
p3025
aV?
aa(lp3026
Vspeak
p3027
aVthen
p3028
aV,
aVquick
p3029
aV,
aVpour
p3030
aVforth
p3031
aVthy
p3032
aVsoul
p3033
aV,
aVthen
p3034
aVgo
p3035
aVand
p3036
aVleave
p3037
aVme
p3038
aV.
aa(lp3039
V(
aVchrysothemis
p3040
aVlifts
p3041
aVher
p3042
aVhands
p3043
aV,
aVas
p3044
aVif
p3045
aVto
p3046
aVdefend
p3047
aVherself
p3048
aV.
aV)
aa(lp3049
Vwhy
p3050
aVdost
p3051
aVlift
p3052
aVthy
p3053
aVhands
p3054
aV?
aa(lp3055
Vthus
p3056
aVdid
p3057
aVour
p3058
aVfather
p3059
aVlift
p3060
aVup
p3061
aVboth
p3062
aVhis
p3063
aVhands-
p3064
aVthen
p3065
aVfell
p3066
aVthe
p3067
aVaxe
p3068
aVon
p3069
aVhim
p3070
aVand
p3071
aVrent
p3072
aVhis
p3073
aVflesh
p3074
aVin
p3075
aVtwain
p3076
aV.
aa(lp3077
Vwhat
p3078
aVwouldst
p3079
aVthou
p3080
aV?
aa(lp3081
Vdaughter
p3082
aVof
p3083
aVmy
p3084
aVmother
p3085
aV,
aVdaughter
p3086
aVof
p3087
aVklytemnestra
p3088
aV?
aa(lp3089
V15
p3090
aVchrysothemis
p3091
aV(
aVwhispering
p3092
aV)
aV.
aa(lp3093
Vthey
p3094
aVhave
p3095
aVresolved
p3096
aVa
aVdreadful
p3097
aVdeed
p3098
aVto
p3099
aVdo
p3100
aV.
aa(lp3101
Velektra
p3102
aV.
aa(lp3103
Vthat
p3104
aVpair
p3105
aVof
p3106
aVwomen
p3107
aV?
aa(lp3108
Vchrysothemis
p3109
aV.
aa(lp3110
Vwho
p3111
aV?
aa(lp3112
Velektra
p3113
aV.
aa(lp3114
Vfirst
p3115
aVmy
p3116
aVown
p3117
aVmother
p3118
aVand
p3119
aVnext
p3120
aVthat
p3121
aVother
p3122
aVshe
p3123
aV,
aVthe
p3124
aVcraven
p3125
aV,
aVyea
p3126
aVaegistheus
p3127
aV,
aVthe
p3128
aVintrepid
p3129
aVwarrior
p3130
aV,
aVhe
p3131
aVthat
p3132
aVdeeds
p3133
aVof
p3134
aVvalour
p3135
aVnever
p3136
aVdoes
p3137
aVby
p3138
aVday
p3139
aV.
aa(lp3140
Vwhat
p3141
aVis
p3142
aVit
p3143
aVthey
p3144
aVwould
p3145
aVdo
p3146
aV?
aa(lp3147
Vchrysothemis
p3148
aV.
aa(lp3149
Vsoon
p3150
aVin
p3151
aVa
aVtow'r
p3152
aVthou
p3153
aVwilt
p3154
aVbe
p3155
aVcaged
p3156
aV,
aVin
p3157
aVwhich
p3158
aVno
p3159
aVray
p3160
aVof
p3161
aVsun
p3162
aVor
p3163
aVmoon
p3164
aVwill
p3165
aVshine
p3166
aVon
p3167
aVthee
p3168
aV.
aa(lp3169
V't
p3170
aVis
p3171
aVso
p3172
aVdecreed
p3173
aV.
aa(lp3174
V(
aVelektra
p3175
aVlaughs
p3176
aV)
aVi
aVknow
p3177
aVthat
p3178
aVsurely
p3179
aVelektra
p3180
aV.
aa(lp3181
Vhow
p3182
aVearnest
p3183
aVthou
p3184
aVto
p3185
aVhear
p3186
aVsuch
p3187
aVtidings
p3188
aV?
aa(lp3189
Vchrysothemis
p3190
aV{
aVwhispers
p3191
aV)
aV.
aa(lp3192
Vat
p3193
aVthe
p3194
aVdoor
p3195
aV,
aVelektra
p3196
aV.
aa(lp3197
V16
p3198
aVelektra
p3199
aV(
aVyehtmently
p3200
aV)
aV.
aa(lp3201
Vnay
p3202
aV,
aVlet
p3203
aVno
p3204
aVdoors
p3205
aVbe
p3206
aVopened
p3207
aVin
p3208
aVthis
p3209
aVhouse
p3210
aV!
aa(lp3211
Vhoarse
p3212
aVcries
p3213
aV,
aVand
p3214
aVpantings
p3215
aVa
aVpah
p3216
aVi
aVand
p3217
aVlast
p3218
aVgroans
p3219
aVof
p3220
aVthe
p3221
aVdying
p3222
aVnaught
p3223
aVelse
p3224
aVis
p3225
aVheard
p3226
aVwithin
p3227
aVthis
p3228
aVdwelling
p3229
aV!
aa(lp3230
Vso
p3231
aVopen
p3232
aVthou
p3233
aVno
p3234
aVdoors
p3235
aV!
aa(lp3236
Vcreep
p3237
aVnot
p3238
aVabout
p3239
aVsit
p3240
aVby
p3241
aVthe
p3242
aVgate
p3243
aV,
aVas
p3244
aVi
aV,
aVand
p3245
aVpray
p3246
aVthat
p3247
aVdeath
p3248
aVand
p3249
aVjudgment
p3250
aVsoon
p3251
aVmay
p3252
aVfall
p3253
aVon
p3254
aVher
p3255
aVand
p3256
aVhim
p3257
aV!
aa(lp3258
Vchrysothemis
p3259
aV.
aa(lp3260
Vi
aVcan
p3261
aVnot
p3262
aVsit
p3263
aVhere
p3264
aV,
aVinto
p3265
aVdarkness
p3266
aVpeering
p3267
aV,
aVas
p3268
aVthou
p3269
aV.
aa(lp3270
Vwithin
p3271
aVme
p3272
aVburneth
p3273
aVa
aVgreat
p3274
aVflame
p3275
aV.
aa(lp3276
Vit
p3277
aVdrives
p3278
aVme
p3279
aVaye
p3280
aVto
p3281
aVroam
p3282
aVthe
p3283
aVhouse
p3284
aVdistraught
p3285
aV;
aVin
p3286
aVhall
p3287
aVnor
p3288
aVchamber
p3289
aVfind
p3290
aVi
aVrest
p3291
aV;
aVi
aVmust
p3292
aVfrom
p3293
aVone
p3294
aVfar
p3295
aVcorner
p3296
aVto
p3297
aVthe
p3298
aVother
p3299
aVah
p3300
aV!
aa(lp3301
Vfrom
p3302
aVroof
p3303
aVto
p3304
aVvault
p3305
aV.
aa(lp3306
Vi
aVseem
p3307
aVto
p3308
aVhear
p3309
aVstrange
p3310
aVvoices
p3311
aV,
aVand
p3312
aVwhen
p3313
aVi
aVseek
p3314
aVthem
p3315
aV,
aVsee
p3316
aVi
aVbare
p3317
aVrooms
p3318
aVstaring
p3319
aVat
p3320
aVme
p3321
aV.
aa(lp3322
Vi
aVam
p3323
aVmade
p3324
aVmad
p3325
aVwith
p3326
aVfear
p3327
aV,
aVbeneath
p3328
aVme
p3329
aVmy
p3330
aVknees
p3331
aVquake
p3332
aVnight
p3333
aVand
p3334
aVday
p3335
aV,
aVropes
p3336
aVfeel
p3337
aVi
aVtight'ning
p3338
aVclose
p3339
aVround
p3340
aVmy
p3341
aVthroat
p3342
aV,
aVi
aVcan
p3343
aVnot
p3344
aVeven
p3345
aVweep
p3346
aV.
aa(lp3347
Vlike
p3348
aVstone
p3349
aVare
p3350
aVall
p3351
aVthings
p3352
aV.
aa(lp3353
Vsister
p3354
aV,
aVo
aVhave
p3355
aVpity
p3356
aV!
aa(lp3357
Velektra
p3358
aV.
aa(lp3359
Von
p3360
aVwhom
p3361
aV?
aa(lp3362
Vchrysothemis
p3363
aV.
aa(lp3364
Vthou
p3365
aVonly
p3366
aVis
p3367
aVit
p3368
aV,
aVthou
p3369
aV,
aVwho
p3370
aVkeep'st
p3371
aVme
p3372
aVchained
p3373
aVhere
p3374
aVwith
p3375
aViron
p3376
aVfetters
p3377
aV:
aVbut
p3378
aVfor
p3379
aVthee
p3380
aVlong
p3381
aVsince
p3382
aVhad
p3383
aVwe
p3384
aVbeen
p3385
aVfree
p3386
aV.
aa(lp3387
Vbut
p3388
aVfor
p3389
aVthy
p3390
aVhate
p3391
aVthy
p3392
aVsleepless
p3393
aVspirit
p3394
aVand
p3395
aVthy
p3396
aVuntamed
p3397
aVsoul
p3398
aV,
aVthat
p3399
aVmake
p3400
aVthem
p3401
aVtremble
p3402
aV,
aVah
p3403
aV!
aa(lp3404
Vwe
p3405
aVsurely
p3406
aVhad
p3407
aVlong
p3408
aVsince
p3409
aVbeen
p3410
aVfree
p3411
aV,
aVhad
p3412
aVfled
p3413
aVthis
p3414
aVdungeon
p3415
aV,
aVsister
p3416
aV(
aVwith
p3417
aVpassion
p3418
aV)
aVi
aVmust
p3419
aVaway
p3420
aV.
aa(lp3421
Vi
aVwill
p3422
aVnot
p3423
aV,
aVev'ry
p3424
aVnight
p3425
aV17
p3426
aVsleep
p3427
aVhere
p3428
aVtill
p3429
aVdeath
p3430
aVrelease
p3431
aVme
p3432
aV.
aa(lp3433
Vere
p3434
aVi
aVdie
p3435
aVi
aVcrave
p3436
aVfor
p3437
aVlife
p3438
aV;
aVand
p3439
aVchildren
p3440
aVwould
p3441
aVi
aVbear
p3442
aV(
aVin
p3443
aVgreat
p3444
aVexaltation
p3445
aV)
aVere
p3446
aVall
p3447
aVmy
p3448
aVbody
p3449
aVfades
p3450
aV,
aVe'en
p3451
aVwere't
p3452
aVa
aVpeasant
p3453
aVchosen
p3454
aVto
p3455
aVwed
p3456
aVme
p3457
aV;
aVchildren
p3458
aVwill
p3459
aVi
aVbear
p3460
aVhim
p3461
aVrejoicing
p3462
aV;
aVto
p3463
aVmy
p3464
aVbosom
p3465
aVwill
p3466
aVi
aVclasp
p3467
aVthem
p3468
aVlest
p3469
aVnight-winds
p3470
aVchill
p3471
aVthem
p3472
aV,
aVwhen
p3473
aVthe
p3474
aVhut
p3475
aVis
p3476
aVshaken
p3477
aVby
p3478
aVwinter
p3479
aVtempests
p3480
aV!
aa(lp3481
Vhear'st
p3482
aVthou
p3483
aVme
p3484
aVnot
p3485
aV?
aa(lp3486
Vspeak
p3487
aVto
p3488
aVme
p3489
aV,
aVsister
p3490
aV!
aa(lp3491
Velektra
p3492
aV.
aa(lp3493
Valas
p3494
aV!
aa(lp3495
Vpoor
p3496
aVweakling
p3497
aV!
aa(lp3498
Vchrysothemis
p3499
aV(
aVstill
p3500
aVin
p3501
aVwild
p3502
aVfrenzy
p3503
aV)
aV.
aa(lp3504
Vhave
p3505
aVpity
p3506
aVon
p3507
aVthyself
p3508
aV,
aVand
p3509
aVpity
p3510
aVme
p3511
aV!
aa(lp3512
Vwho
p3513
aVprofits
p3514
aVby
p3515
aVsuch
p3516
aVpain
p3517
aV?
aa(lp3518
Vour
p3519
aVfather
p3520
aV,
aVhe
p3521
aVis
p3522
aVdead
p3523
aV.
aa(lp3524
Vthe
p3525
aVbrother
p3526
aVcomes
p3527
aVnot
p3528
aVhome
p3529
aV.
aa(lp3530
Vand
p3531
aValways
p3532
aVstay
p3533
aVwe
p3534
aVtwain
p3535
aV,
aVe'en
p3536
aVas
p3537
aVon
p3538
aVperches
p3539
aV,
aVstand
p3540
aVcaptive
p3541
aVbirds
p3542
aVin
p3543
aVcages
p3544
aV,
aVturning
p3545
aVheads
p3546
aVthis
p3547
aVway
p3548
aVand
p3549
aVthat
p3550
aVand
p3551
aVno
p3552
aVone
p3553
aVcomes
p3554
aV.
aa(lp3555
Vno
p3556
aVbrother
p3557
aV,
aVno
p3558
aVherald
p3559
aVfrom
p3560
aVour
p3561
aVbrother
p3562
aV,
aVnay
p3563
aVnot
p3564
aVeven
p3565
aVa
aVherald
p3566
aV's
p3567
aVherald
p3568
aV.
aa(lp3569
Vnaught
p3570
aV!
aa(lp3571
Vand
p3572
aVon
p3573
aVmy
p3574
aVface
p3575
aVand
p3576
aVthine
p3577
aVthe
p3578
aVpassing
p3579
aVdays
p3580
aVdo
p3581
aVcarve
p3582
aVtheir
p3583
aVmark
p3584
aVwith
p3585
aVknives
p3586
aV.
aa(lp3587
Vthe
p3588
aVsun
p3589
aVeach
p3590
aVday
p3591
aVdoth
p3592
aVduly
p3593
aVrise
p3594
aVand
p3595
aVset
p3596
aV;
aVand
p3597
aVwomen
p3598
aVwhom
p3599
aVi
aVknew
p3600
aVslim
p3601
aVmaidens
p3602
aVbear
p3603
aVblessed
p3604
aVburdens
p3605
aV;
aVto
p3606
aVthe
p3607
aVfountain
p3608
aVtoiling
p3609
aVthey
p3610
aVscarce
p3611
aVcan
p3612
aVlift
p3613
aVtheir
p3614
aVpitchers
p3615
aV;
aVin
p3616
aVfull
p3617
aVtime
p3618
aVlo
p3619
aV!
aa(lp3620
Vof
p3621
aVtheir
p3622
aVburdens
p3623
aVthey
p3624
aVare
p3625
aVfree
p3626
aVthen
p3627
aVseek
p3628
aVagain
p3629
aVthe
p3630
aVfountain
p3631
aV,
aVand
p3632
aVto
p3633
aVeach
p3634
aVis
p3635
aVclinging
p3636
aVa
aVtiny
p3637
aVlife
p3638
aV,
aVand
p3639
aVmothers
p3640
aVto
p3641
aVtheir
p3642
aVoffspring
p3643
aVgive
p3644
aVnurture
p3645
aVand
p3646
aVthe
p3647
aVchildren
p3648
aVthrive
p3649
aVand
p3650
aVgrow
p3651
aVno
p3652
aV,
aVi
aVam
p3653
aVa
aVwoman
p3654
aV,
aVand
p3655
aVa
aVwoman
p3656
aV's
p3657
aVlot
p3658
aVi
aVcrave
p3659
aV,
aVfar
p3660
aVbetter
p3661
aVdead
p3662
aV,
aVthan
p3663
aVlive
p3664
aVa
aVliving
p3665
aVdeath
p3666
aV.
aa(lp3667
V(
aVshe
p3668
aVbursts
p3669
aVinto
p3670
aVpassionate
p3671
aV-weeping
p3672
aV.
aV)
aa(lp3673
V18
p3674
aVelektra
p3675
aV.
aa(lp3676
Vwhat
p3677
aVhowl'st
p3678
aVthou
p3679
aV?
aa(lp3680
Vhence
p3681
aV!
aa(lp3682
Vwithin
p3683
aV!
aa(lp3684
Vthere
p3685
aVis
p3686
aVthy
p3687
aVplace
p3688
aV!
aa(lp3689
Va
aVnoise
p3690
aVapproacheth
p3691
aV(
aVmocking
p3692
aVher
p3693
aV.
aV)
aa(lp3694
Vset
p3695
aVthey
p3696
aVforth
p3697
aV,
aVperchance
p3698
aV,
aVa
aVwedding
p3699
aVfeast
p3700
aVfor
p3701
aVthee
p3702
aV?
aa(lp3703
Vi
aVhear
p3704
aVthem
p3705
aVrunning
p3706
aV.
aa(lp3707
Vthe
p3708
aVwhole
p3709
aVhouse
p3710
aVis
p3711
aVastir
p3712
aV.
aa(lp3713
Va
aVchild
p3714
aVis
p3715
aVborn
p3716
aVor
p3717
aVthey
p3718
aVmurder
p3719
aV.
aa(lp3720
Vwhen
p3721
aVthere
p3722
aVis
p3723
aVa
aVlack
p3724
aVof
p3725
aVcorpses
p3726
aVto
p3727
aVserve
p3728
aVas
p3729
aVpillows
p3730
aV,
aVsurely
p3731
aVthey
p3732
aVmust
p3733
aVmurder
p3734
aV.
aa(lp3735
Vchrysothemis
p3736
aV.
aa(lp3737
Vaway
p3738
aVto
p3739
aVhiding
p3740
aV,
aVlest
p3741
aVshe
p3742
aVsee
p3743
aVthee
p3744
aVhere
p3745
aV.
aa(lp3746
Vdo
p3747
aVnot
p3748
aVthou
p3749
aVcross
p3750
aVher
p3751
aVpath
p3752
aVthis
p3753
aVday
p3754
aV;
aVshe
p3755
aVdarteth
p3756
aVdeath
p3757
aVfrom
p3758
aVeach
p3759
aVglance
p3760
aVfor
p3761
aVshe
p3762
aVhath
p3763
aVdream
p3764
aV'd
p3765
aV.
aa(lp3766
V(
aVthe
p3767
aVnoise
p3768
aVof
p3769
aVmany
p3770
aVpeople
p3771
aVhurrying
p3772
aVto
p3773
aVand
p3774
aVfro
p3775
aVwithin
p3776
aVdraws
p3777
aVnearer
p3778
aV.
aV)
aa(lp3779
Vaway
p3780
aVfrom
p3781
aVhence
p3782
aV;
aVthey
p3783
aVcome
p3784
aVthrough
p3785
aVev'ry
p3786
aVpassage
p3787
aVthey
p3788
aVwill
p3789
aVpass
p3790
aVhere
p3791
aVanon
p3792
aV.
aa(lp3793
Vshe
p3794
aVdream
p3795
aV'd
p3796
aVa
aVdream
p3797
aVshe
p3798
aVdream
p3799
aV'd
p3800
aVa
aVdream
p3801
aV;
aVi
aVknow
p3802
aVnot
p3803
aVwhat
p3804
aVher
p3805
aVwomen
p3806
aVhave
p3807
aVtold
p3808
aVme
p3809
aVthe
p3810
aVtale
p3811
aV.
aa(lp3812
Vorestes
p3813
aVin
p3814
aVa
aVdream
p3815
aV,
aVthey
p3816
aVsay
p3817
aV,
aVpursued
p3818
aVher
p3819
aV;
aVand
p3820
aVin
p3821
aVher
p3822
aVsleep
p3823
aVshe
p3824
aVloudly
p3825
aVshrieked
p3826
aV,
aVe'en
p3827
aVas
p3828
aVone
p3829
aVshrieks
p3830
aVthat
p3831
aVdies
p3832
aVin
p3833
aVpain
p3834
aV.
aa(lp3835
V(
aVtorches
p3836
aVand
p3837
aVpeople
p3838
aVdimly
p3839
aVseen
p3840
aVfill
p3841
aVthe
p3842
aVpassage
p3843
aVto
p3844
aVthe
p3845
aVleft
p3846
aVof
p3847
aVthe
p3848
aVdoor
p3849
aV.
aV)
aa(lp3850
Vthe
p3851
aVtrain
p3852
aVdraws
p3853
aVnear
p3854
aV:
aVshe
p3855
aVdrives
p3856
aVthe
p3857
aVserving
p3858
aVwomen
p3859
aV,
aVwith
p3860
aVtorches
p3861
aVall
p3862
aVbefore
p3863
aVher
p3864
aV.
aa(lp3865
Vnext
p3866
aVthe
p3867
aVvictims
p3868
aV,
aVand
p3869
aVpriests
p3870
aVwith
p3871
aVaxes
p3872
aV.
aa(lp3873
Vsister
p3874
aV,
aVwhen
p3875
aVshe
p3876
aVtrembles
p3877
aV,
aVis
p3878
aVshe
p3879
aVmost
p3880
aVterrible
p3881
aV.
aa(lp3882
V(
aVurging
p3883
aVher
p3884
aV.
aV)
aa(lp3885
Vfear
p3886
aVthou
p3887
aVto-day
p3888
aVin
p3889
aVthis
p3890
aVhour
p3891
aVonly
p3892
aV,
aVfear
p3893
aVto
p3894
aVcross
p3895
aVher
p3896
aVpath
p3897
aV.
aa(lp3898
Velektra
p3899
aV.
aa(lp3900
Vmy
p3901
aVpurpose
p3902
aVholds
p3903
aVto
p3904
aVspeak
p3905
aVwith
p3906
aVklytemnestra
p3907
aV,
aVmy
p3908
aVmother
p3909
aV,
aVas
p3910
aVne'er
p3911
aVbefore
p3912
aV.
aa(lp3913
V19
p3914
aVchpysothemis
p3915
aV.
aa(lp3916
Vi
aVwill
p3917
aVnot
p3918
aVhear
p3919
aVit
p3920
aV!
aa(lp3921
V(
aVrushes
p3922
aVoff
p3923
aVthrough
p3924
aVthe
p3925
aVgate
p3926
aVof
p3927
aVthe
p3928
aVcourtyard
p3929
aV?
aV)
aa(lp3930
V(
aVa
aVhurried
p3931
aVprocession
p3932
aVrushes
p3933
aVand
p3934
aVstaggers
p3935
aVpast
p3936
aVthe
p3937
aVluridly
p3938
aVlighted
p3939
aVwindows
p3940
aV;
aVit
p3941
aVis
p3942
aVa
aVwrenching
p3943
aV,
aVa
aVdragging
p3944
aVof
p3945
aVcattle
p3946
aV,
aVa
aVmuffled
p3947
aVscolding
p3948
aV,
aVa
aVquickly
p3949
aVchoked
p3950
aVshouting
p3951
aV,
aVthe
p3952
aVhissing
p3953
aVof
p3954
aVa
aVwhip
p3955
aVin
p3956
aVthe
p3957
aVair
p3958
aV,
aVa
aVstruggling
p3959
aVof
p3960
aVfallen
p3961
aVmen
p3962
aVand
p3963
aVbeasts
p3964
aV,
aVa
aVstaggering
p3965
aVonwards
p3966
aV?
aV)
aa(lp3967
V(
aVin
p3968
aVthe
p3969
aVbroad
p3970
aVwindow
p3971
aVappears
p3972
aVkl
p3973
aVytemnestra
p3974
aV.
aa(lp3975
Vher
p3976
aVsallow
p3977
aV,
aVbloated
p3978
aVface
p3979
aVappears
p3980
aV,
aVin
p3981
aVthe
p3982
aVlurid
p3983
aVglare
p3984
aVof
p3985
aVthe
p3986
aVtorches
p3987
aV,
aVstill
p3988
aVpaler
p3989
aVover
p3990
aVher
p3991
aVscarlet
p3992
aVrobe
p3993
aV.
aa(lp3994
Vshe
p3995
aVis
p3996
aVleaning
p3997
aVon
p3998
aVher
p3999
aVtrusted
p4000
aVconfidante
p4001
aV,
aVwho
p4002
aVis
p4003
aVdraped
p4004
aVin
p4005
aVdark
p4006
aVviolet
p4007
aV,
aVand
p4008
aVon
p4009
aVa
aVbegemmed
p4010
aVivory
p4011
aVstaff
p4012
aV.
aa(lp4013
Va
aVjaundiced
p4014
aVfigure
p4015
aV,
aVwith
p4016
aVblack
p4017
aVhair
p4018
aVcombed
p4019
aVback
p4020
aV,
aVlike
p4021
aVan
p4022
aVegyptian
p4023
aVwoman
p4024
aV,
aVwith
p4025
aVsmooth
p4026
aVface
p4027
aV,
aVresembling
p4028
aVa
aVrearing
p4029
aVsnake
p4030
aV,
aVcarries
p4031
aVthe
p4032
aVtrain
p4033
aVof
p4034
aVher
p4035
aVrobe
p4036
aV.
aa(lp4037
Vthe
p4038
aVqueen
p4039
aVis
p4040
aVcovered
p4041
aVover
p4042
aVand
p4043
aVover
p4044
aVwith
p4045
aVgems
p4046
aVand
p4047
aVtalismans
p4048
aV,
aVher
p4049
aVarms
p4050
aVare
p4051
aVfull
p4052
aVof
p4053
aVarmlets
p4054
aV,
aVher
p4055
aVfingers
p4056
aVbristle
p4057
aVwith
p4058
aVrings
p4059
aV.
aa(lp4060
Vthe
p4061
aVlids
p4062
aVof
p4063
aVher
p4064
aVeyes
p4065
aVare
p4066
aVlarger
p4067
aVthan
p4068
aVis
p4069
aVnatural
p4070
aV,
aVand
p4071
aVit
p4072
aVseems
p4073
aVto
p4074
aVcost
p4075
aVher
p4076
aVan
p4077
aVunspeakable
p4078
aVeffort
p4079
aVto
p4080
aVkeep
p4081
aVthem
p4082
aVfrom
p4083
aVfalling
p4084
aV?
aV)
aa(lp4085
Vklytemnestra
p4086
aV.
aa(lp4087
Vwhat
p4088
aVwould'st
p4089
aVthou
p4090
aV?
aa(lp4091
Vlook
p4092
aVyou
p4093
aVthere
p4094
aV,
aVlook
p4095
aVbut
p4096
aVat
p4097
aVthat
p4098
aV!
aa(lp4099
Vhow
p4100
aVshe
p4101
aVdefies
p4102
aVme
p4103
aVwith
p4104
aVher
p4105
aVneck
p4106
aVoutstretched
p4107
aV,
aVand
p4108
aVwith
p4109
aVtongue
p4110
aVdarting
p4111
aVand
p4112
aVthat
p4113
aVleave
p4114
aVi
aVfree
p4115
aVto
p4116
aVroam
p4117
aVabout
p4118
aVmy
p4119
aVpalace
p4120
aV!
aa(lp4121
V(
aVbreathing
p4122
aVheavily
p4123
aV?
aV)
aa(lp4124
Vcould
p4125
aVshe
p4126
aVbut
p4127
aVwith
p4128
aVher
p4129
aVglances
p4130
aVstrike
p4131
aVme
p4132
aVdead
p4133
aV!
aa(lp4134
Vwherefore
p4135
aV,
aVye
p4136
aVgods
p4137
aV,
aVdo
p4138
aVyou
p4139
aVoppress
p4140
aVme
p4141
aVthus
p4142
aV?
aa(lp4143
Vwherefore
p4144
aVdecree
p4145
aVye
p4146
aVthus
p4147
aVmy
p4148
aVdoom
p4149
aV?
aa(lp4150
Vwherefore
p4151
aVmust
p4152
aVall
p4153
aVmy
p4154
aVstrength
p4155
aVin
p4156
aVme
p4157
aVbe
p4158
aVpalsied
p4159
aV?
aa(lp4160
Vwherefore
p4161
aVam
p4162
aVi
aV,
aValbeit
p4163
aVstill
p4164
aVliving
p4165
aV,
aVlike
p4166
aVa
aVdesert
p4167
aVuntilled
p4168
aV?
aa(lp4169
Vwhy
p4170
aVdoth
p4171
aVthis
p4172
aVnettle
p4173
aVissue
p4174
aVfrom
p4175
aVme
p4176
aV,
aVand
p4177
aVstrength
p4178
aVhave
p4179
aVi
aVnone
p4180
aVto
p4181
aVuproot
p4182
aVit
p4183
aV?
aa(lp4184
Vye
p4185
aVeverlasting
p4186
aVgods
p4187
aV,
aVwhy
p4188
aVthus
p4189
aVafflict
p4190
aVme
p4191
aV?
aa(lp4192
V2*
p4193
aVm
aVelektra
p4194
aV(
aVcalmly
p4195
aV)
aV.
aa(lp4196
Vthe
p4197
aVgods
p4198
aV!
aa(lp4199
Vand
p4200
aVart
p4201
aVthou
p4202
aVnot
p4203
aVthyself
p4204
aVa
aVgoddess
p4205
aV?
aa(lp4206
Vart
p4207
aVas
p4208
aVthey
p4209
aVare
p4210
aV!
aa(lp4211
Vklyteranestra
p4212
aV.
aa(lp4213
Vha
p4214
aV!
aa(lp4215
Vhave
p4216
aVye
p4217
aVheard
p4218
aVand
p4219
aVunderstand
p4220
aVye
p4221
aVwhat
p4222
aVshe
p4223
aVmeaneth
p4224
aV?
aa(lp4225
Vthe
p4226
aVconfidante
p4227
aV.
aa(lp4228
Vthat
p4229
aVthou
p4230
aVart
p4231
aVof
p4232
aVrace
p4233
aVdivine
p4234
aV,
aVshe
p4235
aVsaith
p4236
aV.
aa(lp4237
V-
aVthe
p4238
aVtrainbearer
p4239
aV(
aVhissing
p4240
aV)
aV.
aa(lp4241
Vher
p4242
aVwords
p4243
aVare
p4244
aVtreason
p4245
aV.
aa(lp4246
Vrlytemnestra
p4247
aV(
aVas
p4248
aVher
p4249
aVheavy
p4250
aVeyelids
p4251
aVdroop
p4252
aV,
aVgently
p4253
aV)
aV.
aa(lp4254
Vof
p4255
aVthings
p4256
aVfamiliar
p4257
aVonce
p4258
aV,
aVlong
p4259
aVsince
p4260
aVforgotten
p4261
aV,
aVsweet
p4262
aVmem'ries
p4263
aVstir
p4264
aVmy
p4265
aVsoul
p4266
aV.
aa(lp4267
Vshe
p4268
aVknoweth
p4269
aVme
p4270
aVwell
p4271
aV.
aa(lp4272
Vbut
p4273
aVnone
p4274
aVcan
p4275
aVknow
p4276
aVher
p4277
aVsoul
p4278
aV's
p4279
aVmost
p4280
aVsecret
p4281
aVthoughts
p4282
aV.
aa(lp4283
V(
aVthe
p4284
aVconfidante
p4285
aVand
p4286
aVthe
p4287
aVtrainbearer
p4288
aVwhisper
p4289
aVto
p4290
aVeach
p4291
aVother
p4292
aV.
aV)
aa(lp4293
Velektra
p4294
aV(
aVcomes
p4295
aVgradually
p4296
aVnearer
p4297
aVto
p4298
aVklytemnestrd
p4299
aV)
aV.
aa(lp4300
Vthou
p4301
aVart
p4302
aVthyself
p4303
aVno
p4304
aVlonger
p4305
aV.
aa(lp4306
Vyonder
p4307
aVreptiles
p4308
aVcling
p4309
aVaye
p4310
aVtoo
p4311
aVclose
p4312
aVto
p4313
aVthee
p4314
aV.
aa(lp4315
Vwhat
p4316
aVwithout
p4317
aVcease
p4318
aVthey
p4319
aVhiss
p4320
aVinto
p4321
aVthy
p4322
aVear
p4323
aVdoth
p4324
aVall
p4325
aVthy
p4326
aVthoughts
p4327
aVembroil
p4328
aV;
aVand
p4329
aVever
p4330
aVto
p4331
aVand
p4332
aVfro
p4333
aVart
p4334
aVdriven
p4335
aVamazed
p4336
aV,
aVas
p4337
aVin
p4338
aVa
aVtrance
p4339
aV.
aa(lp4340
V21
p4341
aVklytemnestra
p4342
aV.
aa(lp4343
Vi
aVwill
p4344
aVdescend
p4345
aV.
aa(lp4346
Vroom
p4347
aV!
aa(lp4348
Vroom
p4349
aV!
aa(lp4350
Vi
aVfain
p4351
aVwould
p4352
aVspeak
p4353
aVwith
p4354
aVher
p4355
aV.
aa(lp4356
V(
aVshe
p4357
aVleaves
p4358
aVthe
p4359
aVwindow
p4360
aVand
p4361
aVappears
p4362
aVwith
p4363
aVher
p4364
aVattendants
p4365
aVin
p4366
aVthe
p4367
aVdoorway
p4368
aV,
aVand
p4369
aVspeaks
p4370
aVfrom
p4371
aVthe
p4372
aVthreshold
p4373
aV,
aVmore
p4374
aVgently
p4375
aV)
aVshe
p4376
aVhath
p4377
aVto-day
p4378
aVno
p4379
aVhostile
p4380
aVmind
p4381
aV.
aa(lp4382
Vshe
p4383
aVspeaketh
p4384
aVlike
p4385
aVa
aVleech
p4386
aV.
aa(lp4387
Vthe
p4388
aVconfidante
p4389
aV(
aVwhispering
p4390
aV?
aV)
aa(lp4391
Vshe
p4392
aVspeaketh
p4393
aVnot
p4394
aVher
p4395
aVtrue
p4396
aVthoughts
p4397
aV.
aa(lp4398
Vthe
p4399
aVtrainbearer
p4400
aV.
aa(lp4401
Vher
p4402
aVev'ry
p4403
aVword
p4404
aVis
p4405
aVfalsehood
p4406
aV.
aa(lp4407
Vklytemnestra
p4408
aV(
aVstarting
p4409
aVup
p4410
aV)
aV.
aa(lp4411
Vi
aVwill
p4412
aVhear
p4413
aVnothing
p4414
aV.
aa(lp4415
Vwhat
p4416
aVfrom
p4417
aVyou
p4418
aVproceedeth
p4419
aVis
p4420
aVbut
p4421
aVthe
p4422
aVecho
p4423
aVof
p4424
aVaegistheus
p4425
aV.
aa(lp4426
Vand
p4427
aVwhen
p4428
aVat
p4429
aVnight
p4430
aVi
aVwake
p4431
aVyou
p4432
aV,
aVdo
p4433
aVyou
p4434
aVnot
p4435
aVeach
p4436
aVone
p4437
aVgive
p4438
aVdiffrent
p4439
aVcounsel
p4440
aV?
aa(lp4441
Vcriest
p4442
aVnot
p4443
aVthou
p4444
aVthou
p4445
aVknow'st
p4446
aVmy
p4447
aVeyelids
p4448
aVwith
p4449
aVdisease
p4450
aVare
p4451
aVswollen
p4452
aVand
p4453
aVall
p4454
aVmy
p4455
aVbody
p4456
aVtainted
p4457
aV?
aa(lp4458
Vwhin'st
p4459
aVnot
p4460
aVthou
p4461
aV,
aVin
p4462
aVthe
p4463
aVother
p4464
aVear
p4465
aV,
aVthou
p4466
aVhast
p4467
aVseen
p4468
aVvisions
p4469
aV,
aVfoul
p4470
aVdemon
p4471
aVshapes
p4472
aV,
aVwith
p4473
aVgreedy
p4474
aVmaws
p4475
aVwide
p4476
aVopen
p4477
aV,
aVsharp
p4478
aVbeaks
p4479
aVthat
p4480
aVsuck
p4481
aVmy
p4482
aVlife-blood
p4483
aV.
aa(lp4484
Vshow'st
p4485
aVthou
p4486
aVnot
p4487
aVthe
p4488
aVscars
p4489
aVthey
p4490
aVleave
p4491
aV,
aVhere
p4492
aV,
aVon
p4493
aVmy
p4494
aVflesh
p4495
aV?
aa(lp4496
Vand
p4497
aVgive
p4498
aVi
aVnot
p4499
aVheed
p4500
aV,
aVand
p4501
aVslaughter
p4502
aV,
aVslaughter
p4503
aV,
aVslaughter
p4504
aVvictims
p4505
aV,
aVmore
p4506
aVvictims
p4507
aV?
aa(lp4508
Vdo
p4509
aVye
p4510
aVnot
p4511
aVwith
p4512
aVall
p4513
aVyour
p4514
aVprating
p4515
aVdistract
p4516
aVmy
p4517
aVsoul
p4518
aV,
aVe'en
p4519
aVunto
p4520
aVdeath
p4521
aV?
aa(lp4522
Vno
p4523
aVmore
p4524
aVi
aV'll
p4525
aVlisten
p4526
aV.
aa(lp4527
Vthis
p4528
aVis
p4529
aVtruth
p4530
aVand
p4531
aVthat
p4532
aVis
p4533
aVfalsehood
p4534
aV.
aa(lp4535
V22
p4536
aV(
aVin
p4537
aVa
aVhollow
p4538
aVvoice
p4539
aV!
aV)
aa(lp4540
Vwhat
p4541
aVis
p4542
aVtruly
p4543
aVtruth
p4544
aV,
aVwe
p4545
aVmortals
p4546
aVcan
p4547
aVnot
p4548
aVknow
p4549
aV.
aa(lp4550
Vif
p4551
aVshe
p4552
aVshould
p4553
aVchance
p4554
aVto
p4555
aVtell
p4556
aV.
aa(lp4557
V.
aa(lp4558
V.
aa(lp4559
V(
aVstill
p4560
aVbreathing
p4561
aVheavily
p4562
aV,
aVgroaning
p4563
aV)
aVthat
p4564
aVwhich
p4565
aVto
p4566
aVhear
p4567
aVwill
p4568
aVplease
p4569
aVme
p4570
aV,
aVthen
p4571
aVwill
p4572
aVi
aVhearken
p4573
aVto
p4574
aVher
p4575
aVwords
p4576
aV.
aa(lp4577
Vif
p4578
aVany
p4579
aVtelleth
p4580
aVaught
p4581
aVthat
p4582
aVbringeth
p4583
aVjoy
p4584
aV(
aV^violently
p4585
aV)
aVand
p4586
aVthough
p4587
aVit
p4588
aVwere
p4589
aVmy
p4590
aVdaughter
p4591
aV,
aVwere
p4592
aVit
p4593
aVshe
p4594
aVthere
p4595
aV,
aVthen
p4596
aVwill
p4597
aVi
aVbare
p4598
aVmy
p4599
aVsoul
p4600
aV,
aVconcealment
p4601
aVflinging
p4602
aVfar
p4603
aVfrom
p4604
aVme
p4605
aV,
aVand
p4606
aVfrom
p4607
aVwhencesoe'er
p4608
aVthey
p4609
aVcome
p4610
aV,
aVthe
p4611
aVevening
p4612
aVair
p4613
aV's
p4614
aVcaresses
p4615
aVwill
p4616
aVi
aVwoo
p4617
aV,
aVas
p4618
aVsick
p4619
aVmen
p4620
aVdo
p4621
aV,
aVwho
p4622
aVin
p4623
aVthe
p4624
aVbalmy
p4625
aVair
p4626
aVat
p4627
aVnightfall
p4628
aVsitting
p4629
aV,
aVyonder
p4630
aVby
p4631
aVthe
p4632
aVriver
p4633
aV,
aVtheir
p4634
aVloathsome
p4635
aVsores
p4636
aVto
p4637
aVbalmy
p4638
aVairs
p4639
aVexpose
p4640
aValways
p4641
aVat
p4642
aVnightfall
p4643
aV,
aVand
p4644
aVno
p4645
aVthought
p4646
aVis
p4647
aVtheirs
p4648
aVsave
p4649
aVrespite
p4650
aVfrom
p4651
aVpain
p4652
aV.
aa(lp4653
Vleave
p4654
aVme
p4655
aValone
p4656
aVwith
p4657
aVher
p4658
aV.
aa(lp4659
V(
aVshe
p4660
aVmakes
p4661
aVan
p4662
aVimpatient
p4663
aVgesture
p4664
aVwith
p4665
aVher
p4666
aVstaff
p4667
aV,
aVbidding
p4668
aVthe
p4669
aVcon-
p4670
aVfidante
p4671
aVand
p4672
aVthe
p4673
aVtrainbearer
p4674
aVgo
p4675
aVinto
p4676
aVthe
p4677
aVhouse
p4678
aV.
aa(lp4679
Vthey
p4680
aVdisappear
p4681
aVafter
p4682
aVlingering
p4683
aVat
p4684
aVthe
p4685
aVdoor
p4686
aV.
aa(lp4687
Vthe
p4688
aVtorches
p4689
aV,
aVtoo
p4690
aV,
aVdisappear
p4691
aV,
aVand
p4692
aVonly
p4693
aVfrom
p4694
aVwithin
p4695
aVdoes
p4696
aVa
aVfeeble
p4697
aVray
p4698
aVof
p4699
aVlight
p4700
aVshine
p4701
aVon
p4702
aVto
p4703
aVthe
p4704
aVcourtyard
p4705
aVand
p4706
aVhere
p4707
aVand
p4708
aVthere
p4709
aVillumine
p4710
aVthe
p4711
aVfigures
p4712
aVof
p4713
aVthe
p4714
aVtwo
p4715
aVwomen
p4716
aV)
aV(
aVklytemnestra
p4717
aVdescends
p4718
aVsoftly
p4719
aV!
aV)
aa(lp4720
Vi
aVam
p4721
aVdistraught
p4722
aVwith
p4723
aVnights
p4724
aVof
p4725
aVhorror
p4726
aV.
aa(lp4727
Vknow'st
p4728
aVthou
p4729
aVno
p4730
aVsimples
p4731
aVagainst
p4732
aVdreaming
p4733
aV?
aa(lp4734
Velektra
p4735
aV(
aVappreaching
p4736
aV)
aV.
aa(lp4737
Vdream'st
p4738
aVthou
p4739
aV,
aVmother
p4740
aV?
aa(lp4741
Vklytemnestra
p4742
aV.
aa(lp4743
Vwhoso
p4744
aVgrows
p4745
aVold
p4746
aVmust
p4747
aVdream
p4748
aV.
aa(lp4749
Vbut
p4750
aVyet
p4751
aVcan
p4752
aVdreams
p4753
aVbe
p4754
aVbanished
p4755
aV.
aa(lp4756
Vthere
p4757
aVare
p4758
aVrites
p4759
aV,
aVthere
p4760
aVmust
p4761
aVbe
p4762
aVfitting
p4763
aVrites
p4764
aVfor
p4765
aVall
p4766
aVthings
p4767
aV.
aa(lp4768
Vtherefore
p4769
aVam
p4770
aVi
aVthus
p4771
aV23
p4772
aVladen
p4773
aVwith
p4774
aVjewels
p4775
aV,
aVfor
p4776
aVin
p4777
aVeach
p4778
aVone
p4779
aVdwelleth
p4780
aVmost
p4781
aVsurely
p4782
aVmagic
p4783
aVpower
p4784
aV.
aa(lp4785
Vwe
p4786
aVbut
p4787
aVneed
p4788
aVknowledge
p4789
aVhow
p4790
aVwe
p4791
aVmay
p4792
aVuse
p4793
aVit
p4794
aVbest
p4795
aV.
aa(lp4796
Vwert
p4797
aVthou
p4798
aVbut
p4799
aVkindly
p4800
aV,
aVthou
p4801
aVcouldest
p4802
aVgive
p4803
aVme
p4804
aVcounsel
p4805
aVthat
p4806
aVwould
p4807
aVsave
p4808
aV.
aa(lp4809
Velektra
p4810
aV.
aa(lp4811
Vi
aV,
aVmother
p4812
aV?
aa(lp4813
Vi
aV?
aa(lp4814
Vklytemnestra
p4815
aV(
aVin
p4816
aVa
aVvehement
p4817
aVoutburst
p4818
aV)
aV.
aa(lp4819
Vyea
p4820
aVthou
p4821
aV!
aa(lp4822
Vfor
p4823
aVthou
p4824
aVart
p4825
aVwise
p4826
aV,
aVand
p4827
aVin
p4828
aVthy
p4829
aVhead
p4830
aVall
p4831
aVthings
p4832
aVare
p4833
aVstrong
p4834
aV.
aa(lp4835
Vand
p4836
aVthou
p4837
aVcould'st
p4838
aVtell
p4839
aVme
p4840
aVmuch
p4841
aVthat
p4842
aVwould
p4843
aVgive
p4844
aVhelp
p4845
aV.
aa(lp4846
Vwhat
p4847
aVif
p4848
aVa
aVword
p4849
aVis
p4850
aVbut
p4851
aVa
aVbreath
p4852
aV?
aa(lp4853
Vfor
p4854
aVwhat
p4855
aVthen
p4856
aVis
p4857
aVa
aVbreath
p4858
aV?
aa(lp4859
Vand
p4860
aVyet
p4861
aV,
aVtwixt
p4862
aVnight
p4863
aVand
p4864
aVday
p4865
aV,
aVwhen
p4866
aVi
aV,
aVwith
p4867
aVeyes
p4868
aVwide
p4869
aVopen
p4870
aV,
aVsleepless
p4871
aVlie
p4872
aV,
aVa
aVsomething
p4873
aVcreeps
p4874
aVo'er
p4875
aVmy
p4876
aVcouch
p4877
aV.
aa(lp4878
Vit
p4879
aVis
p4880
aVno
p4881
aVword
p4882
aV,
aVit
p4883
aVis
p4884
aVno
p4885
aVpain
p4886
aV,
aVit
p4887
aVhath
p4888
aVno
p4889
aVweight
p4890
aV,
aVit
p4891
aVchokes
p4892
aVme
p4893
aVnot
p4894
aV,
aV'tis
p4895
aVnaught
p4896
aV,
aVnot
p4897
aVe'en
p4898
aVa
aVsickness
p4899
aVbut
p4900
aVin
p4901
aVtruth
p4902
aVit
p4903
aVdoth
p4904
aVso
p4905
aVmadden
p4906
aVme
p4907
aV,
aVthe
p4908
aVhangman
p4909
aV's
p4910
aVrope
p4911
aVwould
p4912
aVless
p4913
aVappal
p4914
aVmy
p4915
aVsoul
p4916
aV;
aVand
p4917
aVev'ry
p4918
aVlimb
p4919
aVin
p4920
aVme
p4921
aVcrieth
p4922
aValoud
p4923
aVfor
p4924
aVdeath
p4925
aV.
aa(lp4926
Vstill
p4927
aVi
aVam
p4928
aVliving
p4929
aV,
aVand
p4930
aVam
p4931
aVnot
p4932
aVeven
p4933
aVsick
p4934
aV.
aa(lp4935
Vlook
p4936
aVthou
p4937
aVon
p4938
aVme
p4939
aV,
aVhave
p4940
aVi
aVa
aVlook
p4941
aVof
p4942
aVsickness
p4943
aV?
aa(lp4944
Vcan
p4945
aVone
p4946
aVthus
p4947
aVrot
p4948
aV,
aVliving
p4949
aV,
aVlike
p4950
aVa
aVtainted
p4951
aVcorpse
p4952
aV?
aa(lp4953
Vcan
p4954
aVmen
p4955
aVdecay
p4956
aVand
p4957
aVcrumble
p4958
aV,
aVwithout
p4959
aVsickness
p4960
aV,
aVbeing
p4961
aVawake
p4962
aV,
aVlike
p4963
aVgarments
p4964
aVthat
p4965
aVthe
p4966
aVmoths
p4967
aVhave
p4968
aVeaten
p4969
aV?
aa(lp4970
Vthen
p4971
aVi
aVsleep
p4972
aVand
p4973
aVdreams
p4974
aVcome
p4975
aV,
aVdreams
p4976
aVcome
p4977
aV,
aVtill
p4978
aVmy
p4979
aVvery
p4980
aVmarrow
p4981
aVdoth
p4982
aVseem
p4983
aVto
p4984
aVfreeze
p4985
aV.
aa(lp4986
Vi
aVstagger
p4987
aVup
p4988
aVagain
p4989
aV,
aVand
p4990
aVnot
p4991
aVone-half
p4992
aVthe
p4993
aVtithe
p4994
aVof
p4995
aVsand
p4996
aVhas
p4997
aVtrickled
p4998
aVadown
p4999
aVthe
p5000
aVhour-glass
p5001
aV,
aVand
p5002
aVwhat
p5003
aVfrom
p5004
aVthe
p5005
aVhangings
p5006
aVgrins
p5007
aV,
aVis
p5008
aVnot
p5009
aVyet
p5010
aVthe
p5011
aVsallow
p5012
aVmorning
p5013
aVlight
p5014
aV.
aa(lp5015
Vno
p5016
aV,
aVstill
p5017
aVthe
p5018
aVtorch
p5019
aVburns
p5020
aVlow
p5021
aVwith
p5022
aVghostly
p5023
aVflame
p5024
aV,
aVthen
p5025
aVquivers
p5026
aVbright
p5027
aV,
aVjust
p5028
aVlike
p5029
aVa
aVliving
p5030
aVthing
p5031
aVwith
p5032
aVstealthy
p5033
aVeyes
p5034
aVthat
p5035
aVwatch
p5036
aVme
p5037
aV.
aa(lp5038
Vbut
p5039
aVthe
p5040
aVend
p5041
aVmust
p5042
aVsoon
p5043
aVbe
p5044
aVnear
p5045
aV.
aa(lp5046
Vof
p5047
aVall
p5048
aVthese
p5049
aVvisions
p5050
aV.
aa(lp5051
Vwhencesoe'er
p5052
aVthey
p5053
aVcome
p5054
aV,
aVi
aVknow
p5055
aV,
aVeach
p5056
aVdemon
p5057
aVleaveth
p5058
aVus
p5059
aV,
aVif
p5060
aVbut
p5061
aVthe
p5062
aVfitting
p5063
aVblood
p5064
aVis
p5065
aVmade
p5066
aVto
p5067
aVflow
p5068
aV.
aa(lp5069
Vall
p5070
aVdemons
p5071
aV.
aa(lp5072
V24
p5073
aVelektra
p5074
aV.
aa(lp5075
Vklytemnestra
p5076
aV(
aVwildly
p5077
aV)
aV.
aa(lp5078
Ve'en
p5079
aVbid
p5080
aVme
p5081
aVslay
p5082
aVeach
p5083
aVthing
p5084
aVthat
p5085
aVcrawls
p5086
aVor
p5087
aVflies
p5088
aVin
p5089
aVearth
p5090
aVor
p5091
aVheaven
p5092
aV;
aVbid
p5093
aVme
p5094
aVrise
p5095
aVin
p5096
aVsteam
p5097
aVof
p5098
aVblood
p5099
aVyea
p5100
aV,
aVin
p5101
aVblood-red
p5102
aVmists
p5103
aVbid
p5104
aVme
p5105
aVsleep
p5106
aVwhich
p5107
aVcurtain
p5108
aVfar-off
p5109
aVthule
p5110
aVi
aV'll
p5111
aVobey
p5112
aVthee
p5113
aV.
aa(lp5114
Vno
p5115
aVlonger
p5116
aVwill
p5117
aVi
aVdream
p5118
aVthus
p5119
aV.
aa(lp5120
Velektra
p5121
aV.
aa(lp5122
Vwhen
p5123
aVbeneath
p5124
aVthe
p5125
aVaxe
p5126
aVthe
p5127
aVappointed
p5128
aVvictim
p5129
aVbleeds
p5130
aV,
aVthen
p5131
aVdreamst
p5132
aVthou
p5133
aVno
p5134
aVlonger
p5135
aV.
aa(lp5136
Vklytemnestra
p5137
aV(
aVvery
p5138
aVhastily
p5139
aV)
aV.
aa(lp5140
Vthen
p5141
aVthou
p5142
aVknow'st
p5143
aVwhat
p5144
aVsacrifice
p5145
aVthat
p5146
aV's
p5147
aVconsecrated
p5148
aVelektra
p5149
aV(
aVwith
p5150
aVa
aVmysterious
p5151
aVsmile
p5152
aV)
aV.
aa(lp5153
V't
p5154
aVis
p5155
aVnot
p5156
aVconsecrated
p5157
aV.
aa(lp5158
Vklytemnestra
p5159
aV.
aa(lp5160
Vthat
p5161
aVfettered
p5162
aVlies
p5163
aVwithin
p5164
aV?
aa(lp5165
Velektra
p5166
aV.
aa(lp5167
Vno
p5168
aV!
aa(lp5169
Vit
p5170
aVroams
p5171
aVfree
p5172
aV.
aa(lp5173
Vklytemnestra
p5174
aV(
aVeagerly
p5175
aV)
aV.
aa(lp5176
Vwhat
p5177
aVrites
p5178
aVare
p5179
aVneeded
p5180
aV?
aa(lp5181
V25
p5182
aVelektra
p5183
aV.
aa(lp5184
Vrites
p5185
aVmost
p5186
aVwondrous
p5187
aVto
p5188
aVbe
p5189
aVobserved
p5190
aVmost
p5191
aVclosely
p5192
aV.
aa(lp5193
Vklytemnestra
p5194
aV(
aVvehemently
p5195
aV)
aV.
aa(lp5196
Vtell
p5197
aVme
p5198
aV,
aVquick
p5199
aV!
aa(lp5200
Velektra
p5201
aV.
aa(lp5202
Vcanst
p5203
aVthou
p5204
aVnot
p5205
aVguess
p5206
aVmy
p5207
aVmeaning
p5208
aV?
aa(lp5209
Vklytemnestra
p5210
aV.
aa(lp5211
Vno
p5212
aV,
aVfor
p5213
aVthat
p5214
aVi
aVask
p5215
aV(
aVas
p5216
aVif
p5217
aVsolemnly
p5218
aVadjuring
p5219
aVelektra
p5220
aV)
aVthe
p5221
aVvictim
p5222
aV's
p5223
aVname
p5224
aV,
aVcome
p5225
aV,
aVquickly
p5226
aVtell
p5227
aV!
aa(lp5228
Velektra
p5229
aV.
aa(lp5230
Va
aVwoman
p5231
aV.
aa(lp5232
Vklytemnestra
p5233
aV(
aVeagerly
p5234
aV)
aV.
aa(lp5235
Vis't
p5236
aVperchance
p5237
aVone
p5238
aVof
p5239
aVmy
p5240
aVservants
p5241
aV?
aa(lp5242
Va
aVchild
p5243
aV?
aa(lp5244
Va
aVpure
p5245
aVmaid
p5246
aVstill
p5247
aVunwed
p5248
aV?
aa(lp5249
Va
aVwife
p5250
aV?
aa(lp5251
Va
aVmother
p5252
aV,
aVduly
p5253
aVwedded
p5254
aV?
aa(lp5255
Velektra
p5256
aV(
aVcalmly
p5257
aV)
aV.
aa(lp5258
Vyes
p5259
aVa
aVwife
p5260
aVe'en
p5261
aVso
p5262
aV.
aa(lp5263
Vklytemnestra
p5264
aV(
aVwith
p5265
aVgrowing
p5266
aVeagerness
p5267
aV)
aV.
aa(lp5268
Vand
p5269
aVhow
p5270
aVthe
p5271
aVkilling
p5272
aV?
aa(lp5273
Vand
p5274
aVwhat
p5275
aVseason
p5276
aV?
aa(lp5277
Vand
p5278
aVwhere
p5279
aV?
aa(lp5280
V26
p5281
aVelektra
p5282
aV(
aVcalmly
p5283
aV)
aV.
aa(lp5284
Vat
p5285
aVany
p5286
aVplace
p5287
aV,
aVat
p5288
aVany
p5289
aVseason
p5290
aV,
aVof
p5291
aVday
p5292
aVor
p5293
aVnight
p5294
aV.
aa(lp5295
Vklytemnestra
p5296
aV.
aa(lp5297
Vthe
p5298
aVrites
p5299
aVdisclose
p5300
aVhow
p5301
aVshall't
p5302
aVbe
p5303
aVslain
p5304
aV?
aa(lp5305
Vmust
p5306
aVi
aVmyself
p5307
aV.
aa(lp5308
V.
aa(lp5309
V.
aa(lp5310
Velektra
p5311
aV.
aa(lp5312
Vthis
p5313
aVquarry
p5314
aVmust
p5315
aVother
p5316
aVhunters
p5317
aVslay
p5318
aVwith
p5319
aVnet
p5320
aVand
p5321
aVaxe
p5322
aV.
aa(lp5323
Vklytemnestra
p5324
aV.
aa(lp5325
Vwho
p5326
aVthen
p5327
aV?
aa(lp5328
Vwho
p5329
aVdeals
p5330
aVthe
p5331
aVblow
p5332
aV?
aa(lp5333
Velektra
p5334
aV.
aa(lp5335
Va
aVman
p5336
aV.
aa(lp5337
Vklytemnestra
p5338
aV.
aa(lp5339
Vaegistheus
p5340
aV?
aa(lp5341
Velektra
p5342
aV(
aVlaughing
p5343
aV)
aV.
aa(lp5344
Vbut
p5345
aVsaid
p5346
aVi
aVnot
p5347
aVa
aVman
p5348
aV?
aa(lp5349
Vklytemnestra
p5350
aV.
aa(lp5351
Vwho
p5352
aV?
aa(lp5353
Vgive
p5354
aVme
p5355
aVanswer
p5356
aV.
aa(lp5357
Va
aVtrusty
p5358
aVkinsman
p5359
aV?
aa(lp5360
Vmust
p5361
aVa
aVstranger
p5362
aVcome
p5363
aVto
p5364
aVgive
p5365
aVaid
p5366
aV?
aa(lp5367
Velektra
p5368
aV(
aVlooking
p5369
aVto
p5370
aVthe
p5371
aVground
p5372
aVas
p5373
aVif
p5374
aVabsent
p5375
aV}
aV.
aa(lp5376
Vyea
p5377
aV,
aVa
aVstranger
p5378
aV,
aVbut
p5379
aVit
p5380
aVchanceth
p5381
aVhe
p5382
aVis
p5383
aVour
p5384
aVkin
p5385
aV.
aa(lp5386
V27
p5387
aVklytemnestra
p5388
aV.
aa(lp5389
Va
aVtruce
p5390
aVto
p5391
aVriddles
p5392
aVnow
p5393
aV.
aa(lp5394
Velektra
p5395
aV,
aVheed
p5396
aVmy
p5397
aVwords
p5398
aV.
aa(lp5399
Vit
p5400
aVpleaseth
p5401
aVme
p5402
aVthat
p5403
aVi
aVto-day
p5404
aVhave
p5405
aVfound
p5406
aVthy
p5407
aVmood
p5408
aVnot
p5409
aVstubborn
p5410
aV.
aa(lp5411
Velektra
p5412
aV(
aVsoftly
p5413
aV)
aV.
aa(lp5414
Vcalpst
p5415
aVthou
p5416
aVmy
p5417
aVbrother
p5418
aVnot
p5419
aVfrom
p5420
aVexile
p5421
aV,
aVmother
p5422
aV?
aa(lp5423
Vklytemnestra
p5424
aV.
aa(lp5425
Vi
aVhave
p5426
aVrorbidden
p5427
aVthat
p5428
aVhis
p5429
aVname
p5430
aVbe
p5431
aVspoken
p5432
aV.
aa(lp5433
Velektra
p5434
aV.
aa(lp5435
Vthou
p5436
aVart
p5437
aVafraid
p5438
aVof
p5439
aVhim
p5440
aV?
aa(lp5441
Vklytemnestra
p5442
aV.
aa(lp5443
Vwho
p5444
aVsaith
p5445
aVit
p5446
aV?
aa(lp5447
Velektra
p5448
aV.
aa(lp5449
Vmother
p5450
aV,
aVwhat
p5451
aVtremblest
p5452
aVthou
p5453
aV?
aa(lp5454
Vklytemnestra
p5455
aV.
aa(lp5456
Vwhat
p5457
aVneed
p5458
aVot
p5459
aVfear
p5460
aVof
p5461
aVone
p5462
aVwhose
p5463
aVreason
p5464
aVtott'reth
p5465
aV?
aa(lp5466
Velektra
p5467
aV.
aa(lp5468
Vhow
p5469
aV?
aa(lp5470
Vklytemnestra
p5471
aV.
aa(lp5472
Vtis
p5473
aVsaid
p5474
aVhe
p5475
aVstamm'reth
p5476
aV,
aVplayeth
p5477
aVwith
p5478
aVdogs
p5479
aVupon
p5480
aVthe
p5481
aVpavement
p5482
aV,
aVnot
p5483
aVknowing
p5484
aVbeast
p5485
aVfrom
p5486
aVman
p5487
aV,
aVand
p5488
aVbabbleth
p5489
aVwildly
p5490
aV.
aa(lp5491
V28
p5492
aVelektra
p5493
aV.
aa(lp5494
Vthe
p5495
aVchild
p5496
aVwas
p5497
aVstrong
p5498
aVand
p5499
aVfair
p5500
aV.
aa(lp5501
Vklytemnestra
p5502
aV.
aa(lp5503
V't
p5504
aVis
p5505
aVsaid
p5506
aV,
aVthey
p5507
aVgave
p5508
aVhim
p5509
aVnoisome
p5510
aVlodging
p5511
aV,
aVand
p5512
aVmade
p5513
aVthe
p5514
aVcattle
p5515
aVall
p5516
aVhis
p5517
aVplaymates
p5518
aV.
aa(lp5519
Velektra
p5520
aV.
aa(lp5521
Vha
p5522
aV!
aa(lp5523
Vklytemnestra
p5524
aV(
aVwith
p5525
aVdrooping
p5526
aVeyelids
p5527
aV}
aV.
aa(lp5528
Vi
aVsent
p5529
aVthem
p5530
aVmuch
p5531
aVgold
p5532
aV,
aVand
p5533
aVstill
p5534
aVmore
p5535
aVgold
p5536
aV,
aVand
p5537
aVbade
p5538
aVthem
p5539
aVtend
p5540
aVhim
p5541
aVas
p5542
aVfits
p5543
aVa
aVson
p5544
aVof
p5545
aVkings
p5546
aV.
aa(lp5547
Velektra
p5548
aV.
aa(lp5549
Vthou
p5550
aVliest
p5551
aV!
aa(lp5552
Vthou
p5553
aVgavest
p5554
aVgold
p5555
aVand
p5556
aVbribe
p5557
aV,
aVthat
p5558
aVthey
p5559
aVmight
p5560
aVslay
p5561
aVhim
p5562
aV.
aa(lp5563
Vklytemnestra
p5564
aV.
aa(lp5565
Vwho
p5566
aVtold
p5567
aVthee
p5568
aVthat
p5569
aV?
aa(lp5570
Velektra
p5571
aV.
aa(lp5572
Vthy
p5573
aVdrooping
p5574
aVeyes
p5575
aVbetray
p5576
aVthee
p5577
aV,
aVthe
p5578
aVtrembling
p5579
aVof
p5580
aVthy
p5581
aVbody
p5582
aVtelleth
p5583
aVme
p5584
aV,
aVhe
p5585
aVis
p5586
aValive
p5587
aV.
aa(lp5588
Vthou
p5589
aVthinkest
p5590
aVday
p5591
aVand
p5592
aVnight
p5593
aVof
p5594
aVnought
p5595
aVbut
p5596
aVhim
p5597
aV,
aVtill
p5598
aVall
p5599
aVthy
p5600
aVheart
p5601
aVis
p5602
aVsick
p5603
aVwith
p5604
aVterror
p5605
aV,
aVfor
p5606
aVthou
p5607
aVknow'st
p5608
aVhe
p5609
aVcometh
p5610
aV!
aa(lp5611
Vklytemnestra
p5612
aV.
aa(lp5613
Vthey
p5614
aVthat
p5615
aVroam
p5616
aVabroad
p5617
aV,
aVwhat
p5618
aVcan
p5619
aVthey
p5620
aVharm
p5621
aVme
p5622
aV?
aa(lp5623
Vhere
p5624
aVi
aVabide
p5625
aVand
p5626
aVam
p5627
aVthe
p5628
aVmistress
p5629
aV.
aa(lp5630
Vservants
p5631
aVhave
p5632
aVi
aVenough
p5633
aV,
aVto
p5634
aVguard
p5635
aVeach
p5636
aVcourt
p5637
aVand
p5638
aVportal
p5639
aV,
aVand
p5640
aVshould
p5641
aVi
aVwish
p5642
aV,
aVthen
p5643
aVboth
p5644
aVby
p5645
aVnight
p5646
aVand
p5647
aVday
p5648
aVbefore
p5649
aVmy
p5650
aVchamber
p5651
aVdoor
p5652
aVthree
p5653
aVarmed
p5654
aVmen
p5655
aVwith
p5656
aVwatchful
p5657
aVeye
p5658
aVshall
p5659
aVguard
p5660
aVme
p5661
aV.
aa(lp5662
Vas
p5663
aVfor
p5664
aVthee
p5665
aVdevices
p5666
aVwill
p5667
aVi
aVfind
p5668
aVto
p5669
aVmake
p5670
aVthee
p5671
aVspeak
p5672
aVthe
p5673
aVright
p5674
aVword
p5675
aVsoon
p5676
aV.
aa(lp5677
Vthou
p5678
aVhast
p5679
aVbetrayed
p5680
aVthyself
p5681
aV:
aVthou
p5682
aVknowest
p5683
aVwho
p5684
aVis
p5685
aVthe
p5686
aVvictim
p5687
aVmeet
p5688
aV,
aVwhat
p5689
aVare
p5690
aVthe
p5691
aVrites
p5692
aVthat
p5693
aVgive
p5694
aVme
p5695
aVhealing
p5696
aV.
aa(lp5697
Vtell'st
p5698
aVthou
p5699
aVnot
p5700
aVin
p5701
aVfreedom
p5702
aVnow
p5703
aV,
aVthen
p5704
aVsoon
p5705
aVin
p5706
aVchains
p5707
aVthou'lt
p5708
aVtell
p5709
aVme
p5710
aV.
aa(lp5711
Vif
p5712
aVnot
p5713
aVwhen
p5714
aVfed
p5715
aV,
aVthou
p5716
aVsay'st
p5717
aVit
p5718
aVhungry
p5719
aV.
aa(lp5720
Vdreams
p5721
aVthat
p5722
aVafflict
p5723
aVus
p5724
aVcan
p5725
aVbe
p5726
aVbanished
p5727
aV.
aa(lp5728
Vwhoso
p5729
aVsuffereth
p5730
aVnor
p5731
aVany
p5732
aVmeans
p5733
aVdiscovereth
p5734
aVthat
p5735
aVwill
p5736
aVheal
p5737
aVhim
p5738
aV,
aVis
p5739
aVbut
p5740
aVa
aVfool
p5741
aV.
aa(lp5742
Vi
aVfor
p5743
aVmyself
p5744
aVwill
p5745
aVlearn
p5746
aVwhence
p5747
aVblood
p5748
aVmust
p5749
aVflow
p5750
aV,
aVthat
p5751
aVi
aVmay
p5752
aVsleep
p5753
aVin
p5754
aVpeace
p5755
aV.
aa(lp5756
Velektra
p5757
aV(
aVleaps
p5758
aVout
p5759
aVof
p5760
aVthe
p5761
aVdark
p5762
aVat
p5763
aVklytemnestra
p5764
aV,
aVcoming
p5765
aVnearer
p5766
aVto
p5767
aVher
p5768
aVand
p5769
aVnearer
p5770
aV,
aVmore
p5771
aVand
p5772
aVmore
p5773
aVthreatening
p5774
aV)
aV.
aa(lp5775
Vwhence
p5776
aVblood
p5777
aVmust
p5778
aVflow
p5779
aV!
aa(lp5780
Vwhence
p5781
aVblood
p5782
aV?
aa(lp5783
Vfrom
p5784
aVthine
p5785
aVown
p5786
aVneck
p5787
aV,
aVwhen
p5788
aVthe
p5789
aVhuntsman
p5790
aVshall
p5791
aVhave
p5792
aVovertaken
p5793
aVthee
p5794
aV!
aa(lp5795
Vi
aVhear
p5796
aVhim
p5797
aVthrough
p5798
aVthe
p5799
aVchamber
p5800
aVgo
p5801
aV,
aVi
aVhear
p5802
aVhim
p5803
aVlifting
p5804
aVthe
p5805
aVcurtain
p5806
aVfrom
p5807
aVthy
p5808
aVcouch
p5809
aV:
aVwho
p5810
aVslaughtereth
p5811
aVhis
p5812
aVvictims
p5813
aVwhile
p5814
aVthey
p5815
aVsleep
p5816
aV?
aa(lp5817
Vhe
p5818
aVwakens
p5819
aVthee
p5820
aV,
aVscreaming
p5821
aV,
aVthou
p5822
aVfliest
p5823
aV.
aa(lp5824
Vbut
p5825
aVhe
p5826
aV,
aVhe
p5827
aVpursues
p5828
aVthee
p5829
aV,
aVhe
p5830
aVdrives
p5831
aVthee
p5832
aVthrough
p5833
aVthe
p5834
aVhouse
p5835
aV!
aa(lp5836
Vturn'st
p5837
aVthou
p5838
aVto
p5839
aVright
p5840
aV,
aVthere
p5841
aVstands
p5842
aVthe
p5843
aVbed
p5844
aV!
aa(lp5845
Vto
p5846
aVleft
p5847
aVthere
p5848
aVfoams
p5849
aVthe
p5850
aVbath
p5851
aV,
aVlike
p5852
aVblood
p5853
aV!
aa(lp5854
Vthe
p5855
aVtorches
p5856
aV'
aVglare
p5857
aVencircles
p5858
aVthee
p5859
aVas
p5860
aVwith
p5861
aVblack
p5862
aVred
p5863
aVnets
p5864
aVof
p5865
aVdestruction
p5866
aV.
aa(lp5867
Vthen
p5868
aV(
aVklytemnestra
p5869
aV,
aVtrembling
p5870
aV-with
p5871
aVspeechless
p5872
aVterror
p5873
aV,
aVturns
p5874
aVtowards
p5875
aVthe
p5876
aVhouse
p5877
aV.
aa(lp5878
Velcktr
p5879
aVa
aV,
aVseizing
p5880
aVher
p5881
aVrobe
p5882
aVt
aVdrags
p5883
aVher
p5884
aVforward
p5885
aV.
aa(lp5886
Vklytemnestra
p5887
aVretreats
p5888
aVtowards
p5889
aVthe
p5890
aVwall
p5891
aV.
aa(lp5892
Vher
p5893
aVeyes
p5894
aVare
p5895
aVdistended
p5896
aVwith
p5897
aVterror
p5898
aV.
aa(lp5899
Vher
p5900
aVstaff
p5901
aVfalls
p5902
aVfrom
p5903
aVher
p5904
aVtrembling
p5905
aVhands
p5906
aV.
aV)
aa(lp5907
V30
p5908
aVdown
p5909
aVthe
p5910
aVlong
p5911
aVstairway
p5912
aV,
aVon
p5913
aVthrough
p5914
aVvaulted
p5915
aVhalls
p5916
aV,
aVand
p5917
aVstill
p5918
aVmore
p5919
aVhalls
p5920
aV,
aVhe
p5921
aVurgeth
p5922
aVthe
p5923
aVwild
p5924
aVchase
p5925
aVand
p5926
aVi
aV!
aa(lp5927
Vi
aV!
aa(lp5928
Vi
aV,
aVwho
p5929
aVsent
p5930
aVhim
p5931
aVto
p5932
aVthee
p5933
aV,
aVspeed
p5934
aVlike
p5935
aVsleuth-hound
p5936
aVon
p5937
aVthy
p5938
aVtraces
p5939
aV.
aa(lp5940
Vseekest
p5941
aVthou
p5942
aVa
aVsecret
p5943
aVrefuge
p5944
aV,
aVfrom
p5945
aVthis
p5946
aVside
p5947
aVor
p5948
aVthat
p5949
aVi
aVseize
p5950
aVthee
p5951
aV.
aa(lp5952
Vthus
p5953
aVthou'rt
p5954
aVdriven
p5955
aVever
p5956
aVon
p5957
aVuntil
p5958
aVthe
p5959
aVwalls
p5960
aVtheir
p5961
aVbarriers
p5962
aVraise
p5963
aV.
aa(lp5964
Vand
p5965
aVthere
p5966
aV,
aVin
p5967
aVdeepest
p5968
aVdarkness
p5969
aV,
aVbut
p5970
aVi
aVsee
p5971
aVhim
p5972
aVwell
p5973
aV-
aVa
aVshadow
p5974
aVand
p5975
aVlimbs
p5976
aVgleaming
p5977
aV,
aVand
p5978
aVthe
p5979
aVglance
p5980
aVof
p5981
aVeyes
p5982
aVthat
p5983
aVcall
p5984
aVme
p5985
aVon
p5986
aVthere
p5987
aVsits
p5988
aVmy
p5989
aVfather
p5990
aV:
aVnot
p5991
aVheeding
p5992
aVaught
p5993
aVyet
p5994
aVmust
p5995
aVthe
p5996
aVdeed
p5997
aVbe
p5998
aVdone
p5999
aV.
aa(lp6000
Vand
p6001
aVat
p6002
aVhis
p6003
aVfeet
p6004
aVwe
p6005
aVfell
p6006
aVthee
p6007
aVto
p6008
aVthe
p6009
aVground
p6010
aV-
aVcries
p6011
aVwould'st
p6012
aVthou
p6013
aVutter
p6014
aV,
aVbut
p6015
aVthe
p6016
aVunborn
p6017
aVword
p6018
aVis
p6019
aVstrangled
p6020
aVin
p6021
aVthy
p6022
aVthroat
p6023
aV,
aVand
p6024
aVin
p6025
aVthe
p6026
aVsilence
p6027
aV,
aVmakes
p6028
aVbut
p6029
aVfaint
p6030
aVechoes
p6031
aV;
aVand
p6032
aVlike
p6033
aVa
aVmad
p6034
aVthing
p6035
aVthou
p6036
aVstretchest
p6037
aVout
p6038
aVthy
p6039
aVneck
p6040
aV,
aVf
aVeel'st
p6041
aVin
p6042
aVthe
p6043
aVvery
p6044
aVseat
p6045
aVof
p6046
aVlife
p6047
aVthe
p6048
aVlightning
p6049
aVsword-stroke
p6050
aV.
aa(lp6051
Vbut
p6052
aVthe
p6053
aVblow
p6054
aVhe
p6055
aVholdeth
p6056
aVback
p6057
aV.
aa(lp6058
Vthe
p6059
aVrites
p6060
aVare
p6061
aVyet
p6062
aVto
p6063
aVdo
p6064
aV.
aa(lp6065
Vall
p6066
aVis
p6067
aVstill
p6068
aVas
p6069
aVdeath
p6070
aV.
aa(lp6071
Vthou
p6072
aVhearest
p6073
aVthine
p6074
aVown
p6075
aVheart
p6076
aVwithin
p6077
aVthee
p6078
aVmadly
p6079
aVbeating
p6080
aVand
p6081
aVthou
p6082
aVsee'st
p6083
aVthe
p6084
aVmoments
p6085
aVstretch
p6086
aVbefore
p6087
aVthee
p6088
aVan
p6089
aVabyss
p6090
aVof
p6091
aVcenturies
p6092
aV.
aa(lp6093
Vthis
p6094
aVrespite
p6095
aVhath
p6096
aVbeen
p6097
aVgiven
p6098
aVthee
p6099
aV,
aVto
p6100
aVknow
p6101
aVthe
p6102
aVship-wrecked
p6103
aVsailors
p6104
aV'
aVtorment
p6105
aV,
aVwhen
p6106
aVtheir
p6107
aVwild
p6108
aVcries
p6109
aVfor
p6110
aVhelp
p6111
aVresound
p6112
aVin
p6113
aVvain
p6114
aVin
p6115
aVstorm
p6116
aVof
p6117
aVtempest
p6118
aVand
p6119
aVof
p6120
aVdeath
p6121
aV.
aa(lp6122
Vthis
p6123
aVrespite
p6124
aVwas
p6125
aVgiven
p6126
aVthee
p6127
aVto
p6128
aVmake
p6129
aVthee
p6130
aVenvy
p6131
aVall
p6132
aVthat
p6133
aVlanguish
p6134
aV,
aVin
p6135
aVa
aVloathsome
p6136
aVdungeon
p6137
aVchained
p6138
aV,
aVthat
p6139
aVcry
p6140
aVfrom
p6141
aVout
p6142
aVthe
p6143
aVbottom
p6144
aVof
p6145
aVsome
p6146
aVwell
p6147
aVfor
p6148
aVdeath
p6149
aV,
aVas
p6150
aVfor
p6151
aVa
aVfriend
p6152
aVthat
p6153
aVsaves
p6154
aV.
aa(lp6155
Vfor
p6156
aVthou
p6157
aV,
aVthou
p6158
aVart
p6159
aVin
p6160
aVthine
p6161
aVown
p6162
aVself
p6163
aVso
p6164
aVfast
p6165
aVimprisoned
p6166
aV,
aVas
p6167
aVin
p6168
aVthe
p6169
aVfiery
p6170
aVwomb
p6171
aVof
p6172
aVsome
p6173
aVgreat
p6174
aVbeast
p6175
aVof
p6176
aVbrass
p6177
aVwhence
p6178
aVfrenzied
p6179
aVshrieks
p6180
aVwill
p6181
aVnaught
p6182
aVthere
p6183
aVstand
p6184
aVi
aVavail
p6185
aVthee
p6186
aV'
aVby
p6187
aVthee
p6188
aV,
aVand
p6189
aVthou
p6190
aVcanst
p6191
aVread
p6192
aVwith
p6193
aVstaring
p6194
aVeye
p6195
aVthe
p6196
aVmessage
p6197
aV,
aVbig
p6198
aVwith
p6199
aVfate
p6200
aV,
aVthat
p6201
aVon
p6202
aVmy
p6203
aVface
p6204
aVis
p6205
aVwrit
p6206
aVfor
p6207
aVall
p6208
aVto
p6209
aVsee
p6210
aV.
aa(lp6211
Vthy
p6212
aVsoul
p6213
aVis
p6214
aVstrangled
p6215
aVin
p6216
aVthe
p6217
aVnoose
p6218
aVthat
p6219
aVthou
p6220
aVthyself
p6221
aVhast
p6222
aVwoven
p6223
aV.
aa(lp6224
Vhissing
p6225
aVfalls
p6226
aVthe
p6227
aVaxe
p6228
aVand
p6229
aVi
aVstand
p6230
aVthere
p6231
aV.
aa(lp6232
Vat
p6233
aVlast
p6234
aVi
aVsee
p6235
aVthee
p6236
aVdying
p6237
aV,
aV31
p6238
aVthen
p6239
aVdreamest
p6240
aVthou
p6241
aVno
p6242
aVmore
p6243
aV.
aa(lp6244
Vfor
p6245
aVme
p6246
aVno
p6247
aVmore
p6248
aVis
p6249
aVneed
p6250
aVof
p6251
aVdreaming
p6252
aV.
aa(lp6253
Vall
p6254
aVwho
p6255
aVstill
p6256
aVdo
p6257
aVlive
p6258
aVrejoice
p6259
aV,
aVand
p6260
aVall
p6261
aVin
p6262
aVtheir
p6263
aVown
p6264
aVlives
p6265
aVare
p6266
aVglad
p6267
aV.
aa(lp6268
V(
aVthey
p6269
aVstand
p6270
aVeye
p6271
aVto
p6272
aVeye
p6273
aVelektra
p6274
aVin
p6275
aVwild
p6276
aVintoxication
p6277
aV,
aVklytemnestra
p6278
aVbreathing
p6279
aVin
p6280
aVhorrible
p6281
aVspasms
p6282
aVof
p6283
aVfear
p6284
aV.
aa(lp6285
Vat
p6286
aVthis
p6287
aVmoment
p6288
aVthe
p6289
aVinterior
p6290
aVof
p6291
aVthe
p6292
aVpalace
p6293
aVis
p6294
aVlighted
p6295
aVup
p6296
aV.
aa(lp6297
Vthe
p6298
aVconfidante
p6299
aVcomes
p6300
aVrunning
p6301
aVfrom
p6302
aVthe
p6303
aVpalace
p6304
aV.
aa(lp6305
Vshe
p6306
aVwhispers
p6307
aVsomething
p6308
aVinto
p6309
aVklytemnestra
p6310
aV'
aVs
aVear
p6311
aV.
aa(lp6312
Vshe
p6313
aVseems
p6314
aVat
p6315
aVfirst
p6316
aVnot
p6317
aVto
p6318
aVunderstand
p6319
aV.
aa(lp6320
Vgradually
p6321
aVshe
p6322
aVgrasps
p6323
aVthe
p6324
aVmeaning
p6325
aVof
p6326
aVit
p6327
aVall
p6328
aV.
aa(lp6329
Vshe
p6330
aVcommands
p6331
aV``
p6332
aVlights
p6333
aV''
p6334
aV.
aa(lp6335
Vserving
p6336
aVmaids
p6337
aVcome
p6338
aVrunning
p6339
aVfrom
p6340
aVthe
p6341
aVpalace
p6342
aVwith
p6343
aVtorches
p6344
aVand
p6345
aVrange
p6346
aVthemselves
p6347
aVbehind
p6348
aVklytemnestra
p6349
aV.
aa(lp6350
Vklytemnestra
p6351
aVcommands
p6352
aV``
p6353
aVmore
p6354
aVlights
p6355
aV!
aV''
p6356
aa(lp6357
Vstill
p6358
aVmore
p6359
aVserving
p6360
aVmaids
p6361
aVcome
p6362
aVout
p6363
aVand
p6364
aVrange
p6365
aVthemselves
p6366
aVbehind
p6367
aVklytemnestra
p6368
aV,
aVso
p6369
aVthat
p6370
aVthe
p6371
aVcourtyard
p6372
aVis
p6373
aVflooded
p6374
aVwith
p6375
aVlight
p6376
aVand
p6377
aVa
aVreddish
p6378
aVyellow
p6379
aVglare
p6380
aVeddies
p6381
aVround
p6382
aVthe
p6383
aVwalls
p6384
aV.
aa(lp6385
Vnow
p6386
aVher
p6387
aVfeatures
p6388
aVgradually
p6389
aVchange
p6390
aVand
p6391
aVthe
p6392
aVtension
p6393
aVyields
p6394
aVto
p6395
aVa
aVlook
p6396
aVof
p6397
aVevil
p6398
aVtriumph
p6399
aV.
aa(lp6400
Vklytemnestra
p6401
aVcauses
p6402
aVthe
p6403
aVmessage
p6404
aVto
p6405
aVbe
p6406
aVwhispered
p6407
aVto
p6408
aVher
p6409
aVagain
p6410
aV,
aVand
p6411
aVdoes
p6412
aVnot
p6413
aV,
aVthe
p6414
aVwhile
p6415
aVtake
p6416
aVher
p6417
aVeyes
p6418
aVoff
p6419
aVelektra
p6420
aVfor
p6421
aVan
p6422
aVinstant
p6423
aV.
aa(lp6424
Vglutted
p6425
aVwith
p6426
aVwild
p6427
aVjoy
p6428
aV,
aVkly-
p6429
aVtemnestra
p6430
aVraises
p6431
aVboth
p6432
aVher
p6433
aVhands
p6434
aV,
aVthreatening
p6435
aV,
aVtowards
p6436
aVelektra
p6437
aV.
aa(lp6438
Vthen
p6439
aVthe
p6440
aVconfidante
p6441
aVlifts
p6442
aVher
p6443
aVstaff
p6444
aV''
p6445
aVfrom
p6446
aVthe
p6447
aVground
p6448
aV,
aVand
p6449
aVleaning
p6450
aVon
p6451
aVboth
p6452
aV,
aVklytemnestra
p6453
aVhurries
p6454
aVeagerly
p6455
aVinto
p6456
aVthe
p6457
aVpalace
p6458
aV,
aVgathering
p6459
aVup
p6460
aVher
p6461
aVrobe
p6462
aVon
p6463
aVthe
p6464
aVstairs
p6465
aV.
aa(lp6466
Vthe
p6467
aVserving
p6468
aVmaids
p6469
aVrush
p6470
aVafter
p6471
aVher
p6472
aV,
aVas
p6473
aVif
p6474
aVpursued
p6475
aV.
aV)
aa(lp6476
Velektra
p6477
aV.
aa(lp6478
Vwhat
p6479
aVhave
p6480
aVthey
p6481
aVsaid
p6482
aVto
p6483
aVher
p6484
aV!
aa(lp6485
Vshe
p6486
aVseemeth
p6487
aVglad
p6488
aV.
aa(lp6489
Vmy
p6490
aVhead
p6491
aV!
aa(lp6492
Vi
aVhave
p6493
aVno
p6494
aVthoughts
p6495
aV.
aa(lp6496
Vwhy
p6497
aVdoth
p6498
aVthat
p6499
aVwoman
p6500
aVrejoice
p6501
aV(
aVchrysothemis
p6502
aVenters
p6503
aVrunning
p6504
aV,
aVthrough
p6505
aVthe
p6506
aVgate
p6507
aVof
p6508
aVthe
p6509
aVcourtyard
p6510
aV,
aVhowling
p6511
aVloudly
p6512
aVlike
p6513
aVa
aVwounded
p6514
aVbeast
p6515
aV)
aVorestes
p6516
aV!
aa(lp6517
Vorestes
p6518
aVis
p6519
aVdead
p6520
aV!
aa(lp6521
Vchrysothemis
p6522
aV(
aVshrieking
p6523
aV)
aV.
aa(lp6524
Velektra
p6525
aV(
aVmakes
p6526
aVa
aVgesture
p6527
aVto
p6528
aVward
p6529
aVher
p6530
aVoff
p6531
aV,
aVas
p6532
aVf
aVdemented
p6533
aV)
aV.
aa(lp6534
Vbe
p6535
aVstill
p6536
aV!
aa(lp6537
V_
aV82
p6538
aVchrysothemis
p6539
aV.
aa(lp6540
Vorestes
p6541
aVis
p6542
aVdead
p6543
aV!
aa(lp6544
Vi
aVwent
p6545
aVabroad
p6546
aValready
p6547
aVall
p6548
aVmen
p6549
aVknow
p6550
aV!
aa(lp6551
Vthey
p6552
aVall
p6553
aVgathered
p6554
aVin
p6555
aVcrowds
p6556
aV.
aa(lp6557
Vall
p6558
aVmen
p6559
aVhad
p6560
aVheard
p6561
aVthe
p6562
aVtidings
p6563
aV,
aVonly
p6564
aVnot
p6565
aVwe
p6566
aV.
aa(lp6567
Velektra
p6568
aV(
aVin
p6569
aVa
aVhollow
p6570
aVvoice
p6571
aV)
aV.
aa(lp6572
Vno
p6573
aVone
p6574
aVknows
p6575
aVit
p6576
aV!
aa(lp6577
Vchrysothemis
p6578
aV.
aa(lp6579
Vall
p6580
aVmen
p6581
aVknow
p6582
aVit
p6583
aV!
aa(lp6584
Velektra
p6585
aV.
aa(lp6586
Vno
p6587
aVone
p6588
aVcan
p6589
aVknow
p6590
aVit
p6591
aV,
aVfor
p6592
aVit
p6593
aVis
p6594
aVnot
p6595
aVtrue
p6596
aV.
aa(lp6597
V(
aVchrysothemis
p6598
aVflings
p6599
aVherself
p6600
aVin
p6601
aVdespair
p6602
aVon
p6603
aVthe
p6604
aVground
p6605
aV.
aV)
aa(lp6606
Velektra
p6607
aV(
aVdragging
p6608
aVup
p6609
aVchrysothemis
p6610
aV)
aV.
aa(lp6611
Vit
p6612
aVis
p6613
aVnot
p6614
aVtrue
p6615
aV!
aa(lp6616
Vit
p6617
aVis
p6618
aVnot
p6619
aVtrue
p6620
aVi
aVi
aVtell
p6621
aVthee
p6622
aVit
p6623
aVis
p6624
aVnot
p6625
aVtrue
p6626
aV!
aa(lp6627
Vchrysothemis
p6628
aV.
aa(lp6629
Vthe
p6630
aVstrangers
p6631
aVstood
p6632
aVthere
p6633
aVby
p6634
aVthe
p6635
aVwall
p6636
aV,
aVthe
p6637
aVstrangers
p6638
aVwho
p6639
aVcame
p6640
aVthe
p6641
aVtidings
p6642
aVto
p6643
aVdeliver
p6644
aV:
aVtwo
p6645
aV-
aVone
p6646
aVolder
p6647
aVand
p6648
aVone
p6649
aVyounger
p6650
aV.
aa(lp6651
Vall
p6652
aValready
p6653
aVhad
p6654
aVheard
p6655
aVthe
p6656
aVnews
p6657
aV.
aa(lp6658
Vin
p6659
aVcrowds
p6660
aVmen
p6661
aVstood
p6662
aVall
p6663
aVround
p6664
aVthem
p6665
aVhearing
p6666
aVtheir
p6667
aVwords
p6668
aV,
aVthey
p6669
aVknow
p6670
aVit
p6671
aV.
aa(lp6672
Vall
p6673
aVknow
p6674
aVit
p6675
aV.
aa(lp6676
V(
aVwith
p6677
aVa
aVsupreme
p6678
aVeffort
p6679
aV]
aVall
p6680
aVhad
p6681
aVbeen
p6682
aVtold
p6683
aV.
aa(lp6684
Velektra
p6685
aV(
aVwith
p6686
aVall
p6687
aVher
p6688
aVstrength
p6689
aV}
aV.
aa(lp6690
Vit
p6691
aVis
p6692
aVnot
p6693
aVtrue
p6694
aV.
aa(lp6695
V33
p6696
aVchpysothemis
p6697
aV.
aa(lp6698
Vof
p6699
aVus
p6700
aVthinks
p6701
aVno
p6702
aVone
p6703
aV.
aa(lp6704
Vdead
p6705
aV!
aa(lp6706
Velektra
p6707
aV,
aVdead
p6708
aV!
aa(lp6709
Vorestes
p6710
aVamid
p6711
aVstrangers
p6712
aVdead
p6713
aV!
aa(lp6714
Vorestes
p6715
aVin
p6716
aVa
aVforeign
p6717
aVland
p6718
aV!
aa(lp6719
Vorestes
p6720
aVdragged
p6721
aVto
p6722
aVdeath
p6723
aVby
p6724
aVhis
p6725
aVown
p6726
aVsteeds
p6727
aV.
aa(lp6728
V(
aVshe
p6729
aVsinks
p6730
aVto
p6731
aVthe
p6732
aVground
p6733
aVin
p6734
aVwild
p6735
aVdespair
p6736
aV,
aVby
p6737
aVelektra
p6738
aV's
p6739
aVside
p6740
aVnear
p6741
aVthe
p6742
aVthreshold
p6743
aV.
aV)
aa(lp6744
Va
aVyoung
p6745
aVslave
p6746
aV(
aVhurrying
p6747
aVfrom
p6748
aVthe
p6749
aVhouse
p6750
aV,
aVstumbles
p6751
aVover
p6752
aVthem
p6753
aVas
p6754
aVthey
p6755
aVlie
p6756
aV)
aV.
aa(lp6757
Vroom
p6758
aV!
aa(lp6759
Vroom
p6760
aV!
aa(lp6761
Vwho
p6762
aVloiters
p6763
aVso
p6764
aVbefore
p6765
aVthe
p6766
aVdoor
p6767
aV!
aa(lp6768
Vha
p6769
aV!
aa(lp6770
V't
p6771
aVis
p6772
aVno
p6773
aVwonder
p6774
aV.
aa(lp6775
Vquick
p6776
aV,
aVa
aVhorse
p6777
aVthere
p6778
aV,
aVquick
p6779
aV!
aa(lp6780
Van
p6781
aVold
p6782
aVslave
p6783
aV(
aVof
p6784
aVsombre
p6785
aVmien
p6786
aV,
aVappears
p6787
aVat
p6788
aVthe
p6789
aVgate
p6790
aVof
p6791
aVthe
p6792
aVcourtyard
p6793
aV)
aV.
aa(lp6794
Vwho
p6795
aVneeds
p6796
aVa
aVhorse
p6797
aV?
aa(lp6798
Vyoung
p6799
aVslave
p6800
aV.
aa(lp6801
Vthe
p6802
aVswiftest
p6803
aVhorse
p6804
aVbring
p6805
aVme
p6806
aV,
aVas
p6807
aVquick
p6808
aVas
p6809
aVmay
p6810
aVbe
p6811
aV,
aVhearest
p6812
aVthou
p6813
aV?
aa(lp6814
Va
aVhorse
p6815
aV,
aVa
aVwild
p6816
aVass
p6817
aV,
aVor
p6818
aVa
aVmule
p6819
aV,
aVor
p6820
aVif
p6821
aVnot
p6822
aVthat
p6823
aV,
aVa
aVcow
p6824
aV;
aVbut
p6825
aVquick
p6826
aV!
aa(lp6827
Vold
p6828
aVslave
p6829
aV.
aa(lp6830
Vfor
p6831
aVwhom
p6832
aV?
aa(lp6833
Vyoung
p6834
aVslave
p6835
aV.
aa(lp6836
Vfor
p6837
aVhim
p6838
aVthat
p6839
aVbids
p6840
aVthee
p6841
aV.
aa(lp6842
Vlook
p6843
aV,
aVhe
p6844
aVgapes
p6845
aVat
p6846
aVme
p6847
aV!
aa(lp6848
Vfor
p6849
aVme
p6850
aVat
p6851
aVonce
p6852
aVfor
p6853
aVme
p6854
aV,
aVtrot
p6855
aV,
aVtrot
p6856
aV,
aVi
aVmust
p6857
aVafield
p6858
aV,
aVand
p6859
aVbring
p6860
aVthe
p6861
aVmaster
p6862
aVhome
p6863
aV,
aVfor
p6864
aVi
aVhave
p6865
aVtidings
p6866
aV,
aVto
p6867
aVbring
p6868
aVhim
p6869
aV,
aVweighty
p6870
aVtidings
p6871
aV,
aVtidings
p6872
aVweighty
p6873
aVenough
p6874
aVthe
p6875
aVbest
p6876
aVof
p6877
aVall
p6878
aVyour
p6879
aVhorses
p6880
aVto
p6881
aVlame
p6882
aVpast
p6883
aVhealing
p6884
aV(
aVgoing
p6885
aV}
aV.
aa(lp6886
V(
aVthe
p6887
aVold
p6888
aVslave
p6889
aVtoo
p6890
aVdisappears
p6891
aV.
aV)
aa(lp6892
V3
aV34
p6893
aVelektra
p6894
aV(
aVto
p6895
aVherself
p6896
aVsoftly
p6897
aV,
aVbut
p6898
aV-with
p6899
aVdetermination
p6900
aV)
aV.
aa(lp6901
Vnow
p6902
aVmust
p6903
aVit
p6904
aVhere
p6905
aV,
aVby
p6906
aVus
p6907
aV,
aVbe
p6908
aVdone
p6909
aV.
aa(lp6910
Vchpysothemis
p6911
aV(
aVin
p6912
aVastonishment
p6913
aV,
aVquestioning
p6914
aV)
aV.
aa(lp6915
Velektra
p6916
aVelektra
p6917
aV(
aVin
p6918
aVfrenzied
p6919
aVhaste
p6920
aV)
aV.
aa(lp6921
Vwe
p6922
aV,
aVwe
p6923
aVtwain
p6924
aVmust
p6925
aVdo
p6926
aVit
p6927
aV.
aa(lp6928
Vchrysothemis
p6929
aV.
aa(lp6930
Vwhat
p6931
aV,
aVelektra
p6932
aV?
aa(lp6933
Velektra
p6934
aV(
aVsoftly
p6935
aV)
aV.
aa(lp6936
V'twere
p6937
aVbest
p6938
aVto-day
p6939
aV,
aV'twere
p6940
aVbest
p6941
aVthis
p6942
aVnight
p6943
aV.
aa(lp6944
Vchrysothemis
p6945
aV.
aa(lp6946
Vwhat
p6947
aV,
aVsister
p6948
aV?
aa(lp6949
Velektra
p6950
aV.
aa(lp6951
Vwhat
p6952
aV?
aa(lp6953
Vthe
p6954
aVtask
p6955
aVthat
p6956
aVto
p6957
aVour
p6958
aVlot
p6959
aVhath
p6960
aVfallen
p6961
aVnow
p6962
aV,
aV(
aVvery
p6963
aVsadly
p6964
aV)
aVsince
p6965
aVhe
p6966
aVcan
p6967
aVne'er
p6968
aVreturn
p6969
aV.
aa(lp6970
Vchrysothemis
p6971
aV(
aVin
p6972
aVgrowing
p6973
aVfear
p6974
aV)
aV.
aa(lp6975
Vwhat
p6976
aVis
p6977
aVthe
p6978
aVtask
p6979
aV?
aa(lp6980
V35
p6981
aV>
aVelektra
p6982
aV.
aa(lp6983
Vnow
p6984
aVmust
p6985
aVwe
p6986
aV,
aVyou
p6987
aVand
p6988
aVi
aVarise
p6989
aV,
aVand
p6990
aVseek
p6991
aVout
p6992
aVher
p6993
aVher
p6994
aVand
p6995
aVher
p6996
aVhusband
p6997
aVand
p6998
aVslay
p6999
aVthem
p7000
aV.
aa(lp7001
Vchrysothemis
p7002
aV(
aVsoftly-trembling
p7003
aV)
aV.
aa(lp7004
Vsister
p7005
aV,
aVspeak'st
p7006
aVthou
p7007
aVot
p7008
aVour
p7009
aVmother
p7010
aV?
aa(lp7011
Velektra
p7012
aV(
aVwildly
p7013
aV)
aV.
aa(lp7014
Vot
p7015
aVher
p7016
aV,
aVyea
p7017
aV,
aVand
p7018
aVof
p7019
aVhim
p7020
aV.
aa(lp7021
Vquick
p7022
aVto
p7023
aVthe
p7024
aVtask
p7025
aV,
aVit
p7026
aVbrooketh
p7027
aVno
p7028
aVdelay
p7029
aV.
aa(lp7030
Vbe
p7031
aVstill
p7032
aV.
aa(lp7033
Vno
p7034
aVneed
p7035
aVof
p7036
aVwords
p7037
aV,
aVno
p7038
aVneed
p7039
aVof
p7040
aVcounsel
p7041
aVonly
p7042
aVone
p7043
aVthing
p7044
aVhow
p7045
aV?
aa(lp7046
Vhow
p7047
aVshall
p7048
aVwe
p7049
aVdo
p7050
aVit
p7051
aV?
aa(lp7052
Vchrysothemis
p7053
aV.
aa(lp7054
Vi
aV?
aa(lp7055
Vchrysothemis
p7056
aV(
aVin
p7057
aVhorror
p7058
aV)
aV.
aa(lp7059
Vwe
p7060
aV?
aa(lp7061
Vwe
p7062
aVtwain
p7063
aVshall
p7064
aVgo
p7065
aVand
p7066
aVslay
p7067
aVthem
p7068
aV,
aValone
p7069
aVand
p7070
aVempty-handed
p7071
aV?
aa(lp7072
Velektra
p7073
aV.
aa(lp7074
Vbe
p7075
aVthat
p7076
aVmy
p7077
aVcare
p7078
aV!
aa(lp7079
V(
aVmysteriously
p7080
aV.
aV)
aa(lp7081
Varmed
p7082
aVam
p7083
aVi
aV!
aa(lp7084
Vthe
p7085
aVaxe
p7086
aV!
aa(lp7087
V(
aVmore
p7088
aVloudly
p7089
aV.
aV)
aa(lp7090
Vthe
p7091
aVaxe
p7092
aV,
aVwherewith
p7093
aVmy
p7094
aVfather
p7095
aV3*
p7096
aV36
p7097
aVchrysothemis
p7098
aV.
aa(lp7099
Vthou
p7100
aV?
aa(lp7101
Vterrible
p7102
aV,
aVthou
p7103
aVhast
p7104
aVit
p7105
aV?
aa(lp7106
Velektra
p7107
aV.
aa(lp7108
Vfor
p7109
aVorestes
p7110
aV1
aVkept
p7111
aVit
p7112
aVhid
p7113
aV.
aa(lp7114
Vnow
p7115
aV't
p7116
aVis
p7117
aVfor
p7118
aVus
p7119
aVto
p7120
aVwield
p7121
aVit
p7122
aVchrysothemis
p7123
aV.
aa(lp7124
Vthou
p7125
aV?
aa(lp7126
Vwith
p7127
aVthese
p7128
aVarms
p7129
aVdost
p7130
aVthink
p7131
aVto
p7132
aVslay
p7133
aVaegistheus
p7134
aV?
aa(lp7135
Velektra
p7136
aV(
aVwildly
p7137
aV)
aV.
aa(lp7138
Vfirst
p7139
aVher
p7140
aV,
aVthen
p7141
aVhim
p7142
aVfirst
p7143
aVhim
p7144
aV,
aVthen
p7145
aVher
p7146
aV;
aVi
aVcare
p7147
aVnot
p7148
aV.
aa(lp7149
Vchrysothemis
p7150
aV.
aa(lp7151
Vi
aVam
p7152
aVafraid
p7153
aV.
aa(lp7154
Velektra
p7155
aV.
aa(lp7156
Vat
p7157
aVnight
p7158
aVno
p7159
aVman
p7160
aVlies
p7161
aVin
p7162
aVthe
p7163
aVneighbour
p7164
aVroom
p7165
aV.
aa(lp7166
Vchrysothemis
p7167
aV.
aa(lp7168
Vto
p7169
aVkill
p7170
aVthem
p7171
aVsleeping
p7172
aV!
aa(lp7173
Velektra
p7174
aV.
aa(lp7175
Vwho
p7176
aVsleeps
p7177
aVis
p7178
aVas
p7179
aVa
aVfettered
p7180
aVvictim
p7181
aV.
aa(lp7182
Vdid
p7183
aVthey
p7184
aVnot
p7185
aVtogether
p7186
aVsleep
p7187
aV,
aValone
p7188
aVi
aV'd
p7189
aVdo't
p7190
aV.
aa(lp7191
Vbut
p7192
aVnow
p7193
aVthou
p7194
aVmust
p7195
aVgo
p7196
aVwith
p7197
aVme
p7198
aV.
aa(lp7199
Vchrysothemis
p7200
aV.
aa(lp7201
Velektra
p7202
aV!
aa(lp7203
Velektra
p7204
aV.
aa(lp7205
Vthou
p7206
aV!
aa(lp7207
Vthou
p7208
aV!
aa(lp7209
Vfor
p7210
aVthou
p7211
aVart
p7212
aVstrong
p7213
aV.
aa(lp7214
V(
aVstanding
p7215
aVclose
p7216
aVto
p7217
aVchrysothemis
p7218
aV!
aV)
aa(lp7219
V37
p7220
aVhow
p7221
aVstrong
p7222
aVthou
p7223
aVart
p7224
aV!
aa(lp7225
Vchaste
p7226
aVnights
p7227
aVof
p7228
aVpeaceful
p7229
aVvirgin
p7230
aVsleep
p7231
aVhave
p7232
aVmade
p7233
aVthee
p7234
aVstrong
p7235
aV.
aa(lp7236
Vall
p7237
aVthy
p7238
aVframe
p7239
aVglows
p7240
aVwith
p7241
aVyouthful
p7242
aVstrength
p7243
aV1
aVsinews
p7244
aVhast
p7245
aVthou
p7246
aVlike
p7247
aVa
aVdoe
p7248
aV,
aVslender
p7249
aVare
p7250
aVthy
p7251
aVankles
p7252
aV.
aa(lp7253
Vhow
p7254
aVslender
p7255
aVand
p7256
aVlissom
p7257
aVthy
p7258
aVshape
p7259
aV.
aa(lp7260
Vsee
p7261
aVhow
p7262
aVmy
p7263
aVarms
p7264
aVenfold
p7265
aVit
p7266
aVall
p7267
aVabout
p7268
aV!
aa(lp7269
Vthrough
p7270
aVev'ry
p7271
aVcrevice
p7272
aVfind'st
p7273
aVthou
p7274
aVa
aVway
p7275
aV,
aVcanst
p7276
aVwind
p7277
aVthee
p7278
aVthrough
p7279
aVa
aVcasement
p7280
aV.
aa(lp7281
Vboth
p7282
aVthy
p7283
aVarms
p7284
aVlet
p7285
aVme
p7286
aVcaress
p7287
aV.
aa(lp7288
Vhow
p7289
aVcool
p7290
aVand
p7291
aVstrong
p7292
aVare
p7293
aVthey
p7294
aV!
aa(lp7295
Vwhen
p7296
aVthou
p7297
aVrepell'st
p7298
aVme
p7299
aV,
aVdo
p7300
aVi
aVfeel
p7301
aVtheir
p7302
aVgodlike
p7303
aVstrength
p7304
aV.
aa(lp7305
Vwhat
p7306
aVthou
p7307
aVdraw'st
p7308
aVto
p7309
aVthee
p7310
aV,
aVcould'st
p7311
aVthou
p7312
aVpress
p7313
aVto
p7314
aVdeath
p7315
aV,
aVin
p7316
aVthy
p7317
aVembrace
p7318
aVcould'st
p7319
aVthou
p7320
aVme
p7321
aVstrangle
p7322
aV:
aVfew
p7323
aVare
p7324
aVthe
p7325
aVmen
p7326
aVthat
p7327
aVcould
p7328
aVresist
p7329
aVthee
p7330
aV.
aa(lp7331
Vall
p7332
aVthy
p7333
aVframe
p7334
aVgloweth
p7335
aVwith
p7336
aVyouthful
p7337
aVstrength
p7338
aV.
aa(lp7339
Vit
p7340
aVstreameth
p7341
aVfrom
p7342
aVthee
p7343
aV,
aVas
p7344
aVfrom
p7345
aVsome
p7346
aVrocky
p7347
aVcleft
p7348
aVcool
p7349
aVwater
p7350
aV,
aVhidden
p7351
aVlong
p7352
aVfrom
p7353
aVsunlight
p7354
aV,
aVgushes
p7355
aV,
aVand
p7356
aVdwelling
p7357
aVin
p7358
aVthy
p7359
aVlocks
p7360
aV,
aVe'en
p7361
aVto
p7362
aVthy
p7363
aVshoulders
p7364
aVstrength
p7365
aVfloweth
p7366
aVdown
p7367
aV;
aVand
p7368
aVthrough
p7369
aVthy
p7370
aVskin
p7371
aV's
p7372
aVcool
p7373
aVwhiteness
p7374
aVi
aVfeel
p7375
aVthy
p7376
aVblood
p7377
aV's
p7378
aVred
p7379
aVardour
p7380
aVburn
p7381
aV.
aa(lp7382
Vmy
p7383
aVcheek
p7384
aVcan
p7385
aVfeel
p7386
aVhow
p7387
aVsoft
p7388
aVthe
p7389
aVdown
p7390
aVon
p7391
aVthy
p7392
aVyoung
p7393
aVbody
p7394
aV.
aa(lp7395
Vstrong
p7396
aVart
p7397
aVthou
p7398
aV,
aVthou
p7399
aVart
p7400
aVfair
p7401
aV,
aVe'en
p7402
aVas
p7403
aVa
aVfruit
p7404
aVthat
p7405
aVsummer
p7406
aVsuns
p7407
aVhave
p7408
aVbrought
p7409
aVto
p7410
aVfullest
p7411
aVripeness
p7412
aV.
aa(lp7413
Vchrysothemis
p7414
aV.
aa(lp7415
Vleave
p7416
aVme
p7417
aV!
aa(lp7418
Velektra
p7419
aV.
aa(lp7420
Vno
p7421
aV!
aa(lp7422
Vi
aVcleave
p7423
aVto
p7424
aVthee
p7425
aV,
aVand
p7426
aVmy
p7427
aVsad
p7428
aVwithered
p7429
aVarms
p7430
aVi
aVwind
p7431
aVabout
p7432
aVthee
p7433
aV,
aVthy
p7434
aVbody
p7435
aVi
aVembrace
p7436
aVand
p7437
aVstruggles
p7438
aV!
aa(lp7439
Vthou
p7440
aV,
aVbut
p7441
aVtighter
p7442
aVgrows
p7443
aVthe
p7444
aVknot
p7445
aV.
aa(lp7446
Vand
p7447
aVclose
p7448
aVas
p7449
aVtendrils
p7450
aVof
p7451
aVvine
p7452
aVi
aV'll
p7453
aVcling
p7454
aVto
p7455
aVthee
p7456
aV,
aVand
p7457
aVpour
p7458
aVforth
p7459
aVmy
p7460
aVbeing
p7461
aVinto
p7462
aVthee
p7463
aV,
aVtill
p7464
aVall
p7465
aVmy
p7466
aVlust
p7467
aVof
p7468
aVblood
p7469
aVburns
p7470
aVin
p7471
aVthee
p7472
aVtoo
p7473
aV!
aa(lp7474
V38
p7475
aVchrysothemis
p7476
aV.
aa(lp7477
Vleave
p7478
aVme
p7479
aV!
aa(lp7480
V(
aVshe
p7481
aVretreats
p7482
aVa
aVfew
p7483
aVsteps
p7484
aV?
aV)
aa(lp7485
Velektra
p7486
aV(
aVhurries
p7487
aVwildly
p7488
aVafter
p7489
aVher
p7490
aVand
p7491
aVseizes
p7492
aVher
p7493
aVrobe
p7494
aV)
aV.
aa(lp7495
Vi
aVleave
p7496
aVthee
p7497
aVnot
p7498
aV!
aa(lp7499
Vchrysothemis
p7500
aV.
aa(lp7501
Velektra
p7502
aV,
aVhear
p7503
aVme
p7504
aV.
aa(lp7505
Vthou
p7506
aVart
p7507
aVso
p7508
aVwise
p7509
aV:
aVhelp
p7510
aVus
p7511
aVto
p7512
aVflee
p7513
aVthis
p7514
aVhouse
p7515
aV.
aa(lp7516
Vhelp
p7517
aVus
p7518
aVto
p7519
aVfreedom
p7520
aV!
aa(lp7521
Velektra
p7522
aV,
aVhelp
p7523
aVus
p7524
aVto
p7525
aVour
p7526
aVfreedom
p7527
aV.
aa(lp7528
Velektra
p7529
aV,
aVhelp
p7530
aV!
aa(lp7531
Velektra
p7532
aV.
aa(lp7533
Vfrom
p7534
aVnow
p7535
aVthy
p7536
aVsister
p7537
aVwill
p7538
aVi
aVbe
p7539
aVin
p7540
aVdeed
p7541
aV,
aVnot
p7542
aVin
p7543
aVname
p7544
aVonly
p7545
aV,
aVas
p7546
aVne'er
p7547
aVi
aVwas
p7548
aVbefore
p7549
aV.
aa(lp7550
Vto
p7551
aVdo
p7552
aVthee
p7553
aVservice
p7554
aV,
aVto
p7555
aVthy
p7556
aVbower
p7557
aVwill
p7558
aVi
aVbetake
p7559
aVme
p7560
aV,
aVand
p7561
aVhumbly
p7562
aVfor
p7563
aVthe
p7564
aVbridegroom
p7565
aVwait
p7566
aV;
aVfor
p7567
aVhim
p7568
aVwill
p7569
aVi
aVanoint
p7570
aVthee
p7571
aV,
aVin
p7572
aVthe
p7573
aVfragrant
p7574
aVbath
p7575
aVshalt
p7576
aVthou
p7577
aVthen
p7578
aVplunge
p7579
aVthee
p7580
aV,
aVas
p7581
aVa
aVsilvery
p7582
aVswan
p7583
aV,
aVand
p7584
aVin
p7585
aVmy
p7586
aVbosom
p7587
aVwill
p7588
aVi
aVhide
p7589
aVthy
p7590
aVblushes
p7591
aV,
aVuntil
p7592
aVhe
p7593
aVcomes
p7594
aV,
aVeager
p7595
aVto
p7596
aVlead
p7597
aVthee
p7598
aV,
aVglowing
p7599
aV,
aVe'en
p7600
aVas
p7601
aVa
aVtorch
p7602
aV,
aVbeneath
p7603
aVthy
p7604
aVveil
p7605
aV,
aVto
p7606
aVwhere
p7607
aVthe
p7608
aVnuptial
p7609
aVcouch
p7610
aVis
p7611
aVspread
p7612
aV.
aa(lp7613
Vchrysothemis
p7614
aV(
aVclosing
p7615
aVher
p7616
aVeyes
p7617
aV)
aV.
aa(lp7618
Vnay
p7619
aV,
aVsister
p7620
aV,
aVnay
p7621
aV.
aa(lp7622
Vspeak
p7623
aVno
p7624
aVsuch
p7625
aVwords
p7626
aVin
p7627
aVthis
p7628
aVabode
p7629
aV.
aa(lp7630
Velektra
p7631
aV.
aa(lp7632
Vnot
p7633
aVso
p7634
aV!
aa(lp7635
Vfar
p7636
aVmore
p7637
aVthan
p7638
aVsister
p7639
aVwill
p7640
aVi
aVbe
p7641
aVto
p7642
aVthee
p7643
aVfrom
p7644
aVthis
p7645
aVday
p7646
aVforth
p7647
aV.
aa(lp7648
Vlike
p7649
aVany
p7650
aVslave
p7651
aV,
aVwill
p7652
aVi
aVattend
p7653
aVthee
p7654
aV.
aa(lp7655
Vwhen
p7656
aVthy
p7657
aVchild
p7658
aVis
p7659
aVborn
p7660
aV,
aVthen
p7661
aVstand
p7662
aVi
aVby
p7663
aVthy
p7664
aVpillow
p7665
aVnight
p7666
aVand
p7667
aVday
p7668
aV,
aV39
p7669
aVwarding
p7670
aVthe
p7671
aVflies
p7672
aVoff
p7673
aV,
aVand
p7674
aVcool
p7675
aVwater
p7676
aVbring
p7677
aVthee
p7678
aV.
aa(lp7679
Vand
p7680
aVwhen
p7681
aVin
p7682
aVdue
p7683
aVtime
p7684
aVon
p7685
aVthy
p7686
aVpanting
p7687
aVbosom
p7688
aVa
aVliving
p7689
aVthing
p7690
aVis
p7691
aVlaid
p7692
aV,
aVaffrighted
p7693
aValmost
p7694
aV,
aVi
aVlift
p7695
aVit
p7696
aVhigh
p7697
aVso
p7698
aVhigh
p7699
aV,
aVthat
p7700
aVits
p7701
aVdear
p7702
aVsmile
p7703
aVfrom
p7704
aVthere
p7705
aVabove
p7706
aVthee
p7707
aV,
aVe'en
p7708
aVinto
p7709
aVthe
p7710
aVdeepest
p7711
aVmost
p7712
aVsecret
p7713
aVcrannies
p7714
aVof
p7715
aVthy
p7716
aVsoul
p7717
aVmay
p7718
aVshine
p7719
aV,
aVand
p7720
aVthere
p7721
aVthe
p7722
aVlast
p7723
aVgrim
p7724
aVicy
p7725
aVhorror
p7726
aVmay
p7727
aVin
p7728
aVsunshine
p7729
aVmelt
p7730
aV,
aVand
p7731
aVthou
p7732
aVof
p7733
aVjoyous
p7734
aVtears
p7735
aVmay'st
p7736
aVweep
p7737
aVthy
p7738
aVfill
p7739
aV.
aa(lp7740
Vchpysothemis
p7741
aV.
aa(lp7742
Vo
aVtake
p7743
aVme
p7744
aVhence
p7745
aV,
aVi
aVdie
p7746
aVhere
p7747
aVin
p7748
aVthis
p7749
aVhouse
p7750
aVof
p7751
aVdread
p7752
aV!
aa(lp7753
Velektra
p7754
aV.
aa(lp7755
Vhow
p7756
aVbeautiful
p7757
aV,
aVwhen
p7758
aVthey
p7759
aVin
p7760
aVanger
p7761
aVopen
p7762
aV,
aVare
p7763
aVthy
p7764
aVlips
p7765
aV!
aa(lp7766
Vand
p7767
aVfrom
p7768
aVthose
p7769
aVlips
p7770
aV,
aVso
p7771
aVpure
p7772
aVand
p7773
aVstrong
p7774
aV,
aVmust
p7775
aVwell
p7776
aVforth
p7777
aV,
aVa
aVcry
p7778
aVof
p7779
aVvengeance
p7780
aV,
aVdreadful
p7781
aVas
p7782
aVa
aVcry
p7783
aVof
p7784
aVrav'ning
p7785
aVharpies
p7786
aV,
aVwhen
p7787
aVthine
p7788
aVenemies
p7789
aVlie
p7790
aVat
p7791
aVthy
p7792
aVfeet
p7793
aVas
p7794
aVi
aVdo
p7795
aVnow
p7796
aV!
aa(lp7797
Vchpysothemis
p7798
aV.
aa(lp7799
Vwhat
p7800
aVrav'st
p7801
aVthou
p7802
aV?
aa(lp7803
Velektra
p7804
aV(
aVrising
p7805
aV)
aV.
aa(lp7806
Vfor
p7807
aVere
p7808
aVthou
p7809
aVfrom
p7810
aVthis
p7811
aVhouse
p7812
aVand
p7813
aVme
p7814
aVescap'st
p7815
aVit
p7816
aVmust
p7817
aVbe
p7818
aVdone
p7819
aV!
aa(lp7820
Vchpysothemis
p7821
aV(
aVstrives
p7822
aVto
p7823
aVspeak
p7824
aV)
aV.
aa(lp7825
Velektra
p7826
aV(
aVcloses
p7827
aVher
p7828
aVmouta
p7829
aV)
aV.
aa(lp7830
Vno
p7831
aVpath
p7832
aVbut
p7833
aVthis
p7834
aVcan
p7835
aVlead
p7836
aVthee
p7837
aVforth
p7838
aV.
aa(lp7839
Vi
aVleave
p7840
aVthee
p7841
aVnot
p7842
aV,
aVtill
p7843
aVwith
p7844
aVlips
p7845
aVpressed
p7846
aVto
p7847
aVlips
p7848
aV,
aVan
p7849
aVoath
p7850
aVthou
p7851
aVswearest
p7852
aV,
aVthat
p7853
aVthou
p7854
aVwilt
p7855
aVdo
p7856
aVit
p7857
aV.
aa(lp7858
V40
p7859
aVchrysothemis
p7860
aV(
aVfrees
p7861
aVherself
p7862
aV}
aV.
aa(lp7863
Vleave
p7864
aVme
p7865
aV!
aa(lp7866
Velektra
p7867
aV.
aa(lp7868
Vswear
p7869
aVthou
p7870
aVcom'st
p7871
aVthis
p7872
aVnight
p7873
aV,
aVwhen
p7874
aVall
p7875
aVis
p7876
aVquiet
p7877
aV,
aVto
p7878
aVthe
p7879
aVfoot
p7880
aVo
aV'
aVthe
p7881
aVstairway
p7882
aV!
aa(lp7883
Vchrysothemis
p7884
aV.
aa(lp7885
Vleave
p7886
aVme
p7887
aV!
aa(lp7888
Velektra
p7889
aV.
aa(lp7890
Vwoman
p7891
aV,
aVstruggle
p7892
aVnot
p7893
aV!
aa(lp7894
Vno
p7895
aVdrop
p7896
aVof
p7897
aVblood
p7898
aVwill
p7899
aVstain
p7900
aVthy
p7901
aVbody
p7902
aV's
p7903
aVwhiteness
p7904
aV:
aVquickly
p7905
aVthy
p7906
aVbloodstained
p7907
aVgarment
p7908
aVshalt
p7909
aVthou
p7910
aVdoff
p7911
aV,
aVand
p7912
aV,
aVcleansed
p7913
aV,
aVdon
p7914
aVa
aVspotless
p7915
aVwedding
p7916
aVrobe
p7917
aV.
aa(lp7918
Vchrysothemis
p7919
aV.
aa(lp7920
Vleave
p7921
aVme
p7922
aV!
aa(lp7923
Velektra
p7924
aV(
aVwith
p7925
aVstill
p7926
aVgreater
p7927
aVeagerness
p7928
aV)
aV.
aa(lp7929
Vbe
p7930
aVnot
p7931
aVa
aVcoward
p7932
aV!
aa(lp7933
Vif
p7934
aVthou
p7935
aVnow
p7936
aVthy
p7937
aVterror
p7938
aVwilt
p7939
aVbut
p7940
aVconquer
p7941
aV,
aVthy
p7942
aVrich
p7943
aVguerdon
p7944
aVshall
p7945
aVbe
p7946
aVa
aVlife
p7947
aVof
p7948
aVlove
p7949
aVbeyond
p7950
aVcompare
p7951
aVchrysothemis
p7952
aV.
aa(lp7953
Vi
aVcan
p7954
aVnot
p7955
aV!
aa(lp7956
Velektra
p7957
aV.
aa(lp7958
Vsay
p7959
aVthat
p7960
aVthou
p7961
aVcomest
p7962
aV.
aa(lp7963
Vchrysothemis
p7964
aV.
aa(lp7965
Vi
aVcan
p7966
aVnot
p7967
aV!
aa(lp7968
V41
p7969
aVelektra
p7970
aV.
aa(lp7971
Vsee
p7972
aV,
aVi
aVkiss
p7973
aVthy
p7974
aVfeet
p7975
aVand
p7976
aVcast
p7977
aVme
p7978
aVdown
p7979
aVbefore
p7980
aVthee
p7981
aV!
aa(lp7982
Vchrysothemis
p7983
aV.
aa(lp7984
Vi
aVcan
p7985
aVnot
p7986
aV!
aa(lp7987
V(
aVrushing
p7988
aVthrough
p7989
aVthe
p7990
aVdoor
p7991
aVof
p7992
aVthe
p7993
aVhouse
p7994
aV?
aV)
aa(lp7995
Velektra
p7996
aV.
aa(lp7997
Vbe
p7998
aVaccurst
p7999
aV!
aa(lp8000
V(
aVwith
p8001
aVwild
p8002
aVdetermination
p8003
aV!
aV)
aa(lp8004
Vwell
p8005
aVthen
p8006
aV,
aValone
p8007
aV!
aa(lp8008
V(
aVshe
p8009
aVbegins
p8010
aVto
p8011
aVdig
p8012
aVby
p8013
aVthe
p8014
aVwall
p8015
aVof
p8016
aVthe
p8017
aVhouse
p8018
aV,
aVat
p8019
aVthe
p8020
aVside
p8021
aVof
p8022
aVthe
p8023
aVthreshold
p8024
aV,
aVeagerly
p8025
aV,
aVwithout
p8026
aVa
aVsound
p8027
aV,
aVlike
p8028
aVan
p8029
aVanimal
p8030
aV.
aa(lp8031
Velektra
p8032
aVpauses
p8033
aVin
p8034
aVher
p8035
aVdigging
p8036
aV,
aVlooks
p8037
aVround
p8038
aV,
aVand
p8039
aVcontinues
p8040
aV.
aa(lp8041
Vshe
p8042
aVlooks
p8043
aVround
p8044
aVagain
p8045
aVand
p8046
aVlistens
p8047
aV.
aa(lp8048
Velektra
p8049
aVdigs
p8050
aVagain
p8051
aV.
aa(lp8052
Vorestes
p8053
aVstands
p8054
aVby
p8055
aVthe
p8056
aVgate
p8057
aVof
p8058
aVthe
p8059
aVcourtyard
p8060
aV,
aVin
p8061
aVblack
p8062
aVrelief
p8063
aVagainst
p8064
aVthe
p8065
aVlast
p8066
aVrays
p8067
aVof
p8068
aVsun
p8069
aV.
aa(lp8070
Velektra
p8071
aVlooks
p8072
aVup
p8073
aVat
p8074
aVhim
p8075
aV:
aVhe
p8076
aVturns
p8077
aVslowly
p8078
aV,
aVso
p8079
aVthat
p8080
aVhis
p8081
aVeyes
p8082
aVrest
p8083
aVon
p8084
aVher
p8085
aV.
aa(lp8086
Velektra
p8087
aVstarts
p8088
aVup
p8089
aVviolently
p8090
aV.
aV)
aa(lp8091
Velektra
p8092
aV.
aa(lp8093
Vwhat
p8094
aVwould'st
p8095
aVthou
p8096
aV,
aVstranger
p8097
aV,
aVhere
p8098
aV?
aa(lp8099
Vwhy
p8100
aVroamest
p8101
aVthou
p8102
aV,
aVhere
p8103
aVin
p8104
aVthe
p8105
aVgloaming
p8106
aVto
p8107
aVand
p8108
aVfro
p8109
aVand
p8110
aVspiest
p8111
aV,
aVwhat
p8112
aVothers
p8113
aVdo
p8114
aV?
aa(lp8115
Vi
aVhave
p8116
aVa
aVtask
p8117
aVto
p8118
aVdo
p8119
aV.
aa(lp8120
Vwhat
p8121
aVis't
p8122
aVto
p8123
aVthee
p8124
aV?
aa(lp8125
Vleave
p8126
aVme
p8127
aVin
p8128
aVpeace
p8129
aV!
aa(lp8130
Vorestes
p8131
aV.
aa(lp8132
Vhere
p8133
aVmust
p8134
aVi
aVtarry
p8135
aV.
aa(lp8136
Velektra
p8137
aV.
aa(lp8138
Vtarry
p8139
aV?
aa(lp8140
Vorestes
p8141
aV.
aa(lp8142
Vbut
p8143
aVdwellest
p8144
aVthou
p8145
aVhere
p8146
aVin
p8147
aVthe
p8148
aVhouse
p8149
aV?
aa(lp8150
Va
aVserving
p8151
aVmaid
p8152
aVthou
p8153
aVart
p8154
aVfrom
p8155
aVout
p8156
aVthe
p8157
aVpalace
p8158
aV?
aa(lp8159
V42
p8160
aVelektra
p8161
aV.
aa(lp8162
Vyea
p8163
aV,
aVi
aVserve
p8164
aVthis
p8165
aVroyal
p8166
aVhouse
p8167
aV.
aa(lp8168
Vbut
p8169
aVthou
p8170
aVhast
p8171
aVnaught
p8172
aVto
p8173
aVseek
p8174
aVhere
p8175
aVgo
p8176
aVthy
p8177
aVways
p8178
aV,
aVand
p8179
aVprosper
p8180
aVorestes
p8181
aV.
aa(lp8182
Vi
aVsaid
p8183
aVto
p8184
aVthee
p8185
aV,
aVhere
p8186
aVmust
p8187
aVi
aVtarry
p8188
aV,
aVuntil
p8189
aVthey
p8190
aVcall
p8191
aVme
p8192
aV.
aa(lp8193
Velektra
p8194
aV.
aa(lp8195
Vthose
p8196
aVwithin
p8197
aVthere
p8198
aV?
aa(lp8199
Vthou
p8200
aVliest
p8201
aV.
aa(lp8202
Vi
aVknow
p8203
aVthe
p8204
aVmaster
p8205
aVis
p8206
aVabroad
p8207
aV,
aVand
p8208
aVshe
p8209
aV,
aVwhat
p8210
aVneed
p8211
aVhath
p8212
aVshe
p8213
aVof
p8214
aVthee
p8215
aV?
aa(lp8216
Vorestes
p8217
aV.
aa(lp8218
Vi
aVand
p8219
aVanother
p8220
aV,
aVwho
p8221
aVis
p8222
aVwith
p8223
aVme
p8224
aV,
aVhave
p8225
aVcome
p8226
aVwith
p8227
aVweighty
p8228
aVtidings
p8229
aV,
aVto
p8230
aVthe
p8231
aVqueen
p8232
aV.
aa(lp8233
Velektra
p8234
aV(
aVis
p8235
aVsilent
p8236
aV}
aV.
aa(lp8237
Vorestes
p8238
aV.
aa(lp8239
Vwe
p8240
aVhave
p8241
aVbeen
p8242
aVsent
p8243
aVto
p8244
aVher
p8245
aVbecause
p8246
aVwe
p8247
aVcan
p8248
aVgive
p8249
aVwitness
p8250
aVthat
p8251
aVher
p8252
aVson
p8253
aVorestes
p8254
aVis
p8255
aVdead
p8256
aVindeed
p8257
aV.
aa(lp8258
Vwe
p8259
aVsaw
p8260
aVhim
p8261
aVperish
p8262
aV,
aVfor
p8263
aVhe
p8264
aVwas
p8265
aVdragged
p8266
aVto
p8267
aVdeath
p8268
aVby
p8269
aVhis
p8270
aVown
p8271
aVhorses
p8272
aV.
aa(lp8273
Vi
aVwas
p8274
aVas
p8275
aVold
p8276
aVas
p8277
aVhe
p8278
aVand
p8279
aVhis
p8280
aVcompanion
p8281
aVby
p8282
aVday
p8283
aVand
p8284
aVnight
p8285
aV.
aa(lp8286
Velektra
p8287
aV.
aa(lp8288
Vmust
p8289
aVi
aVstill
p8290
aVsee
p8291
aVthee
p8292
aV?
aa(lp8293
Vdost
p8294
aVdrag
p8295
aVthy
p8296
aVfootsteps
p8297
aVto
p8298
aVthis
p8299
aV,
aVmy
p8300
aVhaunt
p8301
aVof
p8302
aVdesolation
p8303
aV?
aa(lp8304
Vmisfortune
p8305
aV's
p8306
aVherald
p8307
aV!
aa(lp8308
Vtrumpet
p8309
aVforth
p8310
aVthy
p8311
aVtidings
p8312
aV,
aVunto
p8313
aVothers
p8314
aV,
aVthere
p8315
aVwhere
p8316
aVthey
p8317
aVrejoice
p8318
aV!
aa(lp8319
V43
p8320
aVthine
p8321
aVeye
p8322
aVstill
p8323
aVstares
p8324
aVat
p8325
aVme
p8326
aV,
aVand
p8327
aVhis
p8328
aVdoth
p8329
aVmoulder
p8330
aV.
aa(lp8331
Vthy
p8332
aVmouth
p8333
aVmoves
p8334
aVto
p8335
aVand
p8336
aVfro
p8337
aV,
aVand
p8338
aVhis
p8339
aV,
aVtoo
p8340
aVsoon
p8341
aV,
aVis
p8342
aVfilled
p8343
aVfull
p8344
aVof
p8345
aVearth
p8346
aV.
aa(lp8347
Vthou
p8348
aVliv'st
p8349
aV,
aVand
p8350
aVhe
p8351
aV,
aVwho
p8352
aVbetter
p8353
aVwas
p8354
aVthan
p8355
aVthou
p8356
aV,
aVmore
p8357
aVnoble
p8358
aVa
aVthousand
p8359
aVtimes
p8360
aVthat
p8361
aVhe
p8362
aVshould
p8363
aVlive
p8364
aV,
aVa
aVthousand
p8365
aVtimes
p8366
aVmore
p8367
aVneedful
p8368
aV,
aVhe
p8369
aVis
p8370
aVgone
p8371
aV.
aa(lp8372
Vorestes
p8373
aV(
aVquietly
p8374
aV)
aV.
aa(lp8375
Vpeace
p8376
aVto
p8377
aVorestes
p8378
aV.
aa(lp8379
Vhe
p8380
aVdid
p8381
aVtoo
p8382
aVmuch
p8383
aVexult
p8384
aVin
p8385
aVlife
p8386
aVand
p8387
aVpleasure
p8388
aV.
aa(lp8389
Vfor
p8390
aVthe
p8391
aVgods
p8392
aVon
p8393
aVhigh
p8394
aVfrom
p8395
aVman
p8396
aVnot
p8397
aVgladly
p8398
aVhear
p8399
aVtoo
p8400
aVloud
p8401
aVa
aVnote
p8402
aVof
p8403
aVjoy
p8404
aV,
aVand
p8405
aVso
p8406
aVhis
p8407
aVdeath
p8408
aVdecreed
p8409
aVthey
p8410
aV.
aa(lp8411
Velektra
p8412
aV.
aa(lp8413
Vbut
p8414
aVi
aV!
aa(lp8415
Vbut
p8416
aVi
aV!
aa(lp8417
Vto
p8418
aVlie
p8419
aVhere
p8420
aV,
aVsurely
p8421
aVknowing
p8422
aVthat
p8423
aVthe
p8424
aVchild
p8425
aVwill
p8426
aVne'er
p8427
aVreturn
p8428
aV,
aVwill
p8429
aVne'er
p8430
aVreturn
p8431
aV,
aVthat
p8432
aVthe
p8433
aVchild
p8434
aVdown
p8435
aVyonder
p8436
aVpineth
p8437
aVin
p8438
aVregions
p8439
aVof
p8440
aVdim
p8441
aVhorror
p8442
aVto
p8443
aVknow
p8444
aVthat
p8445
aVthose
p8446
aVwithin
p8447
aVstill
p8448
aVlive
p8449
aVand
p8450
aVprosper
p8451
aV,
aVthat
p8452
aVyon
p8453
aVfoul
p8454
aVbrood
p8455
aVlives
p8456
aVin
p8457
aVits
p8458
aVlair
p8459
aVobscene
p8460
aV,
aVand
p8461
aVeats
p8462
aVand
p8463
aVdrinks
p8464
aVand
p8465
aVsleeps
p8466
aVand
p8467
aVi
aVon
p8468
aVearth
p8469
aV,
aVlike
p8470
aVany
p8471
aVbeast
p8472
aV,
aVan
p8473
aVabject
p8474
aVlife
p8475
aVlead
p8476
aV,
aVshunned
p8477
aVby
p8478
aVall
p8479
aV.
aa(lp8480
Vi
aVhere
p8481
aVon
p8482
aVearth
p8483
aV,
aValone
p8484
aV!
aa(lp8485
Vorestes
p8486
aV.
aa(lp8487
Vwho
p8488
aVart
p8489
aVthou
p8490
aVthen
p8491
aV?
aa(lp8492
Velektra
p8493
aV,
aVwhat
p8494
aVis't
p8495
aVto
p8496
aVthee
p8497
aVwho
p8498
aVi
aVam
p8499
aV?
aa(lp8500
Vorestes
p8501
aV.
aa(lp8502
Vthou
p8503
aVmust
p8504
aVbe
p8505
aVkindred
p8506
aVblood
p8507
aVto
p8508
aVthose
p8509
aVthe
p8510
aVland
p8511
aVis
p8512
aVmourning
p8513
aV,
aVagamemnon
p8514
aVand
p8515
aVorestes
p8516
aV?
aa(lp8517
V44
p8518
aVelektra
p8519
aV.
aa(lp8520
Vkindred
p8521
aV?
aa(lp8522
Vi
aVam
p8523
aVthat
p8524
aVblood
p8525
aV!
aa(lp8526
Vi
aVam
p8527
aVthe
p8528
aVblood
p8529
aVso
p8530
aVfoully
p8531
aVby
p8532
aVvile
p8533
aVcurs
p8534
aVshed
p8535
aVof
p8536
aVgreat
p8537
aVking
p8538
aVagamemnon
p8539
aV!
aa(lp8540
Velektra
p8541
aVam
p8542
aVi
aV!
aa(lp8543
Vorestes
p8544
aV.
aa(lp8545
Vno
p8546
aV!
aa(lp8547
Velektra
p8548
aV.
aa(lp8549
Vhe
p8550
aVdoubteth
p8551
aVme
p8552
aVand
p8553
aVe'en
p8554
aVmy
p8555
aVname
p8556
aVdenieth
p8557
aVme
p8558
aV!
aa(lp8559
Vorestes
p8560
aV.
aa(lp8561
Velektra
p8562
aV!
aa(lp8563
Velektra
p8564
aV.
aa(lp8565
Vbecause
p8566
aVi
aVhave
p8567
aVno
p8568
aVfather
p8569
aV.
aa(lp8570
Vorestes
p8571
aV.
aa(lp8572
Velektra
p8573
aV!
aa(lp8574
Velektra
p8575
aV.
aa(lp8576
Vnor
p8577
aVbrother
p8578
aV,
aVi
aVam
p8579
aVthe
p8580
aVsport
p8581
aVof
p8582
aVminions
p8583
aV!
aa(lp8584
Vorestes
p8585
aV.
aa(lp8586
Velektra
p8587
aV,
aVelektra
p8588
aV!
aa(lp8589
Vso
p8590
aVsee
p8591
aVi
aVthee
p8592
aV?
aa(lp8593
Vsee
p8594
aVi
aVher
p8595
aVtruly
p8596
aV?
aa(lp8597
Vthou
p8598
aV?
aa(lp8599
Vso
p8600
aVdid
p8601
aVthey
p8602
aVlet
p8603
aVthee
p8604
aVwant
p8605
aV,
aVuntended
p8606
aVor
p8607
aVthey
p8608
aVeven
p8609
aVdared
p8610
aVto
p8611
aVstrike
p8612
aVthee
p8613
aV?
aa(lp8614
Velektra
p8615
aV.
aa(lp8616
Vleave
p8617
aVmy
p8618
aVrobe
p8619
aV.
aa(lp8620
Vlet
p8621
aVnot
p8622
aVthy
p8623
aVgaze
p8624
aVthus
p8625
aVsink
p8626
aVin
p8627
aVit
p8628
aV.
aa(lp8629
Vorestes
p8630
aV.
aa(lp8631
Vwhat
p8632
aVdid
p8633
aVthey
p8634
aVmake
p8635
aVthee
p8636
aVsuffer
p8637
aVin
p8638
aVthe
p8639
aVnight
p8640
aVtime
p8641
aV?
aa(lp8642
Vfierce
p8643
aVare
p8644
aVthy
p8645
aVeyes
p8646
aVwith
p8647
aVmenace
p8648
aV.
aa(lp8649
V45
p8650
aVelektra
p8651
aV.
aa(lp8652
Vleave
p8653
aVme
p8654
aVi
aVorestes
p8655
aV.
aa(lp8656
Vwithered
p8657
aVand
p8658
aVworn
p8659
aVthy
p8660
aVcheek
p8661
aV!
aa(lp8662
Velektra
p8663
aV.
aa(lp8664
Vhie
p8665
aVthee
p8666
aVwithin
p8667
aVthere
p8668
aVfindest
p8669
aVthou
p8670
aVmy
p8671
aVsister
p8672
aV,
aVwho
p8673
aVtakes
p8674
aVpleasure
p8675
aVin
p8676
aVfeasts
p8677
aVand
p8678
aVmerriment
p8679
aV.
aa(lp8680
Vorestes
p8681
aV.
aa(lp8682
Velektra
p8683
aV,
aVhear
p8684
aVmel
p8685
aVelektra
p8686
aV.
aa(lp8687
Vi
aVwill
p8688
aVnot
p8689
aVquestion
p8690
aVwho
p8691
aVthou
p8692
aVart
p8693
aVno
p8694
aVman
p8695
aVwill
p8696
aVi
aVsee
p8697
aV!
aa(lp8698
Vorestes
p8699
aV.
aa(lp8700
Vhear
p8701
aVme
p8702
aV,
aVshort
p8703
aVis
p8704
aVmy
p8705
aVtime
p8706
aV.
aa(lp8707
Vgive
p8708
aVear
p8709
aV:
aV(
aVsoftly
p8710
aV)
aVorestes
p8711
aVlives
p8712
aV!
aa(lp8713
Velektra
p8714
aV(
aVflings
p8715
aVherself
p8716
aVabout
p8717
aV)
aV.
aa(lp8718
Vorestes
p8719
aV.
aa(lp8720
Vhe
p8721
aVis
p8722
aVbetrayed
p8723
aV,
aVdost
p8724
aVthou
p8725
aVbut
p8726
aVstir
p8727
aV.
aa(lp8728
Velektra
p8729
aV.
aa(lp8730
Vthen
p8731
aVhe
p8732
aVis
p8733
aVfree
p8734
aV?
aa(lp8735
Vwhere
p8736
aVis
p8737
aVhe
p8738
aV?
aa(lp8739
Vas
p8740
aVi.
p8741
aVorestes
p8742
aV.
aa(lp8743
Vhe
p8744
aVis
p8745
aVfree
p8746
aVfrom
p8747
aVharm
p8748
aV46
p8749
aVelektra
p8750
aV.
aa(lp8751
Vso
p8752
aVsave
p8753
aVhim
p8754
aVthen
p8755
aV,
aVere
p8756
aVthey
p8757
aVhave
p8758
aVtime
p8759
aVto
p8760
aVslay
p8761
aVhim
p8762
aV.
aa(lp8763
Vorestes
p8764
aV.
aa(lp8765
Vby
p8766
aVmy
p8767
aVfather
p8768
aV's
p8769
aVbody
p8770
aV,
aVfor
p8771
aVthat
p8772
aVcame
p8773
aVi
aVhere
p8774
aV!
aa(lp8775
Velektra
p8776
aV(
aVstruck
p8777
aVby
p8778
aVhis
p8779
aVtone
p8780
aV)
aV.
aa(lp8781
Vwho
p8782
aVart
p8783
aVthou
p8784
aVthen
p8785
aV?
aa(lp8786
V(
aVthe
p8787
aVold
p8788
aVgloomy
p8789
aVattendant
p8790
aVrushes
p8791
aVin
p8792
aVsilently
p8793
aVfrom
p8794
aVthe
p8795
aVcourtyard
p8796
aV,
aVfollowed
p8797
aVby
p8798
aVthree
p8799
aVother
p8800
aVattendants
p8801
aV,
aVprostrates
p8802
aVhimself
p8803
aVbefore
p8804
aVorestes
p8805
aVand
p8806
aVkisses
p8807
aVhis
p8808
aVfeet
p8809
aV.
aa(lp8810
Vthe
p8811
aVothers
p8812
aVkiss
p8813
aVhis
p8814
aVhands
p8815
aVand
p8816
aVthe
p8817
aVhem
p8818
aVof
p8819
aVhis
p8820
aVgarment
p8821
aV?
aV)
aa(lp8822
Velektra
p8823
aV{
aValmost
p8824
aVbeside
p8825
aVherself
p8826
aV)
aV.
aa(lp8827
Vwho
p8828
aVart
p8829
aVthou
p8830
aVthen
p8831
aV?
aa(lp8832
Vfear
p8833
aVseizeth
p8834
aVme
p8835
aV.
aa(lp8836
Vorestes
p8837
aV(
aVgently
p8838
aV)
aV.
aa(lp8839
Vthe
p8840
aVhounds
p8841
aVin
p8842
aVthe
p8843
aVcourtyard
p8844
aVknow
p8845
aVme
p8846
aVwell
p8847
aV,
aVand
p8848
aVmine
p8849
aVown
p8850
aVsister
p8851
aVnot
p8852
aV?
aa(lp8853
Velektra
p8854
aV(
aVcrying
p8855
aVout
p8856
aVsuddenly
p8857
aV)
aV.
aa(lp8858
Vorestes
p8859
aV!
aa(lp8860
V(
aVvery
p8861
aVsoftly
p8862
aV,
aVtrembling
p8863
aV?
aV)
aa(lp8864
Vorestes
p8865
aV!
aa(lp8866
Vorestes
p8867
aV!
aa(lp8868
Vorestes
p8869
aV!
aa(lp8870
Vlist
p8871
aV!
aa(lp8872
Vno
p8873
aVman
p8874
aVstirreth
p8875
aV!
aa(lp8876
Vo
aVlet
p8877
aVmine
p8878
aVeye
p8879
aVgaze
p8880
aV,
aVbut
p8881
aVon
p8882
aVthee
p8883
aV,
aVvision
p8884
aV,
aVthan
p8885
aVwhich
p8886
aVlovelier
p8887
aVfrom
p8888
aVheav'n
p8889
aVne'er
p8890
aVcame
p8891
aVto
p8892
aVgladden
p8893
aVmortal
p8894
aVeyes
p8895
aV!
aa(lp8896
Vholy
p8897
aV,
aVineffable
p8898
aV,
aVthou
p8899
aVgod-like
p8900
aVcountenance
p8901
aV,
aV47
p8902
aVabide
p8903
aVwith
p8904
aVme
p8905
aV!
aa(lp8906
Vin
p8907
aVair
p8908
aVdissolve
p8909
aVthee
p8910
aVnot
p8911
aV,
aVo
aVvanish
p8912
aVnot
p8913
aV.
aa(lp8914
Vbut
p8915
aVhaply
p8916
aVcam'st
p8917
aVthou
p8918
aVhither
p8919
aV,
aVbidding
p8920
aVme
p8921
aVto
p8922
aVfollow
p8923
aVthee
p8924
aVstraightway
p8925
aV,
aVto
p8926
aVelysium
p8927
aV?
aa(lp8928
Vthen
p8929
aVdie
p8930
aVi
aVhappier
p8931
aVthan
p8932
aVe'er
p8933
aVi
aVlived
p8934
aV.
aa(lp8935
Vorestes
p8936
aV!
aa(lp8937
Vorestes
p8938
aV!
aa(lp8939
V(
aVorestes
p8940
aVbends
p8941
aVdown
p8942
aVto
p8943
aVelektra
p8944
aV,
aVto
p8945
aVembrace
p8946
aVher
p8947
aV.
aV}
aa(lp8948
V(
aVvehemently
p8949
aV!
aV)
aa(lp8950
Vno
p8951
aV,
aVembrace
p8952
aVme
p8953
aVnot
p8954
aV,
aVi
aVcharge
p8955
aVthee
p8956
aV!
aa(lp8957
Vaway
p8958
aV,
aVi
aVstand
p8959
aVashamed
p8960
aVnear
p8961
aVthee
p8962
aV.
aa(lp8963
Vhow
p8964
aVcanst
p8965
aVthou
p8966
aVendure
p8967
aVto
p8968
aVsee
p8969
aVme
p8970
aV?
aa(lp8971
Va
aVcorpse
p8972
aVam
p8973
aVi
aV,
aVthat
p8974
aVerstwhile
p8975
aVwas
p8976
aVthy
p8977
aVsister
p8978
aV,
aValas
p8979
aV!
aa(lp8980
Vpoor
p8981
aVchild
p8982
aV.
aa(lp8983
Vi
aVknow
p8984
aV(
aVsoftly
p8985
aV]
aVthou
p8986
aVshrinkest
p8987
aVat
p8988
aVmy
p8989
aVtouch
p8990
aV,
aVthat
p8991
aVboasted
p8992
aVonce
p8993
aVa
aVkingly
p8994
aVfather
p8995
aV!
aa(lp8996
Vmethinks
p8997
aVi
aVonce
p8998
aVwas
p8999
aVfair
p9000
aV:
aVwhen
p9001
aVfrom
p9002
aVmy
p9003
aVmirror
p9004
aVturning
p9005
aV,
aVthe
p9006
aVlamp
p9007
aVi
aVdarkened
p9008
aV,
aVknowledge
p9009
aVcame
p9010
aVwith
p9011
aVthrills
p9012
aVof
p9013
aVwonder
p9014
aV.
aa(lp9015
Vi
aVfelt
p9016
aVthen
p9017
aVhow
p9018
aVthe
p9019
aVslender
p9020
aVrays
p9021
aVof
p9022
aVmoonlight
p9023
aV,
aVseeking
p9024
aVmy
p9025
aVbody
p9026
aV's
p9027
aVwhiteness
p9028
aVout
p9029
aV,
aVdid
p9030
aVrest
p9031
aVon
p9032
aVit
p9033
aVand
p9034
aVlinger
p9035
aV,
aVloth
p9036
aVto
p9037
aVleave
p9038
aVit
p9039
aV.
aa(lp9040
Vand
p9041
aVmy
p9042
aVhair
p9043
aV,
aVsuch
p9044
aVhair
p9045
aVit
p9046
aVwas
p9047
aVas
p9048
aVmaketh
p9049
aVmen
p9050
aVto
p9051
aVtremble
p9052
aV,
aVthis
p9053
aVhair
p9054
aV,
aVnow
p9055
aVso
p9056
aVunkempt
p9057
aV,
aVbesmirch
p9058
aV'd
p9059
aVand
p9060
aVmatted
p9061
aV.
aa(lp9062
Vdost
p9063
aVhear
p9064
aVme
p9065
aV,
aVbrother
p9066
aV?
aa(lp9067
Vall
p9068
aVthat
p9069
aVi
aVhad
p9070
aVand
p9071
aVall
p9072
aVi
aVwas
p9073
aV,
aVthe
p9074
aVgods
p9075
aVtook
p9076
aVfrom
p9077
aVme
p9078
aV.
aa(lp9079
Vmaiden
p9080
aVshame
p9081
aVe'en
p9082
aVflung
p9083
aVi
aVfar
p9084
aVfrom
p9085
aVme
p9086
aV,
aVthe
p9087
aVshame
p9088
aV,
aVthat
p9089
aVtreasure
p9090
aVthat
p9091
aVpasseth
p9092
aVall
p9093
aV,
aVwhich
p9094
aVlike
p9095
aVthe
p9096
aVsilvery
p9097
aVfilm
p9098
aV,
aVof
p9099
aVmoonlight
p9100
aV,
aVunto
p9101
aVevery
p9102
aVwoman
p9103
aVclinging
p9104
aV,
aVdoth
p9105
aVfrom
p9106
aVher
p9107
aVbody
p9108
aVdrive
p9109
aV,
aVand
p9110
aVfrom
p9111
aVher
p9112
aVsoul
p9113
aV,
aVall
p9114
aVhorror
p9115
aV,
aVall
p9116
aVuncleanness
p9117
aV.
aa(lp9118
Vhear'st
p9119
aVthou
p9120
aV,
aVbrother
p9121
aV?
aa(lp9122
Vall
p9123
aVthese
p9124
aVthrills
p9125
aVof
p9126
aVsweetness
p9127
aVdid
p9128
aVmy
p9129
aVfather
p9130
aVas
p9131
aVexpiation
p9132
aVclaim
p9133
aV.
aa(lp9134
Vthink'st
p9135
aVthou
p9136
aVnot
p9137
aVwhen
p9138
aVin
p9139
aVmy
p9140
aVbeauty
p9141
aVi
aVrejoiced
p9142
aV,
aVhis
p9143
aVmoans
p9144
aVresounded
p9145
aVoft
p9146
aV,
aVhis
p9147
aVsighs
p9148
aVresounded
p9149
aVin
p9150
aVmy
p9151
aVchamber
p9152
aV?
aa(lp9153
V48
p9154
aV(
aVsombrely
p9155
aV?
aV)
aa(lp9156
Vin
p9157
aVvery
p9158
aVtruth
p9159
aVthe
p9160
aVdead
p9161
aVare
p9162
aVjealous
p9163
aV,
aVand
p9164
aVhe
p9165
aVsent
p9166
aVto
p9167
aVme
p9168
aVfrom
p9169
aVhell
p9170
aVgrim
p9171
aVhate
p9172
aV,
aVhate
p9173
aVhollow-eyed
p9174
aV,
aVmy
p9175
aVspouse
p9176
aVto
p9177
aVbe
p9178
aV.
aa(lp9179
Vthus
p9180
aVwas
p9181
aVi
aVmade
p9182
aVa
aVprophetess
p9183
aValways
p9184
aVof
p9185
aVterror
p9186
aV,
aVand
p9187
aVnothing
p9188
aVe'er
p9189
aVcame
p9190
aVforth
p9191
aVfrom
p9192
aVme
p9193
aV,
aVbut
p9194
aVcurses
p9195
aVwithout
p9196
aVend
p9197
aV,
aVand
p9198
aVfierce
p9199
aVdespair
p9200
aVand
p9201
aVfrenzy
p9202
aV.
aa(lp9203
Vwhy
p9204
aVare
p9205
aVthine
p9206
aVeyes
p9207
aVthus
p9208
aVfull
p9209
aVof
p9210
aVfear
p9211
aV?
aa(lp9212
Vspeak
p9213
aVto
p9214
aVme
p9215
aV!
aa(lp9216
Vspeak
p9217
aVthen
p9218
aV!
aa(lp9219
Vlo
p9220
aV!
aa(lp9221
Vev'ry
p9222
aVlimb
p9223
aVof
p9224
aVthee
p9225
aVdoth
p9226
aVquake
p9227
aV.
aa(lp9228
Vorestes
p9229
aV.
aa(lp9230
Vlet
p9231
aVbe
p9232
aV!
aa(lp9233
Vlet
p9234
aVthese
p9235
aVlimbs
p9236
aVquake
p9237
aV.
aa(lp9238
Vthey
p9239
aVknow
p9240
aVthe
p9241
aVpath
p9242
aVthat
p9243
aVthey
p9244
aVmust
p9245
aVtravel
p9246
aV.
aa(lp9247
Velektra
p9248
aV.
aa(lp9249
Vdost
p9250
aVdo
p9251
aVthe
p9252
aVdeed
p9253
aV?
aa(lp9254
Valone
p9255
aV?
aa(lp9256
Valas
p9257
aV!
aa(lp9258
Vpoor
p9259
aVchild
p9260
aV!
aa(lp9261
Vorestes
p9262
aV.
aa(lp9263
Vthose
p9264
aVat
p9265
aVwhose
p9266
aVbidding
p9267
aVi
aVhave
p9268
aVcome
p9269
aV,
aVthe
p9270
aVgods
p9271
aV,
aVwill
p9272
aVnot
p9273
aVforsake
p9274
aVme
p9275
aVin
p9276
aVmy
p9277
aVperil
p9278
aV.
aa(lp9279
Vi
aVwill
p9280
aVdo
p9281
aVit
p9282
aV!
aa(lp9283
Vi
aVwill
p9284
aVdo
p9285
aVit
p9286
aVwithout
p9287
aVdelay
p9288
aV!
aa(lp9289
Vi
aVwill
p9290
aVdo
p9291
aVit
p9292
aV!
aa(lp9293
Vi
aVwill
p9294
aVdo
p9295
aVit
p9296
aV!
aa(lp9297
Velektra
p9298
aV.
aa(lp9299
Vthou
p9300
aVwilt
p9301
aVdo
p9302
aVit
p9303
aV!
aa(lp9304
Vhe
p9305
aVthat
p9306
aVmay
p9307
aVdo
p9308
aVis
p9309
aVblessed
p9310
aV!
aa(lp9311
Vthe
p9312
aVdeed
p9313
aVis
p9314
aVas
p9315
aVa
aVcouch
p9316
aV,
aVon
p9317
aVwhich
p9318
aVthe
p9319
aVsoul
p9320
aVrepo-
p9321
aVseth
p9322
aV,
aVas
p9323
aVa
aVbed
p9324
aVof
p9325
aVhealing
p9326
aV,
aVon
p9327
aVwhich
p9328
aVthe
p9329
aVsoul
p9330
aVcan
p9331
aVtake
p9332
aVits
p9333
aVrest
p9334
aV,
aVwhen
p9335
aVit
p9336
aVis
p9337
aVwounded
p9338
aVsore
p9339
aV,
aVa
aVflame
p9340
aV,
aVan
p9341
aVulcer
p9342
aV,
aVa
aVwild
p9343
aVfever
p9344
aV!
aa(lp9345
V49
p9346
aVelektra
p9347
aV(
aVwith
p9348
aVfrenzied
p9349
aVenergy
p9350
aV)
aV.
aa(lp9351
Vblessed
p9352
aVis
p9353
aVhe
p9354
aVwho
p9355
aVcan
p9356
aVhis
p9357
aVdeed
p9358
aVaccomplish
p9359
aV!
aa(lp9360
Vblessed
p9361
aV,
aVwhoso
p9362
aVlongeth
p9363
aVfor
p9364
aVhim
p9365
aV,
aVblessed
p9366
aV,
aVwhoso
p9367
aVseeeth
p9368
aVhim
p9369
aV.
aa(lp9370
Vblessed
p9371
aV,
aVwhoso
p9372
aVknoweth
p9373
aVhim
p9374
aV!
aa(lp9375
Vblessed
p9376
aV,
aVwhoso
p9377
aVfeeleth
p9378
aVhis
p9379
aVtouch
p9380
aV.
aa(lp9381
Vbjessed
p9382
aV,
aVwhoso
p9383
aVdigeth
p9384
aVthe
p9385
aVaxe
p9386
aVfrom
p9387
aVthe
p9388
aVearth
p9389
aVfor
p9390
aVhim
p9391
aVblessed
p9392
aV,
aVwhoso
p9393
aVholdeth
p9394
aVthe
p9395
aVtorch
p9396
aVfor
p9397
aVhim
p9398
aV!
aa(lp9399
Vblessed
p9400
aV,
aVblessed
p9401
aV,
aVwhoso
p9402
aVopeneth
p9403
aVthe
p9404
aVdoor
p9405
aV!
aa(lp9406
V(
aVthe
p9407
aVtutor
p9408
aVof
p9409
aVorestes
p9410
aV,
aVa
aVhale
p9411
aVold
p9412
aVman
p9413
aVwith
p9414
aVfiery
p9415
aVeye
p9416
aV,
aVstands
p9417
aVin
p9418
aVthe
p9419
aVdoorway
p9420
aV?
aV)
aa(lp9421
Vtutor
p9422
aV.
aa(lp9423
Vare
p9424
aVye
p9425
aVquite
p9426
aVsenseless
p9427
aV,
aVthat
p9428
aVyour
p9429
aVwagging
p9430
aVtongues
p9431
aVye
p9432
aVcurb
p9433
aVnot
p9434
aV,
aVwhen
p9435
aVa
aVbreath
p9436
aV,
aVa
aVsound
p9437
aV,
aVa
aVnothing
p9438
aVus
p9439
aVcan
p9440
aVundo
p9441
aV,
aVand
p9442
aVmar
p9443
aVour
p9444
aVwork
p9445
aV.
aa(lp9446
V(
aVto
p9447
aVorestes
p9448
aV,
aVin
p9449
aVheadlong
p9450
aVhaste
p9451
aV?
aV)
aa(lp9452
Vwithin
p9453
aVshe
p9454
aVwaiteth
p9455
aV,
aVher
p9456
aVattendants
p9457
aVseek
p9458
aVthee
p9459
aV.
aa(lp9460
Vno
p9461
aVman
p9462
aVis
p9463
aVin
p9464
aVthe
p9465
aVhouse
p9466
aVorestes
p9467
aV!
aa(lp9468
V(
aVorestes
p9469
aVdraws
p9470
aVhimself
p9471
aVup
p9472
aV,
aVconquering
p9473
aVhis
p9474
aVhorror
p9475
aV.
aa(lp9476
Va
aVlight
p9477
aVshines
p9478
aVby
p9479
aVthe
p9480
aVdoor
p9481
aVof
p9482
aVthe
p9483
aVhouse
p9484
aV.
aa(lp9485
Va
aVservant
p9486
aVappears
p9487
aVwith
p9488
aVa
aVtorch
p9489
aVand
p9490
aVthe
p9491
aVconfidante
p9492
aVbehind
p9493
aVher
p9494
aV.
aa(lp9495
Velektra
p9496
aVstarts
p9497
aVback
p9498
aVinto
p9499
aVthe
p9500
aVshadows
p9501
aV.
aa(lp9502
Vthe
p9503
aVconfidante
p9504
aVbows
p9505
aVlow
p9506
aVto
p9507
aVthe
p9508
aVstrangers
p9509
aV;
aVmakes
p9510
aVa
aVsign
p9511
aVto
p9512
aVthem
p9513
aVto
p9514
aVfollow
p9515
aV.
aa(lp9516
Vorestes
p9517
aVand
p9518
aVthe
p9519
aVtutor
p9520
aVgo
p9521
aVwithin
p9522
aV.
aa(lp9523
Vthe
p9524
aVservant
p9525
aVfastens
p9526
aVthe
p9527
aVtorch
p9528
aVto
p9529
aVan
p9530
aViron
p9531
aVring
p9532
aVin
p9533
aVthe
p9534
aVdoorpost
p9535
aV.
aa(lp9536
Vorestes
p9537
aVcloses
p9538
aVhis
p9539
aVeyes
p9540
aVa
aVmoment
p9541
aV,
aVas
p9542
aVthough
p9543
aVgiddy
p9544
aV,
aVthe
p9545
aVtutor
p9546
aVis
p9547
aVclose
p9548
aVbehind
p9549
aVhim
p9550
aV.
aa(lp9551
Vthey
p9552
aVexchange
p9553
aVrapid
p9554
aVglances
p9555
aV,
aVthe
p9556
aVdoor
p9557
aVcloses
p9558
aVbehind
p9559
aVthem
p9560
aV.
aa(lp9561
Velektra
p9562
aValone
p9563
aVin
p9564
aVhor-
p9565
aVrible
p9566
aVexcitement
p9567
aV,
aVruns
p9568
aVto
p9569
aVand
p9570
aVfro
p9571
aVin
p9572
aVfront
p9573
aVof
p9574
aVthe
p9575
aVdoor
p9576
aV,
aVwith
p9577
aVbowed
p9578
aVhead
p9579
aV,
aVlike
p9580
aVa
aVcaptive
p9581
aVbeast
p9582
aVin
p9583
aVa
aVcage
p9584
aV.
aV)
aa(lp9585
Velektra
p9586
aV(
aVsuddenly
p9587
aVpauses
p9588
aV)
aV.
aa(lp9589
Vwoe
p9590
aVunto
p9591
aVme
p9592
aV?
aa(lp9593
Vthe
p9594
aVaxe
p9595
aVi
aVcould
p9596
aVnot
p9597
aVgive
p9598
aVhim
p9599
aV!
aa(lp9600
Vthey
p9601
aVhave
p9602
aVdeparted
p9603
aVand
p9604
aVhe
p9605
aVhath
p9606
aVnot
p9607
aVtaken
p9608
aVthe
p9609
aVaxe
p9610
aV.
aa(lp9611
Vit
p9612
aVstill
p9613
aVlies
p9614
aVhidden
p9615
aV.
aa(lp9616
Valas
p9617
aV!
aa(lp9618
Vthere
p9619
aVare
p9620
aVno
p9621
aVgods
p9622
aVin
p9623
aVheaven
p9624
aV!
aa(lp9625
V(
aVagain
p9626
aVa
aVfearful
p9627
aVsuspense
p9628
aV.
aa(lp9629
Vfrom
p9630
aVthe
p9631
aVdistance
p9632
aVwithin
p9633
aV,
aVresounds
p9634
aVa
aVshriek
p9635
aVof
p9636
aVklytemnestra
p9637
aV.
aV)
aa(lp9638
V50
p9639
aVelektra
p9640
aV(
aVcrying
p9641
aValoud
p9642
aVlike
p9643
aVone
p9644
aVpossessed
p9645
aV)
aV.
aa(lp9646
Vstrike
p9647
aVyet
p9648
aVagain
p9649
aV!
aa(lp9650
V(
aVa
aVsecond
p9651
aVcry
p9652
aVfrom
p9653
aV-within
p9654
aV,
aVchrysothemis
p9655
aVand
p9656
aVa
aVtroop
p9657
aVof
p9658
aVatten-
p9659
aVdants
p9660
aVrush
p9661
aVout
p9662
aVof
p9663
aVthe
p9664
aVhouse
p9665
aVto
p9666
aVthe
p9667
aVleft
p9668
aV.
aV)
aa(lp9669
Velektra
p9670
aV(
aVstands
p9671
aVin
p9672
aVthe
p9673
aVdoorway
p9674
aVwith
p9675
aVher
p9676
aVback
p9677
aVto
p9678
aVthe
p9679
aVdoor
p9680
aV)
aV.
aa(lp9681
Vchrysothemis
p9682
aV.
aa(lp9683
Vsome
p9684
aVdreadful
p9685
aVthing
p9686
aVhas
p9687
aVcome
p9688
aVto
p9689
aVpass
p9690
aV!
aa(lp9691
Vfirst
p9692
aVmaid
p9693
aVservant
p9694
aV.
aa(lp9695
Vshe
p9696
aVcries
p9697
aVthus
p9698
aVin
p9699
aVher
p9700
aVsleep
p9701
aV.
aa(lp9702
Vsecond
p9703
aVmaid
p9704
aV.
aa(lp9705
Vsome
p9706
aVmen
p9707
aVare
p9708
aVin
p9709
aVthe
p9710
aVpalace
p9711
aV!
aa(lp9712
Vi
aVheard
p9713
aVthe
p9714
aVstep
p9715
aVof
p9716
aVmen
p9717
aVpress
p9718
aVonward
p9719
aV.
aa(lp9720
Vthird
p9721
aVmaid
p9722
aV.
aa(lp9723
Vall
p9724
aVthe
p9725
aVdoors
p9726
aVare
p9727
aVclosed
p9728
aVagainst
p9729
aVus
p9730
aV.
aa(lp9731
Vfourth
p9732
aVmaid
p9733
aV(
aVshrieking
p9734
aV)
aV.
aa(lp9735
Vthere
p9736
aVis
p9737
aVmurder
p9738
aV!
aa(lp9739
Vthere
p9740
aVis
p9741
aVmurder
p9742
aVwithin
p9743
aV!
aa(lp9744
Vfirst
p9745
aVmaid
p9746
aV(
aVshrieking
p9747
aV)
aV,
aVoh
p9748
aV!
aa(lp9749
Vall
p9750
aV.
aa(lp9751
Vwhat
p9752
aVis't
p9753
aV?
aa(lp9754
V61
p9755
aVfirst
p9756
aVmaid
p9757
aV.
aa(lp9758
Vdo
p9759
aVye
p9760
aVnot
p9761
aVsee
p9762
aVthere
p9763
aVin
p9764
aVthe
p9765
aVdoor
p9766
aVone
p9767
aVstanding
p9768
aV?
aa(lp9769
Vchpysothemis
p9770
aV.
aa(lp9771
Vthat
p9772
aVis
p9773
aVelektra
p9774
aV!
aa(lp9775
Vin
p9776
aVtruth
p9777
aV't
p9778
aVis
p9779
aVelektra
p9780
aV!
aa(lp9781
Vfirst
p9782
aVand
p9783
aVsecond
p9784
aVmaids
p9785
aV.
aa(lp9786
Velektra
p9787
aV,
aVelektra
p9788
aV!
aa(lp9789
Vwhy
p9790
aVspeaks
p9791
aVshe
p9792
aVnot
p9793
aVa
aVword
p9794
aV?
aa(lp9795
Vchpysothemis
p9796
aV.
aa(lp9797
Velektra
p9798
aV!
aa(lp9799
Vwhy
p9800
aVspeakest
p9801
aVthou
p9802
aVnot
p9803
aV?
aa(lp9804
Vfourth
p9805
aVmaid
p9806
aV.
aa(lp9807
Vi
aVwill
p9808
aVgo
p9809
aVseek
p9810
aVmen
p9811
aVto
p9812
aVhelp
p9813
aVus
p9814
aV!
aa(lp9815
V(
aVruns
p9816
aVout
p9817
aVto
p9818
aVthe
p9819
aVleft
p9820
aV.
aV)
aa(lp9821
Vchpysothemis
p9822
aV.
aa(lp9823
Vlet
p9824
aVthe
p9825
aVdoor
p9826
aVbe
p9827
aVopened
p9828
aV,
aVelektra
p9829
aV!
aa(lp9830
Vseveral
p9831
aVmaids
p9832
aV.
aa(lp9833
Velektra
p9834
aV!
aa(lp9835
Vbar
p9836
aVnot
p9837
aVthou
p9838
aVthe
p9839
aVwayl
p9840
aVcome
p9841
aVback
p9842
aV!
aa(lp9843
Vfourth
p9844
aVmaid
p9845
aV(
aVreturning
p9846
aV)
aV.
aa(lp9847
Vall
p9848
aV(
aVare
p9849
aVterrified
p9850
aV)
aV.
aa(lp9851
V59
p9852
aVfourth
p9853
aVmaid
p9854
aV.
aa(lp9855
Vaegistheus
p9856
aV!
aa(lp9857
Vcome
p9858
aVback
p9859
aV!
aa(lp9860
Veach
p9861
aVto
p9862
aVher
p9863
aVchamber
p9864
aV!
aa(lp9865
Vquick
p9866
aVaegistheus
p9867
aVcomes
p9868
aVthrough
p9869
aVthe
p9870
aVcourt
p9871
aVi
aVif
p9872
aVhe
p9873
aVshould
p9874
aVfind
p9875
aVus
p9876
aV,
aVif
p9877
aVany
p9878
aVdreadful
p9879
aVthing
p9880
aVis
p9881
aVdone
p9882
aVwithin
p9883
aV,
aVsurely
p9884
aVhe
p9885
aVkills
p9886
aVus
p9887
aV!
aa(lp9888
Vchrysothemis
p9889
aV.
aa(lp9890
Vcome
p9891
aVback
p9892
aV!
aa(lp9893
Vall
p9894
aV.
aa(lp9895
Vcome
p9896
aVback
p9897
aV!
aa(lp9898
Vcome
p9899
aVback
p9900
aV!
aa(lp9901
Vcome
p9902
aVback
p9903
aV!
aa(lp9904
V(
aVthey
p9905
aVdisappear
p9906
aVinto
p9907
aVthe
p9908
aVhouse
p9909
aVto
p9910
aVthe
p9911
aVleft
p9912
aV?
aV)
aa(lp9913
V(
aVaegistheus
p9914
aVappears
p9915
aVat
p9916
aVthe
p9917
aVdoor
p9918
aVof
p9919
aVthe
p9920
aVcourt
p9921
aVon
p9922
aVthe
p9923
aVright
p9924
aV!
aV)
aa(lp9925
Vaegistheus
p9926
aV(
aVpausing
p9927
aVin
p9928
aVthe
p9929
aVdoorway
p9930
aV)
aV.
aa(lp9931
Vho
p9932
aV!
aa(lp9933
Vlights
p9934
aVthere
p9935
aV,
aVlights
p9936
aVthere
p9937
aV!
aa(lp9938
Vis
p9939
aVno
p9940
aVone
p9941
aVthere
p9942
aVto
p9943
aVlight
p9944
aVme
p9945
aV?
aa(lp9946
Vdoth
p9947
aVnone
p9948
aVstir
p9949
aVof
p9950
aVall
p9951
aVthese
p9952
aVslothful
p9953
aVvarlets
p9954
aV?
aa(lp9955
Vcan
p9956
aVthis
p9957
aVrabble
p9958
aVits
p9959
aVmanners
p9960
aVnever
p9961
aVmend
p9962
aV?
aa(lp9963
Velektra
p9964
aV(
aVtakes
p9965
aVthe
p9966
aVtorch
p9967
aVfrom
p9968
aVthe
p9969
aVring
p9970
aV.
aa(lp9971
Vruns
p9972
aVtowards
p9973
aVhim
p9974
aVana
p9975
aVbows
p9976
aVlow
p9977
aVbefore
p9978
aVhim
p9979
aV)
aV.
aa(lp9980
Vaegistheus
p9981
aV(
aVstarts
p9982
aVback
p9983
aVin
p9984
aVterror
p9985
aVat
p9986
aVthe
p9987
aVsight
p9988
aVof
p9989
aVthe
p9990
aVwild
p9991
aVfigure
p9992
aVin
p9993
aVthe
p9994
aVflickering
p9995
aVlight
p9996
aV)
aV.
aa(lp9997
Vwhat
p9998
aVstrange
p9999
aVunearthly
p10000
aVwoman
p10001
aVdo
p10002
aVi
aVsee
p10003
aV?
aa(lp10004
Vi
aVhave
p10005
aVforbidden
p10006
aVany
p10007
aVunknown
p10008
aVface
p10009
aVshould
p10010
aVever
p10011
aVcome
p10012
aVtoo
p10013
aVnear
p10014
aVme
p10015
aV.
aa(lp10016
V(
aVrecognizes
p10017
aVher
p10018
aVangrily
p10019
aV!
aV)
aa(lp10020
Vwhat
p10021
aV?
aa(lp10022
Vthou
p10023
aV?
aa(lp10024
Vwho
p10025
aVbade
p10026
aVthee
p10027
aVthus
p10028
aVawait
p10029
aVmy
p10030
aVcoming
p10031
aV?
aa(lp10032
V53
p10033
aVelektra
p10034
aV.
aa(lp10035
Vmay
p10036
aVi
aVnot
p10037
aVlight
p10038
aVthee
p10039
aV?
aa(lp10040
Vaegistheus
p10041
aV.
aa(lp10042
Vwell
p10043
aV,
aVweightier
p10044
aVthe
p10045
aVnews
p10046
aVfor
p10047
aVthee
p10048
aVshould
p10049
aVbe
p10050
aVthan
p10051
aVfor
p10052
aVthe
p10053
aVrest
p10054
aV.
aa(lp10055
Vwhere
p10056
aVfind
p10057
aVi
aV.
aa(lp10058
Vthose
p10059
aVthat
p10060
aVwere
p10061
aVsent
p10062
aVto
p10063
aVtell
p10064
aVus
p10065
aVwhat
p10066
aVbefell
p10067
aVorestes
p10068
aV?
aa(lp10069
Velektra
p10070
aV.
aa(lp10071
Vyonder
p10072
aV.
aa(lp10073
Vthey
p10074
aVhave
p10075
aVfound
p10076
aVa
aVhostess
p10077
aVfriendly
p10078
aVand
p10079
aVkind
p10080
aV;
aVand
p10081
aVthey
p10082
aVmake
p10083
aVmerry
p10084
aVthere
p10085
aVwith
p10086
aVher
p10087
aV.
aa(lp10088
Vaegistheus
p10089
aV.
aa(lp10090
Vand
p10091
aVdo
p10092
aVthey
p10093
aVtruly
p10094
aVtell
p10095
aVthat
p10096
aVhe
p10097
aVis
p10098
aVdead
p10099
aVindeed
p10100
aV!
aa(lp10101
Vand
p10102
aVtell
p10103
aVit
p10104
aVso
p10105
aVthat
p10106
aVnone
p10107
aVmay
p10108
aVdoubt
p10109
aV?
aa(lp10110
Velektra
p10111
aV.
aa(lp10112
Vmy
p10113
aVlord
p10114
aV!
aa(lp10115
Vthey
p10116
aVtell
p10117
aVit
p10118
aV,
aVnot
p10119
aVwith
p10120
aVwords
p10121
aVonly
p10122
aV,
aVnay
p10123
aV,
aVthey
p10124
aVgive
p10125
aVassurance
p10126
aVand
p10127
aVcertain
p10128
aVproof
p10129
aV,
aVthat
p10130
aVnone
p10131
aVmay
p10132
aVfeel
p10133
aVa
aVdoubt
p10134
aV.
aa(lp10135
Vaegistheus
p10136
aV.
aa(lp10137
Vin
p10138
aVtruth
p10139
aVthy
p10140
aVvoice
p10141
aVsounds
p10142
aVstrangely
p10143
aV.
aa(lp10144
Vand
p10145
aVwhat
p10146
aVhumour
p10147
aVpossesseth
p10148
aVthee
p10149
aV,
aVthus
p10150
aVevery
p10151
aVword
p10152
aVi
aVspeak
p10153
aVto
p10154
aVecho
p10155
aV?
aa(lp10156
Vwherefore
p10157
aVto
p10158
aVand
p10159
aVfro
p10160
aVdost
p10161
aVtotter
p10162
aVthus
p10163
aVwith
p10164
aVthy
p10165
aVlight
p10166
aV?
aa(lp10167
Velektra
p10168
aV.
aa(lp10169
Vit
p10170
aVis
p10171
aVnaught
p10172
aVelse
p10173
aV,
aVmy
p10174
aVlord
p10175
aVbut
p10176
aVthat
p10177
aVi
aVhave
p10178
aVlearnt
p10179
aVwisdom
p10180
aVand
p10181
aVseek
p10182
aVfavour
p10183
aVwith
p10184
aVthose
p10185
aVthat
p10186
aVstronger
p10187
aVare
p10188
aVthan
p10189
aVi.
p10190
aVthe
p10191
aVlight
p10192
aVlet
p10193
aVme
p10194
aVbear
p10195
aVstill
p10196
aVbefore
p10197
aVthee
p10198
aV.
aa(lp10199
V54
p10200
aV.
aa(lp10201
Vaegistheus
p10202
aV(
aVhesitates
p10203
aV)
aV.
aa(lp10204
Vto
p10205
aVthe
p10206
aVdoor
p10207
aV.
aa(lp10208
Vwhy
p10209
aVdancest
p10210
aVthou
p10211
aV?
aa(lp10212
Vbe
p10213
aVwary
p10214
aV.
aa(lp10215
Velektra
p10216
aV(
aVdancing
p10217
aVa
aVmysterious
p10218
aVdance
p10219
aVround
p10220
aVhim
p10221
aVand
p10222
aVsuddenly
p10223
aVstooping
p10224
aVlow
p10225
aV)
aV.
aa(lp10226
Vsee
p10227
aVthou
p10228
aVfall'st
p10229
aVnot
p10230
aVhere
p10231
aVby
p10232
aVthe
p10233
aVstair
p10234
aV.
aa(lp10235
Vaegistheus
p10236
aV(
aVat
p10237
aVthe
p10238
aVdoor
p10239
aVof
p10240
aVthe
p10241
aVhouse
p10242
aV]
aV,
aVthe
p10243
aVtorch
p10244
aV,
aVwhy
p10245
aVis't
p10246
aVnot
p10247
aVhere
p10248
aV?
aa(lp10249
Vwho
p10250
aVare
p10251
aVthose
p10252
aVthere
p10253
aV?
aa(lp10254
Velektra
p10255
aV.
aa(lp10256
Vthose
p10257
aVwho
p10258
aVcame
p10259
aVfrom
p10260
aVafar
p10261
aVto
p10262
aVdo
p10263
aVthee
p10264
aVfitting
p10265
aVhonour
p10266
aV,
aVmy
p10267
aVlord
p10268
aV;
aVand
p10269
aVi
aVwho
p10270
aVoft
p10271
aVwith
p10272
aVmy
p10273
aVunwelcome
p10274
aV,
aVshameless
p10275
aVpresence
p10276
aVdid
p10277
aVvex
p10278
aVthee
p10279
aV,
aVnow
p10280
aVat
p10281
aVlast
p10282
aVam
p10283
aVlearning
p10284
aVwhen
p10285
aVthe
p10286
aVproper
p10287
aVmoment
p10288
aVcomes
p10289
aVto
p10290
aVtake
p10291
aVmy
p10292
aVleave
p10293
aV.
aa(lp10294
Vaegistheus
p10295
aV(
aVenters
p10296
aVthe
p10297
aVhouse
p10298
aV.
aa(lp10299
Vsilence
p10300
aV.
aa(lp10301
Vthen
p10302
aVa
aVnoise
p10303
aV-within
p10304
aV.
aa(lp10305
Vaegistheus
p10306
aVappears
p10307
aVat
p10308
aVa
aVsmall
p10309
aVwindow
p10310
aV,
aVtears
p10311
aVback
p10312
aVthe
p10313
aVcurtain
p10314
aV,
aVcrying
p10315
aV)
aV.
aa(lp10316
Vhelp
p10317
aV!
aa(lp10318
Vmurder
p10319
aV!
aa(lp10320
Vhelp
p10321
aVyour
p10322
aVmaster
p10323
aV!
aa(lp10324
Vmurder
p10325
aV!
aa(lp10326
Vthey
p10327
aVmurder
p10328
aVme
p10329
aV!
aa(lp10330
Vdoes
p10331
aVnone
p10332
aVhear
p10333
aVme
p10334
aV?
aa(lp10335
Vdoes
p10336
aVnone
p10337
aVhear
p10338
aVme
p10339
aV?
aa(lp10340
V(
aVhe
p10341
aVis
p10342
aVdragged
p10343
aVaway
p10344
aV.
aV)
aa(lp10345
Velektra
p10346
aV(
aVstarts
p10347
aVviolently
p10348
aV)
aV.
aa(lp10349
Vagamemnon
p10350
aVhears
p10351
aVthee
p10352
aV!
aa(lp10353
V(
aVthe
p10354
aVface
p10355
aVof
p10356
aVaegistheus
p10357
aVappears
p10358
aVonce
p10359
aVmore
p10360
aVat
p10361
aVthe
p10362
aVwindow
p10363
aV?
aV)
aa(lp10364
V55
p10365
aVaegistheus
p10366
aV.
aa(lp10367
Vwoe
p10368
aVis
p10369
aVme
p10370
aV!
aa(lp10371
V(
aVhe
p10372
aVis
p10373
aVdraggea
p10374
aVaway
p10375
aVagain
p10376
aV.
aV)
aa(lp10377
Velektra
p10378
aV(
aVstands
p10379
aVwith
p10380
aVterribly
p10381
aVlaboured
p10382
aVbreathing
p10383
aV,
aVfacing
p10384
aVthe
p10385
aVhouse
p10386
aV.
aa(lp10387
Vthe
p10388
aVwomen
p10389
aVcome
p10390
aVrushing
p10391
aVout
p10392
aVof
p10393
aVthe
p10394
aVhouse
p10395
aVto
p10396
aVthe
p10397
aVleft
p10398
aV,
aVamong
p10399
aVthan
p10400
aVchrysothemis
p10401
aV.
aa(lp10402
Vas
p10403
aVthough
p10404
aVbereft
p10405
aVof
p10406
aVtheir
p10407
aVsenses
p10408
aVthey
p10409
aVrun
p10410
aVto
p10411
aVthe
p10412
aVgate
p10413
aVof
p10414
aVthe
p10415
aVcourtyard
p10416
aV.
aa(lp10417
Vthere
p10418
aVthey
p10419
aVsuddenly
p10420
aVhalt
p10421
aVand
p10422
aV(
aVurn
p10423
aV)
aV.
aa(lp10424
Vchpysothemis
p10425
aV.
aa(lp10426
Velektra
p10427
aV!
aa(lp10428
Vsister
p10429
aV!
aa(lp10430
Vcome
p10431
aVwith
p10432
aVme
p10433
aV!
aa(lp10434
Voh
p10435
aV,
aVcome
p10436
aV!
aa(lp10437
Vwith
p10438
aVus
p10439
aV!
aa(lp10440
Vour
p10441
aVbrother
p10442
aVstandeth
p10443
aVthere
p10444
aVwithin
p10445
aV!
aa(lp10446
Vit
p10447
aVis
p10448
aVorestes
p10449
aVwho
p10450
aVhath
p10451
aVslain
p10452
aVthem
p10453
aV!
aa(lp10454
V(
aVnoise
p10455
aVin
p10456
aVthe
p10457
aVhouse
p10458
aV.
aa(lp10459
Vconfused
p10460
aV-voices
p10461
aV,
aVfrom
p10462
aVamong
p10463
aVwhich
p10464
aVthe
p10465
aVcries
p10466
aVof
p10467
aVthe
p10468
aVchorus
p10469
aV``
p10470
aVorestes
p10471
aV''
p10472
aV``
p10473
aVorestes
p10474
aV''
p10475
aVoccasionally
p10476
aVemerge
p10477
aVmore
p10478
aVdistinctly
p10479
aV?
aV)
aa(lp10480
Vcome
p10481
aV!
aa(lp10482
Vhe
p10483
aVstandeth
p10484
aVin
p10485
aVthe
p10486
aVgreat
p10487
aVhall
p10488
aV,
aVall
p10489
aVcrowd
p10490
aVround
p10491
aVhim
p10492
aVand
p10493
aVstruggle
p10494
aVto
p10495
aVembrace
p10496
aVhim
p10497
aV.
aa(lp10498
V(
aVthe
p10499
aVnoise
p10500
aVof
p10501
aVbattle
p10502
aV,
aVthe
p10503
aVcombat
p10504
aVto
p10505
aVthe
p10506
aVdeath
p10507
aVbetween
p10508
aVthe
p10509
aVslaves
p10510
aVwho
p10511
aVare
p10512
aVfaithful
p10513
aVto
p10514
aVorestes
p10515
aVand
p10516
aVthe
p10517
aVretinue
p10518
aVof
p10519
aVaegistheus
p10520
aVhas
p10521
aVgradually
p10522
aVretreated
p10523
aVtowards
p10524
aVthe
p10525
aVinner
p10526
aVcourts
p10527
aV,
aVwith
p10528
aVwhich
p10529
aVthe
p10530
aVdoor
p10531
aVto
p10532
aVthe
p10533
aVright
p10534
aVcommunicates
p10535
aV.
aV)
aa(lp10536
Vall
p10537
aVwho
p10538
aVhated
p10539
aVaegistheus
p10540
aVin
p10541
aVtheir
p10542
aVheart
p10543
aVdid
p10544
aVfling
p10545
aVthemselves
p10546
aVvengefully
p10547
aVupon
p10548
aVthe
p10549
aVothers
p10550
aV,
aVeverywhere
p10551
aVin
p10552
aVevery
p10553
aVcourt
p10554
aVlie
p10555
aVcorpses
p10556
aVpiled
p10557
aV,
aVand
p10558
aVall
p10559
aVthe
p10560
aVliving
p10561
aVare
p10562
aVwith
p10563
aVblood
p10564
aVbesmeared
p10565
aV,
aVand
p10566
aVare
p10567
aVsore
p10568
aVwounded
p10569
aV,
aVbut
p10570
aVyet
p10571
aVall
p10572
aVexult
p10573
aV,
aVyea
p10574
aVall
p10575
aVembrace
p10576
aVeach
p10577
aVother
p10578
aV,
aVdrunk
p10579
aVwith
p10580
aVjoy
p10581
aV,
aVand
p10582
aVtorches
p10583
aV(
aVwithout
p10584
aVa
aVgrowing
p10585
aVnoise
p10586
aV,
aVwhich
p10587
aVhowever
p10588
aVwhen
p10589
aVelektra
p10590
aVbegins
p10591
aV,
aVretreats
p10592
aVmore
p10593
aVand
p10594
aVmore
p10595
aVto
p10596
aVthe
p10597
aVouter
p10598
aVcourts
p10599
aVto
p10600
aVthe
p10601
aVright
p10602
aVand
p10603
aVto
p10604
aVthe
p10605
aVbackground
p10606
aV.
aa(lp10607
Vthe
p10608
aVother
p10609
aVwomen
p10610
aVhave
p10611
aVrun
p10612
aVoitf
p10613
aV,
aVleaving
p10614
aVchrysothemis
p10615
aValone
p10616
aV.
aa(lp10617
Vthe
p10618
aVlight
p10619
aVcomes
p10620
aVfrom
p10621
aVwithout
p10622
aV.
aV)
aa(lp10623
Vburn
p10624
aVwithout
p10625
aVnumber
p10626
aV.
aa(lp10627
Vhear'st
p10628
aVthou
p10629
aVnot
p10630
aV?
aa(lp10631
Vhear'st
p10632
aVthou
p10633
aVthen
p10634
aVnot
p10635
aVtheir
p10636
aVcries
p10637
aV?
aa(lp10638
V56
p10639
aVelektra
p10640
aV(
aVcrouching
p10641
aVon
p10642
aVthe
p10643
aVthreshold
p10644
aV)
aV.
aa(lp10645
Vhow
p10646
aVshould
p10647
aVi
aVnot
p10648
aVhear
p10649
aV?
aa(lp10650
Vhow
p10651
aVshould
p10652
aVi
aVnot
p10653
aVhear
p10654
aVthe
p10655
aVmusic
p10656
aV?
aa(lp10657
Vit
p10658
aVcometh
p10659
aVfrom
p10660
aVme
p10661
aV.
aa(lp10662
Vthe
p10663
aVthousands
p10664
aVall
p10665
aV,
aVwho
p10666
aVtorches
p10667
aVcarry
p10668
aV,
aVwhose
p10669
aVheavy
p10670
aVfootsteps
p10671
aV,
aVwhose
p10672
aVinnumerable
p10673
aVmyriad
p10674
aVfootsteps
p10675
aVdo
p10676
aVmake
p10677
aVsolid
p10678
aVearth
p10679
aVwith
p10680
aVsullen
p10681
aVechoes
p10682
aVmutter
p10683
aV,
aVall
p10684
aVawait
p10685
aVme
p10686
aV:
aVi
aVknow
p10687
aVit
p10688
aVthat
p10689
aVthey
p10690
aVall
p10691
aVawait
p10692
aVme
p10693
aV,
aVbecause
p10694
aV't
p10695
aVis
p10696
aVi
aVthat
p10697
aVlead
p10698
aVthe
p10699
aVdance
p10700
aV,
aVand
p10701
aVi
aVcan
p10702
aVnot
p10703
aV,
aVthe
p10704
aVweight
p10705
aVof
p10706
aVocean
p10707
aV,
aVmeasureless
p10708
aVyea
p10709
aV,
aVof
p10710
aVocean
p10711
aVgrown
p10712
aVa
aVhundred
p10713
aVtimes
p10714
aVmore
p10715
aVvast
p10716
aV,
aVbeneath
p10717
aVits
p10718
aVmonstrous
p10719
aV,
aVwhelming
p10720
aVweight
p10721
aVeach
p10722
aVlimb
p10723
aVholdeth
p10724
aVcaptive
p10725
aV!
aa(lp10726
Vchrysothemis
p10727
aV(
aValmost
p10728
aVshrieking
p10729
aVwith
p10730
aVexcitement
p10731
aV)
aV.
aa(lp10732
Vhear'st
p10733
aVthou
p10734
aVthen
p10735
aVnot
p10736
aV?
aa(lp10737
Vthey
p10738
aVcarry
p10739
aVhim
p10740
aV,
aVthey
p10741
aVcarry
p10742
aVhim
p10743
aVupon
p10744
aVtheir
p10745
aVshoulders
p10746
aV!
aa(lp10747
Velektra
p10748
aV(
aVleaps
p10749
aVup
p10750
aV,
aVto
p10751
aVherself
p10752
aVwithout
p10753
aVheeding
p10754
aVchrysothemis
p10755
aV)
aV.
aa(lp10756
Vwe
p10757
aV,
aVwe
p10758
aVwho
p10759
aVaccomplish
p10760
aV,
aVwe
p10761
aVare
p10762
aVwith
p10763
aVthe
p10764
aVgods
p10765
aV.
aa(lp10766
V(
aVbeside
p10767
aVherself
p10768
aV.
aV''
p10769
aV)
aa(lp10770
Vthey
p10771
aVgo
p10772
aVon
p10773
aVtheir
p10774
aVway
p10775
aVlike
p10776
aVa
aVtwo-edged
p10777
aVsword
p10778
aV,
aVthe
p10779
aVgods
p10780
aVthrough
p10781
aVman
p10782
aV's
p10783
aVsoul
p10784
aV,
aVbut
p10785
aVtheir
p10786
aVnameless
p10787
aVmajesty
p10788
aVis
p10789
aVnot
p10790
aVtoo
p10791
aVgreat
p10792
aVfor
p10793
aVus
p10794
aV.
aa(lp10795
Vchrysothemis
p10796
aV.
aa(lp10797
Vall
p10798
aVmen
p10799
aV's
p10800
aVfaces
p10801
aVwith
p10802
aVjoy
p10803
aVare
p10804
aVtransfigured
p10805
aV;
aVall
p10806
aVmen
p10807
aV's
p10808
aVeyes
p10809
aVnow
p10810
aVare
p10811
aVgleaming
p10812
aV,
aVand
p10813
aVdown
p10814
aVaged
p10815
aVcheeks
p10816
aVcourse
p10817
aVthe
p10818
aVtear-drops
p10819
aV,
aVall
p10820
aVare
p10821
aVweeping
p10822
aV.
aa(lp10823
Vhear'st
p10824
aVthou
p10825
aVnot
p10826
aV?
aa(lp10827
V57
p10828
aVelektra
p10829
aV.
aa(lp10830
Vthe
p10831
aVseeds
p10832
aVof
p10833
aVdarkness
p10834
aVdid
p10835
aVi
aVsow
p10836
aVand
p10837
aVreap
p10838
aVjoy
p10839
aVupon
p10840
aVjoy
p10841
aV.
aa(lp10842
Va
aVblackened
p10843
aVcorpse
p10844
aVonce
p10845
aVwas
p10846
aVi
aVamong
p10847
aVthe
p10848
aVliving
p10849
aVand
p10850
aVthis
p10851
aVglad
p10852
aVhour
p10853
aVthe
p10854
aVflame
p10855
aVof
p10856
aVlife
p10857
aVhath
p10858
aVmade
p10859
aVme
p10860
aV,
aVand
p10861
aVmy
p10862
aVfierce
p10863
aVflame
p10864
aVcon-
p10865
aVsumeth
p10866
aVthe
p10867
aVgloom
p10868
aVof
p10869
aVall
p10870
aVthe
p10871
aVworld
p10872
aV.
aa(lp10873
Vand
p10874
aVmy
p10875
aVface
p10876
aVmust
p10877
aVglow
p10878
aVtar
p10879
aVwhiter
p10880
aVthan
p10881
aVthe
p10882
aVmoonlight
p10883
aVwhen
p10884
aVit
p10885
aVglows
p10886
aVmost
p10887
aVwhite
p10888
aV.
aa(lp10889
Vand
p10890
aVwhoso
p10891
aVbeholds
p10892
aVme
p10893
aVmust
p10894
aVunto
p10895
aVdeath
p10896
aVbe
p10897
aVstri-
p10898
aVcken
p10899
aVor
p10900
aVbe
p10901
aVlost
p10902
aVin
p10903
aVpain
p10904
aVof
p10905
aVjoy
p10906
aV.
aa(lp10907
Vsee
p10908
aVye
p10909
aVall
p10910
aVnot
p10911
aVmy
p10912
aVface
p10913
aV?
aa(lp10914
Vsee
p10915
aVye
p10916
aVthat
p10917
aVlight
p10918
aVthat
p10919
aVfrom
p10920
aVme
p10921
aVdoth
p10922
aVshine
p10923
aV?
aa(lp10924
Vchpysothemis
p10925
aV.
aa(lp10926
Vnow
p10927
aVis
p10928
aVthe
p10929
aVbrother
p10930
aVcome
p10931
aV,
aVand
p10932
aVlove
p10933
aVo'er
p10934
aVall
p10935
aVlike
p10936
aVoil
p10937
aVand
p10938
aVbalsam
p10939
aVfloweth
p10940
aV.
aa(lp10941
Vlove
p10942
aVruleth
p10943
aVall
p10944
aVthings
p10945
aV.
aa(lp10946
Vhe
p10947
aVwill
p10948
aVperish
p10949
aVwhoso
p10950
aVloves
p10951
aVnot
p10952
aV!
aa(lp10953
Velektra
p10954
aVchrysothemis
p10955
aV.
aa(lp10956
V(
aVwildly
p10957
aV)
aV.
aa(lp10958
Vlove
p10959
aVdestroys
p10960
aV!
aa(lp10961
Vbut
p10962
aVnone
p10963
aVelektra
p10964
aV!
aa(lp10965
Vcan
p10966
aVgo
p10967
aVthe
p10968
aVappointed
p10969
aVway
p10970
aVi
aVgo
p10971
aVto
p10972
aVwhere
p10973
aVmy
p10974
aVbrother
p10975
aVthat
p10976
aVknows
p10977
aVnot
p10978
aVlove
p10979
aV!
aa(lp10980
Vstands
p10981
aV!
aa(lp10982
V(
aVchrysothemis
p10983
aVruns
p10984
aVout
p10985
aV.
aV)
aa(lp10986
V(
aVelektra
p10987
aVdescends
p10988
aVfrom
p10989
aVthe
p10990
aVthreshold
p10991
aV.
aa(lp10992
Vshe
p10993
aVhas
p10994
aVflung
p10995
aVback
p10996
aVher
p10997
aVhead
p10998
aVlike
p10999
aVa
aVmaenad
p11000
aV.
aa(lp11001
Vshe
p11002
aVflings
p11003
aVher
p11004
aVknees
p11005
aVand
p11006
aVarms
p11007
aVabout
p11008
aV.
aa(lp11009
Vit
p11010
aVis
p11011
aVa
aVnameless
p11012
aVdance
p11013
aVin
p11014
aVwhich
p11015
aVshe
p11016
aVcomes
p11017
aVforward
p11018
aV?
aV)
aa(lp11019
Vchpysothemis
p11020
aV.
aa(lp11021
Vgood
p11022
aVare
p11023
aVthe
p11024
aVimmortals
p11025
aV,
aVgood
p11026
aV!
aa(lp11027
Vnew
p11028
aVlife
p11029
aVfor
p11030
aVthee
p11031
aVbegin-
p11032
aVneth
p11033
aVand
p11034
aVme
p11035
aV,
aVnew
p11036
aVlife
p11037
aVfor
p11038
aVall
p11039
aVmankind
p11040
aV.
aa(lp11041
V't
p11042
aVis
p11043
aVthey
p11044
aV,
aVthe
p11045
aVgods
p11046
aV,
aVthe
p11047
aVim-
p11048
aVmortal
p11049
aVgods
p11050
aV,
aVthe
p11051
aVever
p11052
aVgood
p11053
aVthat
p11054
aVgave
p11055
aVus
p11056
aVall
p11057
aVthings
p11058
aV.
aa(lp11059
Vwho
p11060
aVever
p11061
aVloved
p11062
aVus
p11063
aV?
aa(lp11064
Vwho
p11065
aVever
p11066
aVloved
p11067
aVus
p11068
aV?
aa(lp11069
V58
p11070
aVchrysothemis
p11071
aV(
aVappears
p11072
aVagain
p11073
aVat
p11074
aVthe
p11075
aVdoor
p11076
aV.
aa(lp11077
Vbehind
p11078
aVher
p11079
aVtorches
p11080
aV,
aVcrowds
p11081
aV,
aVfaces
p11082
aVof
p11083
aVmen
p11084
aVand
p11085
aVwomen
p11086
aV)
aV.
aa(lp11087
Velektra
p11088
aV!
aa(lp11089
Velektra
p11090
aV(
aVstays
p11091
aVmotionless
p11092
aV,
aVgazing
p11093
aVat
p11094
aVher
p11095
aV)
aV.
aa(lp11096
Vsay
p11097
aVnaught
p11098
aVand
p11099
aVdance
p11100
aVon
p11101
aV.
aa(lp11102
Vall
p11103
aVmust
p11104
aVcome
p11105
aVto
p11106
aVmy
p11107
aVside
p11108
aV!
aa(lp11109
Vhere
p11110
aVtake
p11111
aVyour
p11112
aVplace
p11113
aV!
aa(lp11114
Vthe
p11115
aVburden
p11116
aVof
p11117
aVjoy
p11118
aVi
aVcarry
p11119
aV,
aVand
p11120
aVi
aVlead
p11121
aVthe
p11122
aVsacred
p11123
aVdance
p11124
aV.
aa(lp11125
Vwho
p11126
aVhappy
p11127
aVis
p11128
aVas
p11129
aVwe
p11130
aV,
aVcan
p11131
aVdo
p11132
aVbut
p11133
aVthis
p11134
aV:
aVsay
p11135
aVnaught
p11136
aVand
p11137
aVdance
p11138
aVon
p11139
aV!
aa(lp11140
V(
aVelektra
p11141
aVmakes
p11142
aVa
aVfew
p11143
aVmore
p11144
aVsteps
p11145
aVof
p11146
aVuncontrolled
p11147
aVtriumph
p11148
aVand
p11149
aVfalls
p11150
aVlifeless
p11151
aV.
aV)
aa(lp11152
Vchrysothemis
p11153
aV(
aVrushes
p11154
aVto
p11155
aVher
p11156
aVside
p11157
aV.
aa(lp11158
Vchrysothemis
p11159
aVhurries
p11160
aVto
p11161
aVthe
p11162
aVdoor
p11163
aVof
p11164
aVthe
p11165
aVhouse
p11166
aVand
p11167
aVbatters
p11168
aVit
p11169
aV)
aV.
aa(lp11170
Vorestes
p11171
aV!
aa(lp11172
Vorestes
p11173
aV!
aa(lp11174
V(
aVsilence
p11175
aV.
aa(lp11176
Vcurtain
p11177
aV.
aV)
aasb.