ccopy_reg
_reconstructor
p1
(cData.Book
Book
p2
c__builtin__
object
p3
NtRp4
(dp5
S'stored_object'
p6
S'Books/The_Swimmer/Book_object.p'
p7
sS'title'
p8
S'The Swimmer'
p9
sS'main_text_path'
p10
S'Books/The_Swimmer/main_cleaned.txt'
p11
sS'metadata_path'
p12
S'Books/The_Swimmer/meta_data.csv'
p13
sS'book_path'
p14
S'Books/The_Swimmer/'
p15
sS'characters'
p16
(dp17
S'neddy merrill'
p18
(dp19
S'list'
p20
(lp21
(lp22
V[
aVCHARACTER
p23
aV]
aV-
aVthe
p24
aVprotagonist
p25
aV,
aVwho
p26
aVdecides
p27
aVto
p28
aVgo
p29
aVhome
p30
aVfrom
p31
aVhis
p32
aVfriends
p33
aV'
aVhouse
p34
aVby
p35
aVswimming
p36
aVthrough
p37
aVall
p38
aVthe
p39
aVpools
p40
aVin
p41
aVhis
p42
aVneighborhood
p43
aV.
aa(lp44
Vneddy
p45
aVand
p46
aVhis
p47
aVwife
p48
aV,
aVlucinda
p49
aV,
aVenjoy
p50
aVa
aVhigh
p51
aVsocial
p52
aVstanding
p53
aVin
p54
aVtheir
p55
aVaffluent
p56
aVneighborhood
p57
aV.
aa(lp58
Vas
p59
aVhe
p60
aVswims
p61
aVhome
p62
aV,
aVhe
p63
aVloses
p64
aVhis
p65
aVstrength
p66
aV,
aVand
p67
aVhis
p68
aVfriends
p69
aVbegin
p70
aVsaying
p71
aVthings
p72
aVthat
p73
aVsuggest
p74
aVthat
p75
aVa
aVgreat
p76
aVdeal
p77
aVof
p78
aVtime
p79
aVhas
p80
aVgone
p81
aVby
p82
aV.
aa(lp83
Vwhen
p84
aVhe
p85
aVarrives
p86
aVhome
p87
aV,
aVhe
p88
aVfinds
p89
aVhis
p90
aVhouse
p91
aVempty
p92
aV.
aasS'analysis'
p93
(lp94
(lp95
V[
aVCHARACTER
p96
aV]
aV[
aVCHARACTER
p97
aV]
aV,
aVwith
p98
aVhis
p99
aVperfect
p100
aVfamily
p101
aV,
aVhigh
p102
aVsocial
p103
aVstanding
p104
aV,
aVand
p105
aVpricey
p106
aVsuburban
p107
aVhome
p108
aV,
aVhas
p109
aVfew
p110
aVproblems
p111
aVin
p112
aVhis
p113
aVlife
p114
aVand
p115
aVseems
p116
aVto
p117
aVsee
p118
aVhimself
p119
aVand
p120
aVall
p121
aVhis
p122
aVfriends
p123
aVas
p124
aVblessed
p125
aV.
aa(lp126
Vneddy
p127
aVhas
p128
aVmastered
p129
aVall
p130
aVthe
p131
aVrules
p132
aVof
p133
aVthe
p134
aVworld
p135
aVhe
p136
aVinhabits
p137
aV.
aa(lp138
Vhe
p139
aVaccepts
p140
aVand
p141
aVrejects
p142
aVinvitations
p143
aVaccording
p144
aVto
p145
aVa
aVrigid
p146
aVsocial
p147
aVhierarchy
p148
aVand
p149
aVengages
p150
aVin
p151
aVall
p152
aVthe
p153
aVexpected
p154
aVtrappings
p155
aVand
p156
aVactivities
p157
aV:
aVtennis
p158
aV,
aVdrinking
p159
aVgin
p160
aV,
aVand
p161
aVsailing
p162
aV.
aa(lp163
Vhe
p164
aVhas
p165
aVmany
p166
aVfriends
p167
aV,
aVand
p168
aVhis
p169
aVposition
p170
aVin
p171
aVthis
p172
aVprivileged
p173
aVworld
p174
aVallows
p175
aVhim
p176
aVto
p177
aVhop
p178
aVfrom
p179
aVpool
p180
aVto
p181
aVpool
p182
aVuninvited
p183
aV,
aVconfident
p184
aVthat
p185
aVhe
p186
aVwill
p187
aVbe
p188
aVwelcomed
p189
aVwherever
p190
aVhe
p191
aVgoes
p192
aV.
aa(lp193
Vif
p194
aVthere
p195
aVis
p196
aVany
p197
aVunpleasantness
p198
aVin
p199
aVneddy
p200
aV's
p201
aVworld
p202
aV,
aVneddy
p203
aVopts
p204
aVnot
p205
aVto
p206
aVsee
p207
aVit
p208
aV.
aa(lp209
Valthough
p210
aVhe
p211
aVis
p212
aVno
p213
aVlonger
p214
aVyoung
p215
aV,
aVhe
p216
aVprides
p217
aVhimself
p218
aVon
p219
aVhis
p220
aVyouthful
p221
aVstrength
p222
aVand
p223
aVvigor
p224
aVand
p225
aVseems
p226
aVto
p227
aVsee
p228
aVhimself
p229
aVas
p230
aVinvincible
p231
aV.
aa(lp232
Vhe
p233
aVexists
p234
aVin
p235
aVa
aVstate
p236
aVof
p237
aVbliss
p238
aVthat
p239
aVleaves
p240
aVno
p241
aVroom
p242
aVfor
p243
aVanything
p244
aVbut
p245
aVhealth
p246
aVand
p247
aVhappiness
p248
aV.
aa(lp249
Vas
p250
aVneddy
p251
aVundertakes
p252
aVhis
p253
aVwatery
p254
aVjourney
p255
aVhome
p256
aV,
aVhe
p257
aVbegins
p258
aVto
p259
aVunderstand
p260
aVthat
p261
aVthe
p262
aVdiscontent
p263
aVhe
p264
aV's
p265
aValways
p266
aVstubbornly
p267
aVignored
p268
aVis
p269
aVmore
p270
aVpresent
p271
aVin
p272
aVhis
p273
aVlife
p274
aVthan
p275
aVhe
p276
aVrealized
p277
aV.
aa(lp278
Vneddy
p279
aVhas
p280
aVmade
p281
aVa
aVhabit
p282
aVof
p283
aVrejecting
p284
aVinvitations
p285
aV,
aVand
p286
aVas
p287
aVfriend
p288
aVafter
p289
aVfriend
p290
aVremarks
p291
aVon
p292
aVhow
p293
aVlong
p294
aVit
p295
aV's
p296
aVbeen
p297
aVsince
p298
aVthey
p299
aV've
p300
aVseen
p301
aVhim
p302
aV,
aVit
p303
aVbecomes
p304
aVclear
p305
aVthat
p306
aVhe
p307
aVhas
p308
aVdistanced
p309
aVhimself
p310
aVfrom
p311
aVthose
p312
aVaround
p313
aVhim
p314
aV:
aVhe
p315
aVhad
p316
aVn't
p317
aVbeen
p318
aVaware
p319
aVof
p320
aVhis
p321
aVfriend
p322
aV's
p323
aVillness
p324
aV,
aVfriends
p325
aVhave
p326
aVmoved
p327
aVaway
p328
aV,
aVand
p329
aVhe
p330
aVhimself
p331
aVhas
p332
aVsuffered
p333
aVfrom
p334
aVsome
p335
aVunknown
p336
aVmisfortune
p337
aVthat
p338
aVhas
p339
aVcost
p340
aVhim
p341
aVhis
p342
aVwealth
p343
aVand
p344
aVfamily
p345
aV.
aa(lp346
Vthe
p347
aVrobust
p348
aVhealth
p349
aVand
p350
aVstrength
p351
aVthat
p352
aVneddy
p353
aVenjoys
p354
aVleaves
p355
aVhim
p356
aV,
aVand
p357
aVhe
p358
aVgets
p359
aVweaker
p360
aVas
p361
aVhis
p362
aVjourney
p363
aVprogresses
p364
aV.
aa(lp365
Vrather
p366
aVthan
p367
aVbeing
p368
aVeternally
p369
aVyouthful
p370
aV,
aVneddy
p371
aVis
p372
aVactually
p373
aVaging
p374
aVand
p375
aVmoving
p376
aVtoward
p377
aVdeath
p378
aV.
aa(lp379
Veverything
p380
aVhe
p381
aVonce
p382
aVconsidered
p383
aVhis
p384
aVright
p385
aV--
p386
aVhis
p387
aVfamily
p388
aV,
aVmistress
p389
aV's
p390
aVaffection
p391
aV,
aVyouth
p392
aV,
aVand
p393
aVsocial
p394
aVstanding
p395
aV--
p396
aVhave
p397
aVdisappeared
p398
aV,
aVand
p399
aVat
p400
aVthe
p401
aVend
p402
aVof
p403
aVthe
p404
aVstory
p405
aVhe
p406
aVis
p407
aVleft
p408
aVentirely
p409
aValone
p410
aV.
aa(lp411
Vneddy
p412
aVis
p413
aVnot
p414
aVan
p415
aVevil
p416
aVman
p417
aVin
p418
aVany
p419
aVway
p420
aV,
aVbut
p421
aVhis
p422
aVwillful
p423
aVignorance
p424
aVof
p425
aVthe
p426
aVunpleasant
p427
aVside
p428
aVof
p429
aVlife
p430
aVeventually
p431
aVleads
p432
aVto
p433
aVhis
p434
aVdownfall
p435
aV.
aasssS'mainText'
p436
(lp437
(lp438
Vthe
p439
aVswimmer
p440
aVit
p441
aVwas
p442
aVone
p443
aVof
p444
aVthose
p445
aVmidsummer
p446
aVsundays
p447
aVwhen
p448
aVeveryone
p449
aVsits
p450
aVaround
p451
aVsaying
p452
aV,
aV\u201ci
p453
aVdrank
p454
aVtoo
p455
aVmuch
p456
aVlast
p457
aVnight.\u201d
p458
aVyou
p459
aVmight
p460
aVhave
p461
aVheard
p462
aVit
p463
aVwhispered
p464
aVby
p465
aVthe
p466
aVparishioners
p467
aVleaving
p468
aVchurch
p469
aV,
aVheard
p470
aVit
p471
aVfrom
p472
aVthe
p473
aVlips
p474
aVof
p475
aVthe
p476
aVpriest
p477
aVhimself
p478
aV,
aVstruggling
p479
aVwith
p480
aVhis
p481
aVcassock
p482
aVin
p483
aVthe
p484
aVvestiarium
p485
aV,
aVheard
p486
aVit
p487
aVfrom
p488
aVthe
p489
aVgolf
p490
aVlinks
p491
aVand
p492
aVthe
p493
aVtennis
p494
aVcourts
p495
aV,
aVheard
p496
aVit
p497
aVfrom
p498
aVthe
p499
aVwildlife
p500
aVpreserve
p501
aVwhere
p502
aVthe
p503
aVleader
p504
aVof
p505
aVthe
p506
aVaudubon
p507
aVgroup
p508
aVwas
p509
aVsuffering
p510
aVfrom
p511
aVa
aVterrible
p512
aVhangover
p513
aV.
aa(lp514
V\u201ci
p515
aVdrank
p516
aVtoo
p517
aVmuch
p518
aV,
aV\u201d
aVsaid
p519
aVdonald
p520
aVwesterhazy
p521
aV.
aa(lp522
V\u201cwe
p523
aVall
p524
aVdrank
p525
aVtoo
p526
aVmuch
p527
aV,
aV\u201d
aVsaid
p528
aVlucinda
p529
aVmerrill
p530
aV.
aa(lp531
V\u201cit
p532
aVmust
p533
aVhave
p534
aVbeen
p535
aVthe
p536
aVwine
p537
aV,
aV\u201d
aVsaid
p538
aVhelen
p539
aVwesterhazy
p540
aV.
aa(lp541
V\u201ci
p542
aVdrank
p543
aVtoo
p544
aVmuch
p545
aVof
p546
aVthat
p547
aVclaret.\u201d
p548
aVthis
p549
aVwas
p550
aVat
p551
aVthe
p552
aVedge
p553
aVof
p554
aVthe
p555
aVwesterhazys\u2019
p556
aVpool
p557
aV.
aa(lp558
Vthe
p559
aVpool
p560
aV,
aVfed
p561
aVby
p562
aVan
p563
aVartesian
p564
aVwell
p565
aVwith
p566
aVa
aVhigh
p567
aViron
p568
aVcontent
p569
aV,
aVwas
p570
aVa
aVpale
p571
aVshade
p572
aVof
p573
aVgreen
p574
aV.
aa(lp575
Vit
p576
aVwas
p577
aVa
aV\ufb01ne
p578
aVday
p579
aV.
aa(lp580
Vin
p581
aVthe
p582
aVwest
p583
aVthere
p584
aVwas
p585
aVa
aVmassive
p586
aVstand
p587
aVof
p588
aVcumulus
p589
aVcloud
p590
aVso
p591
aVlike
p592
aVa
aVcity
p593
aVseen
p594
aVfrom
p595
aVa
aVdistance\u2014
p596
aVfrom
p597
aVthe
p598
aVbow
p599
aVof
p600
aVan
p601
aVapproaching
p602
aVship\u2014
p603
aVthat
p604
aVit
p605
aVmight
p606
aVhave
p607
aVhad
p608
aVa
aVname
p609
aV.
aa(lp610
Vlisbon
p611
aV.
aa(lp612
Vhackensack
p613
aV.
aa(lp614
Vthe
p615
aVsun
p616
aVwas
p617
aVhot
p618
aV.
aa(lp619
Vneddy
p620
aVmerrill
p621
aVsat
p622
aVby
p623
aVthe
p624
aVgreen
p625
aVwater
p626
aV,
aVone
p627
aVhand
p628
aVin
p629
aVit
p630
aV,
aVone
p631
aVaround
p632
aVa
aVglass
p633
aVof
p634
aVgin
p635
aV.
aa(lp636
Vhe
p637
aVwas
p638
aVa
aVslender
p639
aVman\u2014
p640
aVhe
p641
aVseemed
p642
aVto
p643
aVhave
p644
aVthe
p645
aVespecial
p646
aVslenderness
p647
aVof
p648
aVyouth\u2014
p649
aVand
p650
aVwhile
p651
aVhe
p652
aVwas
p653
aVfar
p654
aVfrom
p655
aVyoung
p656
aVhe
p657
aVhad
p658
aVslid
p659
aVdown
p660
aVhis
p661
aVbanister
p662
aVthat
p663
aVmorning
p664
aVand
p665
aVgiven
p666
aVthe
p667
aVbronze
p668
aVbackside
p669
aVof
p670
aVaphrodite
p671
aVon
p672
aVthe
p673
aVhall
p674
aVtable
p675
aVa
aVsmack
p676
aV,
aVas
p677
aVhe
p678
aVjogged
p679
aVtoward
p680
aVthe
p681
aVsmell
p682
aVof
p683
aVcoffee
p684
aVin
p685
aVhis
p686
aVdining
p687
aVroom
p688
aV.
aa(lp689
Vhe
p690
aVmight
p691
aVhave
p692
aVbeen
p693
aVcom-
p694
aVpared
p695
aVto
p696
aVa
aVsummer\u2019s
p697
aVday
p698
aV,
aVparticularly
p699
aVthe
p700
aVlast
p701
aVhours
p702
aVof
p703
aVone
p704
aV,
aVand
p705
aVwhile
p706
aVhe
p707
aVlacked
p708
aVa
aVtennis
p709
aVracket
p710
aVor
p711
aVa
aVsail
p712
aVbag
p713
aVthe
p714
aVimpression
p715
aVwas
p716
aVde\ufb01nitely
p717
aVone
p718
aVof
p719
aVyouth
p720
aV,
aVsport
p721
aV,
aVand
p722
aVclement
p723
aVweather
p724
aV.
aa(lp725
Vhe
p726
aVhad
p727
aVbeen
p728
aVswimming
p729
aVand
p730
aVnow
p731
aVhe
p732
aVwas
p733
aVbreathing
p734
aVdeeply
p735
aV,
aVstertorously
p736
aVas
p737
aVif
p738
aVhe
p739
aVcould
p740
aVgulp
p741
aVinto
p742
aVhis
p743
aVlungs
p744
aVthe
p745
aVcomponents
p746
aVof
p747
aVthat
p748
aVmo-
p749
aVment
p750
aV,
aVthe
p751
aVheat
p752
aVof
p753
aVthe
p754
aVsun
p755
aV,
aVthe
p756
aVintenseness
p757
aVof
p758
aVhis
p759
aVplea
p760
aVsure
p761
aV.
aa(lp762
Vit
p763
aVall
p764
aVseemed
p765
aVto
p766
aV\ufb02ow
p767
aVinto
p768
aVhis
p769
aVchest
p770
aV.
aa(lp771
Vhis
p772
aVown
p773
aVhouse
p774
aVstood
p775
aVin
p776
aVbullet
p777
aVpark
p778
aV,
aVeight
p779
aVmiles
p780
aVto
p781
aVthe
p782
aVsouth
p783
aV,
aVwhere
p784
aVhis
p785
aVfour
p786
aVbeautiful
p787
aVdaugh-
p788
aVters
p789
aVwould
p790
aVhave
p791
aVhad
p792
aVtheir
p793
aVlunch
p794
aVand
p795
aVmight
p796
aVbe
p797
aVplaying
p798
aVtennis
p799
aV.
aa(lp800
Vthen
p801
aVit
p802
aVoccurred
p803
aVto
p804
aVhim
p805
aVthat
p806
aVby
p807
aVtaking
p808
aVa
aVdogleg
p809
aVto
p810
aVthe
p811
aVsouth-
p812
aVwest
p813
aVhe
p814
aVcould
p815
aVreach
p816
aVhis
p817
aVhome
p818
aVby
p819
aVwater
p820
aV.
aa(lp821
Vhis
p822
aVlife
p823
aVwas
p824
aVnot
p825
aVcon\ufb01ning
p826
aVand
p827
aVthe
p828
aVdelight
p829
aVhe
p830
aVtook
p831
aVin
p832
aVthis
p833
aVob-
p834
aVservation
p835
aVcould
p836
aVnot
p837
aVbe
p838
aVexplained
p839
aVby
p840
aVits
p841
aVsuggestion
p842
aVof
p843
aVescape
p844
aV.
aa(lp845
Vare
p846
aVyou
p847
aVreceiving
p848
aVstory
p849
aVof
p850
aVthe
p851
aVweek
p852
aVeach
p853
aVweek
p854
aV?
aa(lp855
Vsign
p856
aVup
p857
aVnow
p858
aVat
p859
aVstoryoftheweek.loa.org
p860
aVto
p861
aVreceive
p862
aVour
p863
aVweekly
p864
aValert
p865
aVso
p866
aVyou
p867
aVwon\u2019t
p868
aVmiss
p869
aVa
aVsingle
p870
aVstory
p871
aV!
aa(lp872
Vhe
p873
aVseemed
p874
aVto
p875
aVsee
p876
aV,
aVwith
p877
aVa
aVcartographer\u2019s
p878
aVeye
p879
aV,
aVthat
p880
aVstring
p881
aVof
p882
aVswimming
p883
aVpools
p884
aV,
aVthat
p885
aVquasi-subterranean
p886
aVstream
p887
aVthat
p888
aVcurved
p889
aVacross
p890
aVthe
p891
aVcounty
p892
aV.
aa(lp893
Vhe
p894
aVhad
p895
aVmade
p896
aVa
aVdiscovery
p897
aV,
aVa
aVcontribution
p898
aVto
p899
aVmodern
p900
aVgeography
p901
aV;
aVhe
p902
aVwould
p903
aVname
p904
aVthe
p905
aVstream
p906
aVlucinda
p907
aVafter
p908
aVhis
p909
aVwife
p910
aV.
aa(lp911
Vhe
p912
aVwas
p913
aVnot
p914
aVa
aVpractical
p915
aVjoker
p916
aVnor
p917
aVwas
p918
aVhe
p919
aVa
aVfool
p920
aVbut
p921
aVhe
p922
aVwas
p923
aVdeterminedly
p924
aVoriginal
p925
aVand
p926
aVhad
p927
aVa
aVvague
p928
aVand
p929
aVmodest
p930
aVidea
p931
aVof
p932
aVhimself
p933
aVas
p934
aVa
aVlegendary
p935
aV\ufb01gure
p936
aV.
aa(lp937
Vthe
p938
aVday
p939
aVwas
p940
aVbeautiful
p941
aVand
p942
aVit
p943
aVseemed
p944
aVto
p945
aVhim
p946
aVthat
p947
aVa
aVlong
p948
aVswim
p949
aVmight
p950
aVenlarge
p951
aVand
p952
aVcelebrate
p953
aVits
p954
aVbeauty
p955
aV.
aa(lp956
Vhe
p957
aVtook
p958
aVoff
p959
aVa
aVsweater
p960
aVthat
p961
aVwas
p962
aVhung
p963
aVover
p964
aVhis
p965
aVshoulders
p966
aVand
p967
aVdove
p968
aVin
p969
aV.
aa(lp970
Vhe
p971
aVhad
p972
aVan
p973
aVinexplicable
p974
aVcontempt
p975
aVfor
p976
aVmen
p977
aVwho
p978
aVdid
p979
aVnot
p980
aVhurl
p981
aVthemselves
p982
aVinto
p983
aVpools
p984
aV.
aa(lp985
Vhe
p986
aVswam
p987
aVa
aVchoppy
p988
aVcrawl
p989
aV,
aVbreathing
p990
aVeither
p991
aVwith
p992
aVevery
p993
aVstroke
p994
aVor
p995
aVevery
p996
aVfourth
p997
aVstroke
p998
aVand
p999
aVcounting
p1000
aVsomewhere
p1001
aVwell
p1002
aVin
p1003
aVthe
p1004
aVback
p1005
aVof
p1006
aVhis
p1007
aVmind
p1008
aVthe
p1009
aVone-two
p1010
aVone-two
p1011
aVof
p1012
aVa
aV\ufb02utter
p1013
aVkick
p1014
aV.
aa(lp1015
Vit
p1016
aVwas
p1017
aVnot
p1018
aVa
aVser
p1019
aVviceable
p1020
aVstroke
p1021
aVfor
p1022
aVlong
p1023
aVdistances
p1024
aVbut
p1025
aVthe
p1026
aVdomestication
p1027
aVof
p1028
aVswimming
p1029
aVhad
p1030
aVsaddled
p1031
aVthe
p1032
aVsport
p1033
aVwith
p1034
aVsome
p1035
aVcustoms
p1036
aVand
p1037
aVin
p1038
aVhis
p1039
aVpart
p1040
aVof
p1041
aVthe
p1042
aVworld
p1043
aVa
aVcrawl
p1044
aVwas
p1045
aVcustomary
p1046
aV.
aa(lp1047
Vto
p1048
aVbe
p1049
aVembraced
p1050
aVand
p1051
aVsustained
p1052
aVby
p1053
aVthe
p1054
aVlight
p1055
aVgreen
p1056
aVwater
p1057
aVwas
p1058
aVless
p1059
aVa
aVplea
p1060
aVsure
p1061
aV,
aVit
p1062
aVseemed
p1063
aV,
aVthan
p1064
aVthe
p1065
aVre-
p1066
aVsumption
p1067
aVof
p1068
aVa
aVnatural
p1069
aVcondition
p1070
aV,
aVand
p1071
aVhe
p1072
aVwould
p1073
aVhave
p1074
aVliked
p1075
aVto
p1076
aVswim
p1077
aVwithout
p1078
aVtrunks
p1079
aV,
aVbut
p1080
aVthis
p1081
aVwas
p1082
aVnot
p1083
aVpossible
p1084
aV,
aVconsidering
p1085
aVhis
p1086
aVproject
p1087
aV.
aa(lp1088
Vhe
p1089
aVhoisted
p1090
aVhimself
p1091
aVup
p1092
aVon
p1093
aVthe
p1094
aVfar
p1095
aVcurb\u2014
p1096
aVhe
p1097
aVnever
p1098
aVused
p1099
aVthe
p1100
aVladder\u2014
p1101
aVand
p1102
aVstarted
p1103
aVacross
p1104
aVthe
p1105
aVlawn
p1106
aV.
aa(lp1107
Vwhen
p1108
aVlucinda
p1109
aVasked
p1110
aVwhere
p1111
aVhe
p1112
aVwas
p1113
aVgoing
p1114
aVhe
p1115
aVsaid
p1116
aVhe
p1117
aVwas
p1118
aVgoing
p1119
aVto
p1120
aVswim
p1121
aVhome
p1122
aV.
aa(lp1123
Vthe
p1124
aVonly
p1125
aVmaps
p1126
aVand
p1127
aVcharts
p1128
aVhe
p1129
aVhad
p1130
aVto
p1131
aVgo
p1132
aVby
p1133
aVwere
p1134
aVremem-
p1135
aVbered
p1136
aVor
p1137
aVimaginary
p1138
aVbut
p1139
aVthese
p1140
aVwere
p1141
aVclear
p1142
aVenough
p1143
aV.
aa(lp1144
Vfirst
p1145
aVthere
p1146
aVwere
p1147
aVthe
p1148
aVgrahams
p1149
aV,
aVthe
p1150
aVhammers
p1151
aV,
aVthe
p1152
aVlears
p1153
aV,
aVthe
p1154
aVhowlands
p1155
aV,
aVand
p1156
aVthe
p1157
aVcrosscups
p1158
aV.
aa(lp1159
Vhe
p1160
aVwould
p1161
aVcross
p1162
aVditmar
p1163
aVstreet
p1164
aVto
p1165
aVthe
p1166
aVbunkers
p1167
aVand
p1168
aVcome
p1169
aV,
aVafter
p1170
aVa
aVshort
p1171
aVportage
p1172
aV,
aVto
p1173
aVthe
p1174
aVlevys
p1175
aV,
aVthe
p1176
aVwelchers
p1177
aV,
aVand
p1178
aVthe
p1179
aVpublic
p1180
aVpool
p1181
aVin
p1182
aVlancaster
p1183
aV.
aa(lp1184
Vthen
p1185
aVthere
p1186
aVwere
p1187
aVthe
p1188
aVhallo-
p1189
aVrans
p1190
aV,
aVthe
p1191
aVsachses
p1192
aV,
aVthe
p1193
aVbiswangers
p1194
aV,
aVshirley
p1195
aVadams
p1196
aV,
aVthe
p1197
aVgil
p1198
aV-
aVmartins
p1199
aV,
aVand
p1200
aVthe
p1201
aVclydes
p1202
aV.
aa(lp1203
Vthe
p1204
aVday
p1205
aVwas
p1206
aVlovely
p1207
aV,
aVand
p1208
aVthat
p1209
aVhe
p1210
aVlived
p1211
aVin
p1212
aVa
aVworld
p1213
aVso
p1214
aVgenerously
p1215
aVsupplied
p1216
aVwith
p1217
aVwater
p1218
aVseemed
p1219
aVlike
p1220
aVa
aVclemency
p1221
aV,
aVa
aVbene\ufb01cence
p1222
aV.
aa(lp1223
Vhis
p1224
aVheart
p1225
aVwas
p1226
aVhigh
p1227
aVand
p1228
aVhe
p1229
aVran
p1230
aVacross
p1231
aVthe
p1232
aVgrass
p1233
aV.
aa(lp1234
Vmaking
p1235
aVhis
p1236
aVway
p1237
aVhome
p1238
aVby
p1239
aVan
p1240
aVuncommon
p1241
aVroute
p1242
aVgave
p1243
aVhim
p1244
aVthe
p1245
aVfeeling
p1246
aVthat
p1247
aVhe
p1248
aVwas
p1249
aVa
aVpilgrim
p1250
aV,
aVan
p1251
aVexplorer
p1252
aV,
aVa
aVman
p1253
aVwith
p1254
aVa
aVdestiny
p1255
aV,
aVand
p1256
aVhe
p1257
aVknew
p1258
aVthat
p1259
aVhe
p1260
aVwould
p1261
aV\ufb01nd
p1262
aVfriends
p1263
aVall
p1264
aValong
p1265
aVthe
p1266
aVway
p1267
aV;
aVfriends
p1268
aVwould
p1269
aVline
p1270
aVthe
p1271
aVbanks
p1272
aVof
p1273
aVthe
p1274
aVlucinda
p1275
aVriver
p1276
aV.
aa(lp1277
Vhe
p1278
aVwent
p1279
aVthrough
p1280
aVa
aVhedge
p1281
aVthat
p1282
aVseparated
p1283
aVthe
p1284
aVwesterhazys\u2019
p1285
aVland
p1286
aVfrom
p1287
aVthe
p1288
aVgrahams\u2019
p1289
aV,
aVwalked
p1290
aVunder
p1291
aVsome
p1292
aV\ufb02owering
p1293
aVapple
p1294
aVthe
p1295
aVstories
p1296
aVof
p1297
aVjohn
p1298
aVcheever
p1299
aVtrees
p1300
aV,
aVpassed
p1301
aVthe
p1302
aVshed
p1303
aVthat
p1304
aVhoused
p1305
aVtheir
p1306
aVpump
p1307
aVand
p1308
aV\ufb01lter
p1309
aV,
aVand
p1310
aVcame
p1311
aVout
p1312
aVat
p1313
aVthe
p1314
aVgrahams\u2019
p1315
aVpool
p1316
aV.
aa(lp1317
V\u201cwhy
p1318
aV,
aVneddy
p1319
aV,
aV\u201d
aVmrs.
p1320
aVgraham
p1321
aVsaid
p1322
aV,
aV\u201cwhat
p1323
aVa
aVmarvelous
p1324
aVsurprise
p1325
aV.
aa(lp1326
Vi\u2019ve
p1327
aVbeen
p1328
aVtrying
p1329
aVto
p1330
aVget
p1331
aVyou
p1332
aVon
p1333
aVthe
p1334
aVphone
p1335
aVall
p1336
aVmorning
p1337
aV.
aa(lp1338
Vhere
p1339
aV,
aVlet
p1340
aVme
p1341
aVget
p1342
aVyou
p1343
aVa
aVdrink.\u201d
p1344
aVhe
p1345
aVsaw
p1346
aVthen
p1347
aV,
aVlike
p1348
aVany
p1349
aVexplorer
p1350
aV,
aVthat
p1351
aVthe
p1352
aVhospitable
p1353
aVcustoms
p1354
aVand
p1355
aVtraditions
p1356
aVof
p1357
aVthe
p1358
aVnatives
p1359
aVwould
p1360
aVhave
p1361
aVto
p1362
aVbe
p1363
aVhandled
p1364
aVwith
p1365
aVdiplo-
p1366
aVmacy
p1367
aVif
p1368
aVhe
p1369
aVwas
p1370
aVever
p1371
aVgoing
p1372
aVto
p1373
aVreach
p1374
aVhis
p1375
aVdestination
p1376
aV.
aa(lp1377
Vhe
p1378
aVdid
p1379
aVnot
p1380
aVwant
p1381
aVto
p1382
aVmystify
p1383
aVor
p1384
aVseem
p1385
aVrude
p1386
aVto
p1387
aVthe
p1388
aVgrahams
p1389
aVnor
p1390
aVdid
p1391
aVhe
p1392
aVhave
p1393
aVthe
p1394
aVtime
p1395
aVto
p1396
aVlinger
p1397
aVthere
p1398
aV.
aa(lp1399
Vhe
p1400
aVswam
p1401
aVthe
p1402
aVlength
p1403
aVof
p1404
aVtheir
p1405
aVpool
p1406
aVand
p1407
aVjoined
p1408
aVthem
p1409
aVin
p1410
aVthe
p1411
aVsun
p1412
aVand
p1413
aVwas
p1414
aVrescued
p1415
aV,
aVa
aVfew
p1416
aVminutes
p1417
aVlater
p1418
aV,
aVby
p1419
aVthe
p1420
aVarrival
p1421
aVof
p1422
aVtwo
p1423
aVcarloads
p1424
aVof
p1425
aVfriends
p1426
aVfrom
p1427
aVconnecticut
p1428
aV.
aa(lp1429
Vduring
p1430
aVthe
p1431
aVuproarious
p1432
aVreunions
p1433
aVhe
p1434
aVwas
p1435
aVable
p1436
aVto
p1437
aVslip
p1438
aVaway
p1439
aV.
aa(lp1440
Vhe
p1441
aVwent
p1442
aVdown
p1443
aVby
p1444
aVthe
p1445
aVfront
p1446
aVof
p1447
aVthe
p1448
aVgrahams\u2019
p1449
aVhouse
p1450
aV,
aVstepped
p1451
aVover
p1452
aVa
aVthorny
p1453
aVhedge
p1454
aV,
aVand
p1455
aVcrossed
p1456
aVa
aVvacant
p1457
aVlot
p1458
aVto
p1459
aVthe
p1460
aVhammers\u2019
p1461
aV.
aa(lp1462
Vmrs.
p1463
aVhammer
p1464
aV,
aVlooking
p1465
aVup
p1466
aVfrom
p1467
aVher
p1468
aVroses
p1469
aV,
aVsaw
p1470
aVhim
p1471
aVswim
p1472
aVby
p1473
aValthough
p1474
aVshe
p1475
aVwasn\u2019t
p1476
aVquite
p1477
aVsure
p1478
aVwho
p1479
aVit
p1480
aVwas
p1481
aV.
aa(lp1482
Vthe
p1483
aVlears
p1484
aVheard
p1485
aVhim
p1486
aVsplashing
p1487
aVpast
p1488
aVthe
p1489
aVopen
p1490
aVwindows
p1491
aVof
p1492
aVtheir
p1493
aVliving
p1494
aVroom
p1495
aV.
aa(lp1496
Vthe
p1497
aVhowlands
p1498
aVand
p1499
aVthe
p1500
aVcrosscups
p1501
aVwere
p1502
aVaway
p1503
aV.
aa(lp1504
Vafter
p1505
aVleaving
p1506
aVthe
p1507
aVhow
p1508
aV-
aVlands\u2019
p1509
aVhe
p1510
aVcrossed
p1511
aVditmar
p1512
aVstreet
p1513
aVand
p1514
aVstarted
p1515
aVfor
p1516
aVthe
p1517
aVbunkers\u2019
p1518
aV,
aVwhere
p1519
aVhe
p1520
aVcould
p1521
aVhear
p1522
aV,
aVeven
p1523
aVat
p1524
aVthat
p1525
aVdistance
p1526
aV,
aVthe
p1527
aVnoise
p1528
aVof
p1529
aVa
aVparty
p1530
aV.
aa(lp1531
Vthe
p1532
aVwater
p1533
aVrefracted
p1534
aVthe
p1535
aVsound
p1536
aVof
p1537
aVvoices
p1538
aVand
p1539
aVlaughter
p1540
aVand
p1541
aVseemed
p1542
aVto
p1543
aVsuspend
p1544
aVit
p1545
aVin
p1546
aVmidair
p1547
aV.
aa(lp1548
Vthe
p1549
aVbunkers\u2019
p1550
aVpool
p1551
aVwas
p1552
aVon
p1553
aVa
aVrise
p1554
aVand
p1555
aVhe
p1556
aVclimbed
p1557
aVsome
p1558
aVstairs
p1559
aVto
p1560
aVa
aVterrace
p1561
aVwhere
p1562
aVtwenty-\ufb01ve
p1563
aVor
p1564
aVthirty
p1565
aVmen
p1566
aVand
p1567
aVwomen
p1568
aVwere
p1569
aVdrinking
p1570
aV.
aa(lp1571
Vthe
p1572
aVonly
p1573
aVperson
p1574
aVin
p1575
aVthe
p1576
aVwater
p1577
aVwas
p1578
aVrusty
p1579
aVtowers
p1580
aV,
aVwho
p1581
aV\ufb02oated
p1582
aVthere
p1583
aVon
p1584
aVa
aVrubber
p1585
aVraft
p1586
aV.
aa(lp1587
Voh
p1588
aV,
aVhow
p1589
aVbonny
p1590
aVand
p1591
aVlush
p1592
aVwere
p1593
aVthe
p1594
aVbanks
p1595
aVof
p1596
aVthe
p1597
aVlucinda
p1598
aVriver
p1599
aV!
aa(lp1600
Vprosperous
p1601
aVmen
p1602
aVand
p1603
aVwomen
p1604
aVgathered
p1605
aVby
p1606
aVthe
p1607
aVsapphire-
p1608
aVcolored
p1609
aVwaters
p1610
aVwhile
p1611
aVcaterer\u2019s
p1612
aVmen
p1613
aVin
p1614
aVwhite
p1615
aVcoats
p1616
aVpassed
p1617
aVthem
p1618
aVcold
p1619
aVgin
p1620
aV.
aa(lp1621
Voverhead
p1622
aVa
aVred
p1623
aVde
p1624
aVhaviland
p1625
aVtrainer
p1626
aVwas
p1627
aVcircling
p1628
aVaround
p1629
aVand
p1630
aVaround
p1631
aVand
p1632
aVaround
p1633
aVin
p1634
aVthe
p1635
aVsky
p1636
aVwith
p1637
aVsomething
p1638
aVlike
p1639
aVthe
p1640
aVglee
p1641
aVof
p1642
aVa
aVchild
p1643
aVin
p1644
aVa
aVswing
p1645
aV.
aa(lp1646
Vned
p1647
aVfelt
p1648
aVa
aVpassing
p1649
aVaffection
p1650
aVfor
p1651
aVthe
p1652
aVscene
p1653
aV,
aVa
aVtenderness
p1654
aVfor
p1655
aVthe
p1656
aVgathering
p1657
aV,
aVas
p1658
aVif
p1659
aVit
p1660
aVwas
p1661
aVsomething
p1662
aVhe
p1663
aVmight
p1664
aVtouch
p1665
aV.
aa(lp1666
Vin
p1667
aVthe
p1668
aVdistance
p1669
aVhe
p1670
aVheard
p1671
aVth
p1672
aVunder
p1673
aV.
aa(lp1674
Vas
p1675
aVsoon
p1676
aVas
p1677
aVenid
p1678
aVbunker
p1679
aVsaw
p1680
aVhim
p1681
aVshe
p1682
aVbegan
p1683
aVto
p1684
aVscream
p1685
aV:
aV\u201coh
p1686
aV,
aVlook
p1687
aVwho\u2019s
p1688
aVhere
p1689
aV!
aa(lp1690
Vwhat
p1691
aVa
aVmarvelous
p1692
aVsurprise
p1693
aV!
aa(lp1694
Vwhen
p1695
aVlucinda
p1696
aVsaid
p1697
aVthat
p1698
aVyou
p1699
aVcouldn\u2019t
p1700
aVcome
p1701
aVi
aVthought
p1702
aVi\u2019d
p1703
aVdie.\u201d
p1704
aVshe
p1705
aVmade
p1706
aVher
p1707
aVway
p1708
aVto
p1709
aVhim
p1710
aVthrough
p1711
aVthe
p1712
aVcrowd
p1713
aV,
aVand
p1714
aVwhen
p1715
aVthey
p1716
aVhad
p1717
aV\ufb01nished
p1718
aVkissing
p1719
aVshe
p1720
aVled
p1721
aVhim
p1722
aVto
p1723
aVthe
p1724
aVbar
p1725
aV,
aVa
aVprog
p1726
aVress
p1727
aVthat
p1728
aVwas
p1729
aVslowed
p1730
aVby
p1731
aVthe
p1732
aVfact
p1733
aVthat
p1734
aVhe
p1735
aVstopped
p1736
aVto
p1737
aVkiss
p1738
aVeight
p1739
aVor
p1740
aVten
p1741
aVother
p1742
aVwomen
p1743
aVand
p1744
aVshake
p1745
aVthe
p1746
aVhands
p1747
aVof
p1748
aVas
p1749
aVmany
p1750
aVmen
p1751
aV.
aa(lp1752
Va
aVsmiling
p1753
aVbartender
p1754
aVhe
p1755
aVhad
p1756
aVseen
p1757
aVat
p1758
aVa
aVhundred
p1759
aVparties
p1760
aVgave
p1761
aVhim
p1762
aVa
aVgin
p1763
aVand
p1764
aVtonic
p1765
aVand
p1766
aVhe
p1767
aVstood
p1768
aVby
p1769
aVthe
p1770
aVbar
p1771
aVfor
p1772
aVa
aVmoment
p1773
aV,
aVanxious
p1774
aVnot
p1775
aVto
p1776
aVget
p1777
aVstuck
p1778
aVin
p1779
aVany
p1780
aVconversation
p1781
aVthat
p1782
aVwould
p1783
aVdelay
p1784
aVhis
p1785
aVvoyage
p1786
aV.
aa(lp1787
Vwhen
p1788
aVhe
p1789
aVseemed
p1790
aVabout
p1791
aVto
p1792
aVbe
p1793
aVsur-
p1794
aVrounded
p1795
aVhe
p1796
aVdove
p1797
aVin
p1798
aVand
p1799
aVswam
p1800
aVclose
p1801
aVto
p1802
aVthe
p1803
aVside
p1804
aVto
p1805
aVavoid
p1806
aVcol
p1807
aV-
aVliding
p1808
aVwith
p1809
aVrusty\u2019s
p1810
aVraft
p1811
aV.
aa(lp1812
Vat
p1813
aVthe
p1814
aVfar
p1815
aVend
p1816
aVof
p1817
aVthe
p1818
aVpool
p1819
aVhe
p1820
aVbypassed
p1821
aVthe
p1822
aVtomlinsons
p1823
aVwith
p1824
aVa
aVbroad
p1825
aVsmile
p1826
aVand
p1827
aVjogged
p1828
aVup
p1829
aVthe
p1830
aVgarden
p1831
aVpath
p1832
aV.
aa(lp1833
Vthe
p1834
aVgravel
p1835
aVcut
p1836
aVhis
p1837
aVfeet
p1838
aVbut
p1839
aVthis
p1840
aVwas
p1841
aVthe
p1842
aVonly
p1843
aVunpleasant-
p1844
aVness
p1845
aV.
aa(lp1846
Vthe
p1847
aVparty
p1848
aVwas
p1849
aVcon\ufb01ned
p1850
aVto
p1851
aVthe
p1852
aVpool
p1853
aV,
aVand
p1854
aVas
p1855
aVhe
p1856
aVwent
p1857
aVtoward
p1858
aVthe
p1859
aVhouse
p1860
aVhe
p1861
aVheard
p1862
aVthe
p1863
aVbrilliant
p1864
aV,
aVwatery
p1865
aVsound
p1866
aVof
p1867
aVvoices
p1868
aVfade
p1869
aV,
aVheard
p1870
aVthe
p1871
aVnoise
p1872
aVof
p1873
aVa
aVradio
p1874
aVfrom
p1875
aVthe
p1876
aVbunkers\u2019
p1877
aVkitchen
p1878
aV,
aVwhere
p1879
aVsomeone
p1880
aVwas
p1881
aVlistening
p1882
aVto
p1883
aVa
aVball
p1884
aVgame
p1885
aV.
aa(lp1886
Vsunday
p1887
aVafter
p1888
aV-
aVnoon
p1889
aV.
aa(lp1890
Vhe
p1891
aVmade
p1892
aVhis
p1893
aVway
p1894
aVthrough
p1895
aVthe
p1896
aVparked
p1897
aVcars
p1898
aVand
p1899
aVdown
p1900
aVthe
p1901
aVgrassy
p1902
aVb
aVorder
p1903
aVof
p1904
aVtheir
p1905
aVdriveway
p1906
aVto
p1907
aValewives
p1908
aVlane
p1909
aV.
aa(lp1910
Vhe
p1911
aVdid
p1912
aVnot
p1913
aVwant
p1914
aVto
p1915
aVbe
p1916
aVseen
p1917
aVon
p1918
aVthe
p1919
aVroad
p1920
aVin
p1921
aVhis
p1922
aVbathing
p1923
aVtrunks
p1924
aVbut
p1925
aVthere
p1926
aVwas
p1927
aVno
p1928
aVtraf\ufb01c
p1929
aVand
p1930
aVhe
p1931
aVmade
p1932
aVthe
p1933
aVshort
p1934
aVdistance
p1935
aVto
p1936
aVthe
p1937
aVlevys\u2019
p1938
aVdriveway
p1939
aV,
aVmarked
p1940
aVwith
p1941
aVa
aVprivate
p1942
aVproperty
p1943
aVsign
p1944
aVand
p1945
aVa
aVgreen
p1946
aVtube
p1947
aVfor
p1948
aVthe
p1949
aVnew
p1950
aVyork
p1951
aVtimes
p1952
aV.
aa(lp1953
Vall
p1954
aVthe
p1955
aVdoors
p1956
aVand
p1957
aVwindows
p1958
aVof
p1959
aVthe
p1960
aVbig
p1961
aVhouse
p1962
aVwere
p1963
aVopen
p1964
aVbut
p1965
aVthere
p1966
aVwere
p1967
aVno
p1968
aVsigns
p1969
aVof
p1970
aVlife
p1971
aV;
aVnot
p1972
aVeven
p1973
aVa
aVdog
p1974
aVbarked
p1975
aV.
aa(lp1976
Vhe
p1977
aVwent
p1978
aVaround
p1979
aVthe
p1980
aVside
p1981
aVof
p1982
aVthe
p1983
aVhouse
p1984
aVto
p1985
aVthe
p1986
aVpool
p1987
aVand
p1988
aVsaw
p1989
aVthat
p1990
aVthe
p1991
aVlevys
p1992
aVhad
p1993
aVonly
p1994
aVrecently
p1995
aVleft
p1996
aV.
aa(lp1997
Vglasses
p1998
aVand
p1999
aVbottles
p2000
aVand
p2001
aVdishes
p2002
aVof
p2003
aVnuts
p2004
aVwere
p2005
aVon
p2006
aVa
aVtable
p2007
aVat
p2008
aVthe
p2009
aVdeep
p2010
aVend
p2011
aV,
aVwhere
p2012
aVthere
p2013
aVwas
p2014
aVa
aVbathhouse
p2015
aVor
p2016
aVgazebo
p2017
aV,
aVhung
p2018
aVwith
p2019
aVjapanese
p2020
aVlanterns
p2021
aV.
aa(lp2022
Vafter
p2023
aVswimming
p2024
aVthe
p2025
aVpool
p2026
aVhe
p2027
aVgot
p2028
aVhimself
p2029
aVa
aVglass
p2030
aVand
p2031
aVpoured
p2032
aVa
aVdrink
p2033
aV.
aa(lp2034
Vit
p2035
aVwas
p2036
aVhis
p2037
aVfourth
p2038
aVor
p2039
aV\ufb01fth
p2040
aVdrink
p2041
aVand
p2042
aVhe
p2043
aVhad
p2044
aVswum
p2045
aVnearly
p2046
aVhalf
p2047
aVthe
p2048
aVlength
p2049
aVof
p2050
aVthe
p2051
aVlucinda
p2052
aVriver
p2053
aV.
aa(lp2054
Vhe
p2055
aVfelt
p2056
aVtired
p2057
aV,
aVclean
p2058
aV,
aVand
p2059
aVpleased
p2060
aVat
p2061
aVthat
p2062
aVmoment
p2063
aVto
p2064
aVbe
p2065
aValone
p2066
aV;
aVpleased
p2067
aVwith
p2068
aVeverything
p2069
aV.
aa(lp2070
Vit
p2071
aVwould
p2072
aVstorm
p2073
aV.
aa(lp2074
Vthe
p2075
aVstand
p2076
aVof
p2077
aVcumulus
p2078
aVcloud\u2014
p2079
aVthat
p2080
aVcity\u2014
p2081
aVhad
p2082
aVrisen
p2083
aVand
p2084
aVdarkened
p2085
aV,
aVand
p2086
aVwhile
p2087
aVhe
p2088
aVsat
p2089
aVthere
p2090
aVhe
p2091
aVheard
p2092
aVthe
p2093
aVpercussiveness
p2094
aVof
p2095
aVth
p2096
aVunder
p2097
aVagain
p2098
aV.
aa(lp2099
Vthe
p2100
aVde
p2101
aVhaviland
p2102
aVtrainer
p2103
aVwas
p2104
aVstill
p2105
aVcircling
p2106
aVoverhead
p2107
aVand
p2108
aVit
p2109
aVseemed
p2110
aVto
p2111
aVned
p2112
aVthat
p2113
aVhe
p2114
aVcould
p2115
aValmost
p2116
aVhear
p2117
aVthe
p2118
aVpilot
p2119
aVlaugh
p2120
aVwith
p2121
aVplea
p2122
aVsure
p2123
aVin
p2124
aVthe
p2125
aVafternoon
p2126
aV;
aVbut
p2127
aVwhen
p2128
aVthere
p2129
aVwas
p2130
aVan
p2131
aVother
p2132
aVpeal
p2133
aVof
p2134
aVth
p2135
aVunder
p2136
aVhe
p2137
aVtook
p2138
aVoff
p2139
aVfor
p2140
aVhome
p2141
aV.
aa(lp2142
Va
aVtrain
p2143
aVwhistle
p2144
aVblew
p2145
aVand
p2146
aVhe
p2147
aVwondered
p2148
aVwhat
p2149
aVtime
p2150
aVit
p2151
aVhad
p2152
aVgotten
p2153
aVto
p2154
aVbe
p2155
aV.
aa(lp2156
Vfour
p2157
aV?
aa(lp2158
Vfive
p2159
aV?
aa(lp2160
Vhe
p2161
aVthought
p2162
aVof
p2163
aVthe
p2164
aVprovincial
p2165
aVstation
p2166
aVat
p2167
aVthat
p2168
aVhour
p2169
aV,
aVwhere
p2170
aVa
aVwaiter
p2171
aV,
aVhis
p2172
aVtuxedo
p2173
aVconcealed
p2174
aVby
p2175
aVa
aVraincoat
p2176
aV,
aVa
aVdwarf
p2177
aVwith
p2178
aVsome
p2179
aV\ufb02owers
p2180
aVwrapped
p2181
aVin
p2182
aVnews
p2183
aVpaper
p2184
aV,
aVand
p2185
aVa
aVwoman
p2186
aVwho
p2187
aVhad
p2188
aVbeen
p2189
aVcrying
p2190
aVwould
p2191
aVbe
p2192
aVwaiting
p2193
aVfor
p2194
aVthe
p2195
aVlocal
p2196
aV.
aa(lp2197
Vit
p2198
aVwas
p2199
aVsuddenly
p2200
aVgrowing
p2201
aVdark
p2202
aV;
aVit
p2203
aVwas
p2204
aVthat
p2205
aVmoment
p2206
aVwhen
p2207
aVthe
p2208
aVpin-
p2209
aVheaded
p2210
aVbirds
p2211
aVseem
p2212
aVto
p2213
aVorganize
p2214
aVtheir
p2215
aVsong
p2216
aVinto
p2217
aVsome
p2218
aVacute
p2219
aVand
p2220
aVthe
p2221
aVstories
p2222
aVof
p2223
aVjohn
p2224
aVcheever
p2225
aVknowl
p2226
aVedgeable
p2227
aVrecognition
p2228
aVof
p2229
aVthe
p2230
aVstorm\u2019s
p2231
aVapproach
p2232
aV.
aa(lp2233
Vthen
p2234
aVthere
p2235
aVwas
p2236
aVa
aV\ufb01ne
p2237
aVnoise
p2238
aVof
p2239
aVrushing
p2240
aVwater
p2241
aVfrom
p2242
aVthe
p2243
aVcrown
p2244
aVof
p2245
aVan
p2246
aVoak
p2247
aVat
p2248
aVhis
p2249
aVback
p2250
aV,
aVas
p2251
aVif
p2252
aVa
aVspigot
p2253
aVthere
p2254
aVhad
p2255
aVbeen
p2256
aVturned
p2257
aV.
aa(lp2258
Vthen
p2259
aVthe
p2260
aVnoise
p2261
aVof
p2262
aVfountains
p2263
aVcame
p2264
aVfrom
p2265
aVthe
p2266
aVcrowns
p2267
aVof
p2268
aVall
p2269
aVthe
p2270
aVtall
p2271
aVtrees
p2272
aV.
aa(lp2273
Vwhy
p2274
aVdid
p2275
aVhe
p2276
aVlove
p2277
aVstorms
p2278
aV,
aVwhat
p2279
aVwas
p2280
aVthe
p2281
aVmeaning
p2282
aVof
p2283
aVhis
p2284
aVexcite-
p2285
aVment
p2286
aVwhen
p2287
aVthe
p2288
aVdoor
p2289
aVsprang
p2290
aVopen
p2291
aVand
p2292
aVthe
p2293
aVrain
p2294
aVwind
p2295
aV\ufb02ed
p2296
aVrudely
p2297
aVup
p2298
aVthe
p2299
aVstairs
p2300
aV,
aVwhy
p2301
aVhad
p2302
aVthe
p2303
aVsimple
p2304
aVtask
p2305
aVof
p2306
aVshutting
p2307
aVthe
p2308
aVwindows
p2309
aVof
p2310
aVan
p2311
aVold
p2312
aVhouse
p2313
aVseemed
p2314
aV\ufb01tting
p2315
aVand
p2316
aVurgent
p2317
aV,
aVwhy
p2318
aVdid
p2319
aVthe
p2320
aV\ufb01rst
p2321
aVwatery
p2322
aVnotes
p2323
aVof
p2324
aVa
aVstorm
p2325
aVwind
p2326
aVhave
p2327
aVfor
p2328
aVhim
p2329
aVthe
p2330
aVunmistakable
p2331
aVsound
p2332
aVof
p2333
aVgood
p2334
aVnews
p2335
aV,
aVcheer
p2336
aV,
aVglad
p2337
aVtidings
p2338
aV?
aa(lp2339
Vthen
p2340
aVthere
p2341
aVwas
p2342
aVan
p2343
aVexplosion
p2344
aV,
aVa
aVsmell
p2345
aVof
p2346
aVcordite
p2347
aV,
aVand
p2348
aVrain
p2349
aVlashed
p2350
aVthe
p2351
aVjapanese
p2352
aVlanterns
p2353
aVthat
p2354
aVmrs.
p2355
aVlevy
p2356
aVhad
p2357
aVbought
p2358
aVin
p2359
aVkyoto
p2360
aVthe
p2361
aVyear
p2362
aVbefore
p2363
aVlast
p2364
aV,
aVor
p2365
aVwas
p2366
aVit
p2367
aVthe
p2368
aVyear
p2369
aVbefore
p2370
aVthat
p2371
aV?
aa(lp2372
Vhe
p2373
aVstayed
p2374
aVin
p2375
aVthe
p2376
aVlevys\u2019
p2377
aVgazebo
p2378
aVuntil
p2379
aVthe
p2380
aVstorm
p2381
aVhad
p2382
aVpassed
p2383
aV.
aa(lp2384
Vthe
p2385
aVrain
p2386
aVhad
p2387
aVcooled
p2388
aVthe
p2389
aVair
p2390
aVand
p2391
aVhe
p2392
aVshivered
p2393
aV.
aa(lp2394
Vthe
p2395
aVforce
p2396
aVof
p2397
aVthe
p2398
aVwind
p2399
aVhad
p2400
aVstripped
p2401
aVa
aVmaple
p2402
aVof
p2403
aVits
p2404
aVred
p2405
aVand
p2406
aVyellow
p2407
aVleaves
p2408
aVand
p2409
aVscattered
p2410
aVthem
p2411
aVover
p2412
aVthe
p2413
aVgrass
p2414
aVand
p2415
aVthe
p2416
aVwater
p2417
aV.
aa(lp2418
Vsince
p2419
aVit
p2420
aVwas
p2421
aVmid-
p2422
aVsummer
p2423
aVthe
p2424
aVtree
p2425
aVmust
p2426
aVbe
p2427
aVblighted
p2428
aV,
aVand
p2429
aVyet
p2430
aVhe
p2431
aVfelt
p2432
aVa
aVpeculiar
p2433
aVsadness
p2434
aVat
p2435
aVthis
p2436
aVsign
p2437
aVof
p2438
aVautumn
p2439
aV.
aa(lp2440
Vhe
p2441
aVbraced
p2442
aVhis
p2443
aVshoulders
p2444
aV,
aVemp-
p2445
aVtied
p2446
aVhis
p2447
aVglass
p2448
aV,
aVand
p2449
aVstarted
p2450
aVfor
p2451
aVthe
p2452
aVwelchers\u2019
p2453
aVpool
p2454
aV.
aa(lp2455
Vthis
p2456
aVmeant
p2457
aVcrossing
p2458
aVthe
p2459
aVlindleys\u2019
p2460
aVriding
p2461
aVring
p2462
aVand
p2463
aVhe
p2464
aVwas
p2465
aVsurprised
p2466
aVto
p2467
aV\ufb01nd
p2468
aVit
p2469
aVovergrown
p2470
aVwith
p2471
aVgrass
p2472
aVand
p2473
aVall
p2474
aVthe
p2475
aVjumps
p2476
aVdismantled
p2477
aV.
aa(lp2478
Vhe
p2479
aVwon-
p2480
aVdered
p2481
aVif
p2482
aVthe
p2483
aVlindleys
p2484
aVhad
p2485
aVsold
p2486
aVtheir
p2487
aVhorses
p2488
aVor
p2489
aVgone
p2490
aVaway
p2491
aVfor
p2492
aVthe
p2493
aVsummer
p2494
aVand
p2495
aVput
p2496
aVthem
p2497
aVout
p2498
aVto
p2499
aVboard
p2500
aV.
aa(lp2501
Vhe
p2502
aVseemed
p2503
aVto
p2504
aVremember
p2505
aVhaving
p2506
aVheard
p2507
aVsomething
p2508
aVabout
p2509
aVthe
p2510
aVlindleys
p2511
aVand
p2512
aVtheir
p2513
aVhorses
p2514
aVbut
p2515
aVthe
p2516
aVmemory
p2517
aVwas
p2518
aVunclear
p2519
aV.
aa(lp2520
Von
p2521
aVhe
p2522
aVwent
p2523
aV,
aVbarefoot
p2524
aVthrough
p2525
aVthe
p2526
aVwet
p2527
aVgrass
p2528
aV,
aVto
p2529
aVthe
p2530
aVwelchers\u2019
p2531
aV,
aVwhere
p2532
aVhe
p2533
aVfound
p2534
aVtheir
p2535
aVpool
p2536
aVwas
p2537
aVdry
p2538
aV.
aa(lp2539
Vthis
p2540
aVbreach
p2541
aVin
p2542
aVhis
p2543
aVchain
p2544
aVof
p2545
aVwater
p2546
aVdisappointed
p2547
aVhim
p2548
aVabsurdly
p2549
aV,
aVand
p2550
aVhe
p2551
aVfelt
p2552
aVlike
p2553
aVsome
p2554
aVexplorer
p2555
aVwho
p2556
aVseeks
p2557
aVa
aVtorrential
p2558
aVhead
p2559
aVwater
p2560
aVand
p2561
aV\ufb01nds
p2562
aVa
aVdead
p2563
aVstream
p2564
aV.
aa(lp2565
Vhe
p2566
aVwas
p2567
aVdisappointed
p2568
aVand
p2569
aVmysti\ufb01ed
p2570
aV.
aa(lp2571
Vit
p2572
aVwas
p2573
aVcommon
p2574
aVenough
p2575
aVto
p2576
aVgo
p2577
aVaway
p2578
aVfor
p2579
aVthe
p2580
aVsummer
p2581
aVbut
p2582
aVno
p2583
aVone
p2584
aVever
p2585
aVdrained
p2586
aVhis
p2587
aVpool
p2588
aV.
aa(lp2589
Vthe
p2590
aVwelchers
p2591
aVhad
p2592
aVde\ufb01nitely
p2593
aVgone
p2594
aVaway
p2595
aV.
aa(lp2596
Vthe
p2597
aVpool
p2598
aVfurniture
p2599
aVwas
p2600
aVfolded
p2601
aV,
aVstacked
p2602
aV,
aVand
p2603
aVcovered
p2604
aVwith
p2605
aVa
aVtar-
p2606
aVpaulin
p2607
aV.
aa(lp2608
Vthe
p2609
aVbathhouse
p2610
aVwas
p2611
aVlocked
p2612
aV.
aa(lp2613
Vall
p2614
aVthe
p2615
aVwindows
p2616
aVof
p2617
aVthe
p2618
aVhouse
p2619
aVwere
p2620
aVshut
p2621
aV,
aVand
p2622
aVwhen
p2623
aVhe
p2624
aVwent
p2625
aVaround
p2626
aVto
p2627
aVthe
p2628
aVdriveway
p2629
aVin
p2630
aVfront
p2631
aVhe
p2632
aVsaw
p2633
aVa
aVfor
p2634
aVsale
p2635
aVsign
p2636
aVnailed
p2637
aVto
p2638
aVa
aVtree
p2639
aV.
aa(lp2640
Vwhen
p2641
aVhad
p2642
aVhe
p2643
aVlast
p2644
aVheard
p2645
aVfrom
p2646
aVthe
p2647
aVwelchers\u2014
p2648
aVwhen
p2649
aV,
aVthat
p2650
aVis
p2651
aV,
aVhad
p2652
aVhe
p2653
aVand
p2654
aVlucinda
p2655
aVlast
p2656
aVregretted
p2657
aVan
p2658
aVinvitation
p2659
aVto
p2660
aVdine
p2661
aVwith
p2662
aVthem
p2663
aV?
aa(lp2664
Vit
p2665
aVseemed
p2666
aVonly
p2667
aVa
aVweek
p2668
aVor
p2669
aVso
p2670
aVago
p2671
aV.
aa(lp2672
Vwas
p2673
aVhis
p2674
aVmemory
p2675
aVfailing
p2676
aVor
p2677
aVhad
p2678
aVhe
p2679
aVso
p2680
aVdisci-
p2681
aVplined
p2682
aVit
p2683
aVin
p2684
aVthe
p2685
aVrepression
p2686
aVof
p2687
aVunpleasant
p2688
aVfacts
p2689
aVthat
p2690
aVhe
p2691
aVhad
p2692
aVdam-
p2693
aVaged
p2694
aVhis
p2695
aVsense
p2696
aVof
p2697
aVthe
p2698
aVtruth
p2699
aV?
aa(lp2700
Vthen
p2701
aVin
p2702
aVthe
p2703
aVdistance
p2704
aVhe
p2705
aVheard
p2706
aVthe
p2707
aVsound
p2708
aVof
p2709
aVa
aVtennis
p2710
aVgame
p2711
aV.
aa(lp2712
Vthis
p2713
aVcheered
p2714
aVhim
p2715
aV,
aVcleared
p2716
aVaway
p2717
aVall
p2718
aVhis
p2719
aVapprehensions
p2720
aVand
p2721
aVlet
p2722
aVhim
p2723
aVregard
p2724
aVthe
p2725
aVovercast
p2726
aVsky
p2727
aVand
p2728
aVthe
p2729
aVcold
p2730
aVair
p2731
aVwith
p2732
aVindifference
p2733
aV.
aa(lp2734
Vthis
p2735
aVwas
p2736
aVthe
p2737
aVday
p2738
aVthat
p2739
aVneddy
p2740
aVmerrill
p2741
aVswam
p2742
aVacross
p2743
aVthe
p2744
aVcounty
p2745
aV.
aa(lp2746
Vthat
p2747
aVwas
p2748
aVthe
p2749
aVday
p2750
aV!
aa(lp2751
Vhe
p2752
aVstarted
p2753
aVoff
p2754
aVthen
p2755
aVfor
p2756
aVhis
p2757
aVmost
p2758
aVdif\ufb01cult
p2759
aVportage
p2760
aV.
aa(lp2761
Vhad
p2762
aVyou
p2763
aVgone
p2764
aVfor
p2765
aVa
aVsunday
p2766
aVafternoon
p2767
aVride
p2768
aVthat
p2769
aVday
p2770
aVyou
p2771
aVmight
p2772
aVhave
p2773
aVseen
p2774
aVhim
p2775
aV,
aVclose
p2776
aVto
p2777
aVnaked
p2778
aV,
aVstanding
p2779
aVon
p2780
aVthe
p2781
aVshoulders
p2782
aVof
p2783
aVroute
p2784
aV424
p2785
aV,
aVwaiting
p2786
aVfor
p2787
aVa
aVchance
p2788
aVto
p2789
aVcross
p2790
aV.
aa(lp2791
Vyou
p2792
aVmight
p2793
aVhave
p2794
aVwondered
p2795
aVif
p2796
aVhe
p2797
aVwas
p2798
aVthe
p2799
aVvictim
p2800
aVof
p2801
aVfoul
p2802
aVplay
p2803
aV,
aVhad
p2804
aVhis
p2805
aVcar
p2806
aVbroken
p2807
aVdown
p2808
aV,
aVor
p2809
aVwas
p2810
aVhe
p2811
aVmerely
p2812
aVa
aVfool
p2813
aV.
aa(lp2814
Vstanding
p2815
aVbarefoot
p2816
aVin
p2817
aVthe
p2818
aVde-
p2819
aVposits
p2820
aVof
p2821
aVthe
p2822
aVhighway\u2014
p2823
aVbeer
p2824
aVcans
p2825
aV,
aVrags
p2826
aV,
aVand
p2827
aVblowout
p2828
aVpatches\u2014
p2829
aVexposed
p2830
aVto
p2831
aVall
p2832
aVkinds
p2833
aVof
p2834
aVridicule
p2835
aV,
aVhe
p2836
aVseemed
p2837
aVpitiful
p2838
aV.
aa(lp2839
Vhe
p2840
aVhad
p2841
aVknown
p2842
aVwhen
p2843
aVhe
p2844
aVstarted
p2845
aVthat
p2846
aVthis
p2847
aVwas
p2848
aVa
aVpart
p2849
aVof
p2850
aVhis
p2851
aVjourney\u2014
p2852
aVit
p2853
aVhad
p2854
aVbeen
p2855
aVon
p2856
aVhis
p2857
aVmaps\u2014
p2858
aVbut
p2859
aVconfronted
p2860
aVwith
p2861
aVthe
p2862
aVlines
p2863
aVof
p2864
aVtraf\ufb01c
p2865
aV,
aVworming
p2866
aVthrough
p2867
aVthe
p2868
aVsummery
p2869
aVlight
p2870
aV,
aVhe
p2871
aVfound
p2872
aVhimself
p2873
aVunpre-
p2874
aVpared
p2875
aV.
aa(lp2876
Vhe
p2877
aVwas
p2878
aVlaughed
p2879
aVat
p2880
aV,
aVjeered
p2881
aVat
p2882
aV,
aVa
aVbeer
p2883
aVcan
p2884
aVwas
p2885
aVthrown
p2886
aVat
p2887
aVhim
p2888
aV,
aVand
p2889
aVhe
p2890
aVhad
p2891
aVno
p2892
aVdignity
p2893
aVor
p2894
aVhumor
p2895
aVto
p2896
aVbring
p2897
aVto
p2898
aVthe
p2899
aVsituation
p2900
aV.
aa(lp2901
Vhe
p2902
aVcould
p2903
aVhave
p2904
aVgone
p2905
aVback
p2906
aV,
aVback
p2907
aVto
p2908
aVthe
p2909
aVwesterhazys\u2019
p2910
aV,
aVwhere
p2911
aVlu
p2912
aV-
aVcinda
p2913
aVwould
p2914
aVstill
p2915
aVbe
p2916
aVsitting
p2917
aVin
p2918
aVthe
p2919
aVsun
p2920
aV.
aa(lp2921
Vhe
p2922
aVhad
p2923
aVsigned
p2924
aVnothing
p2925
aV,
aVvowed
p2926
aVnothing
p2927
aV,
aVpledged
p2928
aVnothing
p2929
aV,
aVnot
p2930
aVeven
p2931
aVto
p2932
aVhimself
p2933
aV.
aa(lp2934
Vwhy
p2935
aV,
aVbelieving
p2936
aVas
p2937
aVhe
p2938
aVdid
p2939
aV,
aVthat
p2940
aVall
p2941
aVhuman
p2942
aVobduracy
p2943
aVwas
p2944
aVsusceptible
p2945
aVto
p2946
aVcommon
p2947
aVsense
p2948
aV,
aVwas
p2949
aVhe
p2950
aVunable
p2951
aVto
p2952
aVturn
p2953
aVback
p2954
aV?
aa(lp2955
Vwhy
p2956
aVwas
p2957
aVhe
p2958
aVde-
p2959
aVtermined
p2960
aVto
p2961
aVcomplete
p2962
aVhis
p2963
aVjourney
p2964
aVeven
p2965
aVif
p2966
aVit
p2967
aVmeant
p2968
aVputting
p2969
aVhis
p2970
aVlife
p2971
aVin
p2972
aVdanger
p2973
aV?
aa(lp2974
Vat
p2975
aVwhat
p2976
aVpoint
p2977
aVhad
p2978
aVthis
p2979
aVprank
p2980
aV,
aVthis
p2981
aVjoke
p2982
aV,
aVthis
p2983
aVpiece
p2984
aVof
p2985
aVhorseplay
p2986
aVbecome
p2987
aVserious
p2988
aV?
aa(lp2989
Vhe
p2990
aVcould
p2991
aVnot
p2992
aVgo
p2993
aVback
p2994
aV,
aVhe
p2995
aVcould
p2996
aVnot
p2997
aVeven
p2998
aVrecall
p2999
aVwith
p3000
aVany
p3001
aVclearness
p3002
aVthe
p3003
aVgreen
p3004
aVwater
p3005
aVat
p3006
aVthe
p3007
aVwesterhazys\u2019
p3008
aV,
aVthe
p3009
aVsense
p3010
aVof
p3011
aVinhaling
p3012
aVthe
p3013
aVday\u2019s
p3014
aVcomponents
p3015
aV,
aVthe
p3016
aVfriendly
p3017
aVand
p3018
aVrelaxed
p3019
aVvoices
p3020
aVsaying
p3021
aVthat
p3022
aVthey
p3023
aVhad
p3024
aVdrunk
p3025
aVtoo
p3026
aVmuch
p3027
aV.
aa(lp3028
Vin
p3029
aVthe
p3030
aVspace
p3031
aVof
p3032
aVan
p3033
aVhour
p3034
aV,
aVmore
p3035
aVor
p3036
aVless
p3037
aV,
aVhe
p3038
aVhad
p3039
aVcovered
p3040
aVa
aVdistance
p3041
aVthat
p3042
aVmade
p3043
aVhis
p3044
aVreturn
p3045
aVimpossible
p3046
aV.
aa(lp3047
Van
p3048
aVold
p3049
aVman
p3050
aV,
aVtooling
p3051
aVdown
p3052
aVthe
p3053
aVhighway
p3054
aVat
p3055
aV\ufb01fteen
p3056
aVmiles
p3057
aVan
p3058
aVhour
p3059
aV,
aVlet
p3060
aVhim
p3061
aVget
p3062
aVto
p3063
aVthe
p3064
aVmiddle
p3065
aVof
p3066
aVthe
p3067
aVroad
p3068
aV,
aVwhere
p3069
aVthere
p3070
aVwas
p3071
aVa
aVgrass
p3072
aVdivider
p3073
aV.
aa(lp3074
Vhere
p3075
aVhe
p3076
aVwas
p3077
aVexposed
p3078
aVto
p3079
aVthe
p3080
aVridicule
p3081
aVof
p3082
aVthe
p3083
aVnorth
p3084
aV-
aVbound
p3085
aVtraf\ufb01c
p3086
aV,
aVbut
p3087
aVafter
p3088
aVten
p3089
aVor
p3090
aV\ufb01fteen
p3091
aVminutes
p3092
aVhe
p3093
aVwas
p3094
aVable
p3095
aVto
p3096
aVcross
p3097
aV.
aa(lp3098
Vfrom
p3099
aVhere
p3100
aVhe
p3101
aVhad
p3102
aVonly
p3103
aVa
aVshort
p3104
aVwalk
p3105
aVto
p3106
aVthe
p3107
aVrecreation
p3108
aVcenter
p3109
aVat
p3110
aVthe
p3111
aVedge
p3112
aVof
p3113
aVthe
p3114
aVvillage
p3115
aVof
p3116
aVlancaster
p3117
aV,
aVwhere
p3118
aVthere
p3119
aVwere
p3120
aVsome
p3121
aVhandball
p3122
aVcourts
p3123
aVand
p3124
aVa
aVpublic
p3125
aVpool
p3126
aV.
aa(lp3127
Vthe
p3128
aVstories
p3129
aVof
p3130
aVjohn
p3131
aVcheever
p3132
aVthe
p3133
aVeffect
p3134
aVof
p3135
aVthe
p3136
aVwater
p3137
aVon
p3138
aVvoices
p3139
aV,
aVthe
p3140
aVillusion
p3141
aVof
p3142
aVbrilliance
p3143
aVand
p3144
aVsuspense
p3145
aV,
aVwas
p3146
aVthe
p3147
aVsame
p3148
aVhere
p3149
aVas
p3150
aVit
p3151
aVhad
p3152
aVbeen
p3153
aVat
p3154
aVthe
p3155
aVbunkers\u2019
p3156
aVbut
p3157
aVthe
p3158
aVsounds
p3159
aVhere
p3160
aVwere
p3161
aVlouder
p3162
aV,
aVharsher
p3163
aV,
aVand
p3164
aVmore
p3165
aVshrill
p3166
aV,
aVand
p3167
aVas
p3168
aVsoon
p3169
aVas
p3170
aVhe
p3171
aVentered
p3172
aVthe
p3173
aVcrowded
p3174
aVenclosure
p3175
aVhe
p3176
aVwas
p3177
aVcon-
p3178
aVfronted
p3179
aVwith
p3180
aVregimentation
p3181
aV.
aa(lp3182
V\u201call
p3183
aVswimmers
p3184
aVmust
p3185
aVtake
p3186
aVa
aVshower
p3187
aVbefore
p3188
aVusing
p3189
aVthe
p3190
aVpool
p3191
aV.
aa(lp3192
Vall
p3193
aVswimmers
p3194
aVmust
p3195
aVuse
p3196
aVthe
p3197
aVfootbath
p3198
aV.
aa(lp3199
Vall
p3200
aVswimmers
p3201
aVmust
p3202
aVwear
p3203
aVtheir
p3204
aVidentifi-
p3205
aVcation
p3206
aVdisks.\u201d
p3207
aVhe
p3208
aVtook
p3209
aVa
aVshower
p3210
aV,
aVwashed
p3211
aVhis
p3212
aVfeet
p3213
aVin
p3214
aVa
aVcloudy
p3215
aVand
p3216
aVbitter
p3217
aVsolution
p3218
aV,
aVand
p3219
aVmade
p3220
aVhis
p3221
aVway
p3222
aVto
p3223
aVthe
p3224
aVedge
p3225
aVof
p3226
aVthe
p3227
aVwater
p3228
aV.
aa(lp3229
Vit
p3230
aVstank
p3231
aVof
p3232
aVchlorine
p3233
aVand
p3234
aVlooked
p3235
aVto
p3236
aVhim
p3237
aVlike
p3238
aVa
aVsink
p3239
aV.
aa(lp3240
Va
aVpair
p3241
aVof
p3242
aVlife-
p3243
aVguards
p3244
aVin
p3245
aVa
aVpair
p3246
aVof
p3247
aVtowers
p3248
aVblew
p3249
aVpolice
p3250
aVwhistles
p3251
aVat
p3252
aVwhat
p3253
aVseemed
p3254
aVto
p3255
aVbe
p3256
aVregular
p3257
aVintervals
p3258
aVand
p3259
aVabused
p3260
aVthe
p3261
aVswimmers
p3262
aVthrough
p3263
aVa
aVpublic
p3264
aVaddress
p3265
aVsystem
p3266
aV.
aa(lp3267
Vneddy
p3268
aVremembered
p3269
aVthe
p3270
aVsapphire
p3271
aVwater
p3272
aVat
p3273
aVthe
p3274
aVbunkers\u2019
p3275
aVwith
p3276
aVlonging
p3277
aVand
p3278
aVthought
p3279
aVthat
p3280
aVhe
p3281
aVmight
p3282
aVcon-
p3283
aVtaminate
p3284
aVhimself\u2014
p3285
aVdamage
p3286
aVhis
p3287
aVown
p3288
aVprosperousness
p3289
aVand
p3290
aVcharm
p3291
aV\u2014
aVby
p3292
aVswimming
p3293
aVin
p3294
aVthis
p3295
aVmurk
p3296
aV,
aVbut
p3297
aVhe
p3298
aVreminded
p3299
aVhimself
p3300
aVthat
p3301
aVhe
p3302
aVwas
p3303
aVan
p3304
aVexplorer
p3305
aV,
aVa
aVpilgrim
p3306
aV,
aVand
p3307
aVthat
p3308
aVthis
p3309
aVwas
p3310
aVmerely
p3311
aVa
aVstagnant
p3312
aVbend
p3313
aVin
p3314
aVthe
p3315
aVlucinda
p3316
aVriver
p3317
aV.
aa(lp3318
Vhe
p3319
aVdove
p3320
aV,
aVscowling
p3321
aVwith
p3322
aVdistaste
p3323
aV,
aVinto
p3324
aVthe
p3325
aVchlorine
p3326
aVand
p3327
aVhad
p3328
aVto
p3329
aVswim
p3330
aVwith
p3331
aVhis
p3332
aVhead
p3333
aVabove
p3334
aVwater
p3335
aVto
p3336
aVavoid
p3337
aVcollisions
p3338
aV,
aVbut
p3339
aVeven
p3340
aVso
p3341
aVhe
p3342
aVwas
p3343
aVbumped
p3344
aVinto
p3345
aV,
aVsplashed
p3346
aV,
aVand
p3347
aVjostled
p3348
aV.
aa(lp3349
Vwhen
p3350
aVhe
p3351
aVgot
p3352
aVto
p3353
aVthe
p3354
aVshallow
p3355
aVend
p3356
aVboth
p3357
aVlifeguards
p3358
aVwere
p3359
aVshouting
p3360
aVat
p3361
aVhim
p3362
aV:
aV\u201chey
p3363
aV,
aVyou
p3364
aV,
aVyou
p3365
aVwithout
p3366
aVthe
p3367
aVidenti\ufb01ca-
p3368
aVtion
p3369
aVdisk
p3370
aV,
aVget
p3371
aVouta
p3372
aVthe
p3373
aVwater.\u201d
p3374
aVhe
p3375
aVdid
p3376
aV,
aVbut
p3377
aVthey
p3378
aVhad
p3379
aVno
p3380
aVway
p3381
aVof
p3382
aVpursuing
p3383
aVhim
p3384
aVand
p3385
aVhe
p3386
aVwent
p3387
aVthrough
p3388
aVthe
p3389
aVreek
p3390
aVof
p3391
aVsuntan
p3392
aVoil
p3393
aVand
p3394
aVchlorine
p3395
aVout
p3396
aVthrough
p3397
aVthe
p3398
aVhurricane
p3399
aVfence
p3400
aVand
p3401
aVpassed
p3402
aVthe
p3403
aVhand-
p3404
aVball
p3405
aVcourts
p3406
aV.
aa(lp3407
Vby
p3408
aVcrossing
p3409
aVthe
p3410
aVroad
p3411
aVhe
p3412
aVentered
p3413
aVthe
p3414
aVwooded
p3415
aVpart
p3416
aVof
p3417
aVthe
p3418
aVhalloran
p3419
aVestate
p3420
aV.
aa(lp3421
Vthe
p3422
aVwoods
p3423
aVwere
p3424
aVnot
p3425
aVcleared
p3426
aVand
p3427
aVthe
p3428
aVfooting
p3429
aVwas
p3430
aVtreacherous
p3431
aVand
p3432
aVdif\ufb01cult
p3433
aVuntil
p3434
aVhe
p3435
aVreached
p3436
aVthe
p3437
aVlawn
p3438
aVand
p3439
aVthe
p3440
aVclipped
p3441
aVbeech
p3442
aVhedge
p3443
aVthat
p3444
aVencircled
p3445
aVtheir
p3446
aVpool
p3447
aV.
aa(lp3448
Vthe
p3449
aVhallorans
p3450
aVwere
p3451
aVfriends
p3452
aV,
aVan
p3453
aVelderly
p3454
aVcouple
p3455
aVof
p3456
aVenormous
p3457
aVwealth
p3458
aVwho
p3459
aVseemed
p3460
aVto
p3461
aVbask
p3462
aVin
p3463
aVthe
p3464
aVsuspicion
p3465
aVthat
p3466
aVthey
p3467
aVmight
p3468
aVbe
p3469
aVcommunists
p3470
aV.
aa(lp3471
Vthey
p3472
aVwere
p3473
aVzealous
p3474
aVreformers
p3475
aVbut
p3476
aVthey
p3477
aVwere
p3478
aVnot
p3479
aVcommunists
p3480
aV,
aVand
p3481
aVyet
p3482
aVwhen
p3483
aVthey
p3484
aVwere
p3485
aVaccused
p3486
aV,
aVas
p3487
aVthey
p3488
aVsome-
p3489
aVtimes
p3490
aVwere
p3491
aV,
aVof
p3492
aVsubversion
p3493
aV,
aVit
p3494
aVseemed
p3495
aVto
p3496
aVgratify
p3497
aVand
p3498
aVexcite
p3499
aVthem
p3500
aV.
aa(lp3501
Vtheir
p3502
aVbeech
p3503
aVhedge
p3504
aVwas
p3505
aVyellow
p3506
aVand
p3507
aVhe
p3508
aVguessed
p3509
aVthis
p3510
aVhad
p3511
aVbeen
p3512
aVblighted
p3513
aVlike
p3514
aVthe
p3515
aVlevys\u2019
p3516
aVmaple
p3517
aV.
aa(lp3518
Vhe
p3519
aVcalled
p3520
aVhullo
p3521
aV,
aVhullo
p3522
aV,
aVto
p3523
aVwarn
p3524
aVthe
p3525
aVhallorans
p3526
aVof
p3527
aVhis
p3528
aVapproach
p3529
aV,
aVto
p3530
aVpalliate
p3531
aVhis
p3532
aVinvasion
p3533
aVof
p3534
aVtheir
p3535
aVprivacy
p3536
aV.
aa(lp3537
Vthe
p3538
aVhallorans
p3539
aV,
aVfor
p3540
aVreasons
p3541
aVthat
p3542
aVhad
p3543
aVnever
p3544
aVbeen
p3545
aVex-
p3546
aVplained
p3547
aVto
p3548
aVhim
p3549
aV,
aVdid
p3550
aVnot
p3551
aVwear
p3552
aVbathing
p3553
aVsuits
p3554
aV.
aa(lp3555
Vno
p3556
aVexplanations
p3557
aVwere
p3558
aVin
p3559
aVorder
p3560
aV,
aVreally
p3561
aV.
aa(lp3562
Vtheir
p3563
aVnakedness
p3564
aVwas
p3565
aVa
aVdetail
p3566
aVin
p3567
aVtheir
p3568
aVun-
p3569
aVcompromising
p3570
aVzeal
p3571
aVfor
p3572
aVreform
p3573
aVand
p3574
aVhe
p3575
aVstepped
p3576
aVpolitely
p3577
aVout
p3578
aVof
p3579
aVhis
p3580
aVtrunks
p3581
aVbefore
p3582
aVhe
p3583
aVwent
p3584
aVthrough
p3585
aVthe
p3586
aVopening
p3587
aVin
p3588
aVthe
p3589
aVhedge
p3590
aV.
aa(lp3591
Vmrs.
p3592
aVhalloran
p3593
aV,
aVa
aVstout
p3594
aVwoman
p3595
aVwith
p3596
aVwhite
p3597
aVhair
p3598
aVand
p3599
aVa
aVserene
p3600
aVface
p3601
aV,
aVwas
p3602
aVreading
p3603
aVthe
p3604
aVtimes
p3605
aV.
aa(lp3606
Vmr.
p3607
aVhalloran
p3608
aVwas
p3609
aVtaking
p3610
aVbeech
p3611
aVleaves
p3612
aVout
p3613
aVof
p3614
aVthe
p3615
aVwater
p3616
aVwith
p3617
aVa
aVscoop
p3618
aV.
aa(lp3619
Vthey
p3620
aVseemed
p3621
aVnot
p3622
aVsur-
p3623
aVprised
p3624
aVor
p3625
aVdispleased
p3626
aVto
p3627
aVsee
p3628
aVhim
p3629
aV.
aa(lp3630
Vtheir
p3631
aVpool
p3632
aVwas
p3633
aVperhaps
p3634
aVthe
p3635
aVoldest
p3636
aVin
p3637
aVthe
p3638
aVcountry
p3639
aV,
aVa
aV\ufb01eldstone
p3640
aVrectangle
p3641
aV,
aVfed
p3642
aVby
p3643
aVa
aVbrook
p3644
aV.
aa(lp3645
Vit
p3646
aVhad
p3647
aVno
p3648
aV\ufb01lter
p3649
aVor
p3650
aVpump
p3651
aVand
p3652
aVits
p3653
aVwaters
p3654
aVwere
p3655
aVthe
p3656
aVopaque
p3657
aVgold
p3658
aVof
p3659
aVthe
p3660
aVstream
p3661
aV.
aa(lp3662
V\u201ci\u2019m
p3663
aVswimming
p3664
aVacross
p3665
aVthe
p3666
aVcounty
p3667
aV,
aV\u201d
aVned
p3668
aVsaid
p3669
aV.
aa(lp3670
V\u201cwhy
p3671
aV,
aVi
aVdidn\u2019t
p3672
aVknow
p3673
aVone
p3674
aVcould
p3675
aV,
aV\u201d
aVexclaimed
p3676
aVmrs.
p3677
aVhalloran
p3678
aV.
aa(lp3679
V\u201cwell
p3680
aV,
aVi\u2019ve
p3681
aVmade
p3682
aVit
p3683
aVfrom
p3684
aVthe
p3685
aVwesterhazys\u2019
p3686
aV,
aV\u201d
aVned
p3687
aVsaid
p3688
aV.
aa(lp3689
V\u201cthat
p3690
aVmust
p3691
aVbe
p3692
aVabout
p3693
aVfour
p3694
aVmiles.\u201d
p3695
aVhe
p3696
aVleft
p3697
aVhis
p3698
aVtrunks
p3699
aVat
p3700
aVthe
p3701
aVdeep
p3702
aVend
p3703
aV,
aVwalked
p3704
aVto
p3705
aVthe
p3706
aVshallow
p3707
aVend
p3708
aV,
aVand
p3709
aVswam
p3710
aVthis
p3711
aVstretch
p3712
aV.
aa(lp3713
Vas
p3714
aVhe
p3715
aVwas
p3716
aVpulling
p3717
aVhimself
p3718
aVout
p3719
aVof
p3720
aVthe
p3721
aVwater
p3722
aVhe
p3723
aVheard
p3724
aVmrs.
p3725
aVhalloran
p3726
aVsay
p3727
aV,
aV\u201cwe\u2019ve
p3728
aVbeen
p3729
aVterribly
p3730
aVsorry
p3731
aVto
p3732
aVhear
p3733
aVabout
p3734
aVall
p3735
aVyour
p3736
aVmisfortunes
p3737
aV,
aVneddy.\u201d
p3738
aV\u201cmy
p3739
aVmisfortunes
p3740
aV?
aV\u201d
aVned
p3741
aVasked
p3742
aV.
aa(lp3743
V\u201ci
p3744
aVdon\u2019t
p3745
aVknow
p3746
aVwhat
p3747
aVyou
p3748
aV\u201cyes
p3749
aV,
aV\u201d
aVmrs.
p3750
aVhalloran
p3751
aVsighed
p3752
aV.
aa(lp3753
V\u201cyes
p3754
aV.
aa(lp3755
V.
aa(lp3756
V.\u201d
p3757
aVher
p3758
aVvoice
p3759
aV\ufb01lled
p3760
aVthe
p3761
aVair
p3762
aVwith
p3763
aVan
p3764
aVunseasonable
p3765
aVmelancholy
p3766
aVand
p3767
aVned
p3768
aVspoke
p3769
aVbriskly
p3770
aV.
aa(lp3771
V\u201cthank
p3772
aVyou
p3773
aVfor
p3774
aVthe
p3775
aVswim.\u201d
p3776
aV\u201cwell
p3777
aV,
aVhave
p3778
aVa
aVnice
p3779
aVtrip
p3780
aV,
aV\u201d
aVsaid
p3781
aVmrs.
p3782
aVhalloran
p3783
aV.
aa(lp3784
Vbeyond
p3785
aVthe
p3786
aVhedge
p3787
aVhe
p3788
aVpulled
p3789
aVon
p3790
aVhis
p3791
aVtrunks
p3792
aVand
p3793
aVfastened
p3794
aVthem
p3795
aV.
aa(lp3796
Vthey
p3797
aVwere
p3798
aVloose
p3799
aVand
p3800
aVhe
p3801
aVwondered
p3802
aVif
p3803
aV,
aVduring
p3804
aVthe
p3805
aVspace
p3806
aVof
p3807
aVan
p3808
aVafternoon
p3809
aV,
aVhe
p3810
aVcould
p3811
aVhave
p3812
aVlost
p3813
aVsome
p3814
aVweight
p3815
aV.
aa(lp3816
Vhe
p3817
aVwas
p3818
aVcold
p3819
aVand
p3820
aVhe
p3821
aVwas
p3822
aVtired
p3823
aVand
p3824
aVthe
p3825
aVnaked
p3826
aVhallorans
p3827
aVand
p3828
aVtheir
p3829
aVdark
p3830
aVwater
p3831
aVhad
p3832
aVdepressed
p3833
aVhim
p3834
aV.
aa(lp3835
Vthe
p3836
aVswim
p3837
aVwas
p3838
aVtoo
p3839
aVmuch
p3840
aVfor
p3841
aVhis
p3842
aVstrength
p3843
aVbut
p3844
aVhow
p3845
aVcould
p3846
aVhe
p3847
aVhave
p3848
aVguessed
p3849
aVthis
p3850
aV,
aVsliding
p3851
aVdown
p3852
aVthe
p3853
aVbanister
p3854
aVthat
p3855
aVmorning
p3856
aVand
p3857
aVsitting
p3858
aVin
p3859
aVthe
p3860
aVwesterhazys\u2019
p3861
aVsun
p3862
aV?
aa(lp3863
Vhis
p3864
aVarms
p3865
aVwere
p3866
aVlame
p3867
aV.
aa(lp3868
Vhis
p3869
aVlegs
p3870
aVfelt
p3871
aVrubbery
p3872
aVand
p3873
aVached
p3874
aVat
p3875
aVthe
p3876
aVjoints
p3877
aV.
aa(lp3878
Vthe
p3879
aVworst
p3880
aVof
p3881
aVit
p3882
aVwas
p3883
aVthe
p3884
aVcold
p3885
aVin
p3886
aVhis
p3887
aVbones
p3888
aVand
p3889
aVthe
p3890
aVfeeling
p3891
aVthat
p3892
aVhe
p3893
aVmight
p3894
aVnever
p3895
aVbe
p3896
aVwarm
p3897
aVagain
p3898
aV.
aa(lp3899
Vleaves
p3900
aVwere
p3901
aVfalling
p3902
aVdown
p3903
aVaround
p3904
aVhim
p3905
aVand
p3906
aVhe
p3907
aVsmelled
p3908
aVwood
p3909
aVsmoke
p3910
aVon
p3911
aVthe
p3912
aVwind
p3913
aV.
aa(lp3914
Vwho
p3915
aVwould
p3916
aVbe
p3917
aVburning
p3918
aVwood
p3919
aVat
p3920
aVthis
p3921
aVtime
p3922
aVof
p3923
aVyear
p3924
aV?
aa(lp3925
Vhe
p3926
aVneeded
p3927
aVa
aVdrink
p3928
aV.
aa(lp3929
Vwhiskey
p3930
aVwould
p3931
aVwarm
p3932
aVhim
p3933
aV,
aVpick
p3934
aVhim
p3935
aVup
p3936
aV,
aVmean.\u201d
p3937
aVpoor
p3938
aVchildren
p3939
aV.
aa(lp3940
V.
aa(lp3941
V.\u201d
p3942
aVgirls
p3943
aVare
p3944
aVat
p3945
aVhome.\u201d
p3946
aV\u201cwhy
p3947
aV,
aVwe
p3948
aVheard
p3949
aVthat
p3950
aVyou\u2019d
p3951
aVsold
p3952
aVthe
p3953
aVhouse
p3954
aVand
p3955
aVthat
p3956
aVyour
p3957
aV\u201ci
p3958
aVdon\u2019t
p3959
aVrecall
p3960
aVhaving
p3961
aVsold
p3962
aVthe
p3963
aVhouse
p3964
aV,
aV\u201d
aVned
p3965
aVsaid
p3966
aV,
aV\u201cand
p3967
aVthe
p3968
aVthe
p3969
aVstories
p3970
aVof
p3971
aVjohn
p3972
aVcheever
p3973
aVcarry
p3974
aVhim
p3975
aVthrough
p3976
aVthe
p3977
aVlast
p3978
aVof
p3979
aVhis
p3980
aVjourney
p3981
aV,
aVrefresh
p3982
aVhis
p3983
aVfeeling
p3984
aVthat
p3985
aVit
p3986
aVwas
p3987
aVoriginal
p3988
aVand
p3989
aVvalorous
p3990
aVto
p3991
aVswim
p3992
aVacross
p3993
aVthe
p3994
aVcounty
p3995
aV.
aa(lp3996
Vchannel
p3997
aVswimmers
p3998
aVtook
p3999
aVbrandy
p4000
aV.
aa(lp4001
Vhe
p4002
aVneeded
p4003
aVa
aVstimulant
p4004
aV.
aa(lp4005
Vhe
p4006
aVcrossed
p4007
aVthe
p4008
aVlawn
p4009
aVin
p4010
aVfront
p4011
aVof
p4012
aVthe
p4013
aVhallorans\u2019
p4014
aVhouse
p4015
aVand
p4016
aVwent
p4017
aVdown
p4018
aVa
aVlittle
p4019
aVpath
p4020
aVto
p4021
aVwhere
p4022
aVthey
p4023
aVhad
p4024
aVbuilt
p4025
aVa
aVhouse
p4026
aVfor
p4027
aVtheir
p4028
aVonly
p4029
aVdaughter
p4030
aV,
aVhelen
p4031
aV,
aVand
p4032
aVher
p4033
aVhusband
p4034
aV,
aVeric
p4035
aVsachs
p4036
aV.
aa(lp4037
Vthe
p4038
aVsachses\u2019
p4039
aVpool
p4040
aVwas
p4041
aVsmall
p4042
aVand
p4043
aVhe
p4044
aVfound
p4045
aVhelen
p4046
aVand
p4047
aVher
p4048
aVhusband
p4049
aVthere
p4050
aV.
aa(lp4051
V\u201coh
p4052
aV,
aVneddy
p4053
aV,
aV\u201d
aVhelen
p4054
aVsaid
p4055
aV.
aa(lp4056
V\u201cdid
p4057
aVyou
p4058
aVlunch
p4059
aVat
p4060
aVm
aVother\u2019s
p4061
aV?
aV\u201d
aV\u201cnot
p4062
aVreally
p4063
aV,
aV\u201d
aVned
p4064
aVsaid
p4065
aV.
aa(lp4066
V\u201ci
p4067
aVdid
p4068
aVstop
p4069
aVto
p4070
aVsee
p4071
aVyour
p4072
aVparents.\u201d
p4073
aVthis
p4074
aVseemed
p4075
aVto
p4076
aVbe
p4077
aVexplanation
p4078
aVenough
p4079
aV.
aa(lp4080
V\u201ci\u2019m
p4081
aVterribly
p4082
aVsorry
p4083
aVto
p4084
aVbreak
p4085
aVin
p4086
aVon
p4087
aVyou
p4088
aVlike
p4089
aVthis
p4090
aVbut
p4091
aVi\u2019ve
p4092
aVtaken
p4093
aVa
aVchill
p4094
aVand
p4095
aVi
aVwonder
p4096
aVif
p4097
aVyou\u2019d
p4098
aVgive
p4099
aVme
p4100
aVa
aVdrink.\u201d
p4101
aV\u201cwhy
p4102
aV,
aVi\u2019d
p4103
aVlove
p4104
aVto
p4105
aV,
aV\u201d
aVhelen
p4106
aVsaid
p4107
aV,
aV\u201cbut
p4108
aVthere
p4109
aVhasn\u2019t
p4110
aVbeen
p4111
aVany-
p4112
aVthing
p4113
aVin
p4114
aVthis
p4115
aVhouse
p4116
aVto
p4117
aVdrink
p4118
aVsince
p4119
aVeric\u2019s
p4120
aVoperation
p4121
aV.
aa(lp4122
Vthat
p4123
aVwas
p4124
aVthree
p4125
aVyears
p4126
aVago.\u201d
p4127
aVwas
p4128
aVhe
p4129
aVlosing
p4130
aVhis
p4131
aVmemory
p4132
aV,
aVhad
p4133
aVhis
p4134
aVgift
p4135
aVfor
p4136
aVconcealing
p4137
aVpainful
p4138
aVfacts
p4139
aVlet
p4140
aVhim
p4141
aVforget
p4142
aVthat
p4143
aVhe
p4144
aVhad
p4145
aVsold
p4146
aVhis
p4147
aVhouse
p4148
aV,
aVthat
p4149
aVhis
p4150
aVchildren
p4151
aVwere
p4152
aVin
p4153
aVtrouble
p4154
aV,
aVand
p4155
aVthat
p4156
aVhis
p4157
aVfriend
p4158
aVhad
p4159
aVbeen
p4160
aVill
p4161
aV?
aa(lp4162
Vhis
p4163
aVeyes
p4164
aVslipped
p4165
aVfrom
p4166
aVeric\u2019s
p4167
aVface
p4168
aVto
p4169
aVhis
p4170
aVabdomen
p4171
aV,
aVwhere
p4172
aVhe
p4173
aVsaw
p4174
aVthree
p4175
aVpale
p4176
aV,
aVsutured
p4177
aVscars
p4178
aV,
aVtwo
p4179
aVof
p4180
aVthem
p4181
aVat
p4182
aVleast
p4183
aVa
aVfoot
p4184
aVlong
p4185
aV.
aa(lp4186
Vgone
p4187
aVwas
p4188
aVhis
p4189
aVnavel
p4190
aV,
aVand
p4191
aVwhat
p4192
aV,
aVneddy
p4193
aVthought
p4194
aV,
aVwould
p4195
aVthe
p4196
aVroving
p4197
aVhand
p4198
aV,
aVbed-checking
p4199
aVone\u2019s
p4200
aVgifts
p4201
aVat
p4202
aV3
aVa.m.
p4203
aV,
aVmake
p4204
aVof
p4205
aVa
aVbelly
p4206
aVwith
p4207
aVno
p4208
aVnavel
p4209
aV,
aVno
p4210
aVlink
p4211
aVto
p4212
aVbirth
p4213
aV,
aVthis
p4214
aVbreach
p4215
aVin
p4216
aVthe
p4217
aVsuccession
p4218
aV?
aa(lp4219
V\u201ci\u2019m
p4220
aVsure
p4221
aVyou
p4222
aVcan
p4223
aVget
p4224
aVa
aVdrink
p4225
aVat
p4226
aVthe
p4227
aVbiswangers\u2019
p4228
aV,
aV\u201d
aVhelen
p4229
aVsaid
p4230
aV.
aa(lp4231
V\u201cthey\u2019re
p4232
aVhaving
p4233
aVan
p4234
aVenormous
p4235
aVdo
p4236
aV.
aa(lp4237
Vyou
p4238
aVcan
p4239
aVhear
p4240
aVit
p4241
aVfrom
p4242
aVhere
p4243
aV.
aa(lp4244
Vlisten
p4245
aV!
aV\u201d
aVshe
p4246
aVraised
p4247
aVher
p4248
aVhead
p4249
aVand
p4250
aVfrom
p4251
aVacross
p4252
aVthe
p4253
aVroad
p4254
aV,
aVthe
p4255
aVlawns
p4256
aV,
aVthe
p4257
aVgardens
p4258
aV,
aVthe
p4259
aVwoods
p4260
aV,
aVthe
p4261
aV\ufb01elds
p4262
aV,
aVhe
p4263
aVheard
p4264
aVagain
p4265
aVthe
p4266
aVbrilliant
p4267
aVnoise
p4268
aVof
p4269
aVvoices
p4270
aVover
p4271
aVwater
p4272
aV.
aa(lp4273
V\u201cwell
p4274
aV,
aVi\u2019ll
p4275
aVget
p4276
aVwet
p4277
aV,
aV\u201d
aVhe
p4278
aVsaid
p4279
aV,
aVstill
p4280
aVfeeling
p4281
aVthat
p4282
aVhe
p4283
aVhad
p4284
aVno
p4285
aVfreedom
p4286
aVof
p4287
aVchoice
p4288
aVabout
p4289
aVhis
p4290
aVmeans
p4291
aVof
p4292
aVtravel
p4293
aV.
aa(lp4294
Vhe
p4295
aVdove
p4296
aVinto
p4297
aVthe
p4298
aVsachses\u2019
p4299
aVcold
p4300
aVwater
p4301
aVand
p4302
aV,
aVgasping
p4303
aV,
aVclose
p4304
aVto
p4305
aVdrowning
p4306
aV,
aVmade
p4307
aVhis
p4308
aVway
p4309
aVfrom
p4310
aVone
p4311
aVend
p4312
aVof
p4313
aVthe
p4314
aVpool
p4315
aVto
p4316
aVthe
p4317
aVother
p4318
aV.
aa(lp4319
V\u201clucinda
p4320
aVand
p4321
aVi
aVwant
p4322
aVterribly
p4323
aVto
p4324
aVsee
p4325
aVyou
p4326
aV,
aV\u201d
aVhe
p4327
aVsaid
p4328
aVover
p4329
aVhis
p4330
aVshoulder
p4331
aV,
aVhis
p4332
aVface
p4333
aVset
p4334
aVtoward
p4335
aVthe
p4336
aVbiswangers\u2019
p4337
aV.
aa(lp4338
V\u201cwe\u2019re
p4339
aVsorry
p4340
aVit\u2019s
p4341
aVbeen
p4342
aVso
p4343
aVlong
p4344
aVand
p4345
aVwe\u2019ll
p4346
aVcall
p4347
aVyou
p4348
aVvery
p4349
aVsoon.\u201d
p4350
aVhe
p4351
aVcrossed
p4352
aVsome
p4353
aV\ufb01elds
p4354
aVto
p4355
aVthe
p4356
aVbiswangers\u2019
p4357
aVand
p4358
aVthe
p4359
aVsounds
p4360
aVof
p4361
aVrevelry
p4362
aVthere
p4363
aV.
aa(lp4364
Vthey
p4365
aVwould
p4366
aVbe
p4367
aVhonored
p4368
aVto
p4369
aVgive
p4370
aVhim
p4371
aVa
aVdrink
p4372
aV,
aVthey
p4373
aVwould
p4374
aVbe
p4375
aVhappy
p4376
aVto
p4377
aVgive
p4378
aVhim
p4379
aVa
aVdrink
p4380
aV.
aa(lp4381
Vthe
p4382
aVbiswangers
p4383
aVin-
p4384
aVvited
p4385
aVhim
p4386
aVand
p4387
aVlucinda
p4388
aVfor
p4389
aVdinner
p4390
aVfour
p4391
aVtimes
p4392
aVa
aVyear
p4393
aV,
aVsix
p4394
aVweeks
p4395
aVin
p4396
aVadvance
p4397
aV.
aa(lp4398
Vthey
p4399
aVwere
p4400
aValways
p4401
aVrebuffed
p4402
aVand
p4403
aVyet
p4404
aVthey
p4405
aVcontinued
p4406
aVto
p4407
aVsend
p4408
aVout
p4409
aVtheir
p4410
aVinvitations
p4411
aV,
aVunwilling
p4412
aVto
p4413
aVcomprehend
p4414
aVthe
p4415
aVrigid
p4416
aVand
p4417
aVundemocratic
p4418
aVrealities
p4419
aVof
p4420
aVtheir
p4421
aVsociety
p4422
aV.
aa(lp4423
Vthey
p4424
aVwere
p4425
aVthe
p4426
aVsort
p4427
aVof
p4428
aVpeople
p4429
aVwho
p4430
aVdiscussed
p4431
aVthe
p4432
aVprice
p4433
aVof
p4434
aVthings
p4435
aVat
p4436
aVcocktails
p4437
aV,
aVexchanged
p4438
aVmarket
p4439
aVtips
p4440
aVduring
p4441
aVdinner
p4442
aV,
aVand
p4443
aVafter
p4444
aVdinner
p4445
aVtold
p4446
aVdirty
p4447
aVstories
p4448
aVto
p4449
aVmixed
p4450
aVcompany
p4451
aV.
aa(lp4452
Vthey
p4453
aVdid
p4454
aVnot
p4455
aVbelong
p4456
aVto
p4457
aVneddy\u2019s
p4458
aVset\u2014
p4459
aVthey
p4460
aVwere
p4461
aVnot
p4462
aVeven
p4463
aVon
p4464
aVlucinda\u2019s
p4465
aVchristmas-card
p4466
aVlist
p4467
aV.
aa(lp4468
Vhe
p4469
aVwent
p4470
aVtoward
p4471
aVtheir
p4472
aVpool
p4473
aVwith
p4474
aVfeelings
p4475
aVof
p4476
aVindifference
p4477
aV,
aVcharity
p4478
aV,
aVand
p4479
aVsome
p4480
aVunease
p4481
aV,
aVsince
p4482
aVit
p4483
aVseemed
p4484
aVto
p4485
aVbe
p4486
aVgetting
p4487
aVdark
p4488
aVand
p4489
aVthese
p4490
aVwere
p4491
aVthe
p4492
aVlongest
p4493
aVdays
p4494
aVof
p4495
aVthe
p4496
aVyear
p4497
aV.
aa(lp4498
Vthe
p4499
aVparty
p4500
aVwhen
p4501
aVhe
p4502
aVjoined
p4503
aVit
p4504
aVwas
p4505
aVnoisy
p4506
aVand
p4507
aVlarge
p4508
aV.
aa(lp4509
Vgrace
p4510
aVbiswanger
p4511
aVwas
p4512
aVthe
p4513
aVkind
p4514
aVof
p4515
aVhostess
p4516
aVwho
p4517
aVasked
p4518
aVthe
p4519
aVoptometrist
p4520
aV,
aVthe
p4521
aVveterinarian
p4522
aV,
aVthe
p4523
aVreal-estate
p4524
aVdealer
p4525
aV,
aVand
p4526
aVthe
p4527
aVdentist
p4528
aV.
aa(lp4529
Vno
p4530
aVone
p4531
aVwas
p4532
aVswimming
p4533
aVand
p4534
aVthe
p4535
aVtwi-
p4536
aVlight
p4537
aV,
aVre\ufb02ected
p4538
aVon
p4539
aVthe
p4540
aVwater
p4541
aVof
p4542
aVthe
p4543
aVpool
p4544
aV,
aVhad
p4545
aVa
aVwintry
p4546
aVgleam
p4547
aV.
aa(lp4548
Vthere
p4549
aVwas
p4550
aVa
aVbar
p4551
aVand
p4552
aVhe
p4553
aVstarted
p4554
aVfor
p4555
aVthis
p4556
aV.
aa(lp4557
Vwhen
p4558
aVgrace
p4559
aVbiswanger
p4560
aVsaw
p4561
aVhim
p4562
aVshe
p4563
aVcame
p4564
aVtoward
p4565
aVhim
p4566
aV,
aVnot
p4567
aVaffectionately
p4568
aVas
p4569
aVhe
p4570
aVhad
p4571
aVevery
p4572
aVright
p4573
aVto
p4574
aVexpect
p4575
aV,
aVbut
p4576
aVbellicosely
p4577
aV.
aa(lp4578
V\u201cwhy
p4579
aV,
aVthis
p4580
aVparty
p4581
aVhas
p4582
aVeverything
p4583
aV,
aV\u201d
aVshe
p4584
aVsaid
p4585
aVloudly
p4586
aV,
aV\u201cincluding
p4587
aVa
aVgate
p4588
aVcrasher.\u201d
p4589
aVshe
p4590
aVcould
p4591
aVnot
p4592
aVdeal
p4593
aVhim
p4594
aVa
aVsocial
p4595
aVblow\u2014
p4596
aVthere
p4597
aVwas
p4598
aVno
p4599
aVquestion
p4600
aVabout
p4601
aVthis
p4602
aVand
p4603
aVhe
p4604
aVdid
p4605
aVnot
p4606
aV\ufb02inch
p4607
aV.
aa(lp4608
V\u201cas
p4609
aVa
aVgate
p4610
aVcrasher
p4611
aV,
aV\u201d
aVhe
p4612
aVasked
p4613
aVpolitely
p4614
aV,
aV\u201cdo
p4615
aVi
aVrate
p4616
aVa
aVdrink
p4617
aV?
aV\u201d
aV\u201csuit
p4618
aVyourself
p4619
aV,
aV\u201d
aVshe
p4620
aVsaid
p4621
aV.
aa(lp4622
V\u201cyou
p4623
aVdon\u2019t
p4624
aVseem
p4625
aVto
p4626
aVpay
p4627
aVmuch
p4628
aVat-
p4629
aVtention
p4630
aVto
p4631
aVinvitations.\u201d
p4632
aVshe
p4633
aVturned
p4634
aVher
p4635
aVback
p4636
aVon
p4637
aVhim
p4638
aVand
p4639
aVjoined
p4640
aVsome
p4641
aVguests
p4642
aV,
aVand
p4643
aVhe
p4644
aVwent
p4645
aVto
p4646
aVthe
p4647
aVbar
p4648
aVand
p4649
aVordered
p4650
aVa
aVwhiskey
p4651
aV.
aa(lp4652
Vthe
p4653
aVbartender
p4654
aVserved
p4655
aVhim
p4656
aVbut
p4657
aVhe
p4658
aVserved
p4659
aVhim
p4660
aVrudely
p4661
aV.
aa(lp4662
Vhis
p4663
aVwas
p4664
aVa
aVworld
p4665
aVin
p4666
aVwhich
p4667
aVthe
p4668
aVcaterer\u2019s
p4669
aVmen
p4670
aVkept
p4671
aVthe
p4672
aVsocial
p4673
aVscore
p4674
aV,
aVand
p4675
aVto
p4676
aVbe
p4677
aVrebuffed
p4678
aVby
p4679
aVa
aVpart-time
p4680
aVbarkeep
p4681
aVmeant
p4682
aVthat
p4683
aVhe
p4684
aVhad
p4685
aVsuffered
p4686
aVsome
p4687
aVloss
p4688
aVof
p4689
aVsocial
p4690
aVesteem
p4691
aV.
aa(lp4692
Vor
p4693
aVperhaps
p4694
aVthe
p4695
aVman
p4696
aVwas
p4697
aVnew
p4698
aVand
p4699
aVuninformed
p4700
aV.
aa(lp4701
Vthen
p4702
aVhe
p4703
aVheard
p4704
aVgrace
p4705
aVat
p4706
aVhis
p4707
aVback
p4708
aVsay
p4709
aV:
aV\u201cthey
p4710
aVwent
p4711
aVfor
p4712
aVbroke
p4713
aVovernight\u2014
p4714
aVnothing
p4715
aVbut
p4716
aVincome\u2014
p4717
aVand
p4718
aVhe
p4719
aVshowed
p4720
aVup
p4721
aVdrunk
p4722
aVone
p4723
aVsunday
p4724
aVand
p4725
aVasked
p4726
aVus
p4727
aVto
p4728
aVloan
p4729
aVhim
p4730
aV\ufb01ve
p4731
aVthousand
p4732
aVdol-
p4733
aVlars
p4734
aV.
aa(lp4735
V.
aa(lp4736
V.
aa(lp4737
V.\u201d
p4738
aVshe
p4739
aVwas
p4740
aValways
p4741
aVtalking
p4742
aVabout
p4743
aVmoney
p4744
aV.
aa(lp4745
Vit
p4746
aVwas
p4747
aVworse
p4748
aVthan
p4749
aVeating
p4750
aVyour
p4751
aVpeas
p4752
aVoff
p4753
aVa
aVknife
p4754
aV.
aa(lp4755
Vhe
p4756
aVdove
p4757
aVinto
p4758
aVthe
p4759
aVpool
p4760
aV,
aVswam
p4761
aVits
p4762
aVlength
p4763
aVand
p4764
aVwent
p4765
aVaway
p4766
aV.
aa(lp4767
Vthe
p4768
aVnext
p4769
aVpool
p4770
aVon
p4771
aVhis
p4772
aVlist
p4773
aV,
aVthe
p4774
aVlast
p4775
aVbut
p4776
aVtwo
p4777
aV,
aVbelonged
p4778
aVto
p4779
aVhis
p4780
aVold
p4781
aVmistress
p4782
aV,
aVshirley
p4783
aVadams
p4784
aV.
aa(lp4785
Vif
p4786
aVhe
p4787
aVhad
p4788
aVsuffered
p4789
aVany
p4790
aVinjuries
p4791
aVat
p4792
aVthe
p4793
aVbiswangers\u2019
p4794
aVthey
p4795
aVwould
p4796
aVbe
p4797
aVcured
p4798
aVhere
p4799
aV.
aa(lp4800
Vlove\u2014
p4801
aVsexual
p4802
aVroughhouse
p4803
aVin
p4804
aVfact\u2014
p4805
aVwas
p4806
aVthe
p4807
aVsupreme
p4808
aVelixir
p4809
aV,
aVthe
p4810
aVpain
p4811
aVkiller
p4812
aV,
aVthe
p4813
aVthe
p4814
aVstories
p4815
aVof
p4816
aVjohn
p4817
aVcheever
p4818
aVbrightly
p4819
aVcolored
p4820
aVpill
p4821
aVthat
p4822
aVwould
p4823
aVput
p4824
aVthe
p4825
aVspring
p4826
aVback
p4827
aVinto
p4828
aVhis
p4829
aVstep
p4830
aV,
aVthe
p4831
aVjoy
p4832
aVof
p4833
aVlife
p4834
aVin
p4835
aVhis
p4836
aVheart
p4837
aV.
aa(lp4838
Vthey
p4839
aVhad
p4840
aVhad
p4841
aVan
p4842
aVaffair
p4843
aVlast
p4844
aVweek
p4845
aV,
aVlast
p4846
aVmonth
p4847
aV,
aVlast
p4848
aVyear
p4849
aV.
aa(lp4850
Vhe
p4851
aVcouldn\u2019t
p4852
aVremember
p4853
aV.
aa(lp4854
Vit
p4855
aVwas
p4856
aVhe
p4857
aVwho
p4858
aVhad
p4859
aVbroken
p4860
aVit
p4861
aVoff
p4862
aV,
aVhis
p4863
aVwas
p4864
aVthe
p4865
aVupper
p4866
aVhand
p4867
aV,
aVand
p4868
aVhe
p4869
aVstepped
p4870
aVthrough
p4871
aVthe
p4872
aVgate
p4873
aVof
p4874
aVthe
p4875
aVwall
p4876
aVthat
p4877
aVsurrounded
p4878
aVher
p4879
aVpool
p4880
aVwith
p4881
aVnothing
p4882
aVso
p4883
aVconsidered
p4884
aVas
p4885
aVself-con\ufb01dence
p4886
aV.
aa(lp4887
Vit
p4888
aVseemed
p4889
aVin
p4890
aVa
aVway
p4891
aVto
p4892
aVbe
p4893
aVhis
p4894
aVpool
p4895
aV,
aVas
p4896
aVthe
p4897
aVlover
p4898
aV,
aVparticularly
p4899
aVthe
p4900
aVillicit
p4901
aVlover
p4902
aV,
aVenjoys
p4903
aVthe
p4904
aVpossessions
p4905
aVof
p4906
aVhis
p4907
aVmistress
p4908
aVwith
p4909
aVan
p4910
aVauthority
p4911
aVunknown
p4912
aVto
p4913
aVholy
p4914
aVmatrimony
p4915
aV.
aa(lp4916
Vshe
p4917
aVwas
p4918
aVthere
p4919
aV,
aVher
p4920
aVhair
p4921
aVthe
p4922
aVcolor
p4923
aVof
p4924
aVbrass
p4925
aV,
aVbut
p4926
aVher
p4927
aV\ufb01gure
p4928
aV,
aVat
p4929
aVthe
p4930
aVedge
p4931
aVof
p4932
aVthe
p4933
aVlighted
p4934
aV,
aVcerulean
p4935
aVwater
p4936
aV,
aVexcited
p4937
aVin
p4938
aVhim
p4939
aVno
p4940
aVprofound
p4941
aVmemories
p4942
aV.
aa(lp4943
Vit
p4944
aVhad
p4945
aVbeen
p4946
aV,
aVhe
p4947
aVthought
p4948
aV,
aVa
aVlight-
p4949
aVhearted
p4950
aVaffair
p4951
aV,
aValthough
p4952
aVshe
p4953
aVhad
p4954
aVwept
p4955
aVwhen
p4956
aVhe
p4957
aVbroke
p4958
aVit
p4959
aVoff
p4960
aV.
aa(lp4961
Vshe
p4962
aVseemed
p4963
aVconfused
p4964
aVto
p4965
aVsee
p4966
aVhim
p4967
aVand
p4968
aVhe
p4969
aVwondered
p4970
aVif
p4971
aVshe
p4972
aVwas
p4973
aVstill
p4974
aVwounded
p4975
aV.
aa(lp4976
Vwould
p4977
aVshe
p4978
aV,
aVgod
p4979
aVforbid
p4980
aV,
aVweep
p4981
aVagain
p4982
aV?
aa(lp4983
V\u201cwhat
p4984
aVdo
p4985
aVyou
p4986
aVwant
p4987
aV?
aV\u201d
aVshe
p4988
aVasked
p4989
aV.
aa(lp4990
V\u201ci\u2019m
p4991
aVswimming
p4992
aVacross
p4993
aVthe
p4994
aVcounty.\u201d
p4995
aV\u201cgood
p4996
aVchrist
p4997
aV.
aa(lp4998
Vwill
p4999
aVyou
p5000
aVever
p5001
aVgrow
p5002
aVup
p5003
aV?
aV\u201d
aV\u201cwhat\u2019s
p5004
aVthe
p5005
aVmatter
p5006
aV?
aV\u201d
aV\u201cif
p5007
aVyou\u2019ve
p5008
aVcome
p5009
aVhere
p5010
aVfor
p5011
aVmoney
p5012
aV,
aV\u201d
aVshe
p5013
aVsaid
p5014
aV,
aV\u201ci
p5015
aVwon\u2019t
p5016
aVgive
p5017
aVyou
p5018
aVan
p5019
aVother
p5020
aVcent.\u201d
p5021
aV\u201cyou
p5022
aVcould
p5023
aVgive
p5024
aVme
p5025
aVa
aVdrink.\u201d
p5026
aV\u201ci
p5027
aVcould
p5028
aVbut
p5029
aVi
aVwon\u2019t
p5030
aV.
aa(lp5031
Vi\u2019m
p5032
aVnot
p5033
aValone.\u201d
p5034
aV\u201cwell
p5035
aV,
aVi\u2019m
p5036
aVon
p5037
aVmy
p5038
aVway.\u201d
p5039
aVhe
p5040
aVdove
p5041
aVin
p5042
aVand
p5043
aVswam
p5044
aVthe
p5045
aVpool
p5046
aV,
aVbut
p5047
aVwhen
p5048
aVhe
p5049
aVtried
p5050
aVto
p5051
aVhaul
p5052
aVhimself
p5053
aVup
p5054
aVonto
p5055
aVthe
p5056
aVcurb
p5057
aVhe
p5058
aVfound
p5059
aVthat
p5060
aVthe
p5061
aVstrength
p5062
aVin
p5063
aVhis
p5064
aVarms
p5065
aVand
p5066
aVshoulders
p5067
aVhad
p5068
aVgone
p5069
aV,
aVand
p5070
aVhe
p5071
aVpaddled
p5072
aVto
p5073
aVthe
p5074
aVladder
p5075
aVand
p5076
aVclimbed
p5077
aVout
p5078
aV.
aa(lp5079
Vlooking
p5080
aVover
p5081
aVhis
p5082
aVshoulder
p5083
aVhe
p5084
aVsaw
p5085
aV,
aVin
p5086
aVthe
p5087
aVlighted
p5088
aVbathhouse
p5089
aV,
aVa
aVyoung
p5090
aVman
p5091
aV.
aa(lp5092
Vgoing
p5093
aVout
p5094
aVonto
p5095
aVthe
p5096
aVdark
p5097
aVlawn
p5098
aVhe
p5099
aVsmelled
p5100
aVchrysanthemums
p5101
aVor
p5102
aVmarigolds\u2014
p5103
aVsome
p5104
aVstubborn
p5105
aVau
p5106
aV-
aVtum
p5107
aVnal
p5108
aVfragrance\u2014
p5109
aVon
p5110
aVthe
p5111
aVnight
p5112
aVair
p5113
aV,
aVstrong
p5114
aVas
p5115
aVgas
p5116
aV.
aa(lp5117
Vlooking
p5118
aVover
p5119
aV-
aVhead
p5120
aVhe
p5121
aVsaw
p5122
aVthat
p5123
aVthe
p5124
aVstars
p5125
aVhad
p5126
aVcome
p5127
aVout
p5128
aV,
aVbut
p5129
aVwhy
p5130
aVshould
p5131
aVhe
p5132
aVseem
p5133
aVto
p5134
aVsee
p5135
aVandromeda
p5136
aV,
aVcepheus
p5137
aV,
aVand
p5138
aVcassiopeia
p5139
aV?
aa(lp5140
Vwhat
p5141
aVhad
p5142
aVbecome
p5143
aVof
p5144
aVthe
p5145
aVconstellations
p5146
aVof
p5147
aVmidsummer
p5148
aV?
aa(lp5149
Vhe
p5150
aVbegan
p5151
aVto
p5152
aVcry
p5153
aV.
aa(lp5154
Vit
p5155
aVwas
p5156
aVprob
p5157
aVably
p5158
aVthe
p5159
aV\ufb01rst
p5160
aVtime
p5161
aVin
p5162
aVhis
p5163
aVadult
p5164
aVlife
p5165
aVthat
p5166
aVhe
p5167
aVhad
p5168
aVever
p5169
aVcried
p5170
aV,
aVcertainly
p5171
aVthe
p5172
aV\ufb01rst
p5173
aVtime
p5174
aVin
p5175
aVhis
p5176
aVlife
p5177
aVthat
p5178
aVhe
p5179
aVhad
p5180
aVever
p5181
aVfelt
p5182
aVso
p5183
aVmiserable
p5184
aV,
aVcold
p5185
aV,
aVtired
p5186
aV,
aVand
p5187
aVbewildered
p5188
aV.
aa(lp5189
Vhe
p5190
aVcould
p5191
aVnot
p5192
aVunder
p5193
aV-
aVstand
p5194
aVthe
p5195
aVrudeness
p5196
aVof
p5197
aVthe
p5198
aVcaterer\u2019s
p5199
aVbarkeep
p5200
aVor
p5201
aVthe
p5202
aVrudeness
p5203
aVof
p5204
aVa
aVmistress
p5205
aVwho
p5206
aVhad
p5207
aVcome
p5208
aVto
p5209
aVhim
p5210
aVon
p5211
aVher
p5212
aVknees
p5213
aVand
p5214
aVshowered
p5215
aVhis
p5216
aVtrousers
p5217
aVwith
p5218
aVtears
p5219
aV.
aa(lp5220
Vhe
p5221
aVhad
p5222
aVswum
p5223
aVtoo
p5224
aVlong
p5225
aV,
aVhe
p5226
aVhad
p5227
aVbeen
p5228
aVim-
p5229
aVmersed
p5230
aVtoo
p5231
aVlong
p5232
aV,
aVand
p5233
aVhis
p5234
aVnose
p5235
aVand
p5236
aVhis
p5237
aVthroat
p5238
aVwere
p5239
aVsore
p5240
aVfrom
p5241
aVthe
p5242
aVwater
p5243
aV.
aa(lp5244
Vwhat
p5245
aVhe
p5246
aVneeded
p5247
aVthen
p5248
aVwas
p5249
aVa
aVdrink
p5250
aV,
aVsome
p5251
aVcompany
p5252
aV,
aVand
p5253
aVsome
p5254
aVclean
p5255
aV,
aVdry
p5256
aVclothes
p5257
aV,
aVand
p5258
aVwhile
p5259
aVhe
p5260
aVcould
p5261
aVhave
p5262
aVcut
p5263
aVdirectly
p5264
aVacross
p5265
aVthe
p5266
aVroad
p5267
aVto
p5268
aVhis
p5269
aVhome
p5270
aVhe
p5271
aVwent
p5272
aVon
p5273
aVto
p5274
aVthe
p5275
aVgilmartins\u2019
p5276
aVpool
p5277
aV.
aa(lp5278
Vhere
p5279
aV,
aVfor
p5280
aVthe
p5281
aV\ufb01rst
p5282
aVtime
p5283
aVin
p5284
aVhis
p5285
aVlife
p5286
aV,
aVhe
p5287
aVdid
p5288
aVnot
p5289
aVdive
p5290
aVbut
p5291
aVwent
p5292
aVdown
p5293
aVthe
p5294
aVsteps
p5295
aVinto
p5296
aVthe
p5297
aVicy
p5298
aVwater
p5299
aVand
p5300
aVswam
p5301
aVa
aVhobbled
p5302
aVsidestroke
p5303
aVthat
p5304
aVhe
p5305
aVmight
p5306
aVhave
p5307
aVlearned
p5308
aVas
p5309
aVa
aVyouth
p5310
aV.
aa(lp5311
Vhe
p5312
aVstaggered
p5313
aVwith
p5314
aVfatigue
p5315
aVon
p5316
aVhis
p5317
aVway
p5318
aVto
p5319
aVthe
p5320
aVclydes\u2019
p5321
aVand
p5322
aVpaddled
p5323
aVthe
p5324
aVlength
p5325
aVof
p5326
aVtheir
p5327
aVpool
p5328
aV,
aVstopping
p5329
aVagain
p5330
aVand
p5331
aVagain
p5332
aVwith
p5333
aVhis
p5334
aVhand
p5335
aVon
p5336
aVthe
p5337
aVcurb
p5338
aVto
p5339
aVrest
p5340
aV.
aa(lp5341
Vhe
p5342
aVclimbed
p5343
aVup
p5344
aVthe
p5345
aVladder
p5346
aVand
p5347
aVwondered
p5348
aVif
p5349
aVhe
p5350
aVhad
p5351
aVthe
p5352
aVstrength
p5353
aVto
p5354
aVget
p5355
aVhome
p5356
aV.
aa(lp5357
Vhe
p5358
aVhad
p5359
aVdone
p5360
aVwhat
p5361
aVhe
p5362
aVwanted
p5363
aV,
aVhe
p5364
aVhad
p5365
aVswum
p5366
aVthe
p5367
aVcounty
p5368
aV,
aVbut
p5369
aVhe
p5370
aVwas
p5371
aVso
p5372
aVstupe\ufb01ed
p5373
aVwith
p5374
aVexhaustion
p5375
aVthat
p5376
aVhis
p5377
aVtriumph
p5378
aVseemed
p5379
aVvague
p5380
aV.
aa(lp5381
Vstooped
p5382
aV,
aVholding
p5383
aVon
p5384
aVto
p5385
aVthe
p5386
aVgateposts
p5387
aVfor
p5388
aVsupport
p5389
aV,
aVhe
p5390
aVturned
p5391
aVup
p5392
aVthe
p5393
aVdriveway
p5394
aVof
p5395
aVhis
p5396
aVown
p5397
aVhouse
p5398
aV.
aa(lp5399
Vthe
p5400
aVplace
p5401
aVwas
p5402
aVdark
p5403
aV.
aa(lp5404
Vwas
p5405
aVit
p5406
aVso
p5407
aVlate
p5408
aVthat
p5409
aVthey
p5410
aVhad
p5411
aVall
p5412
aVgone
p5413
aVto
p5414
aVbed
p5415
aV?
aa(lp5416
Vhad
p5417
aVlucinda
p5418
aVstayed
p5419
aVat
p5420
aVthe
p5421
aVwesterhazys\u2019
p5422
aVfor
p5423
aVs
aVupper
p5424
aV?
aa(lp5425
Vhad
p5426
aVthe
p5427
aVgirls
p5428
aVjoined
p5429
aVher
p5430
aVthere
p5431
aVor
p5432
aVgone
p5433
aVsomeplace
p5434
aVelse
p5435
aV?
aa(lp5436
Vhadn\u2019t
p5437
aVthey
p5438
aVagreed
p5439
aV,
aVas
p5440
aVthey
p5441
aVusually
p5442
aVdid
p5443
aVon
p5444
aVsunday
p5445
aV,
aVto
p5446
aVregret
p5447
aVall
p5448
aVtheir
p5449
aVinvita-
p5450
aVtions
p5451
aVand
p5452
aVstay
p5453
aVat
p5454
aVhome
p5455
aV?
aa(lp5456
Vhe
p5457
aVtried
p5458
aVthe
p5459
aVgarage
p5460
aVdoors
p5461
aVto
p5462
aVsee
p5463
aVwhat
p5464
aVcars
p5465
aVwere
p5466
aVin
p5467
aVbut
p5468
aVthe
p5469
aVdoors
p5470
aVwere
p5471
aVlocked
p5472
aVand
p5473
aVrust
p5474
aVcame
p5475
aVoff
p5476
aVthe
p5477
aVhandles
p5478
aVonto
p5479
aVhis
p5480
aVhands
p5481
aV.
aa(lp5482
Vgoing
p5483
aVtoward
p5484
aVthe
p5485
aVhouse
p5486
aV,
aVhe
p5487
aVsaw
p5488
aVthat
p5489
aVthe
p5490
aVforce
p5491
aVof
p5492
aVthe
p5493
aVth
p5494
aVunderstorm
p5495
aVhad
p5496
aVknocked
p5497
aVone
p5498
aVof
p5499
aVthe
p5500
aVrain
p5501
aVgutters
p5502
aVloose
p5503
aV.
aa(lp5504
Vit
p5505
aVhung
p5506
aVdown
p5507
aVover
p5508
aVthe
p5509
aVfront
p5510
aVdoor
p5511
aVlike
p5512
aVan
p5513
aVum-
p5514
aVbrella
p5515
aVrib
p5516
aV,
aVbut
p5517
aVit
p5518
aVcould
p5519
aVbe
p5520
aV\ufb01xed
p5521
aVin
p5522
aVthe
p5523
aVmorning
p5524
aV.
aa(lp5525
Vthe
p5526
aVhouse
p5527
aVwas
p5528
aVlocked
p5529
aV,
aVand
p5530
aVhe
p5531
aVthought
p5532
aVthat
p5533
aVthe
p5534
aVstupid
p5535
aVcook
p5536
aVor
p5537
aVthe
p5538
aVstupid
p5539
aVmaid
p5540
aVmust
p5541
aVhave
p5542
aVlocked
p5543
aVthe
p5544
aVplace
p5545
aVup
p5546
aVuntil
p5547
aVhe
p5548
aVremembered
p5549
aVthat
p5550
aVit
p5551
aVhad
p5552
aVbeen
p5553
aVsome
p5554
aVtime
p5555
aVsince
p5556
aVthey
p5557
aVhad
p5558
aVemployed
p5559
aVa
aVmaid
p5560
aVor
p5561
aVa
aVcook
p5562
aV.
aa(lp5563
Vhe
p5564
aVshouted
p5565
aV,
aVpounded
p5566
aVon
p5567
aVthe
p5568
aVdoor
p5569
aV,
aVtried
p5570
aVto
p5571
aVforce
p5572
aVit
p5573
aVwith
p5574
aVhis
p5575
aVshoul-
p5576
aVder
p5577
aV,
aVand
p5578
aVthen
p5579
aV,
aVlooking
p5580
aVin
p5581
aVat
p5582
aVthe
p5583
aVwindows
p5584
aV,
aVsaw
p5585
aVthat
p5586
aVthe
p5587
aVplace
p5588
aVwas
p5589
aVempty
p5590
aV.
aasb.