ccopy_reg
_reconstructor
p1
(cData.Book
Book
p2
c__builtin__
object
p3
NtRp4
(dp5
S'stored_object'
p6
S'Books/The_Swimmer/Book_object.p'
p7
sS'title'
p8
S'The Swimmer'
p9
sS'main_text_path'
p10
S'Books/The_Swimmer/main_cleaned.txt'
p11
sS'metadata_path'
p12
S'Books/The_Swimmer/meta_data.csv'
p13
sS'book_path'
p14
S'Books/The_Swimmer/'
p15
sS'characters'
p16
(dp17
S'neddy merrill'
p18
(dp19
S'list'
p20
(lp21
(lp22
V[
aVCHARACTER
p23
aV]
aV-
aVthe
p24
aVprotagonist
p25
aV,
aVwho
p26
aVdecides
p27
aVto
p28
aVgo
p29
aVhome
p30
aVfrom
p31
aVhis
p32
aVfriends
p33
aV'
aVhouse
p34
aVby
p35
aVswimming
p36
aVthrough
p37
aVall
p38
aVthe
p39
aVpools
p40
aVin
p41
aVhis
p42
aVneighborhood
p43
aV.
aa(lp44
Vneddy
p45
aVand
p46
aVhis
p47
aVwife
p48
aV,
aVlucinda
p49
aV,
aVenjoy
p50
aVa
aVhigh
p51
aVsocial
p52
aVstanding
p53
aVin
p54
aVtheir
p55
aVaffluent
p56
aVneighborhood
p57
aV.
aa(lp58
Vas
p59
aVhe
p60
aVswims
p61
aVhome
p62
aV,
aVhe
p63
aVloses
p64
aVhis
p65
aVstrength
p66
aV,
aVand
p67
aVhis
p68
aVfriends
p69
aVbegin
p70
aVsaying
p71
aVthings
p72
aVthat
p73
aVsuggest
p74
aVthat
p75
aVa
aVgreat
p76
aVdeal
p77
aVof
p78
aVtime
p79
aVhas
p80
aVgone
p81
aVby
p82
aV.
aa(lp83
Vwhen
p84
aVhe
p85
aVarrives
p86
aVhome
p87
aV,
aVhe
p88
aVfinds
p89
aVhis
p90
aVhouse
p91
aVempty
p92
aV.
aasS'relevant_text'
p93
(lp94
(lp95
(lp96
Vall
p97
aVdrank
p98
aVtoo
p99
aVmuch
p100
aV,
aV\u201d
aVsaid
p101
aVlucinda
p102
aVmerrill
p103
aV.
aa(lp104
V\u201cit
p105
aVmust
p106
aVhave
p107
aVbeen
p108
aVthe
p109
aVwine
p110
aV,
aV\u201d
aVsaid
p111
aVhelen
p112
aVwesterhazy
p113
aV.
aa(lp114
V\u201ci
p115
aVdrank
p116
aVtoo
p117
aVmuch
p118
aVof
p119
aVthat
p120
aVclaret.\u201d
p121
aVthis
p122
aVwas
p123
aVat
p124
aVthe
p125
aVedge
p126
aVof
p127
aVthe
p128
aVwesterhazys\u2019
p129
aVpool
p130
aV.
aa(lp131
Vthe
p132
aVpool
p133
aV,
aVfed
p134
aVby
p135
aVan
p136
aVartesian
p137
aVwell
p138
aVwith
p139
aVa
aVhigh
p140
aViron
p141
aVcontent
p142
aV,
aVwas
p143
aVa
aVpale
p144
aVshade
p145
aVof
p146
aVgreen
p147
aV.
aa(lp148
Vit
p149
aVwas
p150
aVa
aV\ufb01ne
p151
aVday
p152
aV.
aa(lp153
Vin
p154
aVthe
p155
aVwest
p156
aVthere
p157
aVwas
p158
aVa
aVmassive
p159
aVstand
p160
aVof
p161
aVcumulus
p162
aVcloud
p163
aVso
p164
aVlike
p165
aVa
aVcity
p166
aVseen
p167
aVfrom
p168
aVa
aVdistance\u2014
p169
aVfrom
p170
aVthe
p171
aVbow
p172
aVof
p173
aVan
p174
aVapproaching
p175
aVship\u2014
p176
aVthat
p177
aVit
p178
aVmight
p179
aVhave
p180
aVhad
p181
aVa
aVname
p182
aV.
aa(lp183
Vlisbon
p184
aV.
aa(lp185
Vhackensack
p186
aV.
aa(lp187
Vthe
p188
aVsun
p189
aVwas
p190
aVhot
p191
aV.
aa(lp192
Vneddy
p193
aVmerrill
p194
aVsat
p195
aVby
p196
aVthe
p197
aVgreen
p198
aVwater
p199
aV,
aVone
p200
aVhand
p201
aVin
p202
aVit
p203
aV,
aVone
p204
aVaround
p205
aVa
aVglass
p206
aVof
p207
aVgin
p208
aV.
aa(lp209
Vhe
p210
aVwas
p211
aVa
aVslender
p212
aVman\u2014
p213
aVhe
p214
aVseemed
p215
aVto
p216
aVhave
p217
aVthe
p218
aVespecial
p219
aVslenderness
p220
aVof
p221
aVyouth\u2014
p222
aVand
p223
aVwhile
p224
aVhe
p225
aVwas
p226
aVfar
p227
aVfrom
p228
aVyoung
p229
aVhe
p230
aVhad
p231
aVslid
p232
aVdown
p233
aVhis
p234
aVbanister
p235
aVthat
p236
aVmorning
p237
aVand
p238
aVgiven
p239
aVthe
p240
aVbronze
p241
aVbackside
p242
aVof
p243
aVaphrodite
p244
aVon
p245
aVthe
p246
aVhall
p247
aVtable
p248
aVa
aVsmack
p249
aV,
aVas
p250
aVhe
p251
aVjogged
p252
aVtoward
p253
aVthe
p254
aVsmell
p255
aVof
p256
aVcoffee
p257
aVin
p258
aVhis
p259
aVdining
p260
aVroom
p261
aV.
aa(lp262
Vhe
p263
aVmight
p264
aVhave
p265
aVbeen
p266
aVcom-
p267
aVpared
p268
aVto
p269
aVa
aVsummer\u2019s
p270
aVday
p271
aV,
aVparticularly
p272
aVthe
p273
aVlast
p274
aVhours
p275
aVof
p276
aVone
p277
aV,
aVand
p278
aVwhile
p279
aVhe
p280
aVlacked
p281
aVa
aVtennis
p282
aVracket
p283
aVor
p284
aVa
aVsail
p285
aVbag
p286
aaasS'analysis'
p287
(lp288
(lp289
V[
aVCHARACTER
p290
aV]
aV[
aVCHARACTER
p291
aV]
aV,
aVwith
p292
aVhis
p293
aVperfect
p294
aVfamily
p295
aV,
aVhigh
p296
aVsocial
p297
aVstanding
p298
aV,
aVand
p299
aVpricey
p300
aVsuburban
p301
aVhome
p302
aV,
aVhas
p303
aVfew
p304
aVproblems
p305
aVin
p306
aVhis
p307
aVlife
p308
aVand
p309
aVseems
p310
aVto
p311
aVsee
p312
aVhimself
p313
aVand
p314
aVall
p315
aVhis
p316
aVfriends
p317
aVas
p318
aVblessed
p319
aV.
aa(lp320
Vneddy
p321
aVhas
p322
aVmastered
p323
aVall
p324
aVthe
p325
aVrules
p326
aVof
p327
aVthe
p328
aVworld
p329
aVhe
p330
aVinhabits
p331
aV.
aa(lp332
Vhe
p333
aVaccepts
p334
aVand
p335
aVrejects
p336
aVinvitations
p337
aVaccording
p338
aVto
p339
aVa
aVrigid
p340
aVsocial
p341
aVhierarchy
p342
aVand
p343
aVengages
p344
aVin
p345
aVall
p346
aVthe
p347
aVexpected
p348
aVtrappings
p349
aVand
p350
aVactivities
p351
aV:
aVtennis
p352
aV,
aVdrinking
p353
aVgin
p354
aV,
aVand
p355
aVsailing
p356
aV.
aa(lp357
Vhe
p358
aVhas
p359
aVmany
p360
aVfriends
p361
aV,
aVand
p362
aVhis
p363
aVposition
p364
aVin
p365
aVthis
p366
aVprivileged
p367
aVworld
p368
aVallows
p369
aVhim
p370
aVto
p371
aVhop
p372
aVfrom
p373
aVpool
p374
aVto
p375
aVpool
p376
aVuninvited
p377
aV,
aVconfident
p378
aVthat
p379
aVhe
p380
aVwill
p381
aVbe
p382
aVwelcomed
p383
aVwherever
p384
aVhe
p385
aVgoes
p386
aV.
aa(lp387
Vif
p388
aVthere
p389
aVis
p390
aVany
p391
aVunpleasantness
p392
aVin
p393
aVneddy
p394
aV's
p395
aVworld
p396
aV,
aVneddy
p397
aVopts
p398
aVnot
p399
aVto
p400
aVsee
p401
aVit
p402
aV.
aa(lp403
Valthough
p404
aVhe
p405
aVis
p406
aVno
p407
aVlonger
p408
aVyoung
p409
aV,
aVhe
p410
aVprides
p411
aVhimself
p412
aVon
p413
aVhis
p414
aVyouthful
p415
aVstrength
p416
aVand
p417
aVvigor
p418
aVand
p419
aVseems
p420
aVto
p421
aVsee
p422
aVhimself
p423
aVas
p424
aVinvincible
p425
aV.
aa(lp426
Vhe
p427
aVexists
p428
aVin
p429
aVa
aVstate
p430
aVof
p431
aVbliss
p432
aVthat
p433
aVleaves
p434
aVno
p435
aVroom
p436
aVfor
p437
aVanything
p438
aVbut
p439
aVhealth
p440
aVand
p441
aVhappiness
p442
aV.
aa(lp443
Vas
p444
aVneddy
p445
aVundertakes
p446
aVhis
p447
aVwatery
p448
aVjourney
p449
aVhome
p450
aV,
aVhe
p451
aVbegins
p452
aVto
p453
aVunderstand
p454
aVthat
p455
aVthe
p456
aVdiscontent
p457
aVhe
p458
aV's
p459
aValways
p460
aVstubbornly
p461
aVignored
p462
aVis
p463
aVmore
p464
aVpresent
p465
aVin
p466
aVhis
p467
aVlife
p468
aVthan
p469
aVhe
p470
aVrealized
p471
aV.
aa(lp472
Vneddy
p473
aVhas
p474
aVmade
p475
aVa
aVhabit
p476
aVof
p477
aVrejecting
p478
aVinvitations
p479
aV,
aVand
p480
aVas
p481
aVfriend
p482
aVafter
p483
aVfriend
p484
aVremarks
p485
aVon
p486
aVhow
p487
aVlong
p488
aVit
p489
aV's
p490
aVbeen
p491
aVsince
p492
aVthey
p493
aV've
p494
aVseen
p495
aVhim
p496
aV,
aVit
p497
aVbecomes
p498
aVclear
p499
aVthat
p500
aVhe
p501
aVhas
p502
aVdistanced
p503
aVhimself
p504
aVfrom
p505
aVthose
p506
aVaround
p507
aVhim
p508
aV:
aVhe
p509
aVhad
p510
aVn't
p511
aVbeen
p512
aVaware
p513
aVof
p514
aVhis
p515
aVfriend
p516
aV's
p517
aVillness
p518
aV,
aVfriends
p519
aVhave
p520
aVmoved
p521
aVaway
p522
aV,
aVand
p523
aVhe
p524
aVhimself
p525
aVhas
p526
aVsuffered
p527
aVfrom
p528
aVsome
p529
aVunknown
p530
aVmisfortune
p531
aVthat
p532
aVhas
p533
aVcost
p534
aVhim
p535
aVhis
p536
aVwealth
p537
aVand
p538
aVfamily
p539
aV.
aa(lp540
Vthe
p541
aVrobust
p542
aVhealth
p543
aVand
p544
aVstrength
p545
aVthat
p546
aVneddy
p547
aVenjoys
p548
aVleaves
p549
aVhim
p550
aV,
aVand
p551
aVhe
p552
aVgets
p553
aVweaker
p554
aVas
p555
aVhis
p556
aVjourney
p557
aVprogresses
p558
aV.
aa(lp559
Vrather
p560
aVthan
p561
aVbeing
p562
aVeternally
p563
aVyouthful
p564
aV,
aVneddy
p565
aVis
p566
aVactually
p567
aVaging
p568
aVand
p569
aVmoving
p570
aVtoward
p571
aVdeath
p572
aV.
aa(lp573
Veverything
p574
aVhe
p575
aVonce
p576
aVconsidered
p577
aVhis
p578
aVright
p579
aV--
p580
aVhis
p581
aVfamily
p582
aV,
aVmistress
p583
aV's
p584
aVaffection
p585
aV,
aVyouth
p586
aV,
aVand
p587
aVsocial
p588
aVstanding
p589
aV--
p590
aVhave
p591
aVdisappeared
p592
aV,
aVand
p593
aVat
p594
aVthe
p595
aVend
p596
aVof
p597
aVthe
p598
aVstory
p599
aVhe
p600
aVis
p601
aVleft
p602
aVentirely
p603
aValone
p604
aV.
aa(lp605
Vneddy
p606
aVis
p607
aVnot
p608
aVan
p609
aVevil
p610
aVman
p611
aVin
p612
aVany
p613
aVway
p614
aV,
aVbut
p615
aVhis
p616
aVwillful
p617
aVignorance
p618
aVof
p619
aVthe
p620
aVunpleasant
p621
aVside
p622
aVof
p623
aVlife
p624
aVeventually
p625
aVleads
p626
aVto
p627
aVhis
p628
aVdownfall
p629
aV.
aasssS'mainText'
p630
(lp631
(lp632
Vthe
p633
aVswimmer
p634
aVit
p635
aVwas
p636
aVone
p637
aVof
p638
aVthose
p639
aVmidsummer
p640
aVsundays
p641
aVwhen
p642
aVeveryone
p643
aVsits
p644
aVaround
p645
aVsaying
p646
aV,
aV\u201ci
p647
aVdrank
p648
aVtoo
p649
aVmuch
p650
aVlast
p651
aVnight.\u201d
p652
aVyou
p653
aVmight
p654
aVhave
p655
aVheard
p656
aVit
p657
aVwhispered
p658
aVby
p659
aVthe
p660
aVparishioners
p661
aVleaving
p662
aVchurch
p663
aV,
aVheard
p664
aVit
p665
aVfrom
p666
aVthe
p667
aVlips
p668
aVof
p669
aVthe
p670
aVpriest
p671
aVhimself
p672
aV,
aVstruggling
p673
aVwith
p674
aVhis
p675
aVcassock
p676
aVin
p677
aVthe
p678
aVvestiarium
p679
aV,
aVheard
p680
aVit
p681
aVfrom
p682
aVthe
p683
aVgolf
p684
aVlinks
p685
aVand
p686
aVthe
p687
aVtennis
p688
aVcourts
p689
aV,
aVheard
p690
aVit
p691
aVfrom
p692
aVthe
p693
aVwildlife
p694
aVpreserve
p695
aVwhere
p696
aVthe
p697
aVleader
p698
aVof
p699
aVthe
p700
aVaudubon
p701
aVgroup
p702
aVwas
p703
aVsuffering
p704
aVfrom
p705
aVa
aVterrible
p706
aVhangover
p707
aV.
aa(lp708
V\u201ci
p709
aVdrank
p710
aVtoo
p711
aVmuch
p712
aV,
aV\u201d
aVsaid
p713
aVdonald
p714
aVwesterhazy
p715
aV.
aa(lp716
V\u201cwe
p717
aVall
p718
aVdrank
p719
aVtoo
p720
aVmuch
p721
aV,
aV\u201d
aVsaid
p722
aVlucinda
p723
aVmerrill
p724
aV.
aa(lp725
V\u201cit
p726
aVmust
p727
aVhave
p728
aVbeen
p729
aVthe
p730
aVwine
p731
aV,
aV\u201d
aVsaid
p732
aVhelen
p733
aVwesterhazy
p734
aV.
aa(lp735
V\u201ci
p736
aVdrank
p737
aVtoo
p738
aVmuch
p739
aVof
p740
aVthat
p741
aVclaret.\u201d
p742
aVthis
p743
aVwas
p744
aVat
p745
aVthe
p746
aVedge
p747
aVof
p748
aVthe
p749
aVwesterhazys\u2019
p750
aVpool
p751
aV.
aa(lp752
Vthe
p753
aVpool
p754
aV,
aVfed
p755
aVby
p756
aVan
p757
aVartesian
p758
aVwell
p759
aVwith
p760
aVa
aVhigh
p761
aViron
p762
aVcontent
p763
aV,
aVwas
p764
aVa
aVpale
p765
aVshade
p766
aVof
p767
aVgreen
p768
aV.
aa(lp769
Vit
p770
aVwas
p771
aVa
aV\ufb01ne
p772
aVday
p773
aV.
aa(lp774
Vin
p775
aVthe
p776
aVwest
p777
aVthere
p778
aVwas
p779
aVa
aVmassive
p780
aVstand
p781
aVof
p782
aVcumulus
p783
aVcloud
p784
aVso
p785
aVlike
p786
aVa
aVcity
p787
aVseen
p788
aVfrom
p789
aVa
aVdistance\u2014
p790
aVfrom
p791
aVthe
p792
aVbow
p793
aVof
p794
aVan
p795
aVapproaching
p796
aVship\u2014
p797
aVthat
p798
aVit
p799
aVmight
p800
aVhave
p801
aVhad
p802
aVa
aVname
p803
aV.
aa(lp804
Vlisbon
p805
aV.
aa(lp806
Vhackensack
p807
aV.
aa(lp808
Vthe
p809
aVsun
p810
aVwas
p811
aVhot
p812
aV.
aa(lp813
Vneddy
p814
aVmerrill
p815
aVsat
p816
aVby
p817
aVthe
p818
aVgreen
p819
aVwater
p820
aV,
aVone
p821
aVhand
p822
aVin
p823
aVit
p824
aV,
aVone
p825
aVaround
p826
aVa
aVglass
p827
aVof
p828
aVgin
p829
aV.
aa(lp830
Vhe
p831
aVwas
p832
aVa
aVslender
p833
aVman\u2014
p834
aVhe
p835
aVseemed
p836
aVto
p837
aVhave
p838
aVthe
p839
aVespecial
p840
aVslenderness
p841
aVof
p842
aVyouth\u2014
p843
aVand
p844
aVwhile
p845
aVhe
p846
aVwas
p847
aVfar
p848
aVfrom
p849
aVyoung
p850
aVhe
p851
aVhad
p852
aVslid
p853
aVdown
p854
aVhis
p855
aVbanister
p856
aVthat
p857
aVmorning
p858
aVand
p859
aVgiven
p860
aVthe
p861
aVbronze
p862
aVbackside
p863
aVof
p864
aVaphrodite
p865
aVon
p866
aVthe
p867
aVhall
p868
aVtable
p869
aVa
aVsmack
p870
aV,
aVas
p871
aVhe
p872
aVjogged
p873
aVtoward
p874
aVthe
p875
aVsmell
p876
aVof
p877
aVcoffee
p878
aVin
p879
aVhis
p880
aVdining
p881
aVroom
p882
aV.
aa(lp883
Vhe
p884
aVmight
p885
aVhave
p886
aVbeen
p887
aVcom-
p888
aVpared
p889
aVto
p890
aVa
aVsummer\u2019s
p891
aVday
p892
aV,
aVparticularly
p893
aVthe
p894
aVlast
p895
aVhours
p896
aVof
p897
aVone
p898
aV,
aVand
p899
aVwhile
p900
aVhe
p901
aVlacked
p902
aVa
aVtennis
p903
aVracket
p904
aVor
p905
aVa
aVsail
p906
aVbag
p907
aVthe
p908
aVimpression
p909
aVwas
p910
aVde\ufb01nitely
p911
aVone
p912
aVof
p913
aVyouth
p914
aV,
aVsport
p915
aV,
aVand
p916
aVclement
p917
aVweather
p918
aV.
aa(lp919
Vhe
p920
aVhad
p921
aVbeen
p922
aVswimming
p923
aVand
p924
aVnow
p925
aVhe
p926
aVwas
p927
aVbreathing
p928
aVdeeply
p929
aV,
aVstertorously
p930
aVas
p931
aVif
p932
aVhe
p933
aVcould
p934
aVgulp
p935
aVinto
p936
aVhis
p937
aVlungs
p938
aVthe
p939
aVcomponents
p940
aVof
p941
aVthat
p942
aVmo-
p943
aVment
p944
aV,
aVthe
p945
aVheat
p946
aVof
p947
aVthe
p948
aVsun
p949
aV,
aVthe
p950
aVintenseness
p951
aVof
p952
aVhis
p953
aVplea
p954
aVsure
p955
aV.
aa(lp956
Vit
p957
aVall
p958
aVseemed
p959
aVto
p960
aV\ufb02ow
p961
aVinto
p962
aVhis
p963
aVchest
p964
aV.
aa(lp965
Vhis
p966
aVown
p967
aVhouse
p968
aVstood
p969
aVin
p970
aVbullet
p971
aVpark
p972
aV,
aVeight
p973
aVmiles
p974
aVto
p975
aVthe
p976
aVsouth
p977
aV,
aVwhere
p978
aVhis
p979
aVfour
p980
aVbeautiful
p981
aVdaugh-
p982
aVters
p983
aVwould
p984
aVhave
p985
aVhad
p986
aVtheir
p987
aVlunch
p988
aVand
p989
aVmight
p990
aVbe
p991
aVplaying
p992
aVtennis
p993
aV.
aa(lp994
Vthen
p995
aVit
p996
aVoccurred
p997
aVto
p998
aVhim
p999
aVthat
p1000
aVby
p1001
aVtaking
p1002
aVa
aVdogleg
p1003
aVto
p1004
aVthe
p1005
aVsouth-
p1006
aVwest
p1007
aVhe
p1008
aVcould
p1009
aVreach
p1010
aVhis
p1011
aVhome
p1012
aVby
p1013
aVwater
p1014
aV.
aa(lp1015
Vhis
p1016
aVlife
p1017
aVwas
p1018
aVnot
p1019
aVcon\ufb01ning
p1020
aVand
p1021
aVthe
p1022
aVdelight
p1023
aVhe
p1024
aVtook
p1025
aVin
p1026
aVthis
p1027
aVob-
p1028
aVservation
p1029
aVcould
p1030
aVnot
p1031
aVbe
p1032
aVexplained
p1033
aVby
p1034
aVits
p1035
aVsuggestion
p1036
aVof
p1037
aVescape
p1038
aV.
aa(lp1039
Vare
p1040
aVyou
p1041
aVreceiving
p1042
aVstory
p1043
aVof
p1044
aVthe
p1045
aVweek
p1046
aVeach
p1047
aVweek
p1048
aV?
aa(lp1049
Vsign
p1050
aVup
p1051
aVnow
p1052
aVat
p1053
aVstoryoftheweek.loa.org
p1054
aVto
p1055
aVreceive
p1056
aVour
p1057
aVweekly
p1058
aValert
p1059
aVso
p1060
aVyou
p1061
aVwon\u2019t
p1062
aVmiss
p1063
aVa
aVsingle
p1064
aVstory
p1065
aV!
aa(lp1066
Vhe
p1067
aVseemed
p1068
aVto
p1069
aVsee
p1070
aV,
aVwith
p1071
aVa
aVcartographer\u2019s
p1072
aVeye
p1073
aV,
aVthat
p1074
aVstring
p1075
aVof
p1076
aVswimming
p1077
aVpools
p1078
aV,
aVthat
p1079
aVquasi-subterranean
p1080
aVstream
p1081
aVthat
p1082
aVcurved
p1083
aVacross
p1084
aVthe
p1085
aVcounty
p1086
aV.
aa(lp1087
Vhe
p1088
aVhad
p1089
aVmade
p1090
aVa
aVdiscovery
p1091
aV,
aVa
aVcontribution
p1092
aVto
p1093
aVmodern
p1094
aVgeography
p1095
aV;
aVhe
p1096
aVwould
p1097
aVname
p1098
aVthe
p1099
aVstream
p1100
aVlucinda
p1101
aVafter
p1102
aVhis
p1103
aVwife
p1104
aV.
aa(lp1105
Vhe
p1106
aVwas
p1107
aVnot
p1108
aVa
aVpractical
p1109
aVjoker
p1110
aVnor
p1111
aVwas
p1112
aVhe
p1113
aVa
aVfool
p1114
aVbut
p1115
aVhe
p1116
aVwas
p1117
aVdeterminedly
p1118
aVoriginal
p1119
aVand
p1120
aVhad
p1121
aVa
aVvague
p1122
aVand
p1123
aVmodest
p1124
aVidea
p1125
aVof
p1126
aVhimself
p1127
aVas
p1128
aVa
aVlegendary
p1129
aV\ufb01gure
p1130
aV.
aa(lp1131
Vthe
p1132
aVday
p1133
aVwas
p1134
aVbeautiful
p1135
aVand
p1136
aVit
p1137
aVseemed
p1138
aVto
p1139
aVhim
p1140
aVthat
p1141
aVa
aVlong
p1142
aVswim
p1143
aVmight
p1144
aVenlarge
p1145
aVand
p1146
aVcelebrate
p1147
aVits
p1148
aVbeauty
p1149
aV.
aa(lp1150
Vhe
p1151
aVtook
p1152
aVoff
p1153
aVa
aVsweater
p1154
aVthat
p1155
aVwas
p1156
aVhung
p1157
aVover
p1158
aVhis
p1159
aVshoulders
p1160
aVand
p1161
aVdove
p1162
aVin
p1163
aV.
aa(lp1164
Vhe
p1165
aVhad
p1166
aVan
p1167
aVinexplicable
p1168
aVcontempt
p1169
aVfor
p1170
aVmen
p1171
aVwho
p1172
aVdid
p1173
aVnot
p1174
aVhurl
p1175
aVthemselves
p1176
aVinto
p1177
aVpools
p1178
aV.
aa(lp1179
Vhe
p1180
aVswam
p1181
aVa
aVchoppy
p1182
aVcrawl
p1183
aV,
aVbreathing
p1184
aVeither
p1185
aVwith
p1186
aVevery
p1187
aVstroke
p1188
aVor
p1189
aVevery
p1190
aVfourth
p1191
aVstroke
p1192
aVand
p1193
aVcounting
p1194
aVsomewhere
p1195
aVwell
p1196
aVin
p1197
aVthe
p1198
aVback
p1199
aVof
p1200
aVhis
p1201
aVmind
p1202
aVthe
p1203
aVone-two
p1204
aVone-two
p1205
aVof
p1206
aVa
aV\ufb02utter
p1207
aVkick
p1208
aV.
aa(lp1209
Vit
p1210
aVwas
p1211
aVnot
p1212
aVa
aVser
p1213
aVviceable
p1214
aVstroke
p1215
aVfor
p1216
aVlong
p1217
aVdistances
p1218
aVbut
p1219
aVthe
p1220
aVdomestication
p1221
aVof
p1222
aVswimming
p1223
aVhad
p1224
aVsaddled
p1225
aVthe
p1226
aVsport
p1227
aVwith
p1228
aVsome
p1229
aVcustoms
p1230
aVand
p1231
aVin
p1232
aVhis
p1233
aVpart
p1234
aVof
p1235
aVthe
p1236
aVworld
p1237
aVa
aVcrawl
p1238
aVwas
p1239
aVcustomary
p1240
aV.
aa(lp1241
Vto
p1242
aVbe
p1243
aVembraced
p1244
aVand
p1245
aVsustained
p1246
aVby
p1247
aVthe
p1248
aVlight
p1249
aVgreen
p1250
aVwater
p1251
aVwas
p1252
aVless
p1253
aVa
aVplea
p1254
aVsure
p1255
aV,
aVit
p1256
aVseemed
p1257
aV,
aVthan
p1258
aVthe
p1259
aVre-
p1260
aVsumption
p1261
aVof
p1262
aVa
aVnatural
p1263
aVcondition
p1264
aV,
aVand
p1265
aVhe
p1266
aVwould
p1267
aVhave
p1268
aVliked
p1269
aVto
p1270
aVswim
p1271
aVwithout
p1272
aVtrunks
p1273
aV,
aVbut
p1274
aVthis
p1275
aVwas
p1276
aVnot
p1277
aVpossible
p1278
aV,
aVconsidering
p1279
aVhis
p1280
aVproject
p1281
aV.
aa(lp1282
Vhe
p1283
aVhoisted
p1284
aVhimself
p1285
aVup
p1286
aVon
p1287
aVthe
p1288
aVfar
p1289
aVcurb\u2014
p1290
aVhe
p1291
aVnever
p1292
aVused
p1293
aVthe
p1294
aVladder\u2014
p1295
aVand
p1296
aVstarted
p1297
aVacross
p1298
aVthe
p1299
aVlawn
p1300
aV.
aa(lp1301
Vwhen
p1302
aVlucinda
p1303
aVasked
p1304
aVwhere
p1305
aVhe
p1306
aVwas
p1307
aVgoing
p1308
aVhe
p1309
aVsaid
p1310
aVhe
p1311
aVwas
p1312
aVgoing
p1313
aVto
p1314
aVswim
p1315
aVhome
p1316
aV.
aa(lp1317
Vthe
p1318
aVonly
p1319
aVmaps
p1320
aVand
p1321
aVcharts
p1322
aVhe
p1323
aVhad
p1324
aVto
p1325
aVgo
p1326
aVby
p1327
aVwere
p1328
aVremem-
p1329
aVbered
p1330
aVor
p1331
aVimaginary
p1332
aVbut
p1333
aVthese
p1334
aVwere
p1335
aVclear
p1336
aVenough
p1337
aV.
aa(lp1338
Vfirst
p1339
aVthere
p1340
aVwere
p1341
aVthe
p1342
aVgrahams
p1343
aV,
aVthe
p1344
aVhammers
p1345
aV,
aVthe
p1346
aVlears
p1347
aV,
aVthe
p1348
aVhowlands
p1349
aV,
aVand
p1350
aVthe
p1351
aVcrosscups
p1352
aV.
aa(lp1353
Vhe
p1354
aVwould
p1355
aVcross
p1356
aVditmar
p1357
aVstreet
p1358
aVto
p1359
aVthe
p1360
aVbunkers
p1361
aVand
p1362
aVcome
p1363
aV,
aVafter
p1364
aVa
aVshort
p1365
aVportage
p1366
aV,
aVto
p1367
aVthe
p1368
aVlevys
p1369
aV,
aVthe
p1370
aVwelchers
p1371
aV,
aVand
p1372
aVthe
p1373
aVpublic
p1374
aVpool
p1375
aVin
p1376
aVlancaster
p1377
aV.
aa(lp1378
Vthen
p1379
aVthere
p1380
aVwere
p1381
aVthe
p1382
aVhallo-
p1383
aVrans
p1384
aV,
aVthe
p1385
aVsachses
p1386
aV,
aVthe
p1387
aVbiswangers
p1388
aV,
aVshirley
p1389
aVadams
p1390
aV,
aVthe
p1391
aVgil
p1392
aV-
aVmartins
p1393
aV,
aVand
p1394
aVthe
p1395
aVclydes
p1396
aV.
aa(lp1397
Vthe
p1398
aVday
p1399
aVwas
p1400
aVlovely
p1401
aV,
aVand
p1402
aVthat
p1403
aVhe
p1404
aVlived
p1405
aVin
p1406
aVa
aVworld
p1407
aVso
p1408
aVgenerously
p1409
aVsupplied
p1410
aVwith
p1411
aVwater
p1412
aVseemed
p1413
aVlike
p1414
aVa
aVclemency
p1415
aV,
aVa
aVbene\ufb01cence
p1416
aV.
aa(lp1417
Vhis
p1418
aVheart
p1419
aVwas
p1420
aVhigh
p1421
aVand
p1422
aVhe
p1423
aVran
p1424
aVacross
p1425
aVthe
p1426
aVgrass
p1427
aV.
aa(lp1428
Vmaking
p1429
aVhis
p1430
aVway
p1431
aVhome
p1432
aVby
p1433
aVan
p1434
aVuncommon
p1435
aVroute
p1436
aVgave
p1437
aVhim
p1438
aVthe
p1439
aVfeeling
p1440
aVthat
p1441
aVhe
p1442
aVwas
p1443
aVa
aVpilgrim
p1444
aV,
aVan
p1445
aVexplorer
p1446
aV,
aVa
aVman
p1447
aVwith
p1448
aVa
aVdestiny
p1449
aV,
aVand
p1450
aVhe
p1451
aVknew
p1452
aVthat
p1453
aVhe
p1454
aVwould
p1455
aV\ufb01nd
p1456
aVfriends
p1457
aVall
p1458
aValong
p1459
aVthe
p1460
aVway
p1461
aV;
aVfriends
p1462
aVwould
p1463
aVline
p1464
aVthe
p1465
aVbanks
p1466
aVof
p1467
aVthe
p1468
aVlucinda
p1469
aVriver
p1470
aV.
aa(lp1471
Vhe
p1472
aVwent
p1473
aVthrough
p1474
aVa
aVhedge
p1475
aVthat
p1476
aVseparated
p1477
aVthe
p1478
aVwesterhazys\u2019
p1479
aVland
p1480
aVfrom
p1481
aVthe
p1482
aVgrahams\u2019
p1483
aV,
aVwalked
p1484
aVunder
p1485
aVsome
p1486
aV\ufb02owering
p1487
aVapple
p1488
aVthe
p1489
aVstories
p1490
aVof
p1491
aVjohn
p1492
aVcheever
p1493
aVtrees
p1494
aV,
aVpassed
p1495
aVthe
p1496
aVshed
p1497
aVthat
p1498
aVhoused
p1499
aVtheir
p1500
aVpump
p1501
aVand
p1502
aV\ufb01lter
p1503
aV,
aVand
p1504
aVcame
p1505
aVout
p1506
aVat
p1507
aVthe
p1508
aVgrahams\u2019
p1509
aVpool
p1510
aV.
aa(lp1511
V\u201cwhy
p1512
aV,
aVneddy
p1513
aV,
aV\u201d
aVmrs.
p1514
aVgraham
p1515
aVsaid
p1516
aV,
aV\u201cwhat
p1517
aVa
aVmarvelous
p1518
aVsurprise
p1519
aV.
aa(lp1520
Vi\u2019ve
p1521
aVbeen
p1522
aVtrying
p1523
aVto
p1524
aVget
p1525
aVyou
p1526
aVon
p1527
aVthe
p1528
aVphone
p1529
aVall
p1530
aVmorning
p1531
aV.
aa(lp1532
Vhere
p1533
aV,
aVlet
p1534
aVme
p1535
aVget
p1536
aVyou
p1537
aVa
aVdrink.\u201d
p1538
aVhe
p1539
aVsaw
p1540
aVthen
p1541
aV,
aVlike
p1542
aVany
p1543
aVexplorer
p1544
aV,
aVthat
p1545
aVthe
p1546
aVhospitable
p1547
aVcustoms
p1548
aVand
p1549
aVtraditions
p1550
aVof
p1551
aVthe
p1552
aVnatives
p1553
aVwould
p1554
aVhave
p1555
aVto
p1556
aVbe
p1557
aVhandled
p1558
aVwith
p1559
aVdiplo-
p1560
aVmacy
p1561
aVif
p1562
aVhe
p1563
aVwas
p1564
aVever
p1565
aVgoing
p1566
aVto
p1567
aVreach
p1568
aVhis
p1569
aVdestination
p1570
aV.
aa(lp1571
Vhe
p1572
aVdid
p1573
aVnot
p1574
aVwant
p1575
aVto
p1576
aVmystify
p1577
aVor
p1578
aVseem
p1579
aVrude
p1580
aVto
p1581
aVthe
p1582
aVgrahams
p1583
aVnor
p1584
aVdid
p1585
aVhe
p1586
aVhave
p1587
aVthe
p1588
aVtime
p1589
aVto
p1590
aVlinger
p1591
aVthere
p1592
aV.
aa(lp1593
Vhe
p1594
aVswam
p1595
aVthe
p1596
aVlength
p1597
aVof
p1598
aVtheir
p1599
aVpool
p1600
aVand
p1601
aVjoined
p1602
aVthem
p1603
aVin
p1604
aVthe
p1605
aVsun
p1606
aVand
p1607
aVwas
p1608
aVrescued
p1609
aV,
aVa
aVfew
p1610
aVminutes
p1611
aVlater
p1612
aV,
aVby
p1613
aVthe
p1614
aVarrival
p1615
aVof
p1616
aVtwo
p1617
aVcarloads
p1618
aVof
p1619
aVfriends
p1620
aVfrom
p1621
aVconnecticut
p1622
aV.
aa(lp1623
Vduring
p1624
aVthe
p1625
aVuproarious
p1626
aVreunions
p1627
aVhe
p1628
aVwas
p1629
aVable
p1630
aVto
p1631
aVslip
p1632
aVaway
p1633
aV.
aa(lp1634
Vhe
p1635
aVwent
p1636
aVdown
p1637
aVby
p1638
aVthe
p1639
aVfront
p1640
aVof
p1641
aVthe
p1642
aVgrahams\u2019
p1643
aVhouse
p1644
aV,
aVstepped
p1645
aVover
p1646
aVa
aVthorny
p1647
aVhedge
p1648
aV,
aVand
p1649
aVcrossed
p1650
aVa
aVvacant
p1651
aVlot
p1652
aVto
p1653
aVthe
p1654
aVhammers\u2019
p1655
aV.
aa(lp1656
Vmrs.
p1657
aVhammer
p1658
aV,
aVlooking
p1659
aVup
p1660
aVfrom
p1661
aVher
p1662
aVroses
p1663
aV,
aVsaw
p1664
aVhim
p1665
aVswim
p1666
aVby
p1667
aValthough
p1668
aVshe
p1669
aVwasn\u2019t
p1670
aVquite
p1671
aVsure
p1672
aVwho
p1673
aVit
p1674
aVwas
p1675
aV.
aa(lp1676
Vthe
p1677
aVlears
p1678
aVheard
p1679
aVhim
p1680
aVsplashing
p1681
aVpast
p1682
aVthe
p1683
aVopen
p1684
aVwindows
p1685
aVof
p1686
aVtheir
p1687
aVliving
p1688
aVroom
p1689
aV.
aa(lp1690
Vthe
p1691
aVhowlands
p1692
aVand
p1693
aVthe
p1694
aVcrosscups
p1695
aVwere
p1696
aVaway
p1697
aV.
aa(lp1698
Vafter
p1699
aVleaving
p1700
aVthe
p1701
aVhow
p1702
aV-
aVlands\u2019
p1703
aVhe
p1704
aVcrossed
p1705
aVditmar
p1706
aVstreet
p1707
aVand
p1708
aVstarted
p1709
aVfor
p1710
aVthe
p1711
aVbunkers\u2019
p1712
aV,
aVwhere
p1713
aVhe
p1714
aVcould
p1715
aVhear
p1716
aV,
aVeven
p1717
aVat
p1718
aVthat
p1719
aVdistance
p1720
aV,
aVthe
p1721
aVnoise
p1722
aVof
p1723
aVa
aVparty
p1724
aV.
aa(lp1725
Vthe
p1726
aVwater
p1727
aVrefracted
p1728
aVthe
p1729
aVsound
p1730
aVof
p1731
aVvoices
p1732
aVand
p1733
aVlaughter
p1734
aVand
p1735
aVseemed
p1736
aVto
p1737
aVsuspend
p1738
aVit
p1739
aVin
p1740
aVmidair
p1741
aV.
aa(lp1742
Vthe
p1743
aVbunkers\u2019
p1744
aVpool
p1745
aVwas
p1746
aVon
p1747
aVa
aVrise
p1748
aVand
p1749
aVhe
p1750
aVclimbed
p1751
aVsome
p1752
aVstairs
p1753
aVto
p1754
aVa
aVterrace
p1755
aVwhere
p1756
aVtwenty-\ufb01ve
p1757
aVor
p1758
aVthirty
p1759
aVmen
p1760
aVand
p1761
aVwomen
p1762
aVwere
p1763
aVdrinking
p1764
aV.
aa(lp1765
Vthe
p1766
aVonly
p1767
aVperson
p1768
aVin
p1769
aVthe
p1770
aVwater
p1771
aVwas
p1772
aVrusty
p1773
aVtowers
p1774
aV,
aVwho
p1775
aV\ufb02oated
p1776
aVthere
p1777
aVon
p1778
aVa
aVrubber
p1779
aVraft
p1780
aV.
aa(lp1781
Voh
p1782
aV,
aVhow
p1783
aVbonny
p1784
aVand
p1785
aVlush
p1786
aVwere
p1787
aVthe
p1788
aVbanks
p1789
aVof
p1790
aVthe
p1791
aVlucinda
p1792
aVriver
p1793
aV!
aa(lp1794
Vprosperous
p1795
aVmen
p1796
aVand
p1797
aVwomen
p1798
aVgathered
p1799
aVby
p1800
aVthe
p1801
aVsapphire-
p1802
aVcolored
p1803
aVwaters
p1804
aVwhile
p1805
aVcaterer\u2019s
p1806
aVmen
p1807
aVin
p1808
aVwhite
p1809
aVcoats
p1810
aVpassed
p1811
aVthem
p1812
aVcold
p1813
aVgin
p1814
aV.
aa(lp1815
Voverhead
p1816
aVa
aVred
p1817
aVde
p1818
aVhaviland
p1819
aVtrainer
p1820
aVwas
p1821
aVcircling
p1822
aVaround
p1823
aVand
p1824
aVaround
p1825
aVand
p1826
aVaround
p1827
aVin
p1828
aVthe
p1829
aVsky
p1830
aVwith
p1831
aVsomething
p1832
aVlike
p1833
aVthe
p1834
aVglee
p1835
aVof
p1836
aVa
aVchild
p1837
aVin
p1838
aVa
aVswing
p1839
aV.
aa(lp1840
Vned
p1841
aVfelt
p1842
aVa
aVpassing
p1843
aVaffection
p1844
aVfor
p1845
aVthe
p1846
aVscene
p1847
aV,
aVa
aVtenderness
p1848
aVfor
p1849
aVthe
p1850
aVgathering
p1851
aV,
aVas
p1852
aVif
p1853
aVit
p1854
aVwas
p1855
aVsomething
p1856
aVhe
p1857
aVmight
p1858
aVtouch
p1859
aV.
aa(lp1860
Vin
p1861
aVthe
p1862
aVdistance
p1863
aVhe
p1864
aVheard
p1865
aVth
p1866
aVunder
p1867
aV.
aa(lp1868
Vas
p1869
aVsoon
p1870
aVas
p1871
aVenid
p1872
aVbunker
p1873
aVsaw
p1874
aVhim
p1875
aVshe
p1876
aVbegan
p1877
aVto
p1878
aVscream
p1879
aV:
aV\u201coh
p1880
aV,
aVlook
p1881
aVwho\u2019s
p1882
aVhere
p1883
aV!
aa(lp1884
Vwhat
p1885
aVa
aVmarvelous
p1886
aVsurprise
p1887
aV!
aa(lp1888
Vwhen
p1889
aVlucinda
p1890
aVsaid
p1891
aVthat
p1892
aVyou
p1893
aVcouldn\u2019t
p1894
aVcome
p1895
aVi
aVthought
p1896
aVi\u2019d
p1897
aVdie.\u201d
p1898
aVshe
p1899
aVmade
p1900
aVher
p1901
aVway
p1902
aVto
p1903
aVhim
p1904
aVthrough
p1905
aVthe
p1906
aVcrowd
p1907
aV,
aVand
p1908
aVwhen
p1909
aVthey
p1910
aVhad
p1911
aV\ufb01nished
p1912
aVkissing
p1913
aVshe
p1914
aVled
p1915
aVhim
p1916
aVto
p1917
aVthe
p1918
aVbar
p1919
aV,
aVa
aVprog
p1920
aVress
p1921
aVthat
p1922
aVwas
p1923
aVslowed
p1924
aVby
p1925
aVthe
p1926
aVfact
p1927
aVthat
p1928
aVhe
p1929
aVstopped
p1930
aVto
p1931
aVkiss
p1932
aVeight
p1933
aVor
p1934
aVten
p1935
aVother
p1936
aVwomen
p1937
aVand
p1938
aVshake
p1939
aVthe
p1940
aVhands
p1941
aVof
p1942
aVas
p1943
aVmany
p1944
aVmen
p1945
aV.
aa(lp1946
Va
aVsmiling
p1947
aVbartender
p1948
aVhe
p1949
aVhad
p1950
aVseen
p1951
aVat
p1952
aVa
aVhundred
p1953
aVparties
p1954
aVgave
p1955
aVhim
p1956
aVa
aVgin
p1957
aVand
p1958
aVtonic
p1959
aVand
p1960
aVhe
p1961
aVstood
p1962
aVby
p1963
aVthe
p1964
aVbar
p1965
aVfor
p1966
aVa
aVmoment
p1967
aV,
aVanxious
p1968
aVnot
p1969
aVto
p1970
aVget
p1971
aVstuck
p1972
aVin
p1973
aVany
p1974
aVconversation
p1975
aVthat
p1976
aVwould
p1977
aVdelay
p1978
aVhis
p1979
aVvoyage
p1980
aV.
aa(lp1981
Vwhen
p1982
aVhe
p1983
aVseemed
p1984
aVabout
p1985
aVto
p1986
aVbe
p1987
aVsur-
p1988
aVrounded
p1989
aVhe
p1990
aVdove
p1991
aVin
p1992
aVand
p1993
aVswam
p1994
aVclose
p1995
aVto
p1996
aVthe
p1997
aVside
p1998
aVto
p1999
aVavoid
p2000
aVcol
p2001
aV-
aVliding
p2002
aVwith
p2003
aVrusty\u2019s
p2004
aVraft
p2005
aV.
aa(lp2006
Vat
p2007
aVthe
p2008
aVfar
p2009
aVend
p2010
aVof
p2011
aVthe
p2012
aVpool
p2013
aVhe
p2014
aVbypassed
p2015
aVthe
p2016
aVtomlinsons
p2017
aVwith
p2018
aVa
aVbroad
p2019
aVsmile
p2020
aVand
p2021
aVjogged
p2022
aVup
p2023
aVthe
p2024
aVgarden
p2025
aVpath
p2026
aV.
aa(lp2027
Vthe
p2028
aVgravel
p2029
aVcut
p2030
aVhis
p2031
aVfeet
p2032
aVbut
p2033
aVthis
p2034
aVwas
p2035
aVthe
p2036
aVonly
p2037
aVunpleasant-
p2038
aVness
p2039
aV.
aa(lp2040
Vthe
p2041
aVparty
p2042
aVwas
p2043
aVcon\ufb01ned
p2044
aVto
p2045
aVthe
p2046
aVpool
p2047
aV,
aVand
p2048
aVas
p2049
aVhe
p2050
aVwent
p2051
aVtoward
p2052
aVthe
p2053
aVhouse
p2054
aVhe
p2055
aVheard
p2056
aVthe
p2057
aVbrilliant
p2058
aV,
aVwatery
p2059
aVsound
p2060
aVof
p2061
aVvoices
p2062
aVfade
p2063
aV,
aVheard
p2064
aVthe
p2065
aVnoise
p2066
aVof
p2067
aVa
aVradio
p2068
aVfrom
p2069
aVthe
p2070
aVbunkers\u2019
p2071
aVkitchen
p2072
aV,
aVwhere
p2073
aVsomeone
p2074
aVwas
p2075
aVlistening
p2076
aVto
p2077
aVa
aVball
p2078
aVgame
p2079
aV.
aa(lp2080
Vsunday
p2081
aVafter
p2082
aV-
aVnoon
p2083
aV.
aa(lp2084
Vhe
p2085
aVmade
p2086
aVhis
p2087
aVway
p2088
aVthrough
p2089
aVthe
p2090
aVparked
p2091
aVcars
p2092
aVand
p2093
aVdown
p2094
aVthe
p2095
aVgrassy
p2096
aVb
aVorder
p2097
aVof
p2098
aVtheir
p2099
aVdriveway
p2100
aVto
p2101
aValewives
p2102
aVlane
p2103
aV.
aa(lp2104
Vhe
p2105
aVdid
p2106
aVnot
p2107
aVwant
p2108
aVto
p2109
aVbe
p2110
aVseen
p2111
aVon
p2112
aVthe
p2113
aVroad
p2114
aVin
p2115
aVhis
p2116
aVbathing
p2117
aVtrunks
p2118
aVbut
p2119
aVthere
p2120
aVwas
p2121
aVno
p2122
aVtraf\ufb01c
p2123
aVand
p2124
aVhe
p2125
aVmade
p2126
aVthe
p2127
aVshort
p2128
aVdistance
p2129
aVto
p2130
aVthe
p2131
aVlevys\u2019
p2132
aVdriveway
p2133
aV,
aVmarked
p2134
aVwith
p2135
aVa
aVprivate
p2136
aVproperty
p2137
aVsign
p2138
aVand
p2139
aVa
aVgreen
p2140
aVtube
p2141
aVfor
p2142
aVthe
p2143
aVnew
p2144
aVyork
p2145
aVtimes
p2146
aV.
aa(lp2147
Vall
p2148
aVthe
p2149
aVdoors
p2150
aVand
p2151
aVwindows
p2152
aVof
p2153
aVthe
p2154
aVbig
p2155
aVhouse
p2156
aVwere
p2157
aVopen
p2158
aVbut
p2159
aVthere
p2160
aVwere
p2161
aVno
p2162
aVsigns
p2163
aVof
p2164
aVlife
p2165
aV;
aVnot
p2166
aVeven
p2167
aVa
aVdog
p2168
aVbarked
p2169
aV.
aa(lp2170
Vhe
p2171
aVwent
p2172
aVaround
p2173
aVthe
p2174
aVside
p2175
aVof
p2176
aVthe
p2177
aVhouse
p2178
aVto
p2179
aVthe
p2180
aVpool
p2181
aVand
p2182
aVsaw
p2183
aVthat
p2184
aVthe
p2185
aVlevys
p2186
aVhad
p2187
aVonly
p2188
aVrecently
p2189
aVleft
p2190
aV.
aa(lp2191
Vglasses
p2192
aVand
p2193
aVbottles
p2194
aVand
p2195
aVdishes
p2196
aVof
p2197
aVnuts
p2198
aVwere
p2199
aVon
p2200
aVa
aVtable
p2201
aVat
p2202
aVthe
p2203
aVdeep
p2204
aVend
p2205
aV,
aVwhere
p2206
aVthere
p2207
aVwas
p2208
aVa
aVbathhouse
p2209
aVor
p2210
aVgazebo
p2211
aV,
aVhung
p2212
aVwith
p2213
aVjapanese
p2214
aVlanterns
p2215
aV.
aa(lp2216
Vafter
p2217
aVswimming
p2218
aVthe
p2219
aVpool
p2220
aVhe
p2221
aVgot
p2222
aVhimself
p2223
aVa
aVglass
p2224
aVand
p2225
aVpoured
p2226
aVa
aVdrink
p2227
aV.
aa(lp2228
Vit
p2229
aVwas
p2230
aVhis
p2231
aVfourth
p2232
aVor
p2233
aV\ufb01fth
p2234
aVdrink
p2235
aVand
p2236
aVhe
p2237
aVhad
p2238
aVswum
p2239
aVnearly
p2240
aVhalf
p2241
aVthe
p2242
aVlength
p2243
aVof
p2244
aVthe
p2245
aVlucinda
p2246
aVriver
p2247
aV.
aa(lp2248
Vhe
p2249
aVfelt
p2250
aVtired
p2251
aV,
aVclean
p2252
aV,
aVand
p2253
aVpleased
p2254
aVat
p2255
aVthat
p2256
aVmoment
p2257
aVto
p2258
aVbe
p2259
aValone
p2260
aV;
aVpleased
p2261
aVwith
p2262
aVeverything
p2263
aV.
aa(lp2264
Vit
p2265
aVwould
p2266
aVstorm
p2267
aV.
aa(lp2268
Vthe
p2269
aVstand
p2270
aVof
p2271
aVcumulus
p2272
aVcloud\u2014
p2273
aVthat
p2274
aVcity\u2014
p2275
aVhad
p2276
aVrisen
p2277
aVand
p2278
aVdarkened
p2279
aV,
aVand
p2280
aVwhile
p2281
aVhe
p2282
aVsat
p2283
aVthere
p2284
aVhe
p2285
aVheard
p2286
aVthe
p2287
aVpercussiveness
p2288
aVof
p2289
aVth
p2290
aVunder
p2291
aVagain
p2292
aV.
aa(lp2293
Vthe
p2294
aVde
p2295
aVhaviland
p2296
aVtrainer
p2297
aVwas
p2298
aVstill
p2299
aVcircling
p2300
aVoverhead
p2301
aVand
p2302
aVit
p2303
aVseemed
p2304
aVto
p2305
aVned
p2306
aVthat
p2307
aVhe
p2308
aVcould
p2309
aValmost
p2310
aVhear
p2311
aVthe
p2312
aVpilot
p2313
aVlaugh
p2314
aVwith
p2315
aVplea
p2316
aVsure
p2317
aVin
p2318
aVthe
p2319
aVafternoon
p2320
aV;
aVbut
p2321
aVwhen
p2322
aVthere
p2323
aVwas
p2324
aVan
p2325
aVother
p2326
aVpeal
p2327
aVof
p2328
aVth
p2329
aVunder
p2330
aVhe
p2331
aVtook
p2332
aVoff
p2333
aVfor
p2334
aVhome
p2335
aV.
aa(lp2336
Va
aVtrain
p2337
aVwhistle
p2338
aVblew
p2339
aVand
p2340
aVhe
p2341
aVwondered
p2342
aVwhat
p2343
aVtime
p2344
aVit
p2345
aVhad
p2346
aVgotten
p2347
aVto
p2348
aVbe
p2349
aV.
aa(lp2350
Vfour
p2351
aV?
aa(lp2352
Vfive
p2353
aV?
aa(lp2354
Vhe
p2355
aVthought
p2356
aVof
p2357
aVthe
p2358
aVprovincial
p2359
aVstation
p2360
aVat
p2361
aVthat
p2362
aVhour
p2363
aV,
aVwhere
p2364
aVa
aVwaiter
p2365
aV,
aVhis
p2366
aVtuxedo
p2367
aVconcealed
p2368
aVby
p2369
aVa
aVraincoat
p2370
aV,
aVa
aVdwarf
p2371
aVwith
p2372
aVsome
p2373
aV\ufb02owers
p2374
aVwrapped
p2375
aVin
p2376
aVnews
p2377
aVpaper
p2378
aV,
aVand
p2379
aVa
aVwoman
p2380
aVwho
p2381
aVhad
p2382
aVbeen
p2383
aVcrying
p2384
aVwould
p2385
aVbe
p2386
aVwaiting
p2387
aVfor
p2388
aVthe
p2389
aVlocal
p2390
aV.
aa(lp2391
Vit
p2392
aVwas
p2393
aVsuddenly
p2394
aVgrowing
p2395
aVdark
p2396
aV;
aVit
p2397
aVwas
p2398
aVthat
p2399
aVmoment
p2400
aVwhen
p2401
aVthe
p2402
aVpin-
p2403
aVheaded
p2404
aVbirds
p2405
aVseem
p2406
aVto
p2407
aVorganize
p2408
aVtheir
p2409
aVsong
p2410
aVinto
p2411
aVsome
p2412
aVacute
p2413
aVand
p2414
aVthe
p2415
aVstories
p2416
aVof
p2417
aVjohn
p2418
aVcheever
p2419
aVknowl
p2420
aVedgeable
p2421
aVrecognition
p2422
aVof
p2423
aVthe
p2424
aVstorm\u2019s
p2425
aVapproach
p2426
aV.
aa(lp2427
Vthen
p2428
aVthere
p2429
aVwas
p2430
aVa
aV\ufb01ne
p2431
aVnoise
p2432
aVof
p2433
aVrushing
p2434
aVwater
p2435
aVfrom
p2436
aVthe
p2437
aVcrown
p2438
aVof
p2439
aVan
p2440
aVoak
p2441
aVat
p2442
aVhis
p2443
aVback
p2444
aV,
aVas
p2445
aVif
p2446
aVa
aVspigot
p2447
aVthere
p2448
aVhad
p2449
aVbeen
p2450
aVturned
p2451
aV.
aa(lp2452
Vthen
p2453
aVthe
p2454
aVnoise
p2455
aVof
p2456
aVfountains
p2457
aVcame
p2458
aVfrom
p2459
aVthe
p2460
aVcrowns
p2461
aVof
p2462
aVall
p2463
aVthe
p2464
aVtall
p2465
aVtrees
p2466
aV.
aa(lp2467
Vwhy
p2468
aVdid
p2469
aVhe
p2470
aVlove
p2471
aVstorms
p2472
aV,
aVwhat
p2473
aVwas
p2474
aVthe
p2475
aVmeaning
p2476
aVof
p2477
aVhis
p2478
aVexcite-
p2479
aVment
p2480
aVwhen
p2481
aVthe
p2482
aVdoor
p2483
aVsprang
p2484
aVopen
p2485
aVand
p2486
aVthe
p2487
aVrain
p2488
aVwind
p2489
aV\ufb02ed
p2490
aVrudely
p2491
aVup
p2492
aVthe
p2493
aVstairs
p2494
aV,
aVwhy
p2495
aVhad
p2496
aVthe
p2497
aVsimple
p2498
aVtask
p2499
aVof
p2500
aVshutting
p2501
aVthe
p2502
aVwindows
p2503
aVof
p2504
aVan
p2505
aVold
p2506
aVhouse
p2507
aVseemed
p2508
aV\ufb01tting
p2509
aVand
p2510
aVurgent
p2511
aV,
aVwhy
p2512
aVdid
p2513
aVthe
p2514
aV\ufb01rst
p2515
aVwatery
p2516
aVnotes
p2517
aVof
p2518
aVa
aVstorm
p2519
aVwind
p2520
aVhave
p2521
aVfor
p2522
aVhim
p2523
aVthe
p2524
aVunmistakable
p2525
aVsound
p2526
aVof
p2527
aVgood
p2528
aVnews
p2529
aV,
aVcheer
p2530
aV,
aVglad
p2531
aVtidings
p2532
aV?
aa(lp2533
Vthen
p2534
aVthere
p2535
aVwas
p2536
aVan
p2537
aVexplosion
p2538
aV,
aVa
aVsmell
p2539
aVof
p2540
aVcordite
p2541
aV,
aVand
p2542
aVrain
p2543
aVlashed
p2544
aVthe
p2545
aVjapanese
p2546
aVlanterns
p2547
aVthat
p2548
aVmrs.
p2549
aVlevy
p2550
aVhad
p2551
aVbought
p2552
aVin
p2553
aVkyoto
p2554
aVthe
p2555
aVyear
p2556
aVbefore
p2557
aVlast
p2558
aV,
aVor
p2559
aVwas
p2560
aVit
p2561
aVthe
p2562
aVyear
p2563
aVbefore
p2564
aVthat
p2565
aV?
aa(lp2566
Vhe
p2567
aVstayed
p2568
aVin
p2569
aVthe
p2570
aVlevys\u2019
p2571
aVgazebo
p2572
aVuntil
p2573
aVthe
p2574
aVstorm
p2575
aVhad
p2576
aVpassed
p2577
aV.
aa(lp2578
Vthe
p2579
aVrain
p2580
aVhad
p2581
aVcooled
p2582
aVthe
p2583
aVair
p2584
aVand
p2585
aVhe
p2586
aVshivered
p2587
aV.
aa(lp2588
Vthe
p2589
aVforce
p2590
aVof
p2591
aVthe
p2592
aVwind
p2593
aVhad
p2594
aVstripped
p2595
aVa
aVmaple
p2596
aVof
p2597
aVits
p2598
aVred
p2599
aVand
p2600
aVyellow
p2601
aVleaves
p2602
aVand
p2603
aVscattered
p2604
aVthem
p2605
aVover
p2606
aVthe
p2607
aVgrass
p2608
aVand
p2609
aVthe
p2610
aVwater
p2611
aV.
aa(lp2612
Vsince
p2613
aVit
p2614
aVwas
p2615
aVmid-
p2616
aVsummer
p2617
aVthe
p2618
aVtree
p2619
aVmust
p2620
aVbe
p2621
aVblighted
p2622
aV,
aVand
p2623
aVyet
p2624
aVhe
p2625
aVfelt
p2626
aVa
aVpeculiar
p2627
aVsadness
p2628
aVat
p2629
aVthis
p2630
aVsign
p2631
aVof
p2632
aVautumn
p2633
aV.
aa(lp2634
Vhe
p2635
aVbraced
p2636
aVhis
p2637
aVshoulders
p2638
aV,
aVemp-
p2639
aVtied
p2640
aVhis
p2641
aVglass
p2642
aV,
aVand
p2643
aVstarted
p2644
aVfor
p2645
aVthe
p2646
aVwelchers\u2019
p2647
aVpool
p2648
aV.
aa(lp2649
Vthis
p2650
aVmeant
p2651
aVcrossing
p2652
aVthe
p2653
aVlindleys\u2019
p2654
aVriding
p2655
aVring
p2656
aVand
p2657
aVhe
p2658
aVwas
p2659
aVsurprised
p2660
aVto
p2661
aV\ufb01nd
p2662
aVit
p2663
aVovergrown
p2664
aVwith
p2665
aVgrass
p2666
aVand
p2667
aVall
p2668
aVthe
p2669
aVjumps
p2670
aVdismantled
p2671
aV.
aa(lp2672
Vhe
p2673
aVwon-
p2674
aVdered
p2675
aVif
p2676
aVthe
p2677
aVlindleys
p2678
aVhad
p2679
aVsold
p2680
aVtheir
p2681
aVhorses
p2682
aVor
p2683
aVgone
p2684
aVaway
p2685
aVfor
p2686
aVthe
p2687
aVsummer
p2688
aVand
p2689
aVput
p2690
aVthem
p2691
aVout
p2692
aVto
p2693
aVboard
p2694
aV.
aa(lp2695
Vhe
p2696
aVseemed
p2697
aVto
p2698
aVremember
p2699
aVhaving
p2700
aVheard
p2701
aVsomething
p2702
aVabout
p2703
aVthe
p2704
aVlindleys
p2705
aVand
p2706
aVtheir
p2707
aVhorses
p2708
aVbut
p2709
aVthe
p2710
aVmemory
p2711
aVwas
p2712
aVunclear
p2713
aV.
aa(lp2714
Von
p2715
aVhe
p2716
aVwent
p2717
aV,
aVbarefoot
p2718
aVthrough
p2719
aVthe
p2720
aVwet
p2721
aVgrass
p2722
aV,
aVto
p2723
aVthe
p2724
aVwelchers\u2019
p2725
aV,
aVwhere
p2726
aVhe
p2727
aVfound
p2728
aVtheir
p2729
aVpool
p2730
aVwas
p2731
aVdry
p2732
aV.
aa(lp2733
Vthis
p2734
aVbreach
p2735
aVin
p2736
aVhis
p2737
aVchain
p2738
aVof
p2739
aVwater
p2740
aVdisappointed
p2741
aVhim
p2742
aVabsurdly
p2743
aV,
aVand
p2744
aVhe
p2745
aVfelt
p2746
aVlike
p2747
aVsome
p2748
aVexplorer
p2749
aVwho
p2750
aVseeks
p2751
aVa
aVtorrential
p2752
aVhead
p2753
aVwater
p2754
aVand
p2755
aV\ufb01nds
p2756
aVa
aVdead
p2757
aVstream
p2758
aV.
aa(lp2759
Vhe
p2760
aVwas
p2761
aVdisappointed
p2762
aVand
p2763
aVmysti\ufb01ed
p2764
aV.
aa(lp2765
Vit
p2766
aVwas
p2767
aVcommon
p2768
aVenough
p2769
aVto
p2770
aVgo
p2771
aVaway
p2772
aVfor
p2773
aVthe
p2774
aVsummer
p2775
aVbut
p2776
aVno
p2777
aVone
p2778
aVever
p2779
aVdrained
p2780
aVhis
p2781
aVpool
p2782
aV.
aa(lp2783
Vthe
p2784
aVwelchers
p2785
aVhad
p2786
aVde\ufb01nitely
p2787
aVgone
p2788
aVaway
p2789
aV.
aa(lp2790
Vthe
p2791
aVpool
p2792
aVfurniture
p2793
aVwas
p2794
aVfolded
p2795
aV,
aVstacked
p2796
aV,
aVand
p2797
aVcovered
p2798
aVwith
p2799
aVa
aVtar-
p2800
aVpaulin
p2801
aV.
aa(lp2802
Vthe
p2803
aVbathhouse
p2804
aVwas
p2805
aVlocked
p2806
aV.
aa(lp2807
Vall
p2808
aVthe
p2809
aVwindows
p2810
aVof
p2811
aVthe
p2812
aVhouse
p2813
aVwere
p2814
aVshut
p2815
aV,
aVand
p2816
aVwhen
p2817
aVhe
p2818
aVwent
p2819
aVaround
p2820
aVto
p2821
aVthe
p2822
aVdriveway
p2823
aVin
p2824
aVfront
p2825
aVhe
p2826
aVsaw
p2827
aVa
aVfor
p2828
aVsale
p2829
aVsign
p2830
aVnailed
p2831
aVto
p2832
aVa
aVtree
p2833
aV.
aa(lp2834
Vwhen
p2835
aVhad
p2836
aVhe
p2837
aVlast
p2838
aVheard
p2839
aVfrom
p2840
aVthe
p2841
aVwelchers\u2014
p2842
aVwhen
p2843
aV,
aVthat
p2844
aVis
p2845
aV,
aVhad
p2846
aVhe
p2847
aVand
p2848
aVlucinda
p2849
aVlast
p2850
aVregretted
p2851
aVan
p2852
aVinvitation
p2853
aVto
p2854
aVdine
p2855
aVwith
p2856
aVthem
p2857
aV?
aa(lp2858
Vit
p2859
aVseemed
p2860
aVonly
p2861
aVa
aVweek
p2862
aVor
p2863
aVso
p2864
aVago
p2865
aV.
aa(lp2866
Vwas
p2867
aVhis
p2868
aVmemory
p2869
aVfailing
p2870
aVor
p2871
aVhad
p2872
aVhe
p2873
aVso
p2874
aVdisci-
p2875
aVplined
p2876
aVit
p2877
aVin
p2878
aVthe
p2879
aVrepression
p2880
aVof
p2881
aVunpleasant
p2882
aVfacts
p2883
aVthat
p2884
aVhe
p2885
aVhad
p2886
aVdam-
p2887
aVaged
p2888
aVhis
p2889
aVsense
p2890
aVof
p2891
aVthe
p2892
aVtruth
p2893
aV?
aa(lp2894
Vthen
p2895
aVin
p2896
aVthe
p2897
aVdistance
p2898
aVhe
p2899
aVheard
p2900
aVthe
p2901
aVsound
p2902
aVof
p2903
aVa
aVtennis
p2904
aVgame
p2905
aV.
aa(lp2906
Vthis
p2907
aVcheered
p2908
aVhim
p2909
aV,
aVcleared
p2910
aVaway
p2911
aVall
p2912
aVhis
p2913
aVapprehensions
p2914
aVand
p2915
aVlet
p2916
aVhim
p2917
aVregard
p2918
aVthe
p2919
aVovercast
p2920
aVsky
p2921
aVand
p2922
aVthe
p2923
aVcold
p2924
aVair
p2925
aVwith
p2926
aVindifference
p2927
aV.
aa(lp2928
Vthis
p2929
aVwas
p2930
aVthe
p2931
aVday
p2932
aVthat
p2933
aVneddy
p2934
aVmerrill
p2935
aVswam
p2936
aVacross
p2937
aVthe
p2938
aVcounty
p2939
aV.
aa(lp2940
Vthat
p2941
aVwas
p2942
aVthe
p2943
aVday
p2944
aV!
aa(lp2945
Vhe
p2946
aVstarted
p2947
aVoff
p2948
aVthen
p2949
aVfor
p2950
aVhis
p2951
aVmost
p2952
aVdif\ufb01cult
p2953
aVportage
p2954
aV.
aa(lp2955
Vhad
p2956
aVyou
p2957
aVgone
p2958
aVfor
p2959
aVa
aVsunday
p2960
aVafternoon
p2961
aVride
p2962
aVthat
p2963
aVday
p2964
aVyou
p2965
aVmight
p2966
aVhave
p2967
aVseen
p2968
aVhim
p2969
aV,
aVclose
p2970
aVto
p2971
aVnaked
p2972
aV,
aVstanding
p2973
aVon
p2974
aVthe
p2975
aVshoulders
p2976
aVof
p2977
aVroute
p2978
aV424
p2979
aV,
aVwaiting
p2980
aVfor
p2981
aVa
aVchance
p2982
aVto
p2983
aVcross
p2984
aV.
aa(lp2985
Vyou
p2986
aVmight
p2987
aVhave
p2988
aVwondered
p2989
aVif
p2990
aVhe
p2991
aVwas
p2992
aVthe
p2993
aVvictim
p2994
aVof
p2995
aVfoul
p2996
aVplay
p2997
aV,
aVhad
p2998
aVhis
p2999
aVcar
p3000
aVbroken
p3001
aVdown
p3002
aV,
aVor
p3003
aVwas
p3004
aVhe
p3005
aVmerely
p3006
aVa
aVfool
p3007
aV.
aa(lp3008
Vstanding
p3009
aVbarefoot
p3010
aVin
p3011
aVthe
p3012
aVde-
p3013
aVposits
p3014
aVof
p3015
aVthe
p3016
aVhighway\u2014
p3017
aVbeer
p3018
aVcans
p3019
aV,
aVrags
p3020
aV,
aVand
p3021
aVblowout
p3022
aVpatches\u2014
p3023
aVexposed
p3024
aVto
p3025
aVall
p3026
aVkinds
p3027
aVof
p3028
aVridicule
p3029
aV,
aVhe
p3030
aVseemed
p3031
aVpitiful
p3032
aV.
aa(lp3033
Vhe
p3034
aVhad
p3035
aVknown
p3036
aVwhen
p3037
aVhe
p3038
aVstarted
p3039
aVthat
p3040
aVthis
p3041
aVwas
p3042
aVa
aVpart
p3043
aVof
p3044
aVhis
p3045
aVjourney\u2014
p3046
aVit
p3047
aVhad
p3048
aVbeen
p3049
aVon
p3050
aVhis
p3051
aVmaps\u2014
p3052
aVbut
p3053
aVconfronted
p3054
aVwith
p3055
aVthe
p3056
aVlines
p3057
aVof
p3058
aVtraf\ufb01c
p3059
aV,
aVworming
p3060
aVthrough
p3061
aVthe
p3062
aVsummery
p3063
aVlight
p3064
aV,
aVhe
p3065
aVfound
p3066
aVhimself
p3067
aVunpre-
p3068
aVpared
p3069
aV.
aa(lp3070
Vhe
p3071
aVwas
p3072
aVlaughed
p3073
aVat
p3074
aV,
aVjeered
p3075
aVat
p3076
aV,
aVa
aVbeer
p3077
aVcan
p3078
aVwas
p3079
aVthrown
p3080
aVat
p3081
aVhim
p3082
aV,
aVand
p3083
aVhe
p3084
aVhad
p3085
aVno
p3086
aVdignity
p3087
aVor
p3088
aVhumor
p3089
aVto
p3090
aVbring
p3091
aVto
p3092
aVthe
p3093
aVsituation
p3094
aV.
aa(lp3095
Vhe
p3096
aVcould
p3097
aVhave
p3098
aVgone
p3099
aVback
p3100
aV,
aVback
p3101
aVto
p3102
aVthe
p3103
aVwesterhazys\u2019
p3104
aV,
aVwhere
p3105
aVlu
p3106
aV-
aVcinda
p3107
aVwould
p3108
aVstill
p3109
aVbe
p3110
aVsitting
p3111
aVin
p3112
aVthe
p3113
aVsun
p3114
aV.
aa(lp3115
Vhe
p3116
aVhad
p3117
aVsigned
p3118
aVnothing
p3119
aV,
aVvowed
p3120
aVnothing
p3121
aV,
aVpledged
p3122
aVnothing
p3123
aV,
aVnot
p3124
aVeven
p3125
aVto
p3126
aVhimself
p3127
aV.
aa(lp3128
Vwhy
p3129
aV,
aVbelieving
p3130
aVas
p3131
aVhe
p3132
aVdid
p3133
aV,
aVthat
p3134
aVall
p3135
aVhuman
p3136
aVobduracy
p3137
aVwas
p3138
aVsusceptible
p3139
aVto
p3140
aVcommon
p3141
aVsense
p3142
aV,
aVwas
p3143
aVhe
p3144
aVunable
p3145
aVto
p3146
aVturn
p3147
aVback
p3148
aV?
aa(lp3149
Vwhy
p3150
aVwas
p3151
aVhe
p3152
aVde-
p3153
aVtermined
p3154
aVto
p3155
aVcomplete
p3156
aVhis
p3157
aVjourney
p3158
aVeven
p3159
aVif
p3160
aVit
p3161
aVmeant
p3162
aVputting
p3163
aVhis
p3164
aVlife
p3165
aVin
p3166
aVdanger
p3167
aV?
aa(lp3168
Vat
p3169
aVwhat
p3170
aVpoint
p3171
aVhad
p3172
aVthis
p3173
aVprank
p3174
aV,
aVthis
p3175
aVjoke
p3176
aV,
aVthis
p3177
aVpiece
p3178
aVof
p3179
aVhorseplay
p3180
aVbecome
p3181
aVserious
p3182
aV?
aa(lp3183
Vhe
p3184
aVcould
p3185
aVnot
p3186
aVgo
p3187
aVback
p3188
aV,
aVhe
p3189
aVcould
p3190
aVnot
p3191
aVeven
p3192
aVrecall
p3193
aVwith
p3194
aVany
p3195
aVclearness
p3196
aVthe
p3197
aVgreen
p3198
aVwater
p3199
aVat
p3200
aVthe
p3201
aVwesterhazys\u2019
p3202
aV,
aVthe
p3203
aVsense
p3204
aVof
p3205
aVinhaling
p3206
aVthe
p3207
aVday\u2019s
p3208
aVcomponents
p3209
aV,
aVthe
p3210
aVfriendly
p3211
aVand
p3212
aVrelaxed
p3213
aVvoices
p3214
aVsaying
p3215
aVthat
p3216
aVthey
p3217
aVhad
p3218
aVdrunk
p3219
aVtoo
p3220
aVmuch
p3221
aV.
aa(lp3222
Vin
p3223
aVthe
p3224
aVspace
p3225
aVof
p3226
aVan
p3227
aVhour
p3228
aV,
aVmore
p3229
aVor
p3230
aVless
p3231
aV,
aVhe
p3232
aVhad
p3233
aVcovered
p3234
aVa
aVdistance
p3235
aVthat
p3236
aVmade
p3237
aVhis
p3238
aVreturn
p3239
aVimpossible
p3240
aV.
aa(lp3241
Van
p3242
aVold
p3243
aVman
p3244
aV,
aVtooling
p3245
aVdown
p3246
aVthe
p3247
aVhighway
p3248
aVat
p3249
aV\ufb01fteen
p3250
aVmiles
p3251
aVan
p3252
aVhour
p3253
aV,
aVlet
p3254
aVhim
p3255
aVget
p3256
aVto
p3257
aVthe
p3258
aVmiddle
p3259
aVof
p3260
aVthe
p3261
aVroad
p3262
aV,
aVwhere
p3263
aVthere
p3264
aVwas
p3265
aVa
aVgrass
p3266
aVdivider
p3267
aV.
aa(lp3268
Vhere
p3269
aVhe
p3270
aVwas
p3271
aVexposed
p3272
aVto
p3273
aVthe
p3274
aVridicule
p3275
aVof
p3276
aVthe
p3277
aVnorth
p3278
aV-
aVbound
p3279
aVtraf\ufb01c
p3280
aV,
aVbut
p3281
aVafter
p3282
aVten
p3283
aVor
p3284
aV\ufb01fteen
p3285
aVminutes
p3286
aVhe
p3287
aVwas
p3288
aVable
p3289
aVto
p3290
aVcross
p3291
aV.
aa(lp3292
Vfrom
p3293
aVhere
p3294
aVhe
p3295
aVhad
p3296
aVonly
p3297
aVa
aVshort
p3298
aVwalk
p3299
aVto
p3300
aVthe
p3301
aVrecreation
p3302
aVcenter
p3303
aVat
p3304
aVthe
p3305
aVedge
p3306
aVof
p3307
aVthe
p3308
aVvillage
p3309
aVof
p3310
aVlancaster
p3311
aV,
aVwhere
p3312
aVthere
p3313
aVwere
p3314
aVsome
p3315
aVhandball
p3316
aVcourts
p3317
aVand
p3318
aVa
aVpublic
p3319
aVpool
p3320
aV.
aa(lp3321
Vthe
p3322
aVstories
p3323
aVof
p3324
aVjohn
p3325
aVcheever
p3326
aVthe
p3327
aVeffect
p3328
aVof
p3329
aVthe
p3330
aVwater
p3331
aVon
p3332
aVvoices
p3333
aV,
aVthe
p3334
aVillusion
p3335
aVof
p3336
aVbrilliance
p3337
aVand
p3338
aVsuspense
p3339
aV,
aVwas
p3340
aVthe
p3341
aVsame
p3342
aVhere
p3343
aVas
p3344
aVit
p3345
aVhad
p3346
aVbeen
p3347
aVat
p3348
aVthe
p3349
aVbunkers\u2019
p3350
aVbut
p3351
aVthe
p3352
aVsounds
p3353
aVhere
p3354
aVwere
p3355
aVlouder
p3356
aV,
aVharsher
p3357
aV,
aVand
p3358
aVmore
p3359
aVshrill
p3360
aV,
aVand
p3361
aVas
p3362
aVsoon
p3363
aVas
p3364
aVhe
p3365
aVentered
p3366
aVthe
p3367
aVcrowded
p3368
aVenclosure
p3369
aVhe
p3370
aVwas
p3371
aVcon-
p3372
aVfronted
p3373
aVwith
p3374
aVregimentation
p3375
aV.
aa(lp3376
V\u201call
p3377
aVswimmers
p3378
aVmust
p3379
aVtake
p3380
aVa
aVshower
p3381
aVbefore
p3382
aVusing
p3383
aVthe
p3384
aVpool
p3385
aV.
aa(lp3386
Vall
p3387
aVswimmers
p3388
aVmust
p3389
aVuse
p3390
aVthe
p3391
aVfootbath
p3392
aV.
aa(lp3393
Vall
p3394
aVswimmers
p3395
aVmust
p3396
aVwear
p3397
aVtheir
p3398
aVidentifi-
p3399
aVcation
p3400
aVdisks.\u201d
p3401
aVhe
p3402
aVtook
p3403
aVa
aVshower
p3404
aV,
aVwashed
p3405
aVhis
p3406
aVfeet
p3407
aVin
p3408
aVa
aVcloudy
p3409
aVand
p3410
aVbitter
p3411
aVsolution
p3412
aV,
aVand
p3413
aVmade
p3414
aVhis
p3415
aVway
p3416
aVto
p3417
aVthe
p3418
aVedge
p3419
aVof
p3420
aVthe
p3421
aVwater
p3422
aV.
aa(lp3423
Vit
p3424
aVstank
p3425
aVof
p3426
aVchlorine
p3427
aVand
p3428
aVlooked
p3429
aVto
p3430
aVhim
p3431
aVlike
p3432
aVa
aVsink
p3433
aV.
aa(lp3434
Va
aVpair
p3435
aVof
p3436
aVlife-
p3437
aVguards
p3438
aVin
p3439
aVa
aVpair
p3440
aVof
p3441
aVtowers
p3442
aVblew
p3443
aVpolice
p3444
aVwhistles
p3445
aVat
p3446
aVwhat
p3447
aVseemed
p3448
aVto
p3449
aVbe
p3450
aVregular
p3451
aVintervals
p3452
aVand
p3453
aVabused
p3454
aVthe
p3455
aVswimmers
p3456
aVthrough
p3457
aVa
aVpublic
p3458
aVaddress
p3459
aVsystem
p3460
aV.
aa(lp3461
Vneddy
p3462
aVremembered
p3463
aVthe
p3464
aVsapphire
p3465
aVwater
p3466
aVat
p3467
aVthe
p3468
aVbunkers\u2019
p3469
aVwith
p3470
aVlonging
p3471
aVand
p3472
aVthought
p3473
aVthat
p3474
aVhe
p3475
aVmight
p3476
aVcon-
p3477
aVtaminate
p3478
aVhimself\u2014
p3479
aVdamage
p3480
aVhis
p3481
aVown
p3482
aVprosperousness
p3483
aVand
p3484
aVcharm
p3485
aV\u2014
aVby
p3486
aVswimming
p3487
aVin
p3488
aVthis
p3489
aVmurk
p3490
aV,
aVbut
p3491
aVhe
p3492
aVreminded
p3493
aVhimself
p3494
aVthat
p3495
aVhe
p3496
aVwas
p3497
aVan
p3498
aVexplorer
p3499
aV,
aVa
aVpilgrim
p3500
aV,
aVand
p3501
aVthat
p3502
aVthis
p3503
aVwas
p3504
aVmerely
p3505
aVa
aVstagnant
p3506
aVbend
p3507
aVin
p3508
aVthe
p3509
aVlucinda
p3510
aVriver
p3511
aV.
aa(lp3512
Vhe
p3513
aVdove
p3514
aV,
aVscowling
p3515
aVwith
p3516
aVdistaste
p3517
aV,
aVinto
p3518
aVthe
p3519
aVchlorine
p3520
aVand
p3521
aVhad
p3522
aVto
p3523
aVswim
p3524
aVwith
p3525
aVhis
p3526
aVhead
p3527
aVabove
p3528
aVwater
p3529
aVto
p3530
aVavoid
p3531
aVcollisions
p3532
aV,
aVbut
p3533
aVeven
p3534
aVso
p3535
aVhe
p3536
aVwas
p3537
aVbumped
p3538
aVinto
p3539
aV,
aVsplashed
p3540
aV,
aVand
p3541
aVjostled
p3542
aV.
aa(lp3543
Vwhen
p3544
aVhe
p3545
aVgot
p3546
aVto
p3547
aVthe
p3548
aVshallow
p3549
aVend
p3550
aVboth
p3551
aVlifeguards
p3552
aVwere
p3553
aVshouting
p3554
aVat
p3555
aVhim
p3556
aV:
aV\u201chey
p3557
aV,
aVyou
p3558
aV,
aVyou
p3559
aVwithout
p3560
aVthe
p3561
aVidenti\ufb01ca-
p3562
aVtion
p3563
aVdisk
p3564
aV,
aVget
p3565
aVouta
p3566
aVthe
p3567
aVwater.\u201d
p3568
aVhe
p3569
aVdid
p3570
aV,
aVbut
p3571
aVthey
p3572
aVhad
p3573
aVno
p3574
aVway
p3575
aVof
p3576
aVpursuing
p3577
aVhim
p3578
aVand
p3579
aVhe
p3580
aVwent
p3581
aVthrough
p3582
aVthe
p3583
aVreek
p3584
aVof
p3585
aVsuntan
p3586
aVoil
p3587
aVand
p3588
aVchlorine
p3589
aVout
p3590
aVthrough
p3591
aVthe
p3592
aVhurricane
p3593
aVfence
p3594
aVand
p3595
aVpassed
p3596
aVthe
p3597
aVhand-
p3598
aVball
p3599
aVcourts
p3600
aV.
aa(lp3601
Vby
p3602
aVcrossing
p3603
aVthe
p3604
aVroad
p3605
aVhe
p3606
aVentered
p3607
aVthe
p3608
aVwooded
p3609
aVpart
p3610
aVof
p3611
aVthe
p3612
aVhalloran
p3613
aVestate
p3614
aV.
aa(lp3615
Vthe
p3616
aVwoods
p3617
aVwere
p3618
aVnot
p3619
aVcleared
p3620
aVand
p3621
aVthe
p3622
aVfooting
p3623
aVwas
p3624
aVtreacherous
p3625
aVand
p3626
aVdif\ufb01cult
p3627
aVuntil
p3628
aVhe
p3629
aVreached
p3630
aVthe
p3631
aVlawn
p3632
aVand
p3633
aVthe
p3634
aVclipped
p3635
aVbeech
p3636
aVhedge
p3637
aVthat
p3638
aVencircled
p3639
aVtheir
p3640
aVpool
p3641
aV.
aa(lp3642
Vthe
p3643
aVhallorans
p3644
aVwere
p3645
aVfriends
p3646
aV,
aVan
p3647
aVelderly
p3648
aVcouple
p3649
aVof
p3650
aVenormous
p3651
aVwealth
p3652
aVwho
p3653
aVseemed
p3654
aVto
p3655
aVbask
p3656
aVin
p3657
aVthe
p3658
aVsuspicion
p3659
aVthat
p3660
aVthey
p3661
aVmight
p3662
aVbe
p3663
aVcommunists
p3664
aV.
aa(lp3665
Vthey
p3666
aVwere
p3667
aVzealous
p3668
aVreformers
p3669
aVbut
p3670
aVthey
p3671
aVwere
p3672
aVnot
p3673
aVcommunists
p3674
aV,
aVand
p3675
aVyet
p3676
aVwhen
p3677
aVthey
p3678
aVwere
p3679
aVaccused
p3680
aV,
aVas
p3681
aVthey
p3682
aVsome-
p3683
aVtimes
p3684
aVwere
p3685
aV,
aVof
p3686
aVsubversion
p3687
aV,
aVit
p3688
aVseemed
p3689
aVto
p3690
aVgratify
p3691
aVand
p3692
aVexcite
p3693
aVthem
p3694
aV.
aa(lp3695
Vtheir
p3696
aVbeech
p3697
aVhedge
p3698
aVwas
p3699
aVyellow
p3700
aVand
p3701
aVhe
p3702
aVguessed
p3703
aVthis
p3704
aVhad
p3705
aVbeen
p3706
aVblighted
p3707
aVlike
p3708
aVthe
p3709
aVlevys\u2019
p3710
aVmaple
p3711
aV.
aa(lp3712
Vhe
p3713
aVcalled
p3714
aVhullo
p3715
aV,
aVhullo
p3716
aV,
aVto
p3717
aVwarn
p3718
aVthe
p3719
aVhallorans
p3720
aVof
p3721
aVhis
p3722
aVapproach
p3723
aV,
aVto
p3724
aVpalliate
p3725
aVhis
p3726
aVinvasion
p3727
aVof
p3728
aVtheir
p3729
aVprivacy
p3730
aV.
aa(lp3731
Vthe
p3732
aVhallorans
p3733
aV,
aVfor
p3734
aVreasons
p3735
aVthat
p3736
aVhad
p3737
aVnever
p3738
aVbeen
p3739
aVex-
p3740
aVplained
p3741
aVto
p3742
aVhim
p3743
aV,
aVdid
p3744
aVnot
p3745
aVwear
p3746
aVbathing
p3747
aVsuits
p3748
aV.
aa(lp3749
Vno
p3750
aVexplanations
p3751
aVwere
p3752
aVin
p3753
aVorder
p3754
aV,
aVreally
p3755
aV.
aa(lp3756
Vtheir
p3757
aVnakedness
p3758
aVwas
p3759
aVa
aVdetail
p3760
aVin
p3761
aVtheir
p3762
aVun-
p3763
aVcompromising
p3764
aVzeal
p3765
aVfor
p3766
aVreform
p3767
aVand
p3768
aVhe
p3769
aVstepped
p3770
aVpolitely
p3771
aVout
p3772
aVof
p3773
aVhis
p3774
aVtrunks
p3775
aVbefore
p3776
aVhe
p3777
aVwent
p3778
aVthrough
p3779
aVthe
p3780
aVopening
p3781
aVin
p3782
aVthe
p3783
aVhedge
p3784
aV.
aa(lp3785
Vmrs.
p3786
aVhalloran
p3787
aV,
aVa
aVstout
p3788
aVwoman
p3789
aVwith
p3790
aVwhite
p3791
aVhair
p3792
aVand
p3793
aVa
aVserene
p3794
aVface
p3795
aV,
aVwas
p3796
aVreading
p3797
aVthe
p3798
aVtimes
p3799
aV.
aa(lp3800
Vmr.
p3801
aVhalloran
p3802
aVwas
p3803
aVtaking
p3804
aVbeech
p3805
aVleaves
p3806
aVout
p3807
aVof
p3808
aVthe
p3809
aVwater
p3810
aVwith
p3811
aVa
aVscoop
p3812
aV.
aa(lp3813
Vthey
p3814
aVseemed
p3815
aVnot
p3816
aVsur-
p3817
aVprised
p3818
aVor
p3819
aVdispleased
p3820
aVto
p3821
aVsee
p3822
aVhim
p3823
aV.
aa(lp3824
Vtheir
p3825
aVpool
p3826
aVwas
p3827
aVperhaps
p3828
aVthe
p3829
aVoldest
p3830
aVin
p3831
aVthe
p3832
aVcountry
p3833
aV,
aVa
aV\ufb01eldstone
p3834
aVrectangle
p3835
aV,
aVfed
p3836
aVby
p3837
aVa
aVbrook
p3838
aV.
aa(lp3839
Vit
p3840
aVhad
p3841
aVno
p3842
aV\ufb01lter
p3843
aVor
p3844
aVpump
p3845
aVand
p3846
aVits
p3847
aVwaters
p3848
aVwere
p3849
aVthe
p3850
aVopaque
p3851
aVgold
p3852
aVof
p3853
aVthe
p3854
aVstream
p3855
aV.
aa(lp3856
V\u201ci\u2019m
p3857
aVswimming
p3858
aVacross
p3859
aVthe
p3860
aVcounty
p3861
aV,
aV\u201d
aVned
p3862
aVsaid
p3863
aV.
aa(lp3864
V\u201cwhy
p3865
aV,
aVi
aVdidn\u2019t
p3866
aVknow
p3867
aVone
p3868
aVcould
p3869
aV,
aV\u201d
aVexclaimed
p3870
aVmrs.
p3871
aVhalloran
p3872
aV.
aa(lp3873
V\u201cwell
p3874
aV,
aVi\u2019ve
p3875
aVmade
p3876
aVit
p3877
aVfrom
p3878
aVthe
p3879
aVwesterhazys\u2019
p3880
aV,
aV\u201d
aVned
p3881
aVsaid
p3882
aV.
aa(lp3883
V\u201cthat
p3884
aVmust
p3885
aVbe
p3886
aVabout
p3887
aVfour
p3888
aVmiles.\u201d
p3889
aVhe
p3890
aVleft
p3891
aVhis
p3892
aVtrunks
p3893
aVat
p3894
aVthe
p3895
aVdeep
p3896
aVend
p3897
aV,
aVwalked
p3898
aVto
p3899
aVthe
p3900
aVshallow
p3901
aVend
p3902
aV,
aVand
p3903
aVswam
p3904
aVthis
p3905
aVstretch
p3906
aV.
aa(lp3907
Vas
p3908
aVhe
p3909
aVwas
p3910
aVpulling
p3911
aVhimself
p3912
aVout
p3913
aVof
p3914
aVthe
p3915
aVwater
p3916
aVhe
p3917
aVheard
p3918
aVmrs.
p3919
aVhalloran
p3920
aVsay
p3921
aV,
aV\u201cwe\u2019ve
p3922
aVbeen
p3923
aVterribly
p3924
aVsorry
p3925
aVto
p3926
aVhear
p3927
aVabout
p3928
aVall
p3929
aVyour
p3930
aVmisfortunes
p3931
aV,
aVneddy.\u201d
p3932
aV\u201cmy
p3933
aVmisfortunes
p3934
aV?
aV\u201d
aVned
p3935
aVasked
p3936
aV.
aa(lp3937
V\u201ci
p3938
aVdon\u2019t
p3939
aVknow
p3940
aVwhat
p3941
aVyou
p3942
aV\u201cyes
p3943
aV,
aV\u201d
aVmrs.
p3944
aVhalloran
p3945
aVsighed
p3946
aV.
aa(lp3947
V\u201cyes
p3948
aV.
aa(lp3949
V.
aa(lp3950
V.\u201d
p3951
aVher
p3952
aVvoice
p3953
aV\ufb01lled
p3954
aVthe
p3955
aVair
p3956
aVwith
p3957
aVan
p3958
aVunseasonable
p3959
aVmelancholy
p3960
aVand
p3961
aVned
p3962
aVspoke
p3963
aVbriskly
p3964
aV.
aa(lp3965
V\u201cthank
p3966
aVyou
p3967
aVfor
p3968
aVthe
p3969
aVswim.\u201d
p3970
aV\u201cwell
p3971
aV,
aVhave
p3972
aVa
aVnice
p3973
aVtrip
p3974
aV,
aV\u201d
aVsaid
p3975
aVmrs.
p3976
aVhalloran
p3977
aV.
aa(lp3978
Vbeyond
p3979
aVthe
p3980
aVhedge
p3981
aVhe
p3982
aVpulled
p3983
aVon
p3984
aVhis
p3985
aVtrunks
p3986
aVand
p3987
aVfastened
p3988
aVthem
p3989
aV.
aa(lp3990
Vthey
p3991
aVwere
p3992
aVloose
p3993
aVand
p3994
aVhe
p3995
aVwondered
p3996
aVif
p3997
aV,
aVduring
p3998
aVthe
p3999
aVspace
p4000
aVof
p4001
aVan
p4002
aVafternoon
p4003
aV,
aVhe
p4004
aVcould
p4005
aVhave
p4006
aVlost
p4007
aVsome
p4008
aVweight
p4009
aV.
aa(lp4010
Vhe
p4011
aVwas
p4012
aVcold
p4013
aVand
p4014
aVhe
p4015
aVwas
p4016
aVtired
p4017
aVand
p4018
aVthe
p4019
aVnaked
p4020
aVhallorans
p4021
aVand
p4022
aVtheir
p4023
aVdark
p4024
aVwater
p4025
aVhad
p4026
aVdepressed
p4027
aVhim
p4028
aV.
aa(lp4029
Vthe
p4030
aVswim
p4031
aVwas
p4032
aVtoo
p4033
aVmuch
p4034
aVfor
p4035
aVhis
p4036
aVstrength
p4037
aVbut
p4038
aVhow
p4039
aVcould
p4040
aVhe
p4041
aVhave
p4042
aVguessed
p4043
aVthis
p4044
aV,
aVsliding
p4045
aVdown
p4046
aVthe
p4047
aVbanister
p4048
aVthat
p4049
aVmorning
p4050
aVand
p4051
aVsitting
p4052
aVin
p4053
aVthe
p4054
aVwesterhazys\u2019
p4055
aVsun
p4056
aV?
aa(lp4057
Vhis
p4058
aVarms
p4059
aVwere
p4060
aVlame
p4061
aV.
aa(lp4062
Vhis
p4063
aVlegs
p4064
aVfelt
p4065
aVrubbery
p4066
aVand
p4067
aVached
p4068
aVat
p4069
aVthe
p4070
aVjoints
p4071
aV.
aa(lp4072
Vthe
p4073
aVworst
p4074
aVof
p4075
aVit
p4076
aVwas
p4077
aVthe
p4078
aVcold
p4079
aVin
p4080
aVhis
p4081
aVbones
p4082
aVand
p4083
aVthe
p4084
aVfeeling
p4085
aVthat
p4086
aVhe
p4087
aVmight
p4088
aVnever
p4089
aVbe
p4090
aVwarm
p4091
aVagain
p4092
aV.
aa(lp4093
Vleaves
p4094
aVwere
p4095
aVfalling
p4096
aVdown
p4097
aVaround
p4098
aVhim
p4099
aVand
p4100
aVhe
p4101
aVsmelled
p4102
aVwood
p4103
aVsmoke
p4104
aVon
p4105
aVthe
p4106
aVwind
p4107
aV.
aa(lp4108
Vwho
p4109
aVwould
p4110
aVbe
p4111
aVburning
p4112
aVwood
p4113
aVat
p4114
aVthis
p4115
aVtime
p4116
aVof
p4117
aVyear
p4118
aV?
aa(lp4119
Vhe
p4120
aVneeded
p4121
aVa
aVdrink
p4122
aV.
aa(lp4123
Vwhiskey
p4124
aVwould
p4125
aVwarm
p4126
aVhim
p4127
aV,
aVpick
p4128
aVhim
p4129
aVup
p4130
aV,
aVmean.\u201d
p4131
aVpoor
p4132
aVchildren
p4133
aV.
aa(lp4134
V.
aa(lp4135
V.\u201d
p4136
aVgirls
p4137
aVare
p4138
aVat
p4139
aVhome.\u201d
p4140
aV\u201cwhy
p4141
aV,
aVwe
p4142
aVheard
p4143
aVthat
p4144
aVyou\u2019d
p4145
aVsold
p4146
aVthe
p4147
aVhouse
p4148
aVand
p4149
aVthat
p4150
aVyour
p4151
aV\u201ci
p4152
aVdon\u2019t
p4153
aVrecall
p4154
aVhaving
p4155
aVsold
p4156
aVthe
p4157
aVhouse
p4158
aV,
aV\u201d
aVned
p4159
aVsaid
p4160
aV,
aV\u201cand
p4161
aVthe
p4162
aVthe
p4163
aVstories
p4164
aVof
p4165
aVjohn
p4166
aVcheever
p4167
aVcarry
p4168
aVhim
p4169
aVthrough
p4170
aVthe
p4171
aVlast
p4172
aVof
p4173
aVhis
p4174
aVjourney
p4175
aV,
aVrefresh
p4176
aVhis
p4177
aVfeeling
p4178
aVthat
p4179
aVit
p4180
aVwas
p4181
aVoriginal
p4182
aVand
p4183
aVvalorous
p4184
aVto
p4185
aVswim
p4186
aVacross
p4187
aVthe
p4188
aVcounty
p4189
aV.
aa(lp4190
Vchannel
p4191
aVswimmers
p4192
aVtook
p4193
aVbrandy
p4194
aV.
aa(lp4195
Vhe
p4196
aVneeded
p4197
aVa
aVstimulant
p4198
aV.
aa(lp4199
Vhe
p4200
aVcrossed
p4201
aVthe
p4202
aVlawn
p4203
aVin
p4204
aVfront
p4205
aVof
p4206
aVthe
p4207
aVhallorans\u2019
p4208
aVhouse
p4209
aVand
p4210
aVwent
p4211
aVdown
p4212
aVa
aVlittle
p4213
aVpath
p4214
aVto
p4215
aVwhere
p4216
aVthey
p4217
aVhad
p4218
aVbuilt
p4219
aVa
aVhouse
p4220
aVfor
p4221
aVtheir
p4222
aVonly
p4223
aVdaughter
p4224
aV,
aVhelen
p4225
aV,
aVand
p4226
aVher
p4227
aVhusband
p4228
aV,
aVeric
p4229
aVsachs
p4230
aV.
aa(lp4231
Vthe
p4232
aVsachses\u2019
p4233
aVpool
p4234
aVwas
p4235
aVsmall
p4236
aVand
p4237
aVhe
p4238
aVfound
p4239
aVhelen
p4240
aVand
p4241
aVher
p4242
aVhusband
p4243
aVthere
p4244
aV.
aa(lp4245
V\u201coh
p4246
aV,
aVneddy
p4247
aV,
aV\u201d
aVhelen
p4248
aVsaid
p4249
aV.
aa(lp4250
V\u201cdid
p4251
aVyou
p4252
aVlunch
p4253
aVat
p4254
aVm
aVother\u2019s
p4255
aV?
aV\u201d
aV\u201cnot
p4256
aVreally
p4257
aV,
aV\u201d
aVned
p4258
aVsaid
p4259
aV.
aa(lp4260
V\u201ci
p4261
aVdid
p4262
aVstop
p4263
aVto
p4264
aVsee
p4265
aVyour
p4266
aVparents.\u201d
p4267
aVthis
p4268
aVseemed
p4269
aVto
p4270
aVbe
p4271
aVexplanation
p4272
aVenough
p4273
aV.
aa(lp4274
V\u201ci\u2019m
p4275
aVterribly
p4276
aVsorry
p4277
aVto
p4278
aVbreak
p4279
aVin
p4280
aVon
p4281
aVyou
p4282
aVlike
p4283
aVthis
p4284
aVbut
p4285
aVi\u2019ve
p4286
aVtaken
p4287
aVa
aVchill
p4288
aVand
p4289
aVi
aVwonder
p4290
aVif
p4291
aVyou\u2019d
p4292
aVgive
p4293
aVme
p4294
aVa
aVdrink.\u201d
p4295
aV\u201cwhy
p4296
aV,
aVi\u2019d
p4297
aVlove
p4298
aVto
p4299
aV,
aV\u201d
aVhelen
p4300
aVsaid
p4301
aV,
aV\u201cbut
p4302
aVthere
p4303
aVhasn\u2019t
p4304
aVbeen
p4305
aVany-
p4306
aVthing
p4307
aVin
p4308
aVthis
p4309
aVhouse
p4310
aVto
p4311
aVdrink
p4312
aVsince
p4313
aVeric\u2019s
p4314
aVoperation
p4315
aV.
aa(lp4316
Vthat
p4317
aVwas
p4318
aVthree
p4319
aVyears
p4320
aVago.\u201d
p4321
aVwas
p4322
aVhe
p4323
aVlosing
p4324
aVhis
p4325
aVmemory
p4326
aV,
aVhad
p4327
aVhis
p4328
aVgift
p4329
aVfor
p4330
aVconcealing
p4331
aVpainful
p4332
aVfacts
p4333
aVlet
p4334
aVhim
p4335
aVforget
p4336
aVthat
p4337
aVhe
p4338
aVhad
p4339
aVsold
p4340
aVhis
p4341
aVhouse
p4342
aV,
aVthat
p4343
aVhis
p4344
aVchildren
p4345
aVwere
p4346
aVin
p4347
aVtrouble
p4348
aV,
aVand
p4349
aVthat
p4350
aVhis
p4351
aVfriend
p4352
aVhad
p4353
aVbeen
p4354
aVill
p4355
aV?
aa(lp4356
Vhis
p4357
aVeyes
p4358
aVslipped
p4359
aVfrom
p4360
aVeric\u2019s
p4361
aVface
p4362
aVto
p4363
aVhis
p4364
aVabdomen
p4365
aV,
aVwhere
p4366
aVhe
p4367
aVsaw
p4368
aVthree
p4369
aVpale
p4370
aV,
aVsutured
p4371
aVscars
p4372
aV,
aVtwo
p4373
aVof
p4374
aVthem
p4375
aVat
p4376
aVleast
p4377
aVa
aVfoot
p4378
aVlong
p4379
aV.
aa(lp4380
Vgone
p4381
aVwas
p4382
aVhis
p4383
aVnavel
p4384
aV,
aVand
p4385
aVwhat
p4386
aV,
aVneddy
p4387
aVthought
p4388
aV,
aVwould
p4389
aVthe
p4390
aVroving
p4391
aVhand
p4392
aV,
aVbed-checking
p4393
aVone\u2019s
p4394
aVgifts
p4395
aVat
p4396
aV3
aVa.m.
p4397
aV,
aVmake
p4398
aVof
p4399
aVa
aVbelly
p4400
aVwith
p4401
aVno
p4402
aVnavel
p4403
aV,
aVno
p4404
aVlink
p4405
aVto
p4406
aVbirth
p4407
aV,
aVthis
p4408
aVbreach
p4409
aVin
p4410
aVthe
p4411
aVsuccession
p4412
aV?
aa(lp4413
V\u201ci\u2019m
p4414
aVsure
p4415
aVyou
p4416
aVcan
p4417
aVget
p4418
aVa
aVdrink
p4419
aVat
p4420
aVthe
p4421
aVbiswangers\u2019
p4422
aV,
aV\u201d
aVhelen
p4423
aVsaid
p4424
aV.
aa(lp4425
V\u201cthey\u2019re
p4426
aVhaving
p4427
aVan
p4428
aVenormous
p4429
aVdo
p4430
aV.
aa(lp4431
Vyou
p4432
aVcan
p4433
aVhear
p4434
aVit
p4435
aVfrom
p4436
aVhere
p4437
aV.
aa(lp4438
Vlisten
p4439
aV!
aV\u201d
aVshe
p4440
aVraised
p4441
aVher
p4442
aVhead
p4443
aVand
p4444
aVfrom
p4445
aVacross
p4446
aVthe
p4447
aVroad
p4448
aV,
aVthe
p4449
aVlawns
p4450
aV,
aVthe
p4451
aVgardens
p4452
aV,
aVthe
p4453
aVwoods
p4454
aV,
aVthe
p4455
aV\ufb01elds
p4456
aV,
aVhe
p4457
aVheard
p4458
aVagain
p4459
aVthe
p4460
aVbrilliant
p4461
aVnoise
p4462
aVof
p4463
aVvoices
p4464
aVover
p4465
aVwater
p4466
aV.
aa(lp4467
V\u201cwell
p4468
aV,
aVi\u2019ll
p4469
aVget
p4470
aVwet
p4471
aV,
aV\u201d
aVhe
p4472
aVsaid
p4473
aV,
aVstill
p4474
aVfeeling
p4475
aVthat
p4476
aVhe
p4477
aVhad
p4478
aVno
p4479
aVfreedom
p4480
aVof
p4481
aVchoice
p4482
aVabout
p4483
aVhis
p4484
aVmeans
p4485
aVof
p4486
aVtravel
p4487
aV.
aa(lp4488
Vhe
p4489
aVdove
p4490
aVinto
p4491
aVthe
p4492
aVsachses\u2019
p4493
aVcold
p4494
aVwater
p4495
aVand
p4496
aV,
aVgasping
p4497
aV,
aVclose
p4498
aVto
p4499
aVdrowning
p4500
aV,
aVmade
p4501
aVhis
p4502
aVway
p4503
aVfrom
p4504
aVone
p4505
aVend
p4506
aVof
p4507
aVthe
p4508
aVpool
p4509
aVto
p4510
aVthe
p4511
aVother
p4512
aV.
aa(lp4513
V\u201clucinda
p4514
aVand
p4515
aVi
aVwant
p4516
aVterribly
p4517
aVto
p4518
aVsee
p4519
aVyou
p4520
aV,
aV\u201d
aVhe
p4521
aVsaid
p4522
aVover
p4523
aVhis
p4524
aVshoulder
p4525
aV,
aVhis
p4526
aVface
p4527
aVset
p4528
aVtoward
p4529
aVthe
p4530
aVbiswangers\u2019
p4531
aV.
aa(lp4532
V\u201cwe\u2019re
p4533
aVsorry
p4534
aVit\u2019s
p4535
aVbeen
p4536
aVso
p4537
aVlong
p4538
aVand
p4539
aVwe\u2019ll
p4540
aVcall
p4541
aVyou
p4542
aVvery
p4543
aVsoon.\u201d
p4544
aVhe
p4545
aVcrossed
p4546
aVsome
p4547
aV\ufb01elds
p4548
aVto
p4549
aVthe
p4550
aVbiswangers\u2019
p4551
aVand
p4552
aVthe
p4553
aVsounds
p4554
aVof
p4555
aVrevelry
p4556
aVthere
p4557
aV.
aa(lp4558
Vthey
p4559
aVwould
p4560
aVbe
p4561
aVhonored
p4562
aVto
p4563
aVgive
p4564
aVhim
p4565
aVa
aVdrink
p4566
aV,
aVthey
p4567
aVwould
p4568
aVbe
p4569
aVhappy
p4570
aVto
p4571
aVgive
p4572
aVhim
p4573
aVa
aVdrink
p4574
aV.
aa(lp4575
Vthe
p4576
aVbiswangers
p4577
aVin-
p4578
aVvited
p4579
aVhim
p4580
aVand
p4581
aVlucinda
p4582
aVfor
p4583
aVdinner
p4584
aVfour
p4585
aVtimes
p4586
aVa
aVyear
p4587
aV,
aVsix
p4588
aVweeks
p4589
aVin
p4590
aVadvance
p4591
aV.
aa(lp4592
Vthey
p4593
aVwere
p4594
aValways
p4595
aVrebuffed
p4596
aVand
p4597
aVyet
p4598
aVthey
p4599
aVcontinued
p4600
aVto
p4601
aVsend
p4602
aVout
p4603
aVtheir
p4604
aVinvitations
p4605
aV,
aVunwilling
p4606
aVto
p4607
aVcomprehend
p4608
aVthe
p4609
aVrigid
p4610
aVand
p4611
aVundemocratic
p4612
aVrealities
p4613
aVof
p4614
aVtheir
p4615
aVsociety
p4616
aV.
aa(lp4617
Vthey
p4618
aVwere
p4619
aVthe
p4620
aVsort
p4621
aVof
p4622
aVpeople
p4623
aVwho
p4624
aVdiscussed
p4625
aVthe
p4626
aVprice
p4627
aVof
p4628
aVthings
p4629
aVat
p4630
aVcocktails
p4631
aV,
aVexchanged
p4632
aVmarket
p4633
aVtips
p4634
aVduring
p4635
aVdinner
p4636
aV,
aVand
p4637
aVafter
p4638
aVdinner
p4639
aVtold
p4640
aVdirty
p4641
aVstories
p4642
aVto
p4643
aVmixed
p4644
aVcompany
p4645
aV.
aa(lp4646
Vthey
p4647
aVdid
p4648
aVnot
p4649
aVbelong
p4650
aVto
p4651
aVneddy\u2019s
p4652
aVset\u2014
p4653
aVthey
p4654
aVwere
p4655
aVnot
p4656
aVeven
p4657
aVon
p4658
aVlucinda\u2019s
p4659
aVchristmas-card
p4660
aVlist
p4661
aV.
aa(lp4662
Vhe
p4663
aVwent
p4664
aVtoward
p4665
aVtheir
p4666
aVpool
p4667
aVwith
p4668
aVfeelings
p4669
aVof
p4670
aVindifference
p4671
aV,
aVcharity
p4672
aV,
aVand
p4673
aVsome
p4674
aVunease
p4675
aV,
aVsince
p4676
aVit
p4677
aVseemed
p4678
aVto
p4679
aVbe
p4680
aVgetting
p4681
aVdark
p4682
aVand
p4683
aVthese
p4684
aVwere
p4685
aVthe
p4686
aVlongest
p4687
aVdays
p4688
aVof
p4689
aVthe
p4690
aVyear
p4691
aV.
aa(lp4692
Vthe
p4693
aVparty
p4694
aVwhen
p4695
aVhe
p4696
aVjoined
p4697
aVit
p4698
aVwas
p4699
aVnoisy
p4700
aVand
p4701
aVlarge
p4702
aV.
aa(lp4703
Vgrace
p4704
aVbiswanger
p4705
aVwas
p4706
aVthe
p4707
aVkind
p4708
aVof
p4709
aVhostess
p4710
aVwho
p4711
aVasked
p4712
aVthe
p4713
aVoptometrist
p4714
aV,
aVthe
p4715
aVveterinarian
p4716
aV,
aVthe
p4717
aVreal-estate
p4718
aVdealer
p4719
aV,
aVand
p4720
aVthe
p4721
aVdentist
p4722
aV.
aa(lp4723
Vno
p4724
aVone
p4725
aVwas
p4726
aVswimming
p4727
aVand
p4728
aVthe
p4729
aVtwi-
p4730
aVlight
p4731
aV,
aVre\ufb02ected
p4732
aVon
p4733
aVthe
p4734
aVwater
p4735
aVof
p4736
aVthe
p4737
aVpool
p4738
aV,
aVhad
p4739
aVa
aVwintry
p4740
aVgleam
p4741
aV.
aa(lp4742
Vthere
p4743
aVwas
p4744
aVa
aVbar
p4745
aVand
p4746
aVhe
p4747
aVstarted
p4748
aVfor
p4749
aVthis
p4750
aV.
aa(lp4751
Vwhen
p4752
aVgrace
p4753
aVbiswanger
p4754
aVsaw
p4755
aVhim
p4756
aVshe
p4757
aVcame
p4758
aVtoward
p4759
aVhim
p4760
aV,
aVnot
p4761
aVaffectionately
p4762
aVas
p4763
aVhe
p4764
aVhad
p4765
aVevery
p4766
aVright
p4767
aVto
p4768
aVexpect
p4769
aV,
aVbut
p4770
aVbellicosely
p4771
aV.
aa(lp4772
V\u201cwhy
p4773
aV,
aVthis
p4774
aVparty
p4775
aVhas
p4776
aVeverything
p4777
aV,
aV\u201d
aVshe
p4778
aVsaid
p4779
aVloudly
p4780
aV,
aV\u201cincluding
p4781
aVa
aVgate
p4782
aVcrasher.\u201d
p4783
aVshe
p4784
aVcould
p4785
aVnot
p4786
aVdeal
p4787
aVhim
p4788
aVa
aVsocial
p4789
aVblow\u2014
p4790
aVthere
p4791
aVwas
p4792
aVno
p4793
aVquestion
p4794
aVabout
p4795
aVthis
p4796
aVand
p4797
aVhe
p4798
aVdid
p4799
aVnot
p4800
aV\ufb02inch
p4801
aV.
aa(lp4802
V\u201cas
p4803
aVa
aVgate
p4804
aVcrasher
p4805
aV,
aV\u201d
aVhe
p4806
aVasked
p4807
aVpolitely
p4808
aV,
aV\u201cdo
p4809
aVi
aVrate
p4810
aVa
aVdrink
p4811
aV?
aV\u201d
aV\u201csuit
p4812
aVyourself
p4813
aV,
aV\u201d
aVshe
p4814
aVsaid
p4815
aV.
aa(lp4816
V\u201cyou
p4817
aVdon\u2019t
p4818
aVseem
p4819
aVto
p4820
aVpay
p4821
aVmuch
p4822
aVat-
p4823
aVtention
p4824
aVto
p4825
aVinvitations.\u201d
p4826
aVshe
p4827
aVturned
p4828
aVher
p4829
aVback
p4830
aVon
p4831
aVhim
p4832
aVand
p4833
aVjoined
p4834
aVsome
p4835
aVguests
p4836
aV,
aVand
p4837
aVhe
p4838
aVwent
p4839
aVto
p4840
aVthe
p4841
aVbar
p4842
aVand
p4843
aVordered
p4844
aVa
aVwhiskey
p4845
aV.
aa(lp4846
Vthe
p4847
aVbartender
p4848
aVserved
p4849
aVhim
p4850
aVbut
p4851
aVhe
p4852
aVserved
p4853
aVhim
p4854
aVrudely
p4855
aV.
aa(lp4856
Vhis
p4857
aVwas
p4858
aVa
aVworld
p4859
aVin
p4860
aVwhich
p4861
aVthe
p4862
aVcaterer\u2019s
p4863
aVmen
p4864
aVkept
p4865
aVthe
p4866
aVsocial
p4867
aVscore
p4868
aV,
aVand
p4869
aVto
p4870
aVbe
p4871
aVrebuffed
p4872
aVby
p4873
aVa
aVpart-time
p4874
aVbarkeep
p4875
aVmeant
p4876
aVthat
p4877
aVhe
p4878
aVhad
p4879
aVsuffered
p4880
aVsome
p4881
aVloss
p4882
aVof
p4883
aVsocial
p4884
aVesteem
p4885
aV.
aa(lp4886
Vor
p4887
aVperhaps
p4888
aVthe
p4889
aVman
p4890
aVwas
p4891
aVnew
p4892
aVand
p4893
aVuninformed
p4894
aV.
aa(lp4895
Vthen
p4896
aVhe
p4897
aVheard
p4898
aVgrace
p4899
aVat
p4900
aVhis
p4901
aVback
p4902
aVsay
p4903
aV:
aV\u201cthey
p4904
aVwent
p4905
aVfor
p4906
aVbroke
p4907
aVovernight\u2014
p4908
aVnothing
p4909
aVbut
p4910
aVincome\u2014
p4911
aVand
p4912
aVhe
p4913
aVshowed
p4914
aVup
p4915
aVdrunk
p4916
aVone
p4917
aVsunday
p4918
aVand
p4919
aVasked
p4920
aVus
p4921
aVto
p4922
aVloan
p4923
aVhim
p4924
aV\ufb01ve
p4925
aVthousand
p4926
aVdol-
p4927
aVlars
p4928
aV.
aa(lp4929
V.
aa(lp4930
V.
aa(lp4931
V.\u201d
p4932
aVshe
p4933
aVwas
p4934
aValways
p4935
aVtalking
p4936
aVabout
p4937
aVmoney
p4938
aV.
aa(lp4939
Vit
p4940
aVwas
p4941
aVworse
p4942
aVthan
p4943
aVeating
p4944
aVyour
p4945
aVpeas
p4946
aVoff
p4947
aVa
aVknife
p4948
aV.
aa(lp4949
Vhe
p4950
aVdove
p4951
aVinto
p4952
aVthe
p4953
aVpool
p4954
aV,
aVswam
p4955
aVits
p4956
aVlength
p4957
aVand
p4958
aVwent
p4959
aVaway
p4960
aV.
aa(lp4961
Vthe
p4962
aVnext
p4963
aVpool
p4964
aVon
p4965
aVhis
p4966
aVlist
p4967
aV,
aVthe
p4968
aVlast
p4969
aVbut
p4970
aVtwo
p4971
aV,
aVbelonged
p4972
aVto
p4973
aVhis
p4974
aVold
p4975
aVmistress
p4976
aV,
aVshirley
p4977
aVadams
p4978
aV.
aa(lp4979
Vif
p4980
aVhe
p4981
aVhad
p4982
aVsuffered
p4983
aVany
p4984
aVinjuries
p4985
aVat
p4986
aVthe
p4987
aVbiswangers\u2019
p4988
aVthey
p4989
aVwould
p4990
aVbe
p4991
aVcured
p4992
aVhere
p4993
aV.
aa(lp4994
Vlove\u2014
p4995
aVsexual
p4996
aVroughhouse
p4997
aVin
p4998
aVfact\u2014
p4999
aVwas
p5000
aVthe
p5001
aVsupreme
p5002
aVelixir
p5003
aV,
aVthe
p5004
aVpain
p5005
aVkiller
p5006
aV,
aVthe
p5007
aVthe
p5008
aVstories
p5009
aVof
p5010
aVjohn
p5011
aVcheever
p5012
aVbrightly
p5013
aVcolored
p5014
aVpill
p5015
aVthat
p5016
aVwould
p5017
aVput
p5018
aVthe
p5019
aVspring
p5020
aVback
p5021
aVinto
p5022
aVhis
p5023
aVstep
p5024
aV,
aVthe
p5025
aVjoy
p5026
aVof
p5027
aVlife
p5028
aVin
p5029
aVhis
p5030
aVheart
p5031
aV.
aa(lp5032
Vthey
p5033
aVhad
p5034
aVhad
p5035
aVan
p5036
aVaffair
p5037
aVlast
p5038
aVweek
p5039
aV,
aVlast
p5040
aVmonth
p5041
aV,
aVlast
p5042
aVyear
p5043
aV.
aa(lp5044
Vhe
p5045
aVcouldn\u2019t
p5046
aVremember
p5047
aV.
aa(lp5048
Vit
p5049
aVwas
p5050
aVhe
p5051
aVwho
p5052
aVhad
p5053
aVbroken
p5054
aVit
p5055
aVoff
p5056
aV,
aVhis
p5057
aVwas
p5058
aVthe
p5059
aVupper
p5060
aVhand
p5061
aV,
aVand
p5062
aVhe
p5063
aVstepped
p5064
aVthrough
p5065
aVthe
p5066
aVgate
p5067
aVof
p5068
aVthe
p5069
aVwall
p5070
aVthat
p5071
aVsurrounded
p5072
aVher
p5073
aVpool
p5074
aVwith
p5075
aVnothing
p5076
aVso
p5077
aVconsidered
p5078
aVas
p5079
aVself-con\ufb01dence
p5080
aV.
aa(lp5081
Vit
p5082
aVseemed
p5083
aVin
p5084
aVa
aVway
p5085
aVto
p5086
aVbe
p5087
aVhis
p5088
aVpool
p5089
aV,
aVas
p5090
aVthe
p5091
aVlover
p5092
aV,
aVparticularly
p5093
aVthe
p5094
aVillicit
p5095
aVlover
p5096
aV,
aVenjoys
p5097
aVthe
p5098
aVpossessions
p5099
aVof
p5100
aVhis
p5101
aVmistress
p5102
aVwith
p5103
aVan
p5104
aVauthority
p5105
aVunknown
p5106
aVto
p5107
aVholy
p5108
aVmatrimony
p5109
aV.
aa(lp5110
Vshe
p5111
aVwas
p5112
aVthere
p5113
aV,
aVher
p5114
aVhair
p5115
aVthe
p5116
aVcolor
p5117
aVof
p5118
aVbrass
p5119
aV,
aVbut
p5120
aVher
p5121
aV\ufb01gure
p5122
aV,
aVat
p5123
aVthe
p5124
aVedge
p5125
aVof
p5126
aVthe
p5127
aVlighted
p5128
aV,
aVcerulean
p5129
aVwater
p5130
aV,
aVexcited
p5131
aVin
p5132
aVhim
p5133
aVno
p5134
aVprofound
p5135
aVmemories
p5136
aV.
aa(lp5137
Vit
p5138
aVhad
p5139
aVbeen
p5140
aV,
aVhe
p5141
aVthought
p5142
aV,
aVa
aVlight-
p5143
aVhearted
p5144
aVaffair
p5145
aV,
aValthough
p5146
aVshe
p5147
aVhad
p5148
aVwept
p5149
aVwhen
p5150
aVhe
p5151
aVbroke
p5152
aVit
p5153
aVoff
p5154
aV.
aa(lp5155
Vshe
p5156
aVseemed
p5157
aVconfused
p5158
aVto
p5159
aVsee
p5160
aVhim
p5161
aVand
p5162
aVhe
p5163
aVwondered
p5164
aVif
p5165
aVshe
p5166
aVwas
p5167
aVstill
p5168
aVwounded
p5169
aV.
aa(lp5170
Vwould
p5171
aVshe
p5172
aV,
aVgod
p5173
aVforbid
p5174
aV,
aVweep
p5175
aVagain
p5176
aV?
aa(lp5177
V\u201cwhat
p5178
aVdo
p5179
aVyou
p5180
aVwant
p5181
aV?
aV\u201d
aVshe
p5182
aVasked
p5183
aV.
aa(lp5184
V\u201ci\u2019m
p5185
aVswimming
p5186
aVacross
p5187
aVthe
p5188
aVcounty.\u201d
p5189
aV\u201cgood
p5190
aVchrist
p5191
aV.
aa(lp5192
Vwill
p5193
aVyou
p5194
aVever
p5195
aVgrow
p5196
aVup
p5197
aV?
aV\u201d
aV\u201cwhat\u2019s
p5198
aVthe
p5199
aVmatter
p5200
aV?
aV\u201d
aV\u201cif
p5201
aVyou\u2019ve
p5202
aVcome
p5203
aVhere
p5204
aVfor
p5205
aVmoney
p5206
aV,
aV\u201d
aVshe
p5207
aVsaid
p5208
aV,
aV\u201ci
p5209
aVwon\u2019t
p5210
aVgive
p5211
aVyou
p5212
aVan
p5213
aVother
p5214
aVcent.\u201d
p5215
aV\u201cyou
p5216
aVcould
p5217
aVgive
p5218
aVme
p5219
aVa
aVdrink.\u201d
p5220
aV\u201ci
p5221
aVcould
p5222
aVbut
p5223
aVi
aVwon\u2019t
p5224
aV.
aa(lp5225
Vi\u2019m
p5226
aVnot
p5227
aValone.\u201d
p5228
aV\u201cwell
p5229
aV,
aVi\u2019m
p5230
aVon
p5231
aVmy
p5232
aVway.\u201d
p5233
aVhe
p5234
aVdove
p5235
aVin
p5236
aVand
p5237
aVswam
p5238
aVthe
p5239
aVpool
p5240
aV,
aVbut
p5241
aVwhen
p5242
aVhe
p5243
aVtried
p5244
aVto
p5245
aVhaul
p5246
aVhimself
p5247
aVup
p5248
aVonto
p5249
aVthe
p5250
aVcurb
p5251
aVhe
p5252
aVfound
p5253
aVthat
p5254
aVthe
p5255
aVstrength
p5256
aVin
p5257
aVhis
p5258
aVarms
p5259
aVand
p5260
aVshoulders
p5261
aVhad
p5262
aVgone
p5263
aV,
aVand
p5264
aVhe
p5265
aVpaddled
p5266
aVto
p5267
aVthe
p5268
aVladder
p5269
aVand
p5270
aVclimbed
p5271
aVout
p5272
aV.
aa(lp5273
Vlooking
p5274
aVover
p5275
aVhis
p5276
aVshoulder
p5277
aVhe
p5278
aVsaw
p5279
aV,
aVin
p5280
aVthe
p5281
aVlighted
p5282
aVbathhouse
p5283
aV,
aVa
aVyoung
p5284
aVman
p5285
aV.
aa(lp5286
Vgoing
p5287
aVout
p5288
aVonto
p5289
aVthe
p5290
aVdark
p5291
aVlawn
p5292
aVhe
p5293
aVsmelled
p5294
aVchrysanthemums
p5295
aVor
p5296
aVmarigolds\u2014
p5297
aVsome
p5298
aVstubborn
p5299
aVau
p5300
aV-
aVtum
p5301
aVnal
p5302
aVfragrance\u2014
p5303
aVon
p5304
aVthe
p5305
aVnight
p5306
aVair
p5307
aV,
aVstrong
p5308
aVas
p5309
aVgas
p5310
aV.
aa(lp5311
Vlooking
p5312
aVover
p5313
aV-
aVhead
p5314
aVhe
p5315
aVsaw
p5316
aVthat
p5317
aVthe
p5318
aVstars
p5319
aVhad
p5320
aVcome
p5321
aVout
p5322
aV,
aVbut
p5323
aVwhy
p5324
aVshould
p5325
aVhe
p5326
aVseem
p5327
aVto
p5328
aVsee
p5329
aVandromeda
p5330
aV,
aVcepheus
p5331
aV,
aVand
p5332
aVcassiopeia
p5333
aV?
aa(lp5334
Vwhat
p5335
aVhad
p5336
aVbecome
p5337
aVof
p5338
aVthe
p5339
aVconstellations
p5340
aVof
p5341
aVmidsummer
p5342
aV?
aa(lp5343
Vhe
p5344
aVbegan
p5345
aVto
p5346
aVcry
p5347
aV.
aa(lp5348
Vit
p5349
aVwas
p5350
aVprob
p5351
aVably
p5352
aVthe
p5353
aV\ufb01rst
p5354
aVtime
p5355
aVin
p5356
aVhis
p5357
aVadult
p5358
aVlife
p5359
aVthat
p5360
aVhe
p5361
aVhad
p5362
aVever
p5363
aVcried
p5364
aV,
aVcertainly
p5365
aVthe
p5366
aV\ufb01rst
p5367
aVtime
p5368
aVin
p5369
aVhis
p5370
aVlife
p5371
aVthat
p5372
aVhe
p5373
aVhad
p5374
aVever
p5375
aVfelt
p5376
aVso
p5377
aVmiserable
p5378
aV,
aVcold
p5379
aV,
aVtired
p5380
aV,
aVand
p5381
aVbewildered
p5382
aV.
aa(lp5383
Vhe
p5384
aVcould
p5385
aVnot
p5386
aVunder
p5387
aV-
aVstand
p5388
aVthe
p5389
aVrudeness
p5390
aVof
p5391
aVthe
p5392
aVcaterer\u2019s
p5393
aVbarkeep
p5394
aVor
p5395
aVthe
p5396
aVrudeness
p5397
aVof
p5398
aVa
aVmistress
p5399
aVwho
p5400
aVhad
p5401
aVcome
p5402
aVto
p5403
aVhim
p5404
aVon
p5405
aVher
p5406
aVknees
p5407
aVand
p5408
aVshowered
p5409
aVhis
p5410
aVtrousers
p5411
aVwith
p5412
aVtears
p5413
aV.
aa(lp5414
Vhe
p5415
aVhad
p5416
aVswum
p5417
aVtoo
p5418
aVlong
p5419
aV,
aVhe
p5420
aVhad
p5421
aVbeen
p5422
aVim-
p5423
aVmersed
p5424
aVtoo
p5425
aVlong
p5426
aV,
aVand
p5427
aVhis
p5428
aVnose
p5429
aVand
p5430
aVhis
p5431
aVthroat
p5432
aVwere
p5433
aVsore
p5434
aVfrom
p5435
aVthe
p5436
aVwater
p5437
aV.
aa(lp5438
Vwhat
p5439
aVhe
p5440
aVneeded
p5441
aVthen
p5442
aVwas
p5443
aVa
aVdrink
p5444
aV,
aVsome
p5445
aVcompany
p5446
aV,
aVand
p5447
aVsome
p5448
aVclean
p5449
aV,
aVdry
p5450
aVclothes
p5451
aV,
aVand
p5452
aVwhile
p5453
aVhe
p5454
aVcould
p5455
aVhave
p5456
aVcut
p5457
aVdirectly
p5458
aVacross
p5459
aVthe
p5460
aVroad
p5461
aVto
p5462
aVhis
p5463
aVhome
p5464
aVhe
p5465
aVwent
p5466
aVon
p5467
aVto
p5468
aVthe
p5469
aVgilmartins\u2019
p5470
aVpool
p5471
aV.
aa(lp5472
Vhere
p5473
aV,
aVfor
p5474
aVthe
p5475
aV\ufb01rst
p5476
aVtime
p5477
aVin
p5478
aVhis
p5479
aVlife
p5480
aV,
aVhe
p5481
aVdid
p5482
aVnot
p5483
aVdive
p5484
aVbut
p5485
aVwent
p5486
aVdown
p5487
aVthe
p5488
aVsteps
p5489
aVinto
p5490
aVthe
p5491
aVicy
p5492
aVwater
p5493
aVand
p5494
aVswam
p5495
aVa
aVhobbled
p5496
aVsidestroke
p5497
aVthat
p5498
aVhe
p5499
aVmight
p5500
aVhave
p5501
aVlearned
p5502
aVas
p5503
aVa
aVyouth
p5504
aV.
aa(lp5505
Vhe
p5506
aVstaggered
p5507
aVwith
p5508
aVfatigue
p5509
aVon
p5510
aVhis
p5511
aVway
p5512
aVto
p5513
aVthe
p5514
aVclydes\u2019
p5515
aVand
p5516
aVpaddled
p5517
aVthe
p5518
aVlength
p5519
aVof
p5520
aVtheir
p5521
aVpool
p5522
aV,
aVstopping
p5523
aVagain
p5524
aVand
p5525
aVagain
p5526
aVwith
p5527
aVhis
p5528
aVhand
p5529
aVon
p5530
aVthe
p5531
aVcurb
p5532
aVto
p5533
aVrest
p5534
aV.
aa(lp5535
Vhe
p5536
aVclimbed
p5537
aVup
p5538
aVthe
p5539
aVladder
p5540
aVand
p5541
aVwondered
p5542
aVif
p5543
aVhe
p5544
aVhad
p5545
aVthe
p5546
aVstrength
p5547
aVto
p5548
aVget
p5549
aVhome
p5550
aV.
aa(lp5551
Vhe
p5552
aVhad
p5553
aVdone
p5554
aVwhat
p5555
aVhe
p5556
aVwanted
p5557
aV,
aVhe
p5558
aVhad
p5559
aVswum
p5560
aVthe
p5561
aVcounty
p5562
aV,
aVbut
p5563
aVhe
p5564
aVwas
p5565
aVso
p5566
aVstupe\ufb01ed
p5567
aVwith
p5568
aVexhaustion
p5569
aVthat
p5570
aVhis
p5571
aVtriumph
p5572
aVseemed
p5573
aVvague
p5574
aV.
aa(lp5575
Vstooped
p5576
aV,
aVholding
p5577
aVon
p5578
aVto
p5579
aVthe
p5580
aVgateposts
p5581
aVfor
p5582
aVsupport
p5583
aV,
aVhe
p5584
aVturned
p5585
aVup
p5586
aVthe
p5587
aVdriveway
p5588
aVof
p5589
aVhis
p5590
aVown
p5591
aVhouse
p5592
aV.
aa(lp5593
Vthe
p5594
aVplace
p5595
aVwas
p5596
aVdark
p5597
aV.
aa(lp5598
Vwas
p5599
aVit
p5600
aVso
p5601
aVlate
p5602
aVthat
p5603
aVthey
p5604
aVhad
p5605
aVall
p5606
aVgone
p5607
aVto
p5608
aVbed
p5609
aV?
aa(lp5610
Vhad
p5611
aVlucinda
p5612
aVstayed
p5613
aVat
p5614
aVthe
p5615
aVwesterhazys\u2019
p5616
aVfor
p5617
aVs
aVupper
p5618
aV?
aa(lp5619
Vhad
p5620
aVthe
p5621
aVgirls
p5622
aVjoined
p5623
aVher
p5624
aVthere
p5625
aVor
p5626
aVgone
p5627
aVsomeplace
p5628
aVelse
p5629
aV?
aa(lp5630
Vhadn\u2019t
p5631
aVthey
p5632
aVagreed
p5633
aV,
aVas
p5634
aVthey
p5635
aVusually
p5636
aVdid
p5637
aVon
p5638
aVsunday
p5639
aV,
aVto
p5640
aVregret
p5641
aVall
p5642
aVtheir
p5643
aVinvita-
p5644
aVtions
p5645
aVand
p5646
aVstay
p5647
aVat
p5648
aVhome
p5649
aV?
aa(lp5650
Vhe
p5651
aVtried
p5652
aVthe
p5653
aVgarage
p5654
aVdoors
p5655
aVto
p5656
aVsee
p5657
aVwhat
p5658
aVcars
p5659
aVwere
p5660
aVin
p5661
aVbut
p5662
aVthe
p5663
aVdoors
p5664
aVwere
p5665
aVlocked
p5666
aVand
p5667
aVrust
p5668
aVcame
p5669
aVoff
p5670
aVthe
p5671
aVhandles
p5672
aVonto
p5673
aVhis
p5674
aVhands
p5675
aV.
aa(lp5676
Vgoing
p5677
aVtoward
p5678
aVthe
p5679
aVhouse
p5680
aV,
aVhe
p5681
aVsaw
p5682
aVthat
p5683
aVthe
p5684
aVforce
p5685
aVof
p5686
aVthe
p5687
aVth
p5688
aVunderstorm
p5689
aVhad
p5690
aVknocked
p5691
aVone
p5692
aVof
p5693
aVthe
p5694
aVrain
p5695
aVgutters
p5696
aVloose
p5697
aV.
aa(lp5698
Vit
p5699
aVhung
p5700
aVdown
p5701
aVover
p5702
aVthe
p5703
aVfront
p5704
aVdoor
p5705
aVlike
p5706
aVan
p5707
aVum-
p5708
aVbrella
p5709
aVrib
p5710
aV,
aVbut
p5711
aVit
p5712
aVcould
p5713
aVbe
p5714
aV\ufb01xed
p5715
aVin
p5716
aVthe
p5717
aVmorning
p5718
aV.
aa(lp5719
Vthe
p5720
aVhouse
p5721
aVwas
p5722
aVlocked
p5723
aV,
aVand
p5724
aVhe
p5725
aVthought
p5726
aVthat
p5727
aVthe
p5728
aVstupid
p5729
aVcook
p5730
aVor
p5731
aVthe
p5732
aVstupid
p5733
aVmaid
p5734
aVmust
p5735
aVhave
p5736
aVlocked
p5737
aVthe
p5738
aVplace
p5739
aVup
p5740
aVuntil
p5741
aVhe
p5742
aVremembered
p5743
aVthat
p5744
aVit
p5745
aVhad
p5746
aVbeen
p5747
aVsome
p5748
aVtime
p5749
aVsince
p5750
aVthey
p5751
aVhad
p5752
aVemployed
p5753
aVa
aVmaid
p5754
aVor
p5755
aVa
aVcook
p5756
aV.
aa(lp5757
Vhe
p5758
aVshouted
p5759
aV,
aVpounded
p5760
aVon
p5761
aVthe
p5762
aVdoor
p5763
aV,
aVtried
p5764
aVto
p5765
aVforce
p5766
aVit
p5767
aVwith
p5768
aVhis
p5769
aVshoul-
p5770
aVder
p5771
aV,
aVand
p5772
aVthen
p5773
aV,
aVlooking
p5774
aVin
p5775
aVat
p5776
aVthe
p5777
aVwindows
p5778
aV,
aVsaw
p5779
aVthat
p5780
aVthe
p5781
aVplace
p5782
aVwas
p5783
aVempty
p5784
aV.
aasb.