ccopy_reg
_reconstructor
p1
(cData.Book
Book
p2
c__builtin__
object
p3
NtRp4
(dp5
S'stored_object'
p6
S'Books/What_We_Talk_About_When_We_Talk_About_Love/Book_object.p'
p7
sS'title'
p8
S'What We Talk About When We Talk About Love'
p9
sS'main_text_path'
p10
S'Books/What_We_Talk_About_When_We_Talk_About_Love/main_cleaned.txt'
p11
sS'metadata_path'
p12
S'Books/What_We_Talk_About_When_We_Talk_About_Love/meta_data.csv'
p13
sS'book_path'
p14
S'Books/What_We_Talk_About_When_We_Talk_About_Love/'
p15
sS'characters'
p16
(dp17
S'laura'
p18
(dp19
S'list'
p20
(lp21
(lp22
V[
aVCHARACTER
p23
aV]
aV-
aVnick
p24
aV's
p25
aVwife
p26
aV.
aa(lp27
V[
aVCHARACTER
p28
aV]
aV,
aVthirty-five
p29
aV,
aVis
p30
aVa
aVlegal
p31
aVsecretary
p32
aV.
aa(lp33
Vshe
p34
aVbarely
p35
aVspeaks
p36
aVat
p37
aVall
p38
aVin
p39
aVthe
p40
aVstory
p41
aVother
p42
aVthan
p43
aVto
p44
aVsay
p45
aVthat
p46
aVshe
p47
aVand
p48
aVnick
p49
aVunderstand
p50
aVlove
p51
aVand
p52
aV,
aVat
p53
aVthe
p54
aVend
p55
aV,
aVthat
p56
aVshe
p57
aV's
p58
aVhungry
p59
aV.
aa(lp60
Vbut
p61
aVher
p62
aVgentle
p63
aVphysical
p64
aVinteractions
p65
aVwith
p66
aVnick
p67
aV--
p68
aVholding
p69
aVhands
p70
aV,
aVtouching
p71
aVknees
p72
aV--
p73
aVgive
p74
aVa
aVglimpse
p75
aVof
p76
aVwhat
p77
aVlove
p78
aVmeans
p79
aVto
p80
aVher
p81
aV.
aasS'analysis'
p82
NssS'nick'
p83
(dp84
g20
(lp85
(lp86
V[
aVCHARACTER
p87
aV]
aV-
aVthe
p88
aVnarrator
p89
aV.
aa(lp90
V[
aVCHARACTER
p91
aV]
aVand
p92
aVlaura
p93
aVmet
p94
aVat
p95
aVwork
p96
aV,
aVbut
p97
aV[
aVCHARACTER
p98
aV]
aVnever
p99
aVsays
p100
aVexactly
p101
aVwhat
p102
aVhe
p103
aVdoes
p104
aV.
aa(lp105
Vhe
p106
aVis
p107
aVthirty-eight
p108
aVand
p109
aVhas
p110
aVbeen
p111
aVwith
p112
aVlaura
p113
aVfor
p114
aVabout
p115
aVeighteen
p116
aVmonths
p117
aV.
aa(lp118
Vhe
p119
aVdoes
p120
aVn't
p121
aVsay
p122
aVmuch
p123
aVin
p124
aVthe
p125
aVstory
p126
aV,
aVbut
p127
aVthe
p128
aVobservations
p129
aVhe
p130
aVmakes
p131
aVabout
p132
aVthe
p133
aVchanging
p134
aVlight
p135
aV,
aVamount
p136
aVof
p137
aVremaining
p138
aVgin
p139
aV,
aVand
p140
aVsound
p141
aVof
p142
aVbeating
p143
aVhearts
p144
aVgives
p145
aVthe
p146
aVstory
p147
aVits
p148
aVrhythm
p149
aV.
aasg82
(lp150
(lp151
V[
aVCHARACTER
p152
aV]
aV[
aVCHARACTER
p153
aV]
aV,
aVthe
p154
aVnarrator
p155
aVof
p156
aVthe
p157
aVstory
p158
aV,
aVdoes
p159
aVn't
p160
aVsay
p161
aVmuch
p162
aV,
aVbut
p163
aVthe
p164
aVobservations
p165
aVand
p166
aVphysical
p167
aVmovements
p168
aVhe
p169
aVmakes
p170
aVare
p171
aVkey
p172
aVto
p173
aVrevealing
p174
aVwhat
p175
aVlove
p176
aVmeans
p177
aVto
p178
aVthe
p179
aVfour
p180
aVfriends
p181
aVgathered
p182
aVat
p183
aVthe
p184
aVtable
p185
aV.
aa(lp186
V[
aVCHARACTER
p187
aV]
aVspeaks
p188
aVup
p189
aVonly
p190
aVfour
p191
aVtimes
p192
aVduring
p193
aVmost
p194
aVof
p195
aVthe
p196
aVconversation
p197
aV,
aVtwice
p198
aVto
p199
aVask
p200
aVquestions
p201
aV,
aVonce
p202
aVto
p203
aVsuggest
p204
aVthat
p205
aVlove
p206
aVis
p207
aVabsolute
p208
aV,
aVand
p209
aVfinally
p210
aVto
p211
aVsay
p212
aVthat
p213
aVhe
p214
aVand
p215
aVlaura
p216
aVare
p217
aVlucky
p218
aV.
aa(lp219
Vat
p220
aVthe
p221
aVend
p222
aVof
p223
aVthe
p224
aVstory
p225
aV,
aVhowever
p226
aV,
aVhis
p227
aVown
p228
aVwords
p229
aVbegin
p230
aVsounding
p231
aVas
p232
aVjumbled
p233
aVas
p234
aVmel
p235
aV's
p236
aV,
aVsuch
p237
aVas
p238
aVwhen
p239
aVhe
p240
aVsuggests
p241
aVthat
p242
aVthey
p243
aVeither
p244
aVeat
p245
aVor
p246
aVkeep
p247
aVdrinking
p248
aVand
p249
aVwhen
p250
aVhe
p251
aVmakes
p252
aVa
aVjoke
p253
aVabout
p254
aVheading
p255
aV``
p256
aVright
p257
aVon
p258
aVout
p259
aVinto
p260
aVthe
p261
aVsunset
p262
aV.
aV''
p263
aa(lp264
Vnone
p265
aVof
p266
aV[
aVCHARACTER
p267
aV]
aV's
p268
aVcomments
p269
aVare
p270
aVespecially
p271
aVrevelatory
p272
aV;
aVmore
p273
aVsignificant
p274
aVare
p275
aVthe
p276
aVthings
p277
aVhe
p278
aVdoes
p279
aVn't
p280
aVsay
p281
aVout
p282
aVloud
p283
aV.
aa(lp284
Vfor
p285
aVexample
p286
aV,
aVhis
p287
aVnarration
p288
aVincludes
p289
aVcomments
p290
aVon
p291
aVthe
p292
aVweakening
p293
aVsunlight
p294
aVin
p295
aVthe
p296
aVroom
p297
aV,
aVan
p298
aVobservation
p299
aVthat
p300
aVreveals
p301
aVhow
p302
aVmuddled
p303
aVthe
p304
aVfriends
p305
aV'
aVideas
p306
aVof
p307
aVlove
p308
aVeventually
p309
aVbecome
p310
aV.
aa(lp311
Vhe
p312
aValso
p313
aVtouches
p314
aVlaura
p315
aVa
aVgreat
p316
aVdeal
p317
aV,
aVholding
p318
aVand
p319
aVkissing
p320
aVher
p321
aVhand
p322
aVand
p323
aVtouching
p324
aVher
p325
aVleg
p326
aVunder
p327
aVthe
p328
aVtable
p329
aV.
aa(lp330
Vthese
p331
aVare
p332
aVgenuinely
p333
aVaffectionate
p334
aVgestures
p335
aVand
p336
aVsuggest
p337
aVthat
p338
aVeven
p339
aVthough
p340
aVthe
p341
aVfriends
p342
aVmay
p343
aVtalk
p344
aVabout
p345
aVlove
p346
aVall
p347
aVnight
p348
aV,
aVtheir
p349
aVwords
p350
aVdo
p351
aVn't
p352
aVreally
p353
aVmatter
p354
aVin
p355
aVthe
p356
aVend
p357
aV.
aa(lp358
Vfinally
p359
aV,
aV[
aVCHARACTER
p360
aV]
aVis
p361
aVthe
p362
aVonly
p363
aVone
p364
aVwho
p365
aVcan
p366
aV``
p367
aVhear
p368
aVeveryone
p369
aV's
p370
aVheart
p371
aV,
aV''
p372
aVwhich
p373
aVsuggests
p374
aVthat
p375
aVhe
p376
aVmay
p377
aVhave
p378
aVinsight
p379
aVinto
p380
aVlove
p381
aVthat
p382
aVthe
p383
aVothers
p384
aVdo
p385
aVnot
p386
aV.
aassS'mel mcginnis'
p387
(dp388
g20
(lp389
(lp390
V[
aVCHARACTER
p391
aV]
aV-
aVa
aVcardiologist
p392
aV.
aa(lp393
Vmel
p394
aVtalks
p395
aVmore
p396
aVthan
p397
aVanyone
p398
aVelse
p399
aVin
p400
aVthe
p401
aVstory
p402
aV.
aa(lp403
Vhe
p404
aVand
p405
aVterri
p406
aVhave
p407
aVbeen
p408
aVmarried
p409
aVfor
p410
aVfour
p411
aVyears
p412
aV.
aa(lp413
Vmel
p414
aVhas
p415
aVtwo
p416
aVchildren
p417
aVwith
p418
aVhis
p419
aVex-wife
p420
aV,
aVmarjorie
p421
aV,
aVwhom
p422
aVhe
p423
aVnow
p424
aVhates
p425
aV.
aa(lp426
Valthough
p427
aVmel
p428
aVmakes
p429
aVgrand
p430
aVproclamations
p431
aVabout
p432
aVknowing
p433
aVwhat
p434
aVlove
p435
aVis
p436
aV,
aVhe
p437
aVultimately
p438
aVreveals
p439
aVthat
p440
aVhe
p441
aVis
p442
aVconfused
p443
aVand
p444
aVeven
p445
aValarmed
p446
aVby
p447
aVthe
p448
aVelusiveness
p449
aVof
p450
aVlove
p451
aVand
p452
aVdevotion
p453
aV.
aasg82
(lp454
(lp455
V[
aVCHARACTER
p456
aV]
aVthe
p457
aVfirst
p458
aVthing
p459
aVwe
p460
aVlearn
p461
aVabout
p462
aV[
aVCHARACTER
p463
aV]
aVis
p464
aVthat
p465
aVhe
p466
aV's
p467
aVa
aVcardiologist
p468
aV--
p469
aVa
aVheart
p470
aVdoctor
p471
aV.
aa(lp472
Vof
p473
aVthe
p474
aVfour
p475
aVcharacters
p476
aVin
p477
aVthe
p478
aVstory
p479
aV,
aVmel
p480
aV,
aVby
p481
aVvirtue
p482
aVof
p483
aVhis
p484
aVprofession
p485
aV,
aVwould
p486
aVseem
p487
aVto
p488
aVbe
p489
aVthe
p490
aVone
p491
aVmost
p492
aVlikely
p493
aVto
p494
aVhave
p495
aVsome
p496
aVinsight
p497
aVinto
p498
aVmatters
p499
aVof
p500
aVthe
p501
aVheart
p502
aV.
aa(lp503
Vindeed
p504
aV,
aVhe
p505
aVtalks
p506
aVmore
p507
aVthan
p508
aVanyone
p509
aVelse
p510
aVabout
p511
aVlove
p512
aVand
p513
aVhas
p514
aVthe
p515
aVstrongest
p516
aVopinions
p517
aV.
aa(lp518
Vyet
p519
aVdespite
p520
aVthe
p521
aVfact
p522
aVthat
p523
aVmel
p524
aVtalks
p525
aVa
aVlot
p526
aV,
aVhe
p527
aVdoes
p528
aVn't
p529
aVseem
p530
aVto
p531
aVknow
p532
aVmore
p533
aVthan
p534
aVanyone
p535
aVelse
p536
aVabout
p537
aVlove
p538
aV.
aa(lp539
Vas
p540
aVhe
p541
aVkeeps
p542
aVdrinking
p543
aVand
p544
aVtalking
p545
aV,
aVhis
p546
aVstrong
p547
aVstatements
p548
aVblur
p549
aVinto
p550
aVconfusing
p551
aVramblings
p552
aVthat
p553
aVdo
p554
aVn't
p555
aVseem
p556
aVto
p557
aVmake
p558
aVmuch
p559
aVof
p560
aVa
aVpoint
p561
aV.
aa(lp562
Vhe
p563
aVknows
p564
aVthe
p565
aVstory
p566
aVabout
p567
aVthe
p568
aVelderly
p569
aVcouple
p570
aVis
p571
aVimportant
p572
aV,
aVbut
p573
aVhe
p574
aVca
p575
aVn't
p576
aVexplain
p577
aVexactly
p578
aVwhy
p579
aV.
aa(lp580
Vhe
p581
aVknows
p582
aVhis
p583
aVthoughts
p584
aVabout
p585
aVpast
p586
aVand
p587
aVfuture
p588
aVloves
p589
aVare
p590
aVmeaningful
p591
aV,
aVbut
p592
aVthe
p593
aVway
p594
aVhe
p595
aVdescribes
p596
aVthem
p597
aVmakes
p598
aVhim
p599
aVsound
p600
aVconfused
p601
aVand
p602
aVnonsensical
p603
aV.
aa(lp604
Vand
p605
aVhis
p606
aVapparent
p607
aVdesire
p608
aVto
p609
aVkill
p610
aVhis
p611
aVex-wife
p612
aVwith
p613
aVswarms
p614
aVof
p615
aVbees
p616
aVsuggests
p617
aVthat
p618
aV,
aVfar
p619
aVfrom
p620
aVbeing
p621
aVan
p622
aVexpert
p623
aVon
p624
aVlove
p625
aV,
aVmel
p626
aVknows
p627
aVabsolutely
p628
aVnothing
p629
aVabout
p630
aVit
p631
aV.
aassS'terri'
p632
(dp633
g20
(lp634
(lp635
V[
aVCHARACTER
p636
aV]
aV-
aVmel
p637
aV's
p638
aVwife
p639
aV.
aa(lp640
V[
aVCHARACTER
p641
aV]
aVused
p642
aVto
p643
aVlive
p644
aVwith
p645
aVan
p646
aVabusive
p647
aVboyfriend
p648
aVnamed
p649
aVed
p650
aVwho
p651
aVtried
p652
aVto
p653
aVkill
p654
aVher
p655
aV.
aa(lp656
Veven
p657
aVthough
p658
aVed
p659
aVlater
p660
aVthreatened
p661
aVher
p662
aVand
p663
aVmel
p664
aVbefore
p665
aVkilling
p666
aVhimself
p667
aV,
aV[
aVCHARACTER
p668
aV]
aVbelieves
p669
aVthat
p670
aVed
p671
aVtruly
p672
aVloved
p673
aVher
p674
aV.
aa(lp675
Veveryone
p676
aVseems
p677
aVto
p678
aVdisagree
p679
aVwith
p680
aVhow
p681
aVshe
p682
aVdefines
p683
aVlove
p684
aV,
aVbut
p685
aVher
p686
aVideas
p687
aVare
p688
aVclearer
p689
aVthan
p690
aVanyone
p691
aVelse
p692
aV's
p693
aV.
aasg82
(lp694
(lp695
V[
aVCHARACTER
p696
aV]
aValthough
p697
aVno
p698
aVone
p699
aVin
p700
aV``
p701
aVwhat
p702
aVwe
p703
aVtalk
p704
aVabout
p705
aVwhen
p706
aVwe
p707
aVtalk
p708
aVabout
p709
aVlove
p710
aV''
p711
aVseems
p712
aVto
p713
aVhave
p714
aVa
aVfirm
p715
aVidea
p716
aVof
p717
aVwhat
p718
aVlove
p719
aVreally
p720
aVis
p721
aV,
aV[
aVCHARACTER
p722
aV]
aVdoes
p723
aVhave
p724
aVsome
p725
aVextreme
p726
aVand
p727
aVsomewhat
p728
aVdisturbing
p729
aVopinions
p730
aV.
aa(lp731
Vone
p732
aVof
p733
aVthe
p734
aVmost
p735
aVdetailed
p736
aVtales
p737
aVtold
p738
aVaround
p739
aVthe
p740
aVtable
p741
aVis
p742
aVof
p743
aV[
aVCHARACTER
p744
aV]
aV's
p745
aVformer
p746
aVlover
p747
aV,
aVed
p748
aV,
aVwho
p749
aVwas
p750
aV[
aVCHARACTER
p751
aV]
aVbly
p752
aVabusive
p753
aVand
p754
aVthreatened
p755
aVboth
p756
aVher
p757
aVand
p758
aVmel
p759
aV.
aa(lp760
Vmel
p761
aVis
p762
aVfirm
p763
aVin
p764
aVhis
p765
aVbelief
p766
aVthat
p767
aVed
p768
aVwas
p769
aVcrazy
p770
aV,
aVbut
p771
aV[
aVCHARACTER
p772
aV]
aVinsists
p773
aVthat
p774
aVed
p775
aVtruly
p776
aVloved
p777
aVher
p778
aV.
aa(lp779
Vshe
p780
aVpoints
p781
aVout
p782
aVthat
p783
aVed
p784
aVtried
p785
aVto
p786
aVkill
p787
aVhimself
p788
aVby
p789
aVswallowing
p790
aVrat
p791
aVpoison
p792
aVwhen
p793
aVshe
p794
aVleft
p795
aVhim
p796
aVand
p797
aV,
aVwhen
p798
aVthat
p799
aVdid
p800
aVn't
p801
aVwork
p802
aV,
aVshot
p803
aVhimself
p804
aVthrough
p805
aVthe
p806
aVmouth
p807
aV.
aa(lp808
Valthough
p809
aVthe
p810
aVothers
p811
aVdo
p812
aVn't
p813
aVshare
p814
aV[
aVCHARACTER
p815
aV]
aV's
p816
aVideas
p817
aVabout
p818
aVlove
p819
aV,
aVshe
p820
aVnevertheless
p821
aVhas
p822
aVa
aVmore
p823
aVsolid
p824
aVidea
p825
aVabout
p826
aVlove
p827
aVthan
p828
aVanyone
p829
aVelse
p830
aVin
p831
aVthe
p832
aVstory
p833
aV.
aa(lp834
Vwhile
p835
aVmel
p836
aVtalks
p837
aVof
p838
aVhis
p839
aVhatred
p840
aVfor
p841
aVhis
p842
aVex-wife
p843
aVand
p844
aVnick
p845
aVand
p846
aVlaura
p847
aVmerely
p848
aVtouch
p849
aVeach
p850
aVother
p851
aVsoftly
p852
aV,
aV[
aVCHARACTER
p853
aV]
aVis
p854
aVthe
p855
aVonly
p856
aVone
p857
aVwho
p858
aVcan
p859
aVgenuinely
p860
aVsay
p861
aVthat
p862
aVshe
p863
aVonce
p864
aVexperienced
p865
aVtrue
p866
aVlove
p867
aV.
aa(lp868
Vmel
p869
aVcalls
p870
aV[
aVCHARACTER
p871
aV]
aVa
aVmember
p872
aVof
p873
aVthe
p874
aV``
p875
aVkick-me-so-i'll-know-you-love-me
p876
aVschool
p877
aV,
aV''
p878
aVbut
p879
aVno
p880
aVone
p881
aVin
p882
aVthe
p883
aVstory
p884
aVcan
p885
aVarticulate
p886
aVa
aVview
p887
aVof
p888
aVlove
p889
aVthat
p890
aVis
p891
aVclearer
p892
aVor
p893
aVmore
p894
aVconvincing
p895
aV.
aasssS'mainText'
p896
(lp897
(lp898
Vwhat
p899
aVwe
p900
aVtalk
p901
aVabout
p902
aVwhen
p903
aVwe
p904
aVtalk
p905
aVabout
p906
aVlove
p907
aVmy
p908
aVfriend
p909
aVmel
p910
aVmcginnis
p911
aVwas
p912
aVtalking
p913
aV.
aa(lp914
Vmel
p915
aVmcginnis
p916
aVis
p917
aVa
aVcardiologist
p918
aV,
aVand
p919
aVsometimes
p920
aVthat
p921
aVgives
p922
aVhim
p923
aVthe
p924
aVright
p925
aV.
aa(lp926
Vthe
p927
aVfour
p928
aVof
p929
aVus
p930
aVwere
p931
aVsitting
p932
aVaround
p933
aVhis
p934
aVkitchen
p935
aVtable
p936
aVdrinking
p937
aVgin
p938
aV.
aa(lp939
Vsunlight
p940
aVfilled
p941
aVthe
p942
aVkitchen
p943
aVfrom
p944
aVthe
p945
aVbig
p946
aVwindow
p947
aVbehind
p948
aVthe
p949
aVsink
p950
aV.
aa(lp951
Vthere
p952
aVwere
p953
aVmel
p954
aVand
p955
aVme
p956
aVand
p957
aVhis
p958
aVsecond
p959
aVwife
p960
aV,
aVteresa-terri
p961
aV,
aVwe
p962
aVcalled
p963
aVher
p964
aV--
p965
aVand
p966
aVmy
p967
aVwife
p968
aV,
aVlaura
p969
aV.
aa(lp970
Vwe
p971
aVlived
p972
aVin
p973
aValbuquerque
p974
aVthen
p975
aV.
aa(lp976
Vbut
p977
aVwe
p978
aVwere
p979
aVall
p980
aVfrom
p981
aVsomewhere
p982
aVelse
p983
aV.
aa(lp984
Vthere
p985
aVwas
p986
aVan
p987
aVice
p988
aVbucket
p989
aVon
p990
aVthe
p991
aVtable
p992
aV.
aa(lp993
Vthe
p994
aVgin
p995
aVand
p996
aVthe
p997
aVtonic
p998
aVwater
p999
aVkept
p1000
aVgoing
p1001
aVaround
p1002
aV,
aVand
p1003
aVwe
p1004
aVsomehow
p1005
aVgot
p1006
aVon
p1007
aVthe
p1008
aVsubject
p1009
aVof
p1010
aVlove
p1011
aV.
aa(lp1012
Vmel
p1013
aVthought
p1014
aVreal
p1015
aVlove
p1016
aVwas
p1017
aVnothing
p1018
aVless
p1019
aVthan
p1020
aVspiritual
p1021
aVlove
p1022
aV.
aa(lp1023
Vhe
p1024
aVsaid
p1025
aVhe
p1026
aV'd
p1027
aVspent
p1028
aVfive
p1029
aVyears
p1030
aVin
p1031
aVa
aVseminary
p1032
aVbefore
p1033
aVquitting
p1034
aVto
p1035
aVgo
p1036
aVto
p1037
aVmedical
p1038
aVschool
p1039
aV.
aa(lp1040
Vhe
p1041
aVsaid
p1042
aVhe
p1043
aVstill
p1044
aVlooked
p1045
aVback
p1046
aVon
p1047
aVthose
p1048
aVyears
p1049
aVin
p1050
aVthe
p1051
aVseminary
p1052
aVas
p1053
aVthe
p1054
aVmost
p1055
aVimportant
p1056
aVyears
p1057
aVin
p1058
aVhis
p1059
aVlife
p1060
aV.
aa(lp1061
Vterri
p1062
aVsaid
p1063
aVthe
p1064
aVman
p1065
aVshe
p1066
aVlived
p1067
aVwith
p1068
aVbefore
p1069
aVshe
p1070
aVlived
p1071
aVwith
p1072
aVmel
p1073
aVloved
p1074
aVher
p1075
aVso
p1076
aVmuch
p1077
aVhe
p1078
aVtried
p1079
aVto
p1080
aVkill
p1081
aVher
p1082
aV.
aa(lp1083
Vthen
p1084
aVterri
p1085
aVsaid
p1086
aV,
aV``
p1087
aVhe
p1088
aVbeat
p1089
aVme
p1090
aVup
p1091
aVone
p1092
aVnight
p1093
aV.
aa(lp1094
Vhe
p1095
aVdragged
p1096
aVme
p1097
aVaround
p1098
aVthe
p1099
aVliving
p1100
aVroom
p1101
aVby
p1102
aVmy
p1103
aVankles
p1104
aV.
aa(lp1105
Vhe
p1106
aVkept
p1107
aVsaying
p1108
aV,
aV`i
p1109
aVlove
p1110
aVyou
p1111
aV,
aVi
aVlove
p1112
aVyou
p1113
aV,
aVyou
p1114
aVbitch
p1115
aV.
aV'
aa(lp1116
Vhe
p1117
aVwent
p1118
aVon
p1119
aVdragging
p1120
aVme
p1121
aVaround
p1122
aVthe
p1123
aVliving
p1124
aVroom
p1125
aV.
aa(lp1126
Vmy
p1127
aVhead
p1128
aVkept
p1129
aVknocking
p1130
aVon
p1131
aVthings
p1132
aV.
aV''
p1133
aa(lp1134
Vterri
p1135
aVlooked
p1136
aVaround
p1137
aVthe
p1138
aVtable
p1139
aV.
aa(lp1140
V``
p1141
aVwhat
p1142
aVdo
p1143
aVyou
p1144
aVdo
p1145
aVwith
p1146
aVlove
p1147
aVlike
p1148
aVthat
p1149
aV?
aV''
p1150
aa(lp1151
V5
aVshe
p1152
aVwas
p1153
aVa
aVbone-thin
p1154
aVwoman
p1155
aVwith
p1156
aVa
aVpretty
p1157
aVface
p1158
aV,
aVdark
p1159
aVeyes
p1160
aV,
aVand
p1161
aVbrown
p1162
aVhair
p1163
aVthat
p1164
aVhung
p1165
aVdown
p1166
aVher
p1167
aVback
p1168
aV.
aa(lp1169
Vshe
p1170
aVliked
p1171
aVnecklaces
p1172
aVmade
p1173
aVof
p1174
aVturquoise
p1175
aV,
aVand
p1176
aVlong
p1177
aV,
aVpendant
p1178
aVearrings
p1179
aV.
aa(lp1180
V``
p1181
aVmy
p1182
aVgod
p1183
aV,
aVdo
p1184
aVn't
p1185
aVbe
p1186
aVsilly
p1187
aV.
aa(lp1188
Vthat
p1189
aV's
p1190
aVnot
p1191
aVlove
p1192
aV,
aVand
p1193
aVyou
p1194
aVknow
p1195
aVit
p1196
aV,
aVmel
p1197
aVsaid
p1198
aV.
aa(lp1199
V``
p1200
aVi
aVdo
p1201
aVn't
p1202
aVknow
p1203
aVwhat
p1204
aVyou
p1205
aV'd
p1206
aVcall
p1207
aVit
p1208
aV,
aVbut
p1209
aVi
aVsure
p1210
aVknow
p1211
aVyou
p1212
aVwould
p1213
aVn't
p1214
aVcall
p1215
aVit
p1216
aVlove
p1217
aV.
aV''
p1218
aa(lp1219
V``
p1220
aVsay
p1221
aVwhat
p1222
aVyou
p1223
aVwant
p1224
aVto
p1225
aV,
aVbut
p1226
aVi
aVknow
p1227
aVit
p1228
aVwas
p1229
aV,
aV''
p1230
aVterri
p1231
aVsaid
p1232
aV,
aV``
p1233
aVit
p1234
aVmay
p1235
aVsound
p1236
aVcrazy
p1237
aVto
p1238
aVyou
p1239
aV,
aVbut
p1240
aVit
p1241
aV's
p1242
aVtrue
p1243
aVjust
p1244
aVthe
p1245
aVsame
p1246
aV.
aa(lp1247
Vpeople
p1248
aVare
p1249
aVdifferent
p1250
aV,
aVmel
p1251
aV.
aa(lp1252
Vsure
p1253
aV,
aVsometimes
p1254
aVhe
p1255
aVmay
p1256
aVhave
p1257
aVacted
p1258
aVcrazy
p1259
aV.
aa(lp1260
Vokay
p1261
aV.
aa(lp1262
Vbut
p1263
aVhe
p1264
aVloved
p1265
aVme
p1266
aV.
aa(lp1267
Vin
p1268
aVhis
p1269
aVown
p1270
aVway
p1271
aVmaybe
p1272
aV,
aVbut
p1273
aVhe
p1274
aVloved
p1275
aVme
p1276
aV.
aa(lp1277
Vthere
p1278
aVwas
p1279
aVlove
p1280
aVthere
p1281
aV,
aVmel
p1282
aV.
aa(lp1283
Vdo
p1284
aVn't
p1285
aVsay
p1286
aVthere
p1287
aVwasn't.\u201d
p1288
aVmel
p1289
aVlet
p1290
aVout
p1291
aVhis
p1292
aVbreath
p1293
aV.
aa(lp1294
Vhe
p1295
aVheld
p1296
aVhis
p1297
aVglass
p1298
aVand
p1299
aVturned
p1300
aVto
p1301
aVlaura
p1302
aVand
p1303
aVme
p1304
aV.
aa(lp1305
V``
p1306
aVthe
p1307
aVman
p1308
aVthreatened
p1309
aVto
p1310
aVkill
p1311
aVme
p1312
aV,
aV''
p1313
aVmel
p1314
aVsaid
p1315
aV.
aa(lp1316
Vhe
p1317
aVfinished
p1318
aVhis
p1319
aVdrink
p1320
aVand
p1321
aVreached
p1322
aVfor
p1323
aVthe
p1324
aVgin
p1325
aVbottle
p1326
aV.
aa(lp1327
V\u201cterri
p1328
aV's
p1329
aVa
aVromantic
p1330
aV.
aa(lp1331
Vterri
p1332
aV's
p1333
aVof
p1334
aVthe
p1335
aVkick-me-so-i'll-know-you-love-me
p1336
aVschool
p1337
aV.
aa(lp1338
Vterri
p1339
aV,
aVhon
p1340
aV,
aVdo
p1341
aVn't
p1342
aVlook
p1343
aVthat
p1344
aVway
p1345
aV.
aV''
p1346
aa(lp1347
Vmel
p1348
aVreached
p1349
aVacross
p1350
aVthe
p1351
aVtable
p1352
aVand
p1353
aVtouched
p1354
aVterri
p1355
aV's
p1356
aVcheek
p1357
aVwith
p1358
aVhis
p1359
aVfingers
p1360
aV.
aa(lp1361
Vhe
p1362
aVgrinned
p1363
aVat
p1364
aVher
p1365
aV.
aa(lp1366
V\u201cnow
p1367
aVhe
p1368
aVwants
p1369
aVto
p1370
aVmake
p1371
aVup
p1372
aV,
aV''
p1373
aVterri
p1374
aVsaid
p1375
aV.
aa(lp1376
V``
p1377
aVmake
p1378
aVup
p1379
aVwhat
p1380
aV?
aV''
p1381
aa(lp1382
Vmel
p1383
aVsaid
p1384
aV.
aa(lp1385
V``
p1386
aVwhat
p1387
aVis
p1388
aVthere
p1389
aVto
p1390
aVmake
p1391
aVup
p1392
aV?
aa(lp1393
Vi
aVknow
p1394
aVwhat
p1395
aVi
aVknow
p1396
aV.
aa(lp1397
Vthat
p1398
aV's
p1399
aVall
p1400
aV,
aV'
aV1
aV''
p1401
aVhow
p1402
aV'd
p1403
aVwe
p1404
aVget
p1405
aVstarted
p1406
aVon
p1407
aVthis
p1408
aVsubject
p1409
aV,
aVanyway
p1410
aV?
aV''
p1411
aa(lp1412
Vterri
p1413
aVsaid
p1414
aV.
aa(lp1415
Vshe
p1416
aVraised
p1417
aVher
p1418
aVglass
p1419
aVand
p1420
aVdrank
p1421
aVfrom
p1422
aVit
p1423
aV.
aa(lp1424
V``
p1425
aVmel
p1426
aValways
p1427
aVhas
p1428
aVlove
p1429
aVon
p1430
aVhis
p1431
aVmind
p1432
aV.
aV''
p1433
aa(lp1434
Vshe
p1435
aVsaid
p1436
aV,
aV``
p1437
aVdo
p1438
aVn't
p1439
aVyou
p1440
aV,
aVhoney
p1441
aV?
aV''
p1442
aa(lp1443
Vshe
p1444
aVsmiled
p1445
aV,
aVand
p1446
aVi
aVthought
p1447
aVthat
p1448
aVwas
p1449
aVthe
p1450
aVlast
p1451
aVof
p1452
aVit
p1453
aV.
aa(lp1454
V``
p1455
aVi
aVjust
p1456
aVwould
p1457
aVn't
p1458
aVcall
p1459
aVed
p1460
aV's
p1461
aVbehavior
p1462
aVlove
p1463
aV.
aa(lp1464
Vthat
p1465
aV's
p1466
aVall
p1467
aVi
aV'm
p1468
aVsaying
p1469
aV,
aVhoney
p1470
aV,
aV''
p1471
aVmel
p1472
aVsaid
p1473
aV.
aa(lp1474
V\u201cwhat
p1475
aVabout
p1476
aVyou
p1477
aVguys
p1478
aV?
aV''
p1479
aa(lp1480
Vmel
p1481
aVsaid
p1482
aVto
p1483
aVlaura
p1484
aVand
p1485
aVme
p1486
aV.
aa(lp1487
V``
p1488
aVdoes
p1489
aVthat
p1490
aVsound
p1491
aVlike
p1492
aVlove
p1493
aVto
p1494
aVyou
p1495
aV?
aV''
p1496
aa(lp1497
V\u201ci\u2019m
p1498
aVthe
p1499
aVwrong
p1500
aVperson
p1501
aVto
p1502
aVask
p1503
aV,
aV''
p1504
aVi
aVsaid
p1505
aV.
aa(lp1506
V``
p1507
aVi
aVdid
p1508
aVn't
p1509
aVeven
p1510
aVknow
p1511
aVthe
p1512
aVman
p1513
aV.
aa(lp1514
Vi
aV've
p1515
aVonly
p1516
aVheard
p1517
aVhis
p1518
aVname
p1519
aVmentioned
p1520
aVin
p1521
aVpassing
p1522
aV.
aa(lp1523
Vi
aVwould
p1524
aVn't
p1525
aVknow
p1526
aV.
aa(lp1527
Vyou
p1528
aV'd
p1529
aVhave
p1530
aVto
p1531
aVknow
p1532
aVthe
p1533
aVparticulars
p1534
aV.
aa(lp1535
Vbut
p1536
aVi
aVthink
p1537
aVwhat
p1538
aVyou
p1539
aV're
p1540
aVsaying
p1541
aVis
p1542
aVthat
p1543
aVlove
p1544
aVis
p1545
aVan
p1546
aVabsolute
p1547
aV.
aV''
p1548
aa(lp1549
Vmel
p1550
aVsaid
p1551
aV,
aV'the
p1552
aVkind
p1553
aVof
p1554
aVlove
p1555
aVi
aV'm
p1556
aVtalking
p1557
aVabout
p1558
aVis
p1559
aV.
aa(lp1560
Vthe
p1561
aVkind
p1562
aVof
p1563
aVlove
p1564
aVi
aV'm
p1565
aVtalking
p1566
aVabout
p1567
aV,
aVyou
p1568
aVdo
p1569
aVn't
p1570
aVtry
p1571
aVto
p1572
aVkill
p1573
aVpeople
p1574
aV.
aV''
p1575
aa(lp1576
Vlaura
p1577
aVsaid
p1578
aV,
aV``
p1579
aVi
aVdo
p1580
aVn't
p1581
aVknow
p1582
aVanything
p1583
aVabout
p1584
aVed
p1585
aV,
aVor
p1586
aVanything
p1587
aVabout
p1588
aVthe
p1589
aVsituation
p1590
aV.
aa(lp1591
Vbut
p1592
aVwho
p1593
aVcan
p1594
aVjudge
p1595
aVanyone
p1596
aVelse
p1597
aV's
p1598
aVsituation
p1599
aV?
aV''
p1600
aa(lp1601
Vi
aVtouched
p1602
aVthe
p1603
aVback
p1604
aVof
p1605
aVlaura
p1606
aV's
p1607
aVhand
p1608
aV.
aa(lp1609
Vshe
p1610
aVgave
p1611
aVme
p1612
aVa
aVquick
p1613
aVsmile
p1614
aV.
aa(lp1615
Vi
aVpicked
p1616
aVup
p1617
aVlaura
p1618
aV's
p1619
aVhand
p1620
aV.
aa(lp1621
Vit
p1622
aVwas
p1623
aVwarm
p1624
aV,
aVthe
p1625
aVnails
p1626
aVpolished
p1627
aV,
aVperfectly
p1628
aVmanicured
p1629
aV.
aa(lp1630
Vi
aVencircled
p1631
aVthe
p1632
aVbroad
p1633
aVwrist
p1634
aVwith
p1635
aVmy
p1636
aVfingers
p1637
aV,
aVand
p1638
aVi
aVheld
p1639
aVher
p1640
aV.
aa(lp1641
V``
p1642
aVwhen
p1643
aVi
aVleft
p1644
aV,
aVhe
p1645
aVdrank
p1646
aVrat
p1647
aVpoison
p1648
aV.
aV''
p1649
aa(lp1650
Vterri
p1651
aVsaid
p1652
aV.
aa(lp1653
Vshe
p1654
aVclasped
p1655
aVher
p1656
aVarms
p1657
aVwith
p1658
aVher
p1659
aVhands
p1660
aV.
aa(lp1661
V\u201cthey
p1662
aVtook
p1663
aVhim
p1664
aVto
p1665
aVthe
p1666
aVhospital
p1667
aVin
p1668
aVsame
p1669
aVfe
p1670
aV.
aa(lp1671
Vthat
p1672
aV's
p1673
aVwhere
p1674
aVwe
p1675
aVlived
p1676
aVthen
p1677
aV,
aVabout
p1678
aVten
p1679
aVmiles
p1680
aVout
p1681
aV.
aa(lp1682
Vthey
p1683
aVsaved
p1684
aVhis
p1685
aVlife
p1686
aV.
aa(lp1687
Vbut
p1688
aVhis
p1689
aVgums
p1690
aVwent
p1691
aVcrazy
p1692
aVfrom
p1693
aVit
p1694
aV.
aa(lp1695
Vi
aVmean
p1696
aVthey
p1697
aVpulled
p1698
aVaway
p1699
aVfrom
p1700
aVhis
p1701
aVteeth
p1702
aV.
aa(lp1703
Vafter
p1704
aVthat
p1705
aV,
aVhis
p1706
aVteeth
p1707
aVstood
p1708
aVout
p1709
aVlike
p1710
aVfangs
p1711
aV.
aa(lp1712
Vmy
p1713
aVgod
p1714
aV,
aV\u201d
aVterri
p1715
aVsaid
p1716
aV.
aa(lp1717
Vshe
p1718
aVwaited
p1719
aVa
aVminute
p1720
aV,
aVthen
p1721
aVlet
p1722
aVgo
p1723
aVof
p1724
aVher
p1725
aVarms
p1726
aVand
p1727
aVpicked
p1728
aVup
p1729
aVher
p1730
aVglass
p1731
aV.
aa(lp1732
V\u201cwhat
p1733
aVpeople
p1734
aVwo
p1735
aVn't
p1736
aVdo
p1737
aV!
aV''
p1738
aa(lp1739
Vlaura
p1740
aVsaid
p1741
aV.
aa(lp1742
V``
p1743
aVhe\u2019s
p1744
aVout
p1745
aVof
p1746
aVthe
p1747
aVaction
p1748
aVnow
p1749
aV,
aV\u201d
aVmel
p1750
aVsaid
p1751
aV.
aa(lp1752
V'he
p1753
aV's
p1754
aVdead
p1755
aV.
aV''
p1756
aa(lp1757
Vmel
p1758
aVhanded
p1759
aVme
p1760
aVthe
p1761
aVsaucer
p1762
aVof
p1763
aVlimes
p1764
aV.
aa(lp1765
Vi
aVtook
p1766
aVa
aVsection
p1767
aV,
aVsqueezed
p1768
aVit
p1769
aVover
p1770
aVmy
p1771
aVdrink
p1772
aV,
aVand
p1773
aVstirred
p1774
aVthe
p1775
aVice
p1776
aVcubes
p1777
aVwith
p1778
aVmy
p1779
aVfinger
p1780
aV.
aa(lp1781
V``
p1782
aVit
p1783
aVgets
p1784
aVworse
p1785
aV,
aV''
p1786
aVterri
p1787
aVsaid
p1788
aV.
aa(lp1789
V``
p1790
aVhe
p1791
aVshot
p1792
aVhimself
p1793
aVin
p1794
aVthe
p1795
aVmouth
p1796
aV.
aa(lp1797
Vbut
p1798
aVhe
p1799
aVbungled
p1800
aVthat
p1801
aVtoo
p1802
aV.
aa(lp1803
Vpoor
p1804
aVed
p1805
aV,
aV\u201d
aVshe
p1806
aVsaid
p1807
aV.
aa(lp1808
Vterri
p1809
aVshook
p1810
aVher
p1811
aVhead
p1812
aV.
aa(lp1813
V``
p1814
aVpoor
p1815
aVed
p1816
aVnothing
p1817
aV,
aV''
p1818
aVmel
p1819
aVsaid
p1820
aV.
aa(lp1821
V``
p1822
aVhe
p1823
aVwas
p1824
aVdangerous
p1825
aV.
aV''
p1826
aa(lp1827
Vmel
p1828
aVwas
p1829
aVforty-five
p1830
aVyears
p1831
aVold
p1832
aV.
aa(lp1833
Vhe
p1834
aVwas
p1835
aVtall
p1836
aVand
p1837
aVcurly
p1838
aVsoft
p1839
aVhair
p1840
aV.
aa(lp1841
Vhis
p1842
aVface
p1843
aVand
p1844
aVarms
p1845
aVwere
p1846
aVbrown
p1847
aVfrom
p1848
aVthe
p1849
aVtennis
p1850
aVhe
p1851
aVplayed
p1852
aV.
aa(lp1853
Vwhen
p1854
aVhe
p1855
aVwas
p1856
aVsober
p1857
aV,
aVhis
p1858
aVgestures
p1859
aV,
aVall
p1860
aVhis
p1861
aVmovements
p1862
aV,
aVwere
p1863
aVprecise
p1864
aV,
aVvery
p1865
aVcareful
p1866
aV.
aa(lp1867
V\u201che
p1868
aVdid
p1869
aVlove
p1870
aVme
p1871
aVthough
p1872
aV,
aVmel
p1873
aV.
aa(lp1874
Vgrant
p1875
aVme
p1876
aVthat
p1877
aV,
aV''
p1878
aVterri
p1879
aVsaid
p1880
aV.
aa(lp1881
V``
p1882
aVthat
p1883
aV's
p1884
aVall
p1885
aVi
aV'm
p1886
aVasking
p1887
aV.
aa(lp1888
Vhe
p1889
aVdidn\u2019t
p1890
aVlove
p1891
aVme
p1892
aVthe
p1893
aVway
p1894
aVyou
p1895
aVlove
p1896
aVme
p1897
aV.
aa(lp1898
Vi
aV'm
p1899
aVnot
p1900
aVsaying
p1901
aVthat
p1902
aV.
aa(lp1903
Vbut
p1904
aVhe
p1905
aVloved
p1906
aVme
p1907
aV.
aa(lp1908
Vyou
p1909
aVcan
p1910
aVgrant
p1911
aVme
p1912
aVthat
p1913
aV,
aVcan't
p1914
aVyou
p1915
aV?
aV''
p1916
aa(lp1917
V2
aV''
p1918
aVwhat
p1919
aVdo
p1920
aVyou
p1921
aVmean
p1922
aV,
aVhe
p1923
aVbungled
p1924
aVit
p1925
aV?
aV''
p1926
aa(lp1927
Vi
aVsaid
p1928
aV.
aa(lp1929
Vlaura
p1930
aVleaned
p1931
aVforward
p1932
aVwith
p1933
aVher
p1934
aVglass
p1935
aV.
aa(lp1936
Vshe
p1937
aVput
p1938
aVher
p1939
aVelbows
p1940
aVon
p1941
aVthe
p1942
aVtable
p1943
aVand
p1944
aVheld
p1945
aVher
p1946
aVglass
p1947
aVin
p1948
aVboth
p1949
aVhands
p1950
aV.
aa(lp1951
Vshe
p1952
aVglanced
p1953
aVfrom
p1954
aVmel
p1955
aVto
p1956
aVterri
p1957
aVand
p1958
aVwaited
p1959
aVwith
p1960
aVa
aVlook
p1961
aVof
p1962
aVbewilderment
p1963
aVon
p1964
aVher
p1965
aVopen
p1966
aVface
p1967
aV,
aVas
p1968
aVif
p1969
aVamazed
p1970
aVthat
p1971
aVsuch
p1972
aVthings
p1973
aVhappened
p1974
aVto
p1975
aVpeople
p1976
aVyou
p1977
aVwere
p1978
aVfriendly
p1979
aVwith
p1980
aV.
aa(lp1981
V``
p1982
aVhow
p1983
aV'd
p1984
aVhe
p1985
aVbungle
p1986
aVit
p1987
aVwhen
p1988
aVhe
p1989
aVkilled
p1990
aVhimself
p1991
aV?
aV''
p1992
aa(lp1993
Vi
aVsaid
p1994
aV.
aa(lp1995
V\u201ci
p1996
aV'll
p1997
aVtell
p1998
aVyou
p1999
aVwhat
p2000
aVhappened
p2001
aV,
aV''
p2002
aVmel
p2003
aVsaid
p2004
aV.
aa(lp2005
V``
p2006
aVhe
p2007
aVtook
p2008
aVthis
p2009
aVtwenty-two
p2010
aVpistol
p2011
aVhe
p2012
aV'd
p2013
aVbought
p2014
aVto
p2015
aVthreaten
p2016
aVterri
p2017
aVand
p2018
aVme
p2019
aVwith
p2020
aV.
aa(lp2021
Voh
p2022
aV,
aVi
aV'm
p2023
aVserious
p2024
aV.
aa(lp2025
Vthe
p2026
aVman
p2027
aVwas
p2028
aValways
p2029
aVthreatening
p2030
aV.
aa(lp2031
Vyou
p2032
aVshould
p2033
aVhave
p2034
aVseen
p2035
aVthe
p2036
aVway
p2037
aVwe
p2038
aVlived
p2039
aVin
p2040
aVthose
p2041
aVdays
p2042
aV.
aa(lp2043
Vlike
p2044
aVfugitives
p2045
aV.
aa(lp2046
Vi
aVeven
p2047
aVbought
p2048
aVa
aVgun
p2049
aVmyself
p2050
aV.
aa(lp2051
Vcan
p2052
aVyou
p2053
aVbelieve
p2054
aVit
p2055
aV?
aa(lp2056
Va
aVguy
p2057
aVlike
p2058
aVme
p2059
aV?
aa(lp2060
Vbut
p2061
aVi
aVdid
p2062
aV,
aVi
aVbought
p2063
aVone
p2064
aVfor
p2065
aVself-defense
p2066
aVand
p2067
aVcarried
p2068
aVit
p2069
aVin
p2070
aVthe
p2071
aVglove
p2072
aVcompartment
p2073
aV.
aa(lp2074
Vsometimes
p2075
aVi
aV'd
p2076
aVhave
p2077
aVto
p2078
aVleave
p2079
aVthe
p2080
aVapartment
p2081
aVin
p2082
aVthe
p2083
aVmiddle
p2084
aVof
p2085
aVthe
p2086
aVnight
p2087
aV.
aa(lp2088
Vto
p2089
aVgo
p2090
aVto
p2091
aVthe
p2092
aVhospital
p2093
aV,
aVyou
p2094
aVknow
p2095
aV?
aa(lp2096
Vterri
p2097
aVand
p2098
aVl
aVwere
p2099
aVn't
p2100
aVmarried
p2101
aVthen
p2102
aV,
aVand
p2103
aVmy
p2104
aVfirst
p2105
aVwife
p2106
aVhad
p2107
aVthe
p2108
aVhouse
p2109
aVand
p2110
aVkids
p2111
aV,
aVthe
p2112
aVdog
p2113
aV,
aVevery-
p2114
aVthing
p2115
aV,
aVand
p2116
aVterri
p2117
aVand
p2118
aVi
aVwere
p2119
aVliving
p2120
aVin
p2121
aVthis
p2122
aVapartment
p2123
aVhere
p2124
aV.
aa(lp2125
Vsometimes
p2126
aV,
aVas
p2127
aVi
aVsay
p2128
aV,
aVi
aV'd
p2129
aVget
p2130
aVa
aVcall
p2131
aVin
p2132
aVthe
p2133
aVmiddle
p2134
aVof
p2135
aVthe
p2136
aVnight
p2137
aVand
p2138
aVhave
p2139
aVto
p2140
aVgo
p2141
aVin
p2142
aVto
p2143
aVthe
p2144
aVhospital
p2145
aVat
p2146
aVtwo
p2147
aVor
p2148
aVthree
p2149
aVin
p2150
aVthe
p2151
aVmorning
p2152
aV.
aa(lp2153
Vit
p2154
aV'd
p2155
aVbe
p2156
aVdark
p2157
aVout
p2158
aVthere
p2159
aVin
p2160
aVthe
p2161
aVparking
p2162
aVlot
p2163
aV,
aVand
p2164
aVi
aV'd
p2165
aVbreak
p2166
aVinto
p2167
aVa
aVsweat
p2168
aVbe
p2169
aVfore
p2170
aVi
aVcould
p2171
aVeven
p2172
aVget
p2173
aVto
p2174
aVmy
p2175
aVcar
p2176
aV.
aa(lp2177
Vi
aVnever
p2178
aVknew
p2179
aVif
p2180
aVhe
p2181
aVwas
p2182
aVgoing
p2183
aVto
p2184
aVcome
p2185
aVup
p2186
aVout
p2187
aVof
p2188
aVthe
p2189
aVshrubbery
p2190
aVor
p2191
aVfrom
p2192
aVbehind
p2193
aVa
aVcar
p2194
aVand
p2195
aVstart
p2196
aVshooting
p2197
aV.
aa(lp2198
Vi
aVmean
p2199
aV,
aVthe
p2200
aVman
p2201
aVwas
p2202
aVcrazy
p2203
aV.
aa(lp2204
Vhe
p2205
aVwas
p2206
aVcapable
p2207
aVof
p2208
aVwiring
p2209
aVa
aVbomb
p2210
aV,
aVanything
p2211
aV.
aa(lp2212
Vhe
p2213
aVused
p2214
aVto
p2215
aVcall
p2216
aVmy
p2217
aVservice
p2218
aVat
p2219
aVall
p2220
aVhours
p2221
aVand
p2222
aVsay
p2223
aVhe
p2224
aVneeded
p2225
aVto
p2226
aVtalk
p2227
aVto
p2228
aVthe
p2229
aVdoctor
p2230
aV,
aVand
p2231
aVwhen
p2232
aVi
aV'd
p2233
aVreturn
p2234
aVthe
p2235
aVcall
p2236
aV,
aVhe
p2237
aV'd
p2238
aVsay
p2239
aV,
aV'son
p2240
aVof
p2241
aVa
aVbitch
p2242
aV,
aVyour
p2243
aVdays
p2244
aVare
p2245
aVnumbered
p2246
aV.
aV'
aa(lp2247
Vlittle
p2248
aVthings
p2249
aVlike
p2250
aVthat
p2251
aV.
aa(lp2252
Vit
p2253
aVwas
p2254
aVscary
p2255
aV,
aVi
aV'm
p2256
aVtelling
p2257
aVyou
p2258
aV.
aV''
p2259
aa(lp2260
V``
p2261
aVi
aVstill
p2262
aVfeel
p2263
aVsorry
p2264
aVfor
p2265
aVhim
p2266
aV,
aV''
p2267
aVterri
p2268
aVsaid
p2269
aV.
aa(lp2270
V``
p2271
aVit
p2272
aVsounds
p2273
aVlike
p2274
aVa
aVnightmare
p2275
aV''
p2276
aVlaura
p2277
aVsaid
p2278
aV.
aa(lp2279
V``
p2280
aVbut
p2281
aVwhat
p2282
aVexactly
p2283
aVhappened
p2284
aVafter
p2285
aVhe
p2286
aVshot
p2287
aVhimself
p2288
aV?
aV''
p2289
aa(lp2290
Vlaura
p2291
aVis
p2292
aVa
aVlegal
p2293
aVsecretary
p2294
aV.
aa(lp2295
Vwe
p2296
aV'd
p2297
aVmet
p2298
aVin
p2299
aVa
aVprofessional
p2300
aVcapacity
p2301
aV.
aa(lp2302
Vbefore
p2303
aVwe
p2304
aVknew
p2305
aVit
p2306
aV,
aVit
p2307
aVwas
p2308
aVa
aVcourtship
p2309
aV.
aa(lp2310
Vshe
p2311
aV's
p2312
aVthirty-five
p2313
aV,
aVthree
p2314
aVyears
p2315
aVyounger
p2316
aVthan
p2317
aVi
aVam
p2318
aV.
aa(lp2319
Vin
p2320
aVaddition
p2321
aVto
p2322
aVbeing
p2323
aVin
p2324
aVlove
p2325
aV,
aVwe
p2326
aVlike
p2327
aVeach
p2328
aVother
p2329
aVand
p2330
aVenjoy
p2331
aVone
p2332
aVanother
p2333
aV's
p2334
aVcompany
p2335
aV.
aa(lp2336
Vshe
p2337
aV's
p2338
aVeasy
p2339
aVto
p2340
aVbe
p2341
aVwith
p2342
aV.
aa(lp2343
V``
p2344
aVwhat
p2345
aVhappened
p2346
aV?
aV''
p2347
aa(lp2348
Vlaura
p2349
aVsaid
p2350
aV.
aa(lp2351
Vmel
p2352
aVsaid
p2353
aV,
aV``
p2354
aVhe
p2355
aVshot
p2356
aVhimself
p2357
aVin
p2358
aVthe
p2359
aVmouth
p2360
aVin
p2361
aVhis
p2362
aVroom
p2363
aV.
aa(lp2364
Vsomeone
p2365
aVheard
p2366
aVthe
p2367
aVshot
p2368
aVand
p2369
aVtold
p2370
aVthe
p2371
aVmanager
p2372
aV.
aa(lp2373
Vthey
p2374
aVcame
p2375
aVin
p2376
aVwith
p2377
aVa
aVpasskey
p2378
aV,
aVsaw
p2379
aVwhat
p2380
aVhad
p2381
aVhappened
p2382
aV,
aVand
p2383
aVcalled
p2384
aVan
p2385
aVambulance
p2386
aV.
aa(lp2387
Vi
aVhappened
p2388
aVto
p2389
aVbe
p2390
aVthere
p2391
aVwhen
p2392
aVthey
p2393
aVbrought
p2394
aVhim
p2395
aVin
p2396
aV,
aValive
p2397
aVbut
p2398
aVpast
p2399
aVrecall
p2400
aV.
aa(lp2401
Vthe
p2402
aVman
p2403
aVlived
p2404
aVfor
p2405
aVthree
p2406
aVdays
p2407
aV.
aa(lp2408
Vhis
p2409
aVhead
p2410
aVswelled
p2411
aVup
p2412
aVto
p2413
aVtwice
p2414
aVthe
p2415
aVsize
p2416
aVof
p2417
aVa
aVnormal
p2418
aVhead
p2419
aV.
aa(lp2420
Vi\u2019d
p2421
aVnever
p2422
aVseen
p2423
aVanything
p2424
aVlike
p2425
aVit
p2426
aV,
aVand
p2427
aVi
aVhope
p2428
aVi
aVnever
p2429
aVdo
p2430
aVagain
p2431
aV.
aa(lp2432
Vterri
p2433
aVwanted
p2434
aVto
p2435
aVgo
p2436
aVin
p2437
aVand
p2438
aVsit
p2439
aVwith
p2440
aVhim
p2441
aVwhen
p2442
aVshe
p2443
aVfound
p2444
aVout
p2445
aVabout
p2446
aVit
p2447
aV.
aa(lp2448
Vwe
p2449
aVhad
p2450
aVa
aVfight
p2451
aVover
p2452
aVit
p2453
aV.
aa(lp2454
Vi
aVdid
p2455
aVn't
p2456
aVthink
p2457
aVshe
p2458
aVshould
p2459
aVsee
p2460
aVhim
p2461
aVlike
p2462
aVthat
p2463
aV.
aa(lp2464
Vi
aVdid
p2465
aVn't
p2466
aVthink
p2467
aVshe
p2468
aVshould
p2469
aVsee
p2470
aVhim
p2471
aV,
aVand
p2472
aVi
aVstill
p2473
aVdon\u2019t.\u201d
p2474
aV\u201cwho
p2475
aVwon
p2476
aVthe
p2477
aVfight
p2478
aV?
aV''
p2479
aa(lp2480
Vlaura
p2481
aVsaid
p2482
aV.
aa(lp2483
Vi
aVwas
p2484
aVin
p2485
aVthe
p2486
aVroom
p2487
aVwith
p2488
aVhim
p2489
aVwhen
p2490
aVhe
p2491
aVdied
p2492
aV''
p2493
aV.
aa(lp2494
Vterri
p2495
aVsaid
p2496
aV``
p2497
aVhe
p2498
aVnever
p2499
aVcame
p2500
aVup
p2501
aVout
p2502
aVof
p2503
aVit
p2504
aV.
aa(lp2505
Vbut
p2506
aVi
aVsat
p2507
aVwith
p2508
aVhim
p2509
aV.
aa(lp2510
Vhe
p2511
aVdid
p2512
aVn't
p2513
aVhave
p2514
aVanyone
p2515
aVelse
p2516
aV.
aV''
p2517
aa(lp2518
V``
p2519
aVhe
p2520
aVwas
p2521
aVdangerous
p2522
aV,
aV''
p2523
aVmel
p2524
aVsaid
p2525
aV.
aa(lp2526
V``
p2527
aVif
p2528
aVyou
p2529
aVcall
p2530
aVthat
p2531
aVlove
p2532
aV,
aVyou
p2533
aVcan
p2534
aVhave
p2535
aVit
p2536
aV.
aV''
p2537
aa(lp2538
V3
aVit
p2539
aVwas
p2540
aVlove
p2541
aV,
aV''
p2542
aVterri
p2543
aVsaid
p2544
aV.
aa(lp2545
V\u201csure
p2546
aV,
aVit
p2547
aV's
p2548
aVabnormal
p2549
aVin
p2550
aVmost
p2551
aVpeople
p2552
aV's
p2553
aVeyes
p2554
aV.
aa(lp2555
Vbut
p2556
aVhe
p2557
aVwas
p2558
aV`willing
p2559
aVto
p2560
aVdie
p2561
aVfor
p2562
aVit
p2563
aV.
aa(lp2564
Vhe
p2565
aVdid
p2566
aVdie
p2567
aVfor
p2568
aVit
p2569
aV.
aV''
p2570
aa(lp2571
V\u201ci
p2572
aVsure
p2573
aVas
p2574
aVhell
p2575
aVwould
p2576
aVn't
p2577
aVcall
p2578
aVit
p2579
aVlove
p2580
aV,
aV''
p2581
aVmel
p2582
aVsaid
p2583
aV.
aa(lp2584
V``
p2585
aVi
aVmean
p2586
aV,
aVno
p2587
aVone
p2588
aVknows
p2589
aVwhat
p2590
aVhe
p2591
aVdid
p2592
aVit
p2593
aVfor
p2594
aV.
aa(lp2595
Vi've
p2596
aVseen
p2597
aVa
aVlot
p2598
aVof
p2599
aVsuicides
p2600
aV,
aVand
p2601
aVl
aVcould
p2602
aVn't
p2603
aVsay
p2604
aVanyone
p2605
aVever
p2606
aVknew
p2607
aVwhat
p2608
aVthey
p2609
aVdid
p2610
aVit
p2611
aVfor
p2612
aV.
aV''
p2613
aa(lp2614
Vmel
p2615
aVput
p2616
aVhis
p2617
aVhands
p2618
aVbehind
p2619
aVhis
p2620
aVneck
p2621
aVand
p2622
aVtilted
p2623
aVhis
p2624
aVchair
p2625
aVback
p2626
aV.
aa(lp2627
V``
p2628
aVi
aV'm
p2629
aVnot
p2630
aVinterested
p2631
aVin
p2632
aVthat
p2633
aVkind
p2634
aVof
p2635
aVlove
p2636
aV,
aV''
p2637
aVhe
p2638
aVsaid
p2639
aV.
aa(lp2640
V\u201cif
p2641
aVthat
p2642
aV's
p2643
aVlove
p2644
aV,
aVyou
p2645
aVcan
p2646
aVhave
p2647
aVit
p2648
aV.
aV''
p2649
aa(lp2650
Vterri
p2651
aVsaid
p2652
aV,
aV``
p2653
aVwe
p2654
aVwere
p2655
aVafraid
p2656
aVmel
p2657
aVeven
p2658
aVmade
p2659
aVa
aVwill
p2660
aVout
p2661
aVand
p2662
aVwrote
p2663
aVto
p2664
aVhis
p2665
aVbrother
p2666
aVin
p2667
aVcalifornia
p2668
aVwho
p2669
aVused
p2670
aVto
p2671
aVbe
p2672
aVa
aVgreen
p2673
aVberet
p2674
aV.
aa(lp2675
Vmel
p2676
aVtold
p2677
aVhim
p2678
aVwho
p2679
aVto
p2680
aVlook
p2681
aVfor
p2682
aVif
p2683
aVsomething
p2684
aVhappened
p2685
aVto
p2686
aVhim
p2687
aV.
aV''
p2688
aa(lp2689
Vterri
p2690
aVdrank
p2691
aVfrom
p2692
aVher
p2693
aVglass
p2694
aV.
aa(lp2695
Vshe
p2696
aVsaid
p2697
aV,
aV``
p2698
aVbut
p2699
aVmel
p2700
aV's
p2701
aVright
p2702
aV--
p2703
aVwe
p2704
aVlived
p2705
aVlike
p2706
aVfugitives
p2707
aV.
aa(lp2708
Vwe
p2709
aVwere
p2710
aVafraid
p2711
aV.
aa(lp2712
Vmel
p2713
aVwas
p2714
aV,
aVwere
p2715
aVn't
p2716
aVyou
p2717
aV,
aVhoney
p2718
aV?
aa(lp2719
Vi
aVeven
p2720
aVcalled
p2721
aVthe
p2722
aVpolice
p2723
aVat
p2724
aVone
p2725
aVpoint
p2726
aV,
aVbut
p2727
aVthey
p2728
aVwere
p2729
aVno
p2730
aVhelp
p2731
aV.
aa(lp2732
Vthey
p2733
aVsaid
p2734
aVthey
p2735
aVcould
p2736
aVn't
p2737
aVdo
p2738
aVanything
p2739
aVuntil
p2740
aVed
p2741
aVactually
p2742
aVdid
p2743
aVsomething
p2744
aV.
aa(lp2745
Vis
p2746
aVn't
p2747
aVthat
p2748
aVa
aVlaugh
p2749
aV?
aV''
p2750
aa(lp2751
Vterry
p2752
aVsaid
p2753
aV.
aa(lp2754
Vshe
p2755
aVpoured
p2756
aVthe
p2757
aVlast
p2758
aVof
p2759
aVthe
p2760
aVgin
p2761
aVinto
p2762
aVher
p2763
aVglass
p2764
aVand
p2765
aVwaggled
p2766
aVthe
p2767
aVbottle
p2768
aV.
aa(lp2769
Vmel
p2770
aVgot
p2771
aVup
p2772
aVfrom
p2773
aVthe
p2774
aVtable
p2775
aVand
p2776
aVwent
p2777
aVto
p2778
aVthe
p2779
aVcupboard
p2780
aV.
aa(lp2781
Vhe
p2782
aVtook
p2783
aVdown
p2784
aVanother
p2785
aVbottle
p2786
aV.
aa(lp2787
V``
p2788
aVwell
p2789
aV,
aVnick
p2790
aVand
p2791
aVi
aVknow
p2792
aVwhat
p2793
aVhove
p2794
aVis
p2795
aV,
aV''
p2796
aVlaura
p2797
aVsaid
p2798
aV.
aa(lp2799
V``
p2800
aVfor
p2801
aVus
p2802
aV,
aVi
aVmean
p2803
aV,
aV''
p2804
aVlaura
p2805
aVsaid
p2806
aV.
aa(lp2807
Vshe
p2808
aVbumped
p2809
aVmy
p2810
aVknee
p2811
aVwith
p2812
aVher
p2813
aVknee
p2814
aV.
aa(lp2815
V``
p2816
aVyou
p2817
aV're
p2818
aVsupposed
p2819
aVto
p2820
aVsay
p2821
aVsomething
p2822
aVnow
p2823
aV,
aV''
p2824
aVlaura
p2825
aVsaid
p2826
aV,
aVand
p2827
aVturned
p2828
aVher
p2829
aVsmile
p2830
aVon
p2831
aVme
p2832
aV.
aa(lp2833
Vfor
p2834
aVan
p2835
aVanswer
p2836
aV,
aVi
aVtook
p2837
aVlaura
p2838
aV's
p2839
aVhand
p2840
aVand
p2841
aVraised
p2842
aVit
p2843
aVto
p2844
aVmy
p2845
aVlips
p2846
aV.
aa(lp2847
Vi
aVmade
p2848
aVa
aVbig
p2849
aVproduction
p2850
aVout
p2851
aVof
p2852
aVkissing
p2853
aVher
p2854
aVhand
p2855
aV.
aa(lp2856
Veveryone
p2857
aVwas
p2858
aVamused
p2859
aV.
aa(lp2860
V``
p2861
aVwe
p2862
aV're
p2863
aVlucky
p2864
aV,
aV''
p2865
aVi
aVsaid
p2866
aV.
aa(lp2867
V``
p2868
aVyou
p2869
aVguys
p2870
aV,
aV''
p2871
aVterri
p2872
aVsaid
p2873
aV.
aa(lp2874
V``
p2875
aVstop
p2876
aVthat
p2877
aVnow
p2878
aV.
aa(lp2879
Vyou
p2880
aV're
p2881
aVmaking
p2882
aVme
p2883
aVsick
p2884
aV.
aa(lp2885
Vyou
p2886
aV're
p2887
aVstill
p2888
aVon
p2889
aVthe
p2890
aVhoneymoon
p2891
aV,
aVfor
p2892
aVgod
p2893
aV's
p2894
aVsake
p2895
aV.
aa(lp2896
Vyou
p2897
aV're
p2898
aVstill
p2899
aVgaga
p2900
aV,
aVfor
p2901
aVcrying
p2902
aVout
p2903
aVloud
p2904
aV.
aa(lp2905
Vjust
p2906
aVwait
p2907
aV.
aa(lp2908
Vhow
p2909
aVlong
p2910
aVhave
p2911
aVyou
p2912
aVbeen
p2913
aVtogether
p2914
aVnow
p2915
aV?
aa(lp2916
Vhow
p2917
aVlong
p2918
aVhas
p2919
aVit
p2920
aVbeen
p2921
aV?
aa(lp2922
Va
aVyear
p2923
aV?
aa(lp2924
Vlonger
p2925
aVthan
p2926
aVa
aVyear
p2927
aV?
aV''
p2928
aa(lp2929
V``
p2930
aVgoing
p2931
aVon
p2932
aVa
aVyear
p2933
aVand
p2934
aVa
aVhalf
p2935
aV,
aV''
p2936
aVlaura
p2937
aVsaid
p2938
aV,
aVflushed
p2939
aVand
p2940
aVsmiling
p2941
aV.
aa(lp2942
Voh
p2943
aV,
aVnow
p2944
aV,
aV''
p2945
aVterri
p2946
aVsaid
p2947
aV.
aa(lp2948
V``
p2949
aVwait
p2950
aVa
aVwhile
p2951
aV.
aV''
p2952
aa(lp2953
Vshe
p2954
aVheld
p2955
aVher
p2956
aVdrink
p2957
aVand
p2958
aVgazed
p2959
aVat
p2960
aVlaura
p2961
aV.
aa(lp2962
V``
p2963
aVi
aV'm
p2964
aVonly
p2965
aVkidding
p2966
aV,
aV''
p2967
aVterri
p2968
aVsaid
p2969
aV.
aa(lp2970
Vmel
p2971
aVopened
p2972
aVthe
p2973
aVgin
p2974
aVand
p2975
aVwent
p2976
aVaround
p2977
aVthe
p2978
aVtable
p2979
aVwith
p2980
aVthe
p2981
aVbottle
p2982
aV.
aa(lp2983
V``
p2984
aVhere
p2985
aV,
aVyou
p2986
aVguys
p2987
aV,
aV''
p2988
aVhe
p2989
aVsaid
p2990
aV.
aa(lp2991
V``
p2992
aVlet
p2993
aV's
p2994
aVhave
p2995
aVa
aVtoast
p2996
aV.
aa(lp2997
Vi
aVwant
p2998
aVto
p2999
aVpropose
p3000
aVa
aVtoast
p3001
aV.
aa(lp3002
Va
aVtoast
p3003
aVto
p3004
aVlove
p3005
aV.
aa(lp3006
Vto
p3007
aVtrue
p3008
aVlove
p3009
aV,
aV''
p3010
aVmel
p3011
aVsaid
p3012
aV.
aa(lp3013
Vwe
p3014
aVtouched
p3015
aVglasses
p3016
aV4
aV''
p3017
aVto
p3018
aVlove
p3019
aV.
aV''
p3020
aa(lp3021
Vwe
p3022
aVsaid
p3023
aV.
aa(lp3024
Voutside
p3025
aVin
p3026
aVthe
p3027
aVbackyard
p3028
aV,
aVone
p3029
aVof
p3030
aVthe
p3031
aVdogs
p3032
aVbegan
p3033
aVto
p3034
aVbark
p3035
aV.
aa(lp3036
Vthe
p3037
aVleaves
p3038
aVof
p3039
aVthe
p3040
aVaspen
p3041
aVthat
p3042
aVleaned
p3043
aVpast
p3044
aVthe
p3045
aVwindow
p3046
aVticked
p3047
aVagainst
p3048
aVthe
p3049
aVglass
p3050
aV.
aa(lp3051
Vthe
p3052
aVafternoon
p3053
aVsun
p3054
aVwas
p3055
aVlike
p3056
aVa
aVpresence
p3057
aVin
p3058
aVthis
p3059
aVroom
p3060
aV,
aVthe
p3061
aVspacious
p3062
aVlight
p3063
aVof
p3064
aVease
p3065
aVand
p3066
aVgenerosity
p3067
aV.
aa(lp3068
Vwe
p3069
aVcould
p3070
aVhave
p3071
aVbeen
p3072
aVanywhere
p3073
aV,
aVsomewhere
p3074
aVenchanted
p3075
aV.
aa(lp3076
Vwe
p3077
aVraised
p3078
aVour
p3079
aVglasses
p3080
aVagain
p3081
aVand
p3082
aVgrinned
p3083
aVat
p3084
aVeach
p3085
aVother
p3086
aVlike
p3087
aVchildren
p3088
aVwho
p3089
aVhad
p3090
aVagreed
p3091
aVon
p3092
aVsomething
p3093
aVforbidden
p3094
aV.
aa(lp3095
V``
p3096
aVi
aV'll
p3097
aVtell
p3098
aVyou
p3099
aVwhat
p3100
aVreal
p3101
aVlove
p3102
aVis
p3103
aV,
aV''
p3104
aVmel
p3105
aVsaid
p3106
aV.
aa(lp3107
V``
p3108
aVi
aVmean
p3109
aV,
aVi
aV'll
p3110
aVgive
p3111
aVyou
p3112
aVa
aVgood
p3113
aVexample
p3114
aV.
aa(lp3115
Vand
p3116
aVthen
p3117
aVyou
p3118
aVcan
p3119
aVdraw
p3120
aVyour
p3121
aVown
p3122
aVconclusions
p3123
aV.
aV''
p3124
aa(lp3125
Vhe
p3126
aVpoured
p3127
aVmore
p3128
aVgin
p3129
aVinto
p3130
aVhis
p3131
aVglass
p3132
aV.
aa(lp3133
Vhe
p3134
aVadded
p3135
aVan
p3136
aVice
p3137
aVcube
p3138
aVand
p3139
aVa
aVsliver
p3140
aVof
p3141
aVlime
p3142
aV.
aa(lp3143
Vwe
p3144
aVwaited
p3145
aVand
p3146
aVsipped
p3147
aVour
p3148
aVdrinks
p3149
aV.
aa(lp3150
Vlaura
p3151
aVand
p3152
aVi
aVtouched
p3153
aVknees
p3154
aVagain
p3155
aV.
aa(lp3156
Vi
aVput
p3157
aVa
aVhand
p3158
aVon
p3159
aVher
p3160
aVwarm
p3161
aVthigh
p3162
aVand
p3163
aVleft
p3164
aVit
p3165
aVthere
p3166
aV.
aa(lp3167
V``
p3168
aVwhat
p3169
aVdo
p3170
aVany
p3171
aVof
p3172
aVus
p3173
aVreally
p3174
aVknow
p3175
aVabout
p3176
aVlove
p3177
aV?
aV''
p3178
aa(lp3179
Vmel
p3180
aVsaid
p3181
aV.
aa(lp3182
V``
p3183
aVit
p3184
aVseems
p3185
aVto
p3186
aVme
p3187
aVwe
p3188
aV're
p3189
aVjust
p3190
aVbeginners
p3191
aVat
p3192
aVlove
p3193
aV.
aa(lp3194
Vwe
p3195
aVsay
p3196
aVwe
p3197
aVlove
p3198
aVeach
p3199
aVother
p3200
aVand
p3201
aVwe
p3202
aVdo
p3203
aV,
aVi
aVdo
p3204
aVn't
p3205
aVdoubt
p3206
aVit
p3207
aV.
aa(lp3208
Vi
aVlove
p3209
aVterri
p3210
aVand
p3211
aVterri
p3212
aVloves
p3213
aVme
p3214
aV,
aVand
p3215
aVyou
p3216
aVguys
p3217
aVlove
p3218
aVeach
p3219
aVother
p3220
aVtoo
p3221
aV.
aa(lp3222
Vyou
p3223
aVknow
p3224
aVthe
p3225
aVkind
p3226
aVof
p3227
aVlove
p3228
aVi\u2019m
p3229
aVtalking
p3230
aVabout
p3231
aVnow
p3232
aV.
aa(lp3233
Vphysical
p3234
aVlove
p3235
aV,
aVthat
p3236
aVimpulse
p3237
aVthat
p3238
aVdrives
p3239
aVyou
p3240
aVto
p3241
aVsomeone
p3242
aVspecial
p3243
aV,
aVas
p3244
aVwell
p3245
aVas
p3246
aVlove
p3247
aVof
p3248
aVthe
p3249
aVother
p3250
aVperson
p3251
aV's
p3252
aVbeing
p3253
aV,
aVhis
p3254
aVor
p3255
aVher
p3256
aVessence
p3257
aV,
aVas
p3258
aVit
p3259
aVwere
p3260
aV.
aa(lp3261
Vcarnal
p3262
aVlove
p3263
aVand
p3264
aV,
aVwell
p3265
aV,
aVcall
p3266
aVit
p3267
aVsentimental
p3268
aVlove
p3269
aV,
aVthe
p3270
aVday-to-day
p3271
aVcaring
p3272
aVabout
p3273
aVthe
p3274
aVother
p3275
aVperson
p3276
aV.
aa(lp3277
Vbut
p3278
aVsometimes
p3279
aVi
aVhave
p3280
aVa
aVhard
p3281
aVtime
p3282
aVaccounting
p3283
aVfor
p3284
aVthe
p3285
aVfact
p3286
aVthat
p3287
aVi
aVmust
p3288
aVhave
p3289
aVloved
p3290
aVmy
p3291
aVfirst
p3292
aVwife
p3293
aVtoo
p3294
aV.
aa(lp3295
Vbut
p3296
aVi
aVdid
p3297
aV.
aa(lp3298
Vi
aVknow
p3299
aVi
aVdid
p3300
aV.
aa(lp3301
Vso
p3302
aVi
aVsuppose
p3303
aVi
aVam
p3304
aVlike
p3305
aVterri
p3306
aVin
p3307
aVthat
p3308
aVregard
p3309
aV.
aa(lp3310
Vterri
p3311
aVand
p3312
aVed
p3313
aV.
aV''
p3314
aa(lp3315
Vhe
p3316
aVthought
p3317
aVabout
p3318
aVit
p3319
aVand
p3320
aVthen
p3321
aVhe
p3322
aVwent
p3323
aVon
p3324
aV.
aa(lp3325
V``
p3326
aVthere
p3327
aVwas
p3328
aVa
aVtime
p3329
aVwhen
p3330
aVi
aVthought
p3331
aVi
aVloved
p3332
aVmy
p3333
aVfirst
p3334
aVwife
p3335
aVmore
p3336
aVthan
p3337
aVlife
p3338
aVitself
p3339
aV.
aa(lp3340
Vbut
p3341
aVnow
p3342
aVi
aVhate
p3343
aVher
p3344
aVguts
p3345
aV.
aa(lp3346
Vi
aVdo
p3347
aV.
aa(lp3348
Vhow
p3349
aVdo
p3350
aVyou
p3351
aVexplain
p3352
aVthat
p3353
aV?
aa(lp3354
Vwhat
p3355
aVhappened
p3356
aVto
p3357
aVthat
p3358
aVlove
p3359
aV?
aa(lp3360
Vwhat
p3361
aVhappened
p3362
aVto
p3363
aVit
p3364
aV,
aVis
p3365
aVwhat
p3366
aVi
aV'd
p3367
aVlike
p3368
aVto
p3369
aVknow
p3370
aV.
aa(lp3371
Vi
aVwish
p3372
aVsomeone
p3373
aVcould
p3374
aVtell
p3375
aVme
p3376
aV.
aa(lp3377
Vthen
p3378
aVthere
p3379
aV's
p3380
aVed
p3381
aV.
aa(lp3382
Vokay
p3383
aV,
aVwe
p3384
aV're
p3385
aVback
p3386
aVto
p3387
aVed
p3388
aV.
aa(lp3389
Vhe
p3390
aVloves
p3391
aVterri
p3392
aVso
p3393
aVmuch
p3394
aVhe
p3395
aVtries
p3396
aVto
p3397
aVkill
p3398
aVher
p3399
aVand
p3400
aVhe
p3401
aVwinds
p3402
aVup
p3403
aVkilling
p3404
aVhimself
p3405
aV.
aV''
p3406
aa(lp3407
Vmel
p3408
aVstopped
p3409
aVtalking
p3410
aVand
p3411
aVswallowed
p3412
aVfrom
p3413
aVhis
p3414
aVglass
p3415
aV.
aa(lp3416
V``
p3417
aVyou
p3418
aVguys
p3419
aVhave
p3420
aVbeen
p3421
aVtogether
p3422
aVeighteen
p3423
aVmonths
p3424
aVand
p3425
aVyou
p3426
aVlove
p3427
aVeach
p3428
aVother
p3429
aV.
aa(lp3430
Vit
p3431
aVshows
p3432
aVall
p3433
aVover
p3434
aVyou
p3435
aV.
aa(lp3436
Vyou
p3437
aVglow
p3438
aVwith
p3439
aVit
p3440
aV.
aa(lp3441
Vbut
p3442
aVyou
p3443
aVboth
p3444
aVloved
p3445
aVother
p3446
aVpeople
p3447
aVbefore
p3448
aVyou
p3449
aVmet
p3450
aVeach
p3451
aVother
p3452
aV.
aa(lp3453
Vyou
p3454
aV've
p3455
aVboth
p3456
aVbeen
p3457
aVmarried
p3458
aVbefore
p3459
aV,
aVjust
p3460
aVlike
p3461
aVus
p3462
aV.
aa(lp3463
Vand
p3464
aVyou
p3465
aVprobably
p3466
aVloved
p3467
aVother
p3468
aVpeople
p3469
aVbefore
p3470
aVthat
p3471
aVtoo
p3472
aV,
aVeven
p3473
aV.
aa(lp3474
Vterri
p3475
aVand
p3476
aVi
aVhave
p3477
aVbeen
p3478
aVtogether
p3479
aVfive
p3480
aVyears
p3481
aV,
aVbeen
p3482
aVmarried
p3483
aVfor
p3484
aVfour
p3485
aV.
aa(lp3486
Vand
p3487
aVthe
p3488
aVterrible
p3489
aVthing
p3490
aV,
aVthe
p3491
aVterrible
p3492
aVthing
p3493
aVis
p3494
aV,
aVbut
p3495
aVthe
p3496
aVgood
p3497
aVthing
p3498
aVtoo
p3499
aV,
aVthe
p3500
aVsaving
p3501
aVgrace
p3502
aV,
aVyou
p3503
aVmight
p3504
aVsay
p3505
aV,
aVis
p3506
aVthat
p3507
aVif
p3508
aVsomething
p3509
aVhappened
p3510
aVto
p3511
aVone
p3512
aVof
p3513
aVus
p3514
aV--
p3515
aVexcuse
p3516
aVme
p3517
aVfor
p3518
aVsaying
p3519
aVthis-but
p3520
aVif
p3521
aVsomething
p3522
aVhappened
p3523
aVto
p3524
aVone
p3525
aVof
p3526
aVus
p3527
aVtomorrow
p3528
aVi
aVthink
p3529
aVthe
p3530
aVother
p3531
aVone
p3532
aV,
aVthe
p3533
aVother
p3534
aVperson
p3535
aV,
aVwould
p3536
aVgrieve
p3537
aVfor
p3538
aVa
aVwhile
p3539
aV,
aVyou
p3540
aVknow
p3541
aV,
aVbut
p3542
aVthen
p3543
aVthe
p3544
aVsurviving
p3545
aVparty
p3546
aVwould
p3547
aVgo
p3548
aVout
p3549
aVand
p3550
aVlove
p3551
aVagain
p3552
aV,
aVhave
p3553
aVsomeone
p3554
aVelse
p3555
aVsoon
p3556
aVenough
p3557
aV.
aa(lp3558
Vall
p3559
aVthis
p3560
aV,
aVall
p3561
aVof
p3562
aVthis
p3563
aVlove
p3564
aVwe
p3565
aV're
p3566
aVtalking
p3567
aVabout
p3568
aV,
aVit
p3569
aVwould
p3570
aVjust
p3571
aVbe
p3572
aVa
aVmemory
p3573
aV.
aa(lp3574
Vmaybe
p3575
aVnot
p3576
aVeven
p3577
aVa
aVmemory
p3578
aV.
aa(lp3579
Vam
p3580
aVi
aVwrong
p3581
aV?
aa(lp3582
Vam
p3583
aVi
aVway
p3584
aVoff
p3585
aVbase
p3586
aV?
aa(lp3587
Vbecause
p3588
aVi
aVwant
p3589
aVyou
p3590
aVto
p3591
aVset
p3592
aVme
p3593
aVstraight
p3594
aVif
p3595
aVyou
p3596
aVthink
p3597
aVi
aV'm
p3598
aVwrong
p3599
aV.
aa(lp3600
Vi
aVwant
p3601
aVto
p3602
aVknow
p3603
aV.
aa(lp3604
Vi
aVmean
p3605
aV,
aVi
aVdo
p3606
aVn't
p3607
aVknow
p3608
aVanything
p3609
aV,
aVand
p3610
aVi
aV'm
p3611
aVthe
p3612
aVfirst
p3613
aVone
p3614
aVto
p3615
aVadmit
p3616
aVit
p3617
aV.
aV''
p3618
aa(lp3619
V``
p3620
aVmel
p3621
aV,
aVfor
p3622
aVgod
p3623
aV's
p3624
aVsake
p3625
aV,
aV\u201d
aVterri
p3626
aVsaid
p3627
aV.
aa(lp3628
Vshe
p3629
aVreached
p3630
aVout
p3631
aVand
p3632
aVtook
p3633
aVhold
p3634
aVof
p3635
aVhis
p3636
aVwrist
p3637
aV.
aa(lp3638
V``
p3639
aVare
p3640
aVyou
p3641
aVgetting
p3642
aVdrunk
p3643
aV?
aa(lp3644
Vhoney
p3645
aV?
aa(lp3646
Vare
p3647
aVyou
p3648
aVdrunk
p3649
aV?
aV''
p3650
aa(lp3651
V``
p3652
aVhoney
p3653
aV,
aVi
aV'm
p3654
aVjust
p3655
aVtalking
p3656
aV.
aV''
p3657
aa(lp3658
Vmel
p3659
aVsaid
p3660
aV.
aa(lp3661
V``
p3662
aVall
p3663
aVright
p3664
aV?
aa(lp3665
Vi
aVdo
p3666
aVn't
p3667
aVhave
p3668
aVto
p3669
aVbe
p3670
aVdrunk
p3671
aVto
p3672
aVsay
p3673
aVwhat
p3674
aVi
aVthink
p3675
aV.
aa(lp3676
Vi
aVmean
p3677
aV,
aVwe
p3678
aV're
p3679
aVall
p3680
aVjust
p3681
aVtalking
p3682
aV,
aVright
p3683
aV?
aV''
p3684
aa(lp3685
Vmel
p3686
aVsaid
p3687
aV.
aa(lp3688
Vhe
p3689
aVfixed
p3690
aVhis
p3691
aVeyes
p3692
aVon
p3693
aVher
p3694
aV.
aa(lp3695
V``
p3696
aVsweetie
p3697
aV,
aVi
aV'm
p3698
aVnot
p3699
aVcriticizing
p3700
aV,
aV''
p3701
aVterri
p3702
aVsaid
p3703
aV.
aa(lp3704
V5
aVshe
p3705
aVpicked
p3706
aVup
p3707
aVher
p3708
aVglass
p3709
aV.
aa(lp3710
V``
p3711
aVi
aV'm
p3712
aVnot
p3713
aVon
p3714
aVcall
p3715
aVtoday
p3716
aV,
aV''
p3717
aVmel
p3718
aVsaid
p3719
aV.
aa(lp3720
V``
p3721
aVlet
p3722
aVme
p3723
aVremind
p3724
aVyou
p3725
aVof
p3726
aVthat
p3727
aV.
aa(lp3728
Vi
aVam
p3729
aVnot
p3730
aVon
p3731
aVcall
p3732
aV,
aV\u201d
aVhe
p3733
aVsaid
p3734
aV.
aa(lp3735
V``
p3736
aVmel
p3737
aV,
aVwe
p3738
aVlove
p3739
aVyou
p3740
aV,
aV''
p3741
aVlaura
p3742
aVsaid
p3743
aV.
aa(lp3744
Vmel
p3745
aVlooked
p3746
aVat
p3747
aVlaura
p3748
aV.
aa(lp3749
Vhe
p3750
aVlooked
p3751
aVat
p3752
aVher
p3753
aVas
p3754
aVif
p3755
aVhe
p3756
aVcould
p3757
aVnot
p3758
aVplace
p3759
aVher
p3760
aV,
aVas
p3761
aVif
p3762
aVshe
p3763
aVwas
p3764
aVnot
p3765
aVthe
p3766
aVwoman
p3767
aVshe
p3768
aVwas
p3769
aV.
aa(lp3770
V``
p3771
aVlove
p3772
aVyou
p3773
aVtoo
p3774
aV,
aVlaura
p3775
aV,
aV''
p3776
aVmel
p3777
aVsaid
p3778
aV.
aa(lp3779
V``
p3780
aVand
p3781
aVyou
p3782
aV,
aVnick
p3783
aV,
aVlove
p3784
aVyou
p3785
aVtoo
p3786
aV.
aa(lp3787
Vyou
p3788
aVknow
p3789
aVsomething
p3790
aV?
aV''
p3791
aa(lp3792
Vmel
p3793
aVsaid
p3794
aV,
aV``
p3795
aVyou
p3796
aVguys
p3797
aVare
p3798
aVour
p3799
aVpals
p3800
aV,
aV''
p3801
aVmel
p3802
aVsaid
p3803
aV.
aa(lp3804
Vhe
p3805
aVpicked
p3806
aVup
p3807
aVhis
p3808
aVglass
p3809
aV.
aa(lp3810
Vmel
p3811
aVsaid
p3812
aV,
aV``
p3813
aVi
aVwas
p3814
aVgoing
p3815
aVto
p3816
aVtell
p3817
aVyou
p3818
aVabout
p3819
aVsomething
p3820
aV.
aa(lp3821
Vi
aVmean
p3822
aV,
aVi
aVwas
p3823
aVgoing
p3824
aVto
p3825
aVprove
p3826
aVa
aVpoint
p3827
aV.
aa(lp3828
Vyou
p3829
aVsee
p3830
aV,
aVthis
p3831
aVhappened
p3832
aVa
aVfew
p3833
aVmonths
p3834
aVago
p3835
aV,
aVbut
p3836
aVit
p3837
aV's
p3838
aVstill
p3839
aVgoing
p3840
aVon
p3841
aVright
p3842
aVnow
p3843
aV,
aVand
p3844
aVit
p3845
aVought
p3846
aVto
p3847
aVmake
p3848
aVus
p3849
aVfeel
p3850
aVashamed
p3851
aVwhen
p3852
aVwe
p3853
aVtalk
p3854
aVlike
p3855
aVwe
p3856
aVknow
p3857
aVwhat
p3858
aVwe
p3859
aV're
p3860
aVtalking
p3861
aVabout
p3862
aVwhen
p3863
aVwe
p3864
aVtalk
p3865
aVabove
p3866
aVlove
p3867
aV.
aV''
p3868
aa(lp3869
V``
p3870
aVcome
p3871
aVon
p3872
aVnow
p3873
aV,
aV''
p3874
aVterri
p3875
aVsaid
p3876
aV.
aa(lp3877
V``
p3878
aVdo
p3879
aVn't
p3880
aVtalk
p3881
aVlike
p3882
aVyou
p3883
aV're
p3884
aVdrunk
p3885
aVif
p3886
aVyou
p3887
aV're
p3888
aVnot
p3889
aVdrunk.\u201d
p3890
aV''
p3891
aVjust
p3892
aVshut
p3893
aVup
p3894
aVfor
p3895
aVonce
p3896
aVin
p3897
aVyour
p3898
aVlife
p3899
aV,
aV''
p3900
aVmel
p3901
aVsaid
p3902
aVvery
p3903
aVquietly
p3904
aV,
aV``
p3905
aVwell
p3906
aVyou
p3907
aVdo
p3908
aVme
p3909
aVa
aVfavor
p3910
aVand
p3911
aVdo
p3912
aVthat
p3913
aVfor
p3914
aVa
aVminute
p3915
aV?
aa(lp3916
Vso
p3917
aVas
p3918
aVi
aVwas
p3919
aVsaying
p3920
aV,
aVthere
p3921
aV's
p3922
aVthis
p3923
aVold
p3924
aVcouple
p3925
aVwho
p3926
aVhad
p3927
aVthis
p3928
aVcar
p3929
aVwreck
p3930
aVout
p3931
aVon
p3932
aVthe
p3933
aVinterstate
p3934
aV.
aa(lp3935
Va
aVkid
p3936
aVhit
p3937
aVthem
p3938
aVand
p3939
aVthey
p3940
aVwere
p3941
aVall
p3942
aVtorn
p3943
aVto
p3944
aVshit
p3945
aVand
p3946
aVnobody
p3947
aVwas
p3948
aVgiving
p3949
aVthem
p3950
aVmuch
p3951
aVchance
p3952
aVto
p3953
aVpull
p3954
aVthrough
p3955
aV,
aV''
p3956
aVterri
p3957
aVlooked
p3958
aVat
p3959
aVus
p3960
aVand
p3961
aVthen
p3962
aVback
p3963
aVat
p3964
aVmel
p3965
aV.
aa(lp3966
Vshe
p3967
aVseemed
p3968
aVanxious
p3969
aV,
aVor
p3970
aVmaybe
p3971
aVthat
p3972
aV's
p3973
aVtoo
p3974
aVstrong
p3975
aVa
aVword
p3976
aV.
aa(lp3977
Vmel
p3978
aVwas
p3979
aVhanding
p3980
aVthe
p3981
aVbottle
p3982
aVaround
p3983
aVthe
p3984
aVtable
p3985
aV.
aa(lp3986
V``
p3987
aVi
aVwas
p3988
aVon
p3989
aVcall
p3990
aVthat
p3991
aVnight
p3992
aV,
aV''
p3993
aVmel
p3994
aVsaid
p3995
aV.
aa(lp3996
V``
p3997
aVit
p3998
aVwas
p3999
aVmay
p4000
aVor
p4001
aVmaybe
p4002
aVit
p4003
aVwas
p4004
aVjune
p4005
aV.
aa(lp4006
Vterri
p4007
aVand
p4008
aVi
aVhad
p4009
aVjust
p4010
aVsat
p4011
aVdown
p4012
aVto
p4013
aVdinner
p4014
aVwhen
p4015
aVthe
p4016
aVhospital
p4017
aVcalled
p4018
aV.
aa(lp4019
Vthere
p4020
aV'd
p4021
aVbeen
p4022
aVthis
p4023
aVthing
p4024
aVout
p4025
aVon
p4026
aVthe
p4027
aVinterstate
p4028
aV.
aa(lp4029
Vdrunk
p4030
aVkid
p4031
aV,
aVteenager
p4032
aV,
aVplowed
p4033
aVhis
p4034
aVdad\u2019s
p4035
aVpickup
p4036
aVinto
p4037
aVthis
p4038
aVcamper
p4039
aVwith
p4040
aVthis
p4041
aVold
p4042
aVcouple
p4043
aVin
p4044
aVit
p4045
aV.
aa(lp4046
Vthey
p4047
aVwere
p4048
aVin
p4049
aVtheir
p4050
aVmid-seventies
p4051
aV,
aVthat
p4052
aVcouple
p4053
aV.
aa(lp4054
Vthe
p4055
aVkid\u2014eighteen
p4056
aV,
aVnineteen
p4057
aV,
aVsomething\u2014he
p4058
aVwas
p4059
aVdoa
p4060
aV.
aa(lp4061
Vtaken
p4062
aVthe
p4063
aVsteering
p4064
aVwheel
p4065
aVthrough
p4066
aVhis
p4067
aVsternum
p4068
aV.
aa(lp4069
Vthe
p4070
aVold
p4071
aVcouple
p4072
aV,
aVthey
p4073
aVwere
p4074
aValive
p4075
aV,
aVyou
p4076
aVunderstand
p4077
aV.
aa(lp4078
Vi
aVmean
p4079
aV,
aVjust
p4080
aVbarely
p4081
aV.
aa(lp4082
Vbut
p4083
aVthey
p4084
aVhad
p4085
aVeverything
p4086
aV.
aa(lp4087
Vmultiple
p4088
aVfractures
p4089
aV,
aVinternal
p4090
aVinjuries
p4091
aV,
aVhemorrhaging
p4092
aV,
aVcontusions
p4093
aV,
aVlacerations
p4094
aV,
aVthe
p4095
aVworks
p4096
aV,
aVand
p4097
aVthey
p4098
aVeach
p4099
aVof
p4100
aVthem
p4101
aVhad
p4102
aVthemselves
p4103
aVconcussions
p4104
aV.
aa(lp4105
Vthey
p4106
aVwere
p4107
aVin
p4108
aVa
aVbad
p4109
aVway
p4110
aV,
aVbelieve
p4111
aVme
p4112
aV.
aa(lp4113
Vand
p4114
aV,
aVof
p4115
aVcourse
p4116
aV,
aVtheir
p4117
aVage
p4118
aVwas
p4119
aVtwo
p4120
aVstrikes
p4121
aVagainst
p4122
aVthem
p4123
aV.
aa(lp4124
Vi
aV'd
p4125
aVsay
p4126
aVshe
p4127
aVwas
p4128
aVworse
p4129
aVoff
p4130
aVthan
p4131
aVhe
p4132
aVwas
p4133
aV.
aa(lp4134
Vruptured
p4135
aVspleen
p4136
aValong
p4137
aVwith
p4138
aVeverything
p4139
aVelse
p4140
aV.
aa(lp4141
Vboth
p4142
aVkneecaps
p4143
aVbroken
p4144
aV.
aa(lp4145
Vbut
p4146
aVthey'd
p4147
aVbeen
p4148
aVwearing
p4149
aVtheir
p4150
aVseatbelts
p4151
aVand
p4152
aV,
aVgod
p4153
aVknows
p4154
aV,
aVthat
p4155
aV's
p4156
aVwhat
p4157
aVsaved
p4158
aVthem
p4159
aVfor
p4160
aVthe
p4161
aVtime
p4162
aVbeing
p4163
aV.
aV''
p4164
aa(lp4165
V``
p4166
aVfolks
p4167
aV,
aVthis
p4168
aVis
p4169
aVan
p4170
aVadvertisement
p4171
aVfor
p4172
aVthe
p4173
aVnational
p4174
aVsafety
p4175
aVcouncil
p4176
aV,
aV''
p4177
aVterri
p4178
aVsaid
p4179
aV.
aa(lp4180
V``
p4181
aVthis
p4182
aVis
p4183
aVyour
p4184
aVspokesman
p4185
aV,
aVdr.
p4186
aVmelvin
p4187
aVr.
p4188
aVmcginnis
p4189
aV,
aVtalking
p4190
aV.
aV''
p4191
aa(lp4192
Vterri
p4193
aVlaughed
p4194
aV.
aa(lp4195
V\u201cmel
p4196
aV,
aV\u201d
aVshe
p4197
aVsaid
p4198
aV,
aV``
p4199
aVsometimes
p4200
aVyou
p4201
aV're
p4202
aVjust
p4203
aVtoo
p4204
aVmuch
p4205
aV.
aa(lp4206
Vbut
p4207
aVi
aVlove
p4208
aVyou
p4209
aV,
aVhon
p4210
aV,
aV''
p4211
aVshe
p4212
aVsaid
p4213
aV.
aa(lp4214
V\u201choney
p4215
aV,
aVi
aVlove
p4216
aVyou
p4217
aV,
aV\u201d
aVmel
p4218
aVsaid
p4219
aV.
aa(lp4220
Vhe
p4221
aVleaned
p4222
aVacross
p4223
aVthe
p4224
aVtable
p4225
aV.
aa(lp4226
Vterri
p4227
aVmet
p4228
aVhim
p4229
aVhalfway
p4230
aV.
aa(lp4231
Vthey
p4232
aVkissed
p4233
aV.
aa(lp4234
V6
aV\u201cterri\u2019s
p4235
aVright
p4236
aV,
aVmel
p4237
aVsaid
p4238
aVas
p4239
aVhe
p4240
aVsettle
p4241
aVhimself
p4242
aVagain
p4243
aV.
aa(lp4244
V\u201cget
p4245
aVthose
p4246
aVseatbelts
p4247
aVon
p4248
aV.
aa(lp4249
Vbut
p4250
aVseriously
p4251
aV,
aVthey
p4252
aVwere
p4253
aVin
p4254
aVsome
p4255
aVshape
p4256
aV,
aVthose
p4257
aVoldsters
p4258
aV.
aa(lp4259
Vby
p4260
aVthe
p4261
aVtime
p4262
aVi
aVgot
p4263
aVdown
p4264
aVthere
p4265
aV,
aVthe
p4266
aVkid
p4267
aVwas
p4268
aVdead
p4269
aV,
aVas
p4270
aVi
aVsaid
p4271
aV.
aa(lp4272
Vhe
p4273
aVwas
p4274
aVoff
p4275
aVin
p4276
aVa
aVcorner
p4277
aV,
aVlaid
p4278
aVout
p4279
aVon
p4280
aVa
aVgurney
p4281
aV.
aa(lp4282
Vi
aVtook
p4283
aVone
p4284
aVlook
p4285
aVat
p4286
aVthe
p4287
aVold
p4288
aVcouple
p4289
aVand
p4290
aVtold
p4291
aVthe
p4292
aVer
p4293
aVnurse
p4294
aVto
p4295
aVget
p4296
aVme
p4297
aVa
aVneurologist
p4298
aVand
p4299
aVan
p4300
aVorthopedic
p4301
aVman
p4302
aVand
p4303
aVa
aVcouple
p4304
aVof
p4305
aVsurgeons
p4306
aVdown
p4307
aVthere
p4308
aVright
p4309
aVaway.\u201d
p4310
aVhe
p4311
aVdrank
p4312
aVfrom
p4313
aVhis
p4314
aVglass
p4315
aV.
aa(lp4316
V\u201ci\u2019ll
p4317
aVtry
p4318
aVto
p4319
aVkeep
p4320
aVthis
p4321
aVshort
p4322
aV,
aV\u201d
aVhe
p4323
aVsaid
p4324
aV.
aa(lp4325
V\u201cso
p4326
aVwe
p4327
aVtook
p4328
aVthe
p4329
aVtwo
p4330
aVof
p4331
aVthem
p4332
aVup
p4333
aVto
p4334
aVthe
p4335
aVor
p4336
aVand
p4337
aVworked
p4338
aVlike
p4339
aVfuck
p4340
aVon
p4341
aVthem
p4342
aVmost
p4343
aVof
p4344
aVthe
p4345
aVnight
p4346
aV.
aa(lp4347
Vthey
p4348
aVhad
p4349
aVthese
p4350
aVincredible
p4351
aVreserves
p4352
aV,
aVthose
p4353
aVtwo
p4354
aV.
aa(lp4355
Vyou
p4356
aVsee
p4357
aVthat
p4358
aVonce
p4359
aVin
p4360
aVa
aVwhile
p4361
aV.
aa(lp4362
Vso
p4363
aVwe
p4364
aVdid
p4365
aVeverything
p4366
aVthat
p4367
aVcould
p4368
aVbe
p4369
aVdone
p4370
aV,
aVand
p4371
aVtoward
p4372
aVmorning
p4373
aVwe\u2019re
p4374
aVgiving
p4375
aVthem
p4376
aVa
aVfifty-fifty
p4377
aVchance
p4378
aV,
aVmaybe
p4379
aVless
p4380
aVthan
p4381
aVthat
p4382
aVfor
p4383
aVher
p4384
aV.
aa(lp4385
Vso
p4386
aVhere
p4387
aVthey
p4388
aVare
p4389
aV,
aVstill
p4390
aValive
p4391
aVthe
p4392
aVnext
p4393
aVmorning
p4394
aV.
aa(lp4395
Vso
p4396
aV,
aVokay
p4397
aV,
aVwe
p4398
aVmove
p4399
aVthem
p4400
aVinto
p4401
aVthe
p4402
aVicu
p4403
aV,
aVwhich
p4404
aVis
p4405
aVwhere
p4406
aVthey
p4407
aVboth
p4408
aVkept
p4409
aVplugging
p4410
aVaway
p4411
aVat
p4412
aVit
p4413
aVfor
p4414
aVtwo
p4415
aVweeks
p4416
aV,
aVhitting
p4417
aVit
p4418
aVbetter
p4419
aVand
p4420
aVbetter
p4421
aVon
p4422
aVall
p4423
aVthe
p4424
aVscopes
p4425
aV.
aa(lp4426
Vso
p4427
aVwe
p4428
aVtransfer
p4429
aVthem
p4430
aVout
p4431
aVto
p4432
aVtheir
p4433
aVown
p4434
aVroom.\u201d
p4435
aVmel
p4436
aVstopped
p4437
aVtalking
p4438
aV.
aa(lp4439
V\u201chere
p4440
aV,
aV\u201d
aVhe
p4441
aVsaid
p4442
aV,
aV\u201clet\u2019s
p4443
aVdrink
p4444
aVthis
p4445
aVcheapo
p4446
aVgin
p4447
aVthe
p4448
aVhell
p4449
aVup
p4450
aV.
aa(lp4451
Vthen
p4452
aVwe\u2019re
p4453
aVgoing
p4454
aVto
p4455
aVdinner
p4456
aV,
aVright
p4457
aV?
aa(lp4458
Vterri
p4459
aVand
p4460
aVi
aVknow
p4461
aVa
aVnew
p4462
aVplace
p4463
aV.
aa(lp4464
Vthat\u2019s
p4465
aVwhere
p4466
aVwe\u2019ll
p4467
aVgo
p4468
aV,
aVto
p4469
aVthis
p4470
aVnew
p4471
aVplace
p4472
aVwe
p4473
aVknow
p4474
aVabout
p4475
aV.
aa(lp4476
Vbut
p4477
aVwe\u2019re
p4478
aVnot
p4479
aVgoing
p4480
aVuntil
p4481
aVwe
p4482
aVfinish
p4483
aVup
p4484
aVthis
p4485
aVcut-rate
p4486
aV,
aVlousy
p4487
aVgin.\u201d
p4488
aVterri
p4489
aVsaid
p4490
aV,
aV\u201cwe
p4491
aVhaven\u2019t
p4492
aVactually
p4493
aVeaten
p4494
aVthere
p4495
aVyet
p4496
aV.
aa(lp4497
Vbut
p4498
aVit
p4499
aVlooks
p4500
aVgood
p4501
aV.
aa(lp4502
Vfrom
p4503
aVthe
p4504
aVoutside
p4505
aV,
aVyou
p4506
aVknow.\u201d
p4507
aV\u201ci
p4508
aVlike
p4509
aVfood
p4510
aV,
aV\u201d
aVmel
p4511
aVsaid
p4512
aV.
aa(lp4513
V\u201cif
p4514
aVi
aVhad
p4515
aVit
p4516
aVto
p4517
aVdo
p4518
aVall
p4519
aVover
p4520
aVagain
p4521
aV,
aVi\u2019d
p4522
aVbe
p4523
aVa
aVchef
p4524
aV,
aVyou
p4525
aVknow
p4526
aV?
aa(lp4527
Vright
p4528
aV,
aVterri
p4529
aV?
aV\u201d
aVmel
p4530
aVsaid
p4531
aV.
aa(lp4532
Vhe
p4533
aVlaughed
p4534
aV.
aa(lp4535
Vhe
p4536
aVfingered
p4537
aVthe
p4538
aVice
p4539
aVin
p4540
aVhis
p4541
aVglass
p4542
aV.
aa(lp4543
V\u201cterri
p4544
aVknows
p4545
aV,
aV\u201d
aVhe
p4546
aVsaid
p4547
aV.
aa(lp4548
V\u201cterri
p4549
aVcan
p4550
aVtell
p4551
aVyou
p4552
aV.
aa(lp4553
Vbut
p4554
aVlet
p4555
aVme
p4556
aVsay
p4557
aVthis
p4558
aV.
aa(lp4559
Vif
p4560
aVi
aVcould
p4561
aVcome
p4562
aVback
p4563
aVagain
p4564
aVin
p4565
aVa
aVdifferent
p4566
aVlife
p4567
aV,
aVa
aVdifferent
p4568
aVtime
p4569
aVand
p4570
aVall
p4571
aV,
aVyou
p4572
aVknow
p4573
aVwhat
p4574
aV?
aa(lp4575
Vi\u2019d
p4576
aVlike
p4577
aVto
p4578
aVcome
p4579
aVback
p4580
aVas
p4581
aVa
aVknight
p4582
aV.
aa(lp4583
Vyou
p4584
aVwere
p4585
aVpretty
p4586
aVsafe
p4587
aVwearing
p4588
aVall
p4589
aVthat
p4590
aVarmor
p4591
aV.
aa(lp4592
Vit
p4593
aVwas
p4594
aVall
p4595
aVright
p4596
aVbeing
p4597
aVa
aVknight
p4598
aVuntil
p4599
aVgunpowder
p4600
aVand
p4601
aVmuskets
p4602
aVand
p4603
aVpistols
p4604
aVcame
p4605
aValong.\u201d
p4606
aV\u201cmel
p4607
aVwould
p4608
aVlike
p4609
aVto
p4610
aVride
p4611
aVa
aVhorse
p4612
aVand
p4613
aVcarry
p4614
aVa
aVlance
p4615
aV,
aV\u201d
aVterri
p4616
aVsaid
p4617
aV.
aa(lp4618
V\u201cor
p4619
aVjust
p4620
aVa
aVwoman
p4621
aV,
aV\u201d
aVmel
p4622
aVsaid
p4623
aV.
aa(lp4624
V\u201cshame
p4625
aVon
p4626
aVyou
p4627
aV,
aV\u201d
aVlaura
p4628
aVsaid
p4629
aV.
aa(lp4630
V\u201cthe
p4631
aVserfs
p4632
aVnever
p4633
aVhad
p4634
aVit
p4635
aVgood
p4636
aV,
aV\u201d
aVmel
p4637
aVsaid
p4638
aV.
aa(lp4639
V\u201cbut
p4640
aVi
aVguess
p4641
aVeven
p4642
aVthe
p4643
aVknight
p4644
aVwere
p4645
aVvessels
p4646
aVto
p4647
aVsomeone
p4648
aV.
aa(lp4649
Visn\u2019t
p4650
aVthat
p4651
aVthe
p4652
aVway
p4653
aVit
p4654
aVworked
p4655
aV?
aa(lp4656
Vbut
p4657
aVthen
p4658
aVeveryone
p4659
aVis
p4660
aValways
p4661
aVa
aVvessel
p4662
aVto
p4663
aVsomeone
p4664
aV.
aa(lp4665
Visn\u2019t
p4666
aVthat
p4667
aVright
p4668
aV?
aa(lp4669
Vterri
p4670
aV?
aa(lp4671
Vbut
p4672
aVwhat
p4673
aVi
aVlike
p4674
aVabout
p4675
aVknights
p4676
aV,
aVbesides
p4677
aVtheir
p4678
aVladies
p4679
aV,
aVwas
p4680
aVthat
p4681
aVthey
p4682
aVhad
p4683
aVthat
p4684
aVsuit
p4685
aVof
p4686
aVarmor
p4687
aV,
aVyou
p4688
aVknow
p4689
aV,
aVand
p4690
aVthey
p4691
aVcouldn\u2019t
p4692
aVget
p4693
aVhurt
p4694
aVvery
p4695
aVeasy
p4696
aV.
aa(lp4697
Vno
p4698
aVcars
p4699
aVin
p4700
aVthose
p4701
aVdays
p4702
aV,
aVyou
p4703
aVknow
p4704
aV?
aa(lp4705
Vno
p4706
aVdrunk
p4707
aVteenagers
p4708
aVto
p4709
aVtear
p4710
aVinto
p4711
aVyour
p4712
aVass.\u201d
p4713
aV\u201cvassals
p4714
aV,
aV\u201d
aVterri
p4715
aVsaid
p4716
aV.
aa(lp4717
V7
aV\u201cwhat
p4718
aV?
aV\u201d
aVmel
p4719
aVsaid
p4720
aV.
aa(lp4721
V\u201cvassals
p4722
aV,
aV\u201d
aVterri
p4723
aVsaid
p4724
aV.
aa(lp4725
V\u201cthey
p4726
aVwere
p4727
aVcalled
p4728
aVvassals
p4729
aV,
aVnot
p4730
aVvessels.\u201d
p4731
aV\u201cvassals
p4732
aV,
aVvessels
p4733
aV,
aV\u201d
aVmel
p4734
aVsaid
p4735
aV,
aV\u201cwhat
p4736
aVthe
p4737
aVfuck\u2019s
p4738
aVthe
p4739
aVdifference
p4740
aV?
aa(lp4741
Vyou
p4742
aVknew
p4743
aVwhat
p4744
aVi
aVmeant
p4745
aVanyway
p4746
aV.
aa(lp4747
Vall
p4748
aVright
p4749
aV,
aV\u201d
aVmel
p4750
aVsaid
p4751
aV.
aa(lp4752
V\u201cso
p4753
aVi\u2019m
p4754
aVnot
p4755
aVeducated
p4756
aV.
aa(lp4757
Vi
aVlearned
p4758
aVmy
p4759
aVstuff
p4760
aV,
aVi\u2019m
p4761
aVa
aVheart
p4762
aVsurgeon
p4763
aV,
aVsure
p4764
aV,
aVbut
p4765
aVi\u2019m
p4766
aVjust
p4767
aVa
aVmechanic
p4768
aV.
aa(lp4769
Vi
aVgo
p4770
aVin
p4771
aVand
p4772
aVfuck
p4773
aVaround
p4774
aVand
p4775
aVfix
p4776
aVthings
p4777
aV.
aa(lp4778
Vshit
p4779
aV,
aV\u201d
aVmel
p4780
aVsaid
p4781
aV.
aa(lp4782
V\u201cmodesty
p4783
aVdoesn\u2019t
p4784
aVbecome
p4785
aVyou
p4786
aV,
aV\u201d
aVterri
p4787
aVsaid
p4788
aV.
aa(lp4789
V\u201che\u2019s
p4790
aVjust
p4791
aVa
aVhumble
p4792
aVsawbones
p4793
aV,
aV\u201d
aVi
aVsaid
p4794
aV.
aa(lp4795
V\u201cbut
p4796
aVsometimes
p4797
aVthey
p4798
aVsuffocated
p4799
aVin
p4800
aVall
p4801
aVthat
p4802
aVarmor
p4803
aV,
aVmel
p4804
aV.
aa(lp4805
Vthey\u2019d
p4806
aVeven
p4807
aVhave
p4808
aVheart
p4809
aVattacks
p4810
aVif
p4811
aVit
p4812
aVgot
p4813
aVtoo
p4814
aVhot
p4815
aVand
p4816
aVthey
p4817
aVwere
p4818
aVtoo
p4819
aVtired
p4820
aVand
p4821
aVworn
p4822
aVout
p4823
aV.
aa(lp4824
Vi
aVread
p4825
aVsomewhere
p4826
aVthat
p4827
aVthey\u2019d
p4828
aVfall
p4829
aVoff
p4830
aVtheir
p4831
aVhorses
p4832
aVand
p4833
aVnot
p4834
aVbe
p4835
aVable
p4836
aVto
p4837
aVget
p4838
aVup
p4839
aVbecause
p4840
aVthey
p4841
aVwere
p4842
aVtoo
p4843
aVtired
p4844
aVto
p4845
aVstand
p4846
aVwith
p4847
aVall
p4848
aVthat
p4849
aVarmor
p4850
aVon
p4851
aVthem
p4852
aV.
aa(lp4853
Vthey
p4854
aVgot
p4855
aVtrampled
p4856
aVby
p4857
aVtheir
p4858
aVown
p4859
aVhorses
p4860
aVsometimes.\u201d
p4861
aV\u201cthat\u2019s
p4862
aVterrible
p4863
aV,
aV\u201d
aVmel
p4864
aVsaid
p4865
aV.
aa(lp4866
V\u201csome
p4867
aVvassal
p4868
aVwould
p4869
aVcome
p4870
aValong
p4871
aVand
p4872
aVspear
p4873
aVthe
p4874
aVbastard
p4875
aVin
p4876
aVthe
p4877
aVname
p4878
aVof
p4879
aVlove
p4880
aV.
aa(lp4881
Vor
p4882
aVwhatever
p4883
aVthe
p4884
aVfuck
p4885
aVit
p4886
aVwas
p4887
aVthey
p4888
aVfought
p4889
aVover
p4890
aVin
p4891
aVthose
p4892
aVdays.\u201d
p4893
aV\u201csame
p4894
aVthings
p4895
aVwe
p4896
aVfight
p4897
aVover
p4898
aVthese
p4899
aVdays
p4900
aV,
aV\u201d
aVterri
p4901
aVsaid
p4902
aV.
aa(lp4903
Vlaura
p4904
aVsaid
p4905
aV,
aV\u201cnothing\u2019s
p4906
aVchanged.\u201d
p4907
aVthe
p4908
aVcolor
p4909
aVwas
p4910
aVstill
p4911
aVhigh
p4912
aVin
p4913
aVlaura\u2019s
p4914
aVcheeks
p4915
aV.
aa(lp4916
Vher
p4917
aVeyes
p4918
aVwere
p4919
aVbright
p4920
aV.
aa(lp4921
Vshe
p4922
aVbrought
p4923
aVher
p4924
aVglass
p4925
aVto
p4926
aVher
p4927
aVlips
p4928
aV.
aa(lp4929
Vmel
p4930
aVpoured
p4931
aVhimself
p4932
aVanother
p4933
aVdrink
p4934
aV.
aa(lp4935
Vhe
p4936
aVlooked
p4937
aVat
p4938
aVthe
p4939
aVlabel
p4940
aVclosely
p4941
aVas
p4942
aVif
p4943
aVstudying
p4944
aVa
aVlong
p4945
aVrow
p4946
aVof
p4947
aVnumbers
p4948
aV.
aa(lp4949
Vthen
p4950
aVhe
p4951
aVslowly
p4952
aVput
p4953
aVthe
p4954
aVbottle
p4955
aVdown
p4956
aVon
p4957
aVthe
p4958
aVtable
p4959
aVand
p4960
aVslowly
p4961
aVreached
p4962
aVfor
p4963
aVthe
p4964
aVtonic
p4965
aVwater
p4966
aV.
aa(lp4967
V\u201cwhat
p4968
aVabout
p4969
aVthe
p4970
aVold
p4971
aVcouple
p4972
aV?
aV\u201d
aVlaura
p4973
aVasked
p4974
aV.
aa(lp4975
V\u201cyou
p4976
aVdidn\u2019t
p4977
aVfinish
p4978
aVthat
p4979
aVstory
p4980
aVyou
p4981
aVstarted.\u201d
p4982
aVlaura
p4983
aVwas
p4984
aVhaving
p4985
aVa
aVhard
p4986
aVtime
p4987
aVlighting
p4988
aVher
p4989
aVcigarette
p4990
aV.
aa(lp4991
Vher
p4992
aVmatches
p4993
aVkept
p4994
aVgoing
p4995
aVout
p4996
aV.
aa(lp4997
Vthe
p4998
aVsunshine
p4999
aVinside
p5000
aVthe
p5001
aVroom
p5002
aVwas
p5003
aVdifferent
p5004
aVnow
p5005
aV,
aVchanging
p5006
aV,
aVgetting
p5007
aVthinner
p5008
aV.
aa(lp5009
Vbut
p5010
aVthe
p5011
aVleaves
p5012
aVoutside
p5013
aVthe
p5014
aVwindow
p5015
aVwere
p5016
aVstill
p5017
aVshimmering
p5018
aV,
aVand
p5019
aVi
aVstared
p5020
aVat
p5021
aVthe
p5022
aVpattern
p5023
aVthey
p5024
aVmade
p5025
aVon
p5026
aVthe
p5027
aVpanes
p5028
aVand
p5029
aVon
p5030
aVthe
p5031
aVformica
p5032
aVcounter
p5033
aV.
aa(lp5034
Vthey
p5035
aVweren\u2019t
p5036
aVthe
p5037
aVsame
p5038
aVpatterns
p5039
aV,
aVof
p5040
aVcourse
p5041
aV.
aa(lp5042
V\u201cwhat
p5043
aVabout
p5044
aVthe
p5045
aVold
p5046
aVcouple
p5047
aV?
aV\u201d
aVi
aVasked
p5048
aV.
aa(lp5049
V\u201colder
p5050
aVbut
p5051
aVwiser
p5052
aV,
aV\u201d
aVterri
p5053
aVsaid
p5054
aV.
aa(lp5055
Vmel
p5056
aVstared
p5057
aVat
p5058
aVher
p5059
aV.
aa(lp5060
Vterri
p5061
aVsaid
p5062
aV,
aV\u201cgo
p5063
aVon
p5064
aVwith
p5065
aVyour
p5066
aVstory
p5067
aV,
aVhon
p5068
aV.
aa(lp5069
Vi
aVwas
p5070
aVonly
p5071
aVkidding
p5072
aV.
aa(lp5073
Vthen
p5074
aVwhat
p5075
aVhappened
p5076
aV?
aV\u201d
aV\u201cterri
p5077
aV,
aVsometimes
p5078
aV,
aV\u201d
aVmel
p5079
aVsaid
p5080
aV.
aa(lp5081
V8
aV\u201cplease
p5082
aV,
aVmel
p5083
aV,
aV\u201d
aVterri
p5084
aVsaid
p5085
aV.
aa(lp5086
V\u201cdon\u2019t
p5087
aValways
p5088
aVbe
p5089
aVso
p5090
aVserious
p5091
aV,
aVsweetie
p5092
aV.
aa(lp5093
Vcan\u2019t
p5094
aVyou
p5095
aVtake
p5096
aVa
aVjoke
p5097
aV?
aV\u201d
aVhe
p5098
aVheld
p5099
aVhis
p5100
aVglass
p5101
aVand
p5102
aVgazed
p5103
aVsteadily
p5104
aVat
p5105
aVhis
p5106
aVwife
p5107
aV.
aa(lp5108
V\u201cwhat
p5109
aVhappened
p5110
aV?
aV\u201d
aVlaura
p5111
aVsaid
p5112
aV.
aa(lp5113
Vmel
p5114
aVfastened
p5115
aVhis
p5116
aVeyes
p5117
aVon
p5118
aVlaura
p5119
aV.
aa(lp5120
Vhe
p5121
aVsaid
p5122
aV,
aV\u201claura
p5123
aV,
aVif
p5124
aVi
aVdidn\u2019t
p5125
aVhave
p5126
aVterri
p5127
aVand
p5128
aVif
p5129
aVi
aVdidn\u2019t
p5130
aVlove
p5131
aVher
p5132
aVso
p5133
aVmuch
p5134
aV,
aVand
p5135
aVif
p5136
aVnick
p5137
aVwasn\u2019t
p5138
aVmy
p5139
aVbest
p5140
aVfriend
p5141
aV,
aVi\u2019d
p5142
aVfall
p5143
aVin
p5144
aVlove
p5145
aVwith
p5146
aVyou
p5147
aV.
aa(lp5148
Vi\u2019d
p5149
aVcarry
p5150
aVyou
p5151
aVoff
p5152
aV,
aVhoney
p5153
aV,
aV\u201d
aVhe
p5154
aVsaid
p5155
aV.
aa(lp5156
V\u201ctell
p5157
aVyour
p5158
aVstory
p5159
aV,
aV\u201d
aVterri
p5160
aVsaid
p5161
aV.
aa(lp5162
V\u201cthen
p5163
aVwe\u2019ll
p5164
aVgo
p5165
aVto
p5166
aVthat
p5167
aVnew
p5168
aVplace
p5169
aV,
aVokay
p5170
aV?
aV\u201d
aV\u201cokay
p5171
aV,
aV\u201d
aVmel
p5172
aVsaid
p5173
aV.
aa(lp5174
V\u201cwhere
p5175
aVwas
p5176
aVi
aV?
aV\u201d
aVhe
p5177
aVsaid
p5178
aV.
aa(lp5179
Vhe
p5180
aVstared
p5181
aVat
p5182
aVthe
p5183
aVtable
p5184
aVand
p5185
aVthen
p5186
aVhe
p5187
aVbegan
p5188
aVagain
p5189
aV.
aa(lp5190
V\u201ci
p5191
aVdropped
p5192
aVin
p5193
aVto
p5194
aVsee
p5195
aVeach
p5196
aVof
p5197
aVthem
p5198
aVevery
p5199
aVday
p5200
aV,
aVsometimes
p5201
aVtwice
p5202
aVa
aVday
p5203
aVif
p5204
aVi
aVwas
p5205
aVup
p5206
aVdoing
p5207
aVother
p5208
aVcalls
p5209
aVanyway
p5210
aV.
aa(lp5211
Vcasts
p5212
aVand
p5213
aVbandages
p5214
aV,
aVhead
p5215
aVto
p5216
aVfoot
p5217
aV,
aVthe
p5218
aVboth
p5219
aVof
p5220
aVthem
p5221
aV.
aa(lp5222
Vyou
p5223
aVknow
p5224
aV,
aVyou\u2019ve
p5225
aVseen
p5226
aVit
p5227
aVin
p5228
aVthe
p5229
aVmovies
p5230
aV.
aa(lp5231
Vthat\u2019s
p5232
aVjust
p5233
aVthe
p5234
aVway
p5235
aVthey
p5236
aVlooked
p5237
aV,
aVjust
p5238
aVlike
p5239
aVin
p5240
aVthe
p5241
aVmovies
p5242
aV.
aa(lp5243
Vlittle
p5244
aVeye-holes
p5245
aVand
p5246
aVnose-holes
p5247
aVand
p5248
aVmouth-holes
p5249
aV.
aa(lp5250
Vand
p5251
aVshe
p5252
aVhad
p5253
aVto
p5254
aVhave
p5255
aVher
p5256
aVlegs
p5257
aVslung
p5258
aVup
p5259
aVon
p5260
aVtop
p5261
aVof
p5262
aVit
p5263
aV.
aa(lp5264
Vwell
p5265
aV,
aVthe
p5266
aVhusband
p5267
aVwas
p5268
aVvery
p5269
aVdepressed
p5270
aVfor
p5271
aVthe
p5272
aVlongest
p5273
aVwhile
p5274
aV.
aa(lp5275
Veven
p5276
aVafter
p5277
aVhe
p5278
aVfound
p5279
aVout
p5280
aVthat
p5281
aVhis
p5282
aVwife
p5283
aVwas
p5284
aVgoing
p5285
aVto
p5286
aVpull
p5287
aVthrough
p5288
aV,
aVhe
p5289
aVwas
p5290
aVstill
p5291
aVvery
p5292
aVdepressed
p5293
aV.
aa(lp5294
Vnot
p5295
aVabout
p5296
aVthe
p5297
aVaccident
p5298
aV,
aVthough
p5299
aV.
aa(lp5300
Vi
aVmean
p5301
aV,
aVthe
p5302
aVaccident
p5303
aVwas
p5304
aVone
p5305
aVthing
p5306
aV,
aVbut
p5307
aVit
p5308
aVwasn\u2019t
p5309
aVeverything
p5310
aV.
aa(lp5311
Vi\u2019d
p5312
aVget
p5313
aVup
p5314
aVto
p5315
aVhis
p5316
aVmouth-hole
p5317
aV,
aVyou
p5318
aVknow
p5319
aV,
aVand
p5320
aVhe\u2019d
p5321
aVsay
p5322
aVno
p5323
aV,
aVit
p5324
aVwasn\u2019t
p5325
aVthe
p5326
aVaccident
p5327
aVexactly
p5328
aVbut
p5329
aVit
p5330
aVwas
p5331
aVbecause
p5332
aVhe
p5333
aVcouldn\u2019t
p5334
aVsee
p5335
aVher
p5336
aVthrough
p5337
aVhis
p5338
aVeye-holes
p5339
aV.
aa(lp5340
Vhe
p5341
aVsaid
p5342
aVthat
p5343
aVwas
p5344
aVwhat
p5345
aVwas
p5346
aVmaking
p5347
aVhim
p5348
aVfeel
p5349
aVso
p5350
aVbad
p5351
aV.
aa(lp5352
Vcan
p5353
aVyou
p5354
aVimagine
p5355
aV?
aa(lp5356
Vi\u2019m
p5357
aVtelling
p5358
aVyou
p5359
aV,
aVthe
p5360
aVman\u2019s
p5361
aVheart
p5362
aVwas
p5363
aVbreaking
p5364
aVbecause
p5365
aVhe
p5366
aVcouldn\u2019t
p5367
aVturn
p5368
aVhis
p5369
aVgoddamn
p5370
aVhead
p5371
aVand
p5372
aVsee
p5373
aVhis
p5374
aVgoddamn
p5375
aVwife.\u201d
p5376
aVmel
p5377
aVlooked
p5378
aVaround
p5379
aVthe
p5380
aVtable
p5381
aVand
p5382
aVshook
p5383
aVhis
p5384
aVhead
p5385
aVat
p5386
aVwhat
p5387
aVhe
p5388
aVwas
p5389
aVgoing
p5390
aVto
p5391
aVsay
p5392
aV.
aa(lp5393
V``
p5394
aVi
aVmean
p5395
aV,
aVit
p5396
aVwas
p5397
aVkilling
p5398
aVthe
p5399
aVold
p5400
aVfart
p5401
aVjust
p5402
aVbecause
p5403
aVhe
p5404
aVcould
p5405
aVn't
p5406
aVlook
p5407
aVat
p5408
aVthe
p5409
aVfucking
p5410
aVwoman
p5411
aV.
aV''
p5412
aa(lp5413
Vwe
p5414
aVall
p5415
aVlook
p5416
aVat
p5417
aVmel
p5418
aV.
aa(lp5419
V``
p5420
aVdo
p5421
aVyou
p5422
aVsee
p5423
aVwhat
p5424
aVi
aV'm
p5425
aVsaying
p5426
aV?
aV''
p5427
aa(lp5428
Vhe
p5429
aVsaid
p5430
aV.
aa(lp5431
Vmaybe
p5432
aVwe
p5433
aVwere
p5434
aVa
aVlittle
p5435
aVdrunk
p5436
aVby
p5437
aVthen
p5438
aV.
aa(lp5439
Vi
aVknow
p5440
aVit
p5441
aVwas
p5442
aVhard
p5443
aVkeeping
p5444
aVthings
p5445
aVin
p5446
aVfocus
p5447
aV.
aa(lp5448
Vthe
p5449
aVlight
p5450
aVwas
p5451
aVdraining
p5452
aVout
p5453
aVof
p5454
aVthe
p5455
aVroom
p5456
aV,
aVgoing
p5457
aVback
p5458
aVthrough
p5459
aVthe
p5460
aVwindow
p5461
aVwhere
p5462
aVit
p5463
aVhad
p5464
aVcome
p5465
aVfrom
p5466
aV.
aa(lp5467
Vyet
p5468
aVnobody
p5469
aVmade
p5470
aVa
aVmove
p5471
aVto
p5472
aVget
p5473
aVup
p5474
aVfrom
p5475
aVthe
p5476
aVtable
p5477
aVto
p5478
aVturn
p5479
aVon
p5480
aVthe
p5481
aVoverhead
p5482
aVlight
p5483
aV.
aa(lp5484
V``
p5485
aVlisten
p5486
aV,
aV''
p5487
aVmel
p5488
aVsaid
p5489
aV.
aa(lp5490
V``
p5491
aVlet
p5492
aV's
p5493
aVfinish
p5494
aVthis
p5495
aVfucking
p5496
aVgin
p5497
aV.
aa(lp5498
Vthere
p5499
aV's
p5500
aVabout
p5501
aVenough
p5502
aVleft
p5503
aVhere
p5504
aVfor
p5505
aVone
p5506
aVshooter
p5507
aVall
p5508
aVaround
p5509
aV.
aa(lp5510
Vthen
p5511
aVlet
p5512
aV's
p5513
aVgo
p5514
aVeat
p5515
aV.
aa(lp5516
Vlet
p5517
aV's
p5518
aVgo
p5519
aVto
p5520
aVthe
p5521
aVnew
p5522
aVplace
p5523
aV.
aV''
p5524
aa(lp5525
V``
p5526
aVhe
p5527
aV's
p5528
aVdepressed
p5529
aV,
aV''
p5530
aVterri
p5531
aVsaid
p5532
aV.
aa(lp5533
V``
p5534
aVmel
p5535
aV,
aVwhy
p5536
aVdo
p5537
aVn't
p5538
aVyou
p5539
aVtake
p5540
aVa
aVpill
p5541
aV?
aV''
p5542
aa(lp5543
Vmel
p5544
aVshook
p5545
aVhis
p5546
aVhead
p5547
aV,
aV``
p5548
aVi
aV've
p5549
aVtaken
p5550
aVeverything
p5551
aVthere
p5552
aVis
p5553
aV.
aV''
p5554
aa(lp5555
V``
p5556
aVwe
p5557
aVall
p5558
aVneed
p5559
aVa
aVpill
p5560
aVnow
p5561
aVand
p5562
aVthen
p5563
aV.
aV''
p5564
aa(lp5565
Vi
aVsaid
p5566
aV.
aa(lp5567
V\u201csome
p5568
aVpeople
p5569
aVare
p5570
aVborn
p5571
aVneeding
p5572
aVthem
p5573
aV,
aV''
p5574
aVterri
p5575
aVsaid
p5576
aV.
aa(lp5577
V9
aVshe
p5578
aVwas
p5579
aVusing
p5580
aVher
p5581
aVfinger
p5582
aVto
p5583
aVrub
p5584
aVat
p5585
aVsomething
p5586
aVon
p5587
aVthe
p5588
aVtable
p5589
aV.
aa(lp5590
Vthen
p5591
aVshe
p5592
aVstopped
p5593
aVrubbing
p5594
aV,
aV''
p5595
aVi
aVthink
p5596
aVi
aVwant
p5597
aVto
p5598
aVcall
p5599
aVmy
p5600
aVkids
p5601
aV,
aV''
p5602
aVmel
p5603
aVsaid
p5604
aV.
aa(lp5605
V``
p5606
aVis
p5607
aVthat
p5608
aVall
p5609
aVright
p5610
aVwith
p5611
aVeverybody
p5612
aV?
aa(lp5613
Vi
aV'll
p5614
aVcall
p5615
aVmy
p5616
aVkids
p5617
aV,
aV''
p5618
aVhe
p5619
aVsaid
p5620
aV.
aa(lp5621
Vterri
p5622
aVsaid
p5623
aV,
aV``
p5624
aVwhat
p5625
aVif
p5626
aVmarjorie
p5627
aVanswers
p5628
aVthe
p5629
aVphone
p5630
aV?
aa(lp5631
Vyou
p5632
aVguys
p5633
aV,
aVyou
p5634
aV've
p5635
aVheard
p5636
aVus
p5637
aVon
p5638
aVthe
p5639
aVsubject
p5640
aVof
p5641
aVmarjorie
p5642
aV?
aa(lp5643
Vhoney
p5644
aV,
aVyou
p5645
aVknow
p5646
aVyou
p5647
aVdo
p5648
aVn't
p5649
aVwant
p5650
aVto
p5651
aVtalk
p5652
aVto
p5653
aVmarjorie
p5654
aV.
aa(lp5655
Vit
p5656
aV'll
p5657
aVmake
p5658
aVyou
p5659
aVfeel
p5660
aVeven
p5661
aVworse
p5662
aV.
aV''
p5663
aa(lp5664
V``
p5665
aVi
aVdo
p5666
aVn't
p5667
aVwant
p5668
aVto
p5669
aVtalk
p5670
aVto
p5671
aVmarjorie
p5672
aV,
aV''
p5673
aVmel
p5674
aVsaid
p5675
aV,
aV``
p5676
aVbut
p5677
aVi
aVwant
p5678
aVto
p5679
aVtalk
p5680
aVto
p5681
aVmy
p5682
aVkids
p5683
aV.
aV''
p5684
aa(lp5685
V``
p5686
aVthere
p5687
aVis
p5688
aVn't
p5689
aVa
aVday
p5690
aVgoes
p5691
aVby
p5692
aVthat
p5693
aVmel
p5694
aVdoes
p5695
aVn't
p5696
aVsay
p5697
aVhe
p5698
aVwishes
p5699
aVshe
p5700
aV'd
p5701
aVget
p5702
aVmarried
p5703
aVagain
p5704
aV.
aa(lp5705
Vor
p5706
aVelse
p5707
aVdie
p5708
aV,
aV''
p5709
aV'terri
p5710
aVsaid
p5711
aV.
aa(lp5712
V``
p5713
aVfor
p5714
aVone
p5715
aVthing
p5716
aV,
aV''
p5717
aVterri
p5718
aVsaid
p5719
aV,
aVshe
p5720
aV's
p5721
aVbankrupting
p5722
aVus
p5723
aV.
aa(lp5724
Vmel
p5725
aVsays
p5726
aVit\u2019s
p5727
aVjust
p5728
aVto
p5729
aVspite
p5730
aVhim
p5731
aVthat
p5732
aVshe
p5733
aVwo
p5734
aVn't
p5735
aVget
p5736
aVmarried
p5737
aVagain
p5738
aV.
aa(lp5739
Vshe
p5740
aVhas
p5741
aVa
aVboyfriend
p5742
aVwho
p5743
aVlives
p5744
aVwith
p5745
aVher
p5746
aVand
p5747
aVthe
p5748
aVkids
p5749
aV,
aVso
p5750
aVmel
p5751
aVis
p5752
aVsupporting
p5753
aVthe
p5754
aVboyfriend
p5755
aVtoo
p5756
aV.
aV''
p5757
aa(lp5758
V``
p5759
aVshe
p5760
aV's
p5761
aVallergic
p5762
aVto
p5763
aVbees
p5764
aV,
aV''
p5765
aVmel
p5766
aVsaid
p5767
aV.
aa(lp5768
V``
p5769
aVif
p5770
aVi
aV'm
p5771
aVnot
p5772
aVpraying
p5773
aVshe
p5774
aV'll
p5775
aVget
p5776
aVmarried
p5777
aVagain
p5778
aV,
aVi
aV'm
p5779
aVpraying
p5780
aVshe'll
p5781
aVget
p5782
aVherself
p5783
aVstung
p5784
aVto
p5785
aVdeath
p5786
aVby
p5787
aVa
aVswarm
p5788
aVof
p5789
aVfucking
p5790
aVbees
p5791
aV.
aV''
p5792
aa(lp5793
V``
p5794
aVshame
p5795
aVon
p5796
aVyou
p5797
aV,
aV''
p5798
aVlaura
p5799
aVsaid
p5800
aV.
aa(lp5801
V``
p5802
aVbzzzzzzz
p5803
aV,
aV''
p5804
aVmel
p5805
aVsaid
p5806
aV,
aVturning
p5807
aVhis
p5808
aVfingers
p5809
aVinto
p5810
aVbees
p5811
aVand
p5812
aVbuzzing
p5813
aVthem
p5814
aVat
p5815
aVterri
p5816
aV's
p5817
aVthroat
p5818
aV.
aa(lp5819
Vthen
p5820
aVhe
p5821
aVlet
p5822
aVhis
p5823
aVhands
p5824
aVdrop
p5825
aVall
p5826
aVthe
p5827
aVway
p5828
aVto
p5829
aVhis
p5830
aVsides
p5831
aV.
aa(lp5832
V``
p5833
aVshe
p5834
aV's
p5835
aVvicious
p5836
aV,
aV''
p5837
aVmel
p5838
aVsaid
p5839
aV``
p5840
aVsometimes
p5841
aVi
aVthink
p5842
aVi
aV'll
p5843
aVgo
p5844
aVup
p5845
aVthere
p5846
aVdressed
p5847
aVlike
p5848
aVa
aVbeekeeper
p5849
aV.
aa(lp5850
Vyou
p5851
aVknow
p5852
aV,
aVthat
p5853
aVhat
p5854
aVthat\u2019s
p5855
aVlike
p5856
aVa
aVhelmet
p5857
aVwith
p5858
aVthe
p5859
aVplate
p5860
aVthat
p5861
aVcomes
p5862
aVdown
p5863
aVover
p5864
aVyour
p5865
aVface
p5866
aV,
aVthe
p5867
aVbig
p5868
aVgloves
p5869
aV,
aVand
p5870
aVthe
p5871
aVpadded
p5872
aVcoat
p5873
aV?
aa(lp5874
Vi
aV'll
p5875
aVknock
p5876
aVon
p5877
aVthe
p5878
aVdoor
p5879
aVand
p5880
aVlet
p5881
aVloose
p5882
aVa
aVhive
p5883
aVof
p5884
aVbees
p5885
aVin
p5886
aVthe
p5887
aVhouse
p5888
aV.
aa(lp5889
Vbut
p5890
aVfirst
p5891
aVi\u2019d
p5892
aVmake
p5893
aVsure
p5894
aVthe
p5895
aVkids
p5896
aVwere
p5897
aVout
p5898
aV,
aVof
p5899
aVcourse
p5900
aV.
aV''
p5901
aa(lp5902
Vhe
p5903
aVcrossed
p5904
aVone
p5905
aVleg
p5906
aVover
p5907
aVthe
p5908
aVother
p5909
aV.
aa(lp5910
Vit
p5911
aVseemed
p5912
aVto
p5913
aVtake
p5914
aVhim
p5915
aVa
aVlot
p5916
aVof
p5917
aVtime
p5918
aVto
p5919
aVdo
p5920
aVit
p5921
aV.
aa(lp5922
Vthen
p5923
aVhe
p5924
aVput
p5925
aVboth
p5926
aVfeet
p5927
aVon
p5928
aVthe
p5929
aVfloor
p5930
aVand
p5931
aVleaned
p5932
aVforward
p5933
aV,
aVelbows
p5934
aVon
p5935
aVthe
p5936
aVtable
p5937
aV,
aVhis
p5938
aVchin
p5939
aVcupped
p5940
aVin
p5941
aVhis
p5942
aVhands
p5943
aV.
aa(lp5944
Vmaybe
p5945
aVi
aVwo
p5946
aVn't
p5947
aVcall
p5948
aVthe
p5949
aVkids
p5950
aV,
aVafter
p5951
aVall
p5952
aV.
aa(lp5953
Vmaybe
p5954
aVit
p5955
aVis
p5956
aVn't
p5957
aVsuch
p5958
aVa
aVhot
p5959
aVidea
p5960
aV.
aa(lp5961
Vmaybe
p5962
aVwell
p5963
aVjust
p5964
aVgo
p5965
aVeat
p5966
aV.
aa(lp5967
Vhow
p5968
aVdoes
p5969
aVthat
p5970
aVsound
p5971
aV?
aV''
p5972
aa(lp5973
V``
p5974
aVsounds
p5975
aVfine
p5976
aVto
p5977
aVme
p5978
aV,
aV''
p5979
aVi
aVsaid
p5980
aV``
p5981
aVeat
p5982
aVor
p5983
aVnot
p5984
aVeat
p5985
aV.
aa(lp5986
Vor
p5987
aVkeep
p5988
aVdrinking
p5989
aV.
aa(lp5990
Vi
aVcould
p5991
aVhead
p5992
aVright
p5993
aVon
p5994
aVout
p5995
aVinto
p5996
aVthe
p5997
aVsunset
p5998
aV.
aV''
p5999
aa(lp6000
V\u201cwhat
p6001
aVdoes
p6002
aVthat
p6003
aVmean
p6004
aV,
aVhoney
p6005
aV?
aV\u201d
aVlaura
p6006
aVsaid
p6007
aV.
aa(lp6008
V``
p6009
aVit
p6010
aVjust
p6011
aVmeans
p6012
aVwhat
p6013
aVi
aVsaid
p6014
aV,
aV''
p6015
aVi
aVsaid
p6016
aV.
aa(lp6017
V``
p6018
aVit
p6019
aVmeans
p6020
aVi
aVcould
p6021
aVjust
p6022
aVkeep
p6023
aVgoing
p6024
aV.
aa(lp6025
Vthat
p6026
aV's
p6027
aVall
p6028
aVit
p6029
aVmeans
p6030
aV.
aV''
p6031
aa(lp6032
Va
aVcould
p6033
aVeat
p6034
aVsomething
p6035
aVmyself
p6036
aV,
aV''
p6037
aVlaura
p6038
aVsaid
p6039
aV.
aa(lp6040
V``
p6041
aVi
aVdo
p6042
aVn't
p6043
aVthink
p6044
aVi
aV've
p6045
aVever
p6046
aVbeen
p6047
aVso
p6048
aVhungry
p6049
aVin
p6050
aVmy
p6051
aVlife
p6052
aV.
aa(lp6053
Vis
p6054
aVthere
p6055
aVsomething
p6056
aVto
p6057
aVnibble
p6058
aVon
p6059
aV?
aV''
p6060
aa(lp6061
V``
p6062
aVi
aV'll
p6063
aVput
p6064
aVout
p6065
aVsome
p6066
aVcheese
p6067
aVand
p6068
aVcrackers
p6069
aV,
aV\u201d
aVterri
p6070
aVsaid
p6071
aV.
aa(lp6072
V10
p6073
aVbut
p6074
aVterri
p6075
aVjust
p6076
aVsat
p6077
aVthere
p6078
aV.
aa(lp6079
Vshe
p6080
aVdid
p6081
aVnot
p6082
aVget
p6083
aVup
p6084
aVto
p6085
aVget
p6086
aVanything
p6087
aV.
aa(lp6088
Vmel
p6089
aVturned
p6090
aVhis
p6091
aVglass
p6092
aVover
p6093
aV.
aa(lp6094
Vhe
p6095
aVspilled
p6096
aVit
p6097
aVout
p6098
aVon
p6099
aVthe
p6100
aVtable
p6101
aV.
aa(lp6102
V\u201cgin\u2019s
p6103
aVgone
p6104
aV,
aV''
p6105
aVmel
p6106
aVsaid
p6107
aV.
aa(lp6108
Vterri
p6109
aVsaid
p6110
aV,
aV\u201cnow
p6111
aVwhat
p6112
aV?
aV''
p6113
aa(lp6114
Vi
aVcould
p6115
aVhear
p6116
aVmy
p6117
aVheart
p6118
aVbeating
p6119
aV.
aa(lp6120
Vi
aVcould
p6121
aVhear
p6122
aVeveryone
p6123
aV's
p6124
aVheart
p6125
aV.
aa(lp6126
Vi
aVcould
p6127
aVhear
p6128
aVthe
p6129
aVhuman
p6130
aVnoise
p6131
aVwe
p6132
aVsat
p6133
aVthere
p6134
aVmaking
p6135
aV,
aVnot
p6136
aVone
p6137
aVof
p6138
aVus
p6139
aVmoving
p6140
aV,
aVnot
p6141
aVeven
p6142
aVwhen
p6143
aVthe
p6144
aVroom
p6145
aVwent
p6146
aVdark
p6147
aV.
aa(lp6148
V11
p6149
aasb.