ccopy_reg
_reconstructor
p1
(cData.Book
Book
p2
c__builtin__
object
p3
NtRp4
(dp5
S'stored_object'
p6
S'Books/Roll_of_Thunder_Hear_My_Cry/Book_object.p'
p7
sS'title'
p8
S'Roll of Thunder Hear My Cry'
p9
sS'main_text_path'
p10
S'Books/Roll_of_Thunder_Hear_My_Cry/main_cleaned.txt'
p11
sS'metadata_path'
p12
S'Books/Roll_of_Thunder_Hear_My_Cry/meta_data.csv'
p13
sS'book_path'
p14
S'Books/Roll_of_Thunder_Hear_My_Cry/'
p15
sS'characters'
p16
(dp17
S'mr. jamison'
p18
(dp19
S'list'
p20
(lp21
(lp22
Vmr.
p23
aV[
aVCHARACTER
p24
aV]
aV-
aVa
aVlocal
p25
aVlawyer
p26
aV;
aVa
aVwhite
p27
aVman
p28
aV.
aa(lp29
Vhis
p30
aVforefathers
p31
aVbought
p32
aVland
p33
aVfrom
p34
aVharlan
p35
aVgranger
p36
aVduring
p37
aVthe
p38
aVreconstruction
p39
aV,
aVand
p40
aVsold
p41
aVsome
p42
aVof
p43
aVit
p44
aVto
p45
aVthe
p46
aVlogan
p47
aVfamily
p48
aV.
aa(lp49
Vmr.
p50
aV[
aVCHARACTER
p51
aV]
aVis
p52
aVvery
p53
aVsympathetic
p54
aVto
p55
aVthe
p56
aVplight
p57
aVof
p58
aVthe
p59
aVblack
p60
aVcommunity
p61
aV.
aasS'analysis'
p62
NssS'jeremy simms'
p63
(dp64
g20
(lp65
(lp66
V[
aVCHARACTER
p67
aV]
aV-
aVa
aVwhite
p68
aVboy
p69
aVwho
p70
aVis
p71
aVoften
p72
aVbeaten
p73
aVfor
p74
aVwalking
p75
aVto
p76
aVschool
p77
aVwith
p78
aVand
p79
aVassociating
p80
aVwith
p81
aVthe
p82
aVlogan
p83
aVchildren
p84
aV.
aa(lp85
Vhis
p86
aVsister
p87
aVis
p88
aVlillian
p89
aVjean
p90
aV,
aVwho
p91
aVis
p92
aVoften
p93
aVrude
p94
aVto
p95
aVcassie
p96
aV.
aa(lp97
Vhe
p98
aVhas
p99
aVtwo
p100
aVbig
p101
aVbrothers
p102
aV,
aVmelvin
p103
aVand
p104
aVr.
p105
aVw.
p106
aV,
aVwho
p107
aVuse
p108
aVt.
p109
aVj.
p110
aVpretending
p111
aVthey
p112
aVare
p113
aVhis
p114
aVfriend
p115
aV.
aasg62
NssS'the wallace family (kaleb, dewberry, etc.)'
p116
(dp117
g20
(lp118
(lp119
Vthe
p120
aV[
aVCHARACTER
p121
aV]
aV(
aV[
aVCHARACTER
p122
aV]
aV,
aV[
aVCHARACTER
p123
aV]
aV,
aV[
aVCHARACTER
p124
aV]
aV)
aV-
aVthe
p125
aV[
aVCHARACTER
p126
aV]
aVruns
p127
aVa
aVgeneral
p128
aVstore
p129
aVon
p130
aVharlan
p131
aVgranger
p132
aV's
p133
aVland
p134
aV.
aa(lp135
Vthey
p136
aVare
p137
aVviolent
p138
aV,
aVbrutal
p139
aVpeople
p140
aV.
aasg62
NssS'melvin and r. w. simms'
p141
(dp142
g20
(lp143
(lp144
V[
aVCHARACTER
p145
aV]
aV-
aVthe
p146
aVolder
p147
aVsimms
p148
aVbrothers
p149
aVmake
p150
aVtrouble
p151
aV.
aa(lp152
Vthey
p153
aVpretend
p154
aVto
p155
aVbefriend
p156
aVt.
p157
aVj.
p158
aV,
aVbut
p159
aVmake
p160
aVfun
p161
aVof
p162
aVhim
p163
aVbehind
p164
aVhis
p165
aVback
p166
aV.
aasg62
NssS'big ma (caroline logan)'
p167
(dp168
g20
(lp169
(lp170
V[
aVCHARACTER
p171
aV]
aV(
aV[
aVCHARACTER
p172
aV]
aV)
aV-
aVpapa
p173
aV's
p174
aVmother
p175
aV.
aa(lp176
Va
aVwoman
p177
aVof
p178
aVsixty
p179
aV,
aVshe
p180
aVruns
p181
aVthe
p182
aVlogan
p183
aVfarm
p184
aV.
aasg62
NssS'mama (mary logan)'
p185
(dp186
g20
(lp187
(lp188
V[
aVCHARACTER
p189
aV]
aV(
aV[
aVCHARACTER
p190
aV]
aV)
aV-
aVcassie
p191
aV's
p192
aVmother
p193
aV,
aVa
aVschoolteacher
p194
aV.
aasg62
NssS'lillian jean simms'
p195
(dp196
g20
(lp197
(lp198
V[
aVCHARACTER
p199
aV]
aV-
aVa
aVprissy
p200
aVseventh
p201
aVgrader
p202
aV.
aasg62
NssS'uncle hammer'
p203
(dp204
g20
(lp205
(lp206
V[
aVCHARACTER
p207
aV]
aV-
aVpapa
p208
aV's
p209
aVbrother
p210
aV,
aVhammer
p211
aVlives
p212
aVin
p213
aVchicago
p214
aV.
aa(lp215
Vhe
p216
aVhas
p217
aVa
aVshort
p218
aVtemper
p219
aV.
aasg62
NssS't. j. avery'
p220
(dp221
g20
(lp222
(lp223
V[
aVCHARACTER
p224
aV]
aV-
aVa
aVtrouble-making
p225
aVfriend
p226
aVof
p227
aVstacey
p228
aV's
p229
aV.
aa(lp230
Vthe
p231
aVaveries
p232
aVare
p233
aVsharecroppers
p234
aVon
p235
aVgranger
p236
aVland
p237
aV.
aa(lp238
Vt.
p239
aVj.
p240
aVhas
p241
aVa
aVyounger
p242
aVbrother
p243
aVnamed
p244
aVclaude
p245
aV.
aasg62
NssS'little man (clayton chester logan)'
p246
(dp247
g20
(lp248
(lp249
V[
aVCHARACTER
p250
aV]
aV(
aV[
aVCHARACTER
p251
aV]
aV)
aV-
aVa
aVmeticulously
p252
aVneat
p253
aVfirst-grader
p254
aV,
aV[
aVCHARACTER
p255
aV]
aVis
p256
aVthe
p257
aVyoungest
p258
aVof
p259
aVthe
p260
aVlogan
p261
aVchildren
p262
aV.
aasg62
NssS'cassie logan'
p263
(dp264
g20
(lp265
(lp266
V[
aVCHARACTER
p267
aV]
aV-
aVthe
p268
aVnarrator
p269
aVand
p270
aVprotagonist
p271
aV.
aa(lp272
Vcassie
p273
aVis
p274
aVthe
p275
aVsecond-oldest
p276
aVlogan
p277
aVchild
p278
aV.
aa(lp279
Vshe
p280
aVhas
p281
aVa
aVfiery
p282
aVtemper
p283
aVlike
p284
aVher
p285
aVuncle
p286
aVhammer
p287
aV.
aa(lp288
Valso
p289
aV,
aVshe
p290
aVis
p291
aVvery
p292
aVnaive
p293
aVconcerning
p294
aVthe
p295
aVfacts
p296
aVof
p297
aVracism
p298
aV.
aasg62
NssS'stacey logan'
p299
(dp300
g20
(lp301
(lp302
V[
aVCHARACTER
p303
aV]
aV-
aVa
aVthirteen-year-old
p304
aVboy
p305
aV,
aVstacey
p306
aVis
p307
aVthe
p308
aVoldest
p309
aVof
p310
aVthe
p311
aVlogan
p312
aVchildren
p313
aV.
aa(lp314
Vhe
p315
aVis
p316
aVpart-adult
p317
aV,
aVpart-child
p318
aV.
aasg62
NssS'harlan granger'
p319
(dp320
g20
(lp321
(lp322
V[
aVCHARACTER
p323
aV]
aV-
aVa
aVrich
p324
aVplantation
p325
aVowner
p326
aVwho
p327
aVis
p328
aVanxious
p329
aVto
p330
aVbuy
p331
aVback
p332
aVthe
p333
aVlogan
p334
aV's
p335
aVland
p336
aV.
aasg62
NssS'papa (david logan)'
p337
(dp338
g20
(lp339
(lp340
V[
aVCHARACTER
p341
aV]
aV(
aV[
aVCHARACTER
p342
aV]
aV)
aV-
aVcassie
p343
aV's
p344
aVfather
p345
aV.
aa(lp346
Vhe
p347
aVvalues
p348
aVhis
p349
aVindependence
p350
aVhighly
p351
aV,
aVleaving
p352
aVto
p353
aVwork
p354
aVon
p355
aVthe
p356
aVrailroad
p357
aVin
p358
aVorder
p359
aVnot
p360
aVto
p361
aVlose
p362
aVownership
p363
aVof
p364
aVlogan
p365
aVland
p366
aV.
aasg62
NssS'l. t. morrison'
p367
(dp368
g20
(lp369
(lp370
V[
aVCHARACTER
p371
aV]
aV-
aVa
aVbig
p372
aV,
aVburly
p373
aVman
p374
aVwith
p375
aVstreaks
p376
aVof
p377
aVwhite
p378
aVhair
p379
aVwho
p380
aVcomes
p381
aVto
p382
aVwork
p383
aVon
p384
aVthe
p385
aVlogan
p386
aVfarm
p387
aV.
aasg62
NssS'christopher-john'
p388
(dp389
g20
(lp390
(lp391
V[
aVCHARACTER
p392
aV]
aV-
aVa
aVcheerful
p393
aVseven-year-old
p394
aV,
aV[
aVCHARACTER
p395
aV]
aVis
p396
aVthe
p397
aVsecond
p398
aVyoungest
p399
aVof
p400
aVthe
p401
aVlogan
p402
aVchildren
p403
aV.
aa(lp404
Vhe
p405
aVis
p406
aVtimid
p407
aV.
aasg62
NsssS'mainText'
p408
(lp409
(lp410
Vroll
p411
aVof
p412
aVthunder
p413
aVhear
p414
aVmy
p415
aVcry
p416
aVmildred
p417
aVd.
p418
aVtaylor
p419
aVnewbery
p420
aVmedal
p421
aVwinner
p422
aVauthor
p423
aV's
p424
aVnote
p425
aVmy
p426
aVfather
p427
aVwas
p428
aVa
aVmaster
p429
aVstoryteller
p430
aV.
aa(lp431
Vhe
p432
aVcould
p433
aVtell
p434
aVa
aVfine
p435
aVold
p436
aVstory
p437
aVthat
p438
aVmade
p439
aVme
p440
aVhold
p441
aVmy
p442
aVsides
p443
aVwith
p444
aVrolling
p445
aVlaughter
p446
aVand
p447
aVsent
p448
aVhappy
p449
aVtears
p450
aVdown
p451
aVmy
p452
aVcheeks
p453
aV,
aVor
p454
aVa
aVstory
p455
aVof
p456
aVstark
p457
aVreality
p458
aVthat
p459
aVmade
p460
aVme
p461
aVshiver
p462
aVand
p463
aVbe
p464
aVgrateful
p465
aVfor
p466
aVmy
p467
aVown
p468
aVwarm
p469
aV,
aVsecure
p470
aVsurroundings
p471
aV.
aa(lp472
Vhe
p473
aVcould
p474
aVtell
p475
aVstories
p476
aVof
p477
aVbeauty
p478
aVand
p479
aVgrace
p480
aV,
aVstories
p481
aVof
p482
aVgentle
p483
aVdreams
p484
aV,
aVand
p485
aVpaint
p486
aVthem
p487
aVas
p488
aVvividly
p489
aVas
p490
aVany
p491
aVpicture
p492
aVwith
p493
aVsplashes
p494
aVof
p495
aVcharacter
p496
aVand
p497
aVdialogue
p498
aV.
aa(lp499
Vhis
p500
aVmemory
p501
aVdetailed
p502
aVevery
p503
aVevent
p504
aVof
p505
aVten
p506
aVor
p507
aVforty
p508
aVyears
p509
aVor
p510
aVmore
p511
aVbefore
p512
aV,
aVjust
p513
aVas
p514
aVif
p515
aVit
p516
aVhad
p517
aVhappened
p518
aVyesterday
p519
aV.
aa(lp520
Vby
p521
aVthe
p522
aVfireside
p523
aVin
p524
aVour
p525
aVnorthern
p526
aVhome
p527
aVor
p528
aVin
p529
aVthe
p530
aVsouth
p531
aVwhere
p532
aVi
aVwas
p533
aVborn
p534
aV,
aVi
aVlearned
p535
aVa
aVhistory
p536
aVnot
p537
aVthen
p538
aVwritten
p539
aVin
p540
aVbooks
p541
aVbut
p542
aVone
p543
aVpassed
p544
aVfrom
p545
aVgeneration
p546
aVto
p547
aVgeneration
p548
aVon
p549
aVthe
p550
aVsteps
p551
aVof
p552
aVmoonlit
p553
aVporches
p554
aVand
p555
aVbeside
p556
aVdying
p557
aVfires
p558
aVin
p559
aVone-room
p560
aVhouses
p561
aV,
aVa
aVhistory
p562
aVof
p563
aVgreat-grandparents
p564
aVand
p565
aVof
p566
aVslavery
p567
aVand
p568
aVof
p569
aVthe
p570
aVdays
p571
aVfollowing
p572
aVslavery
p573
aV:
aVof
p574
aVthose
p575
aVwho
p576
aVlived
p577
aVstill
p578
aVnot
p579
aVfree
p580
aV,
aVyet
p581
aVwho
p582
aVwould
p583
aVnot
p584
aVlet
p585
aVtheir
p586
aVspirits
p587
aVbe
p588
aVenslaved
p589
aV.
aa(lp590
Vfrom
p591
aVmy
p592
aVfather
p593
aVthe
p594
aVstoryteller
p595
aVi
aVlearned
p596
aVto
p597
aVrespect
p598
aVthe
p599
aVpast
p600
aV,
aVto
p601
aVrespect
p602
aVmy
p603
aVown
p604
aVheritage
p605
aVand
p606
aVmyself
p607
aV.
aa(lp608
Vfrom
p609
aVmy
p610
aVfather
p611
aVthe
p612
aVman
p613
aVi
aVlearned
p614
aVeven
p615
aVmore
p616
aV,
aVfor
p617
aVhe
p618
aVwas
p619
aVendowed
p620
aVwith
p621
aVa
aVspecial
p622
aVgrace
p623
aVthat
p624
aVmade
p625
aVhim
p626
aVtower
p627
aVabove
p628
aVother
p629
aVmen
p630
aV.
aa(lp631
Vhe
p632
aVwas
p633
aVwarm
p634
aVand
p635
aVsteadfast
p636
aV,
aVa
aVman
p637
aVwhose
p638
aVprinciples
p639
aVwould
p640
aVnot
p641
aVbend
p642
aV,
aVand
p643
aVhe
p644
aVhad
p645
aVwithin
p646
aVhim
p647
aVa
aVrare
p648
aVstrength
p649
aVthat
p650
aVsustained
p651
aVnot
p652
aVonly
p653
aVmy
p654
aVsister
p655
aVand
p656
aVme
p657
aVand
p658
aVall
p659
aVthe
p660
aVfamily
p661
aVbut
p662
aVall
p663
aVthose
p664
aVwho
p665
aVsought
p666
aVhis
p667
aVadvice
p668
aVand
p669
aVleaned
p670
aVupon
p671
aVhis
p672
aVwisdom
p673
aV.
aa(lp674
Vhe
p675
aVwas
p676
aVa
aVcomplex
p677
aVperson
p678
aV,
aVyet
p679
aVhe
p680
aVtaught
p681
aVme
p682
aVmany
p683
aVsimple
p684
aVthings
p685
aV,
aVthings
p686
aVimportant
p687
aVfor
p688
aVa
aVchild
p689
aVto
p690
aVknow
p691
aV:
aVhow
p692
aVto
p693
aVride
p694
aVa
aVhorse
p695
aVand
p696
aVhow
p697
aVto
p698
aVskate
p699
aV;
aVhow
p700
aVto
p701
aVblow
p702
aVsoap
p703
aVbubbles
p704
aVand
p705
aVhow
p706
aVto
p707
aVtip
p708
aVa
aVkite
p709
aVknot
p710
aVthat
p711
aVmet
p712
aVthe
p713
aVchallenge
p714
aVof
p715
aVthe
p716
aVmarch
p717
aVwinds
p718
aVhow
p719
aVto
p720
aVbath
p721
aVa
aVhuge
p722
aVfaithful
p723
aVmongrel
p724
aVdog
p725
aVnamed
p726
aVtiny
p727
aV.
aa(lp728
Vin
p729
aVtime
p730
aV,
aVhe
p731
aVtaught
p732
aVme
p733
aVthe
p734
aVcomplex
p735
aVthings
p736
aVtoo
p737
aV.
aa(lp738
Vhe
p739
aVtaught
p740
aVme
p741
aVof
p742
aVmyself
p743
aV,
aVof
p744
aVlife
p745
aV.
aa(lp746
Vhe
p747
aVtaught
p748
aVme
p749
aVof
p750
aVhopes
p751
aVand
p752
aVdreams
p753
aV.
aa(lp754
Vand
p755
aVhe
p756
aVtaught
p757
aVme
p758
aVthe
p759
aVlove
p760
aVof
p761
aVwords
p762
aV.
aa(lp763
Vwithout
p764
aVhis
p765
aVteachings
p766
aV,
aVwithout
p767
aVhis
p768
aVwords
p769
aV,
aVmy
p770
aVwords
p771
aVwould
p772
aVnot
p773
aVhave
p774
aVbeen
p775
aV.
aa(lp776
Vmy
p777
aVfather
p778
aVdied
p779
aVlast
p780
aVweek
p781
aV.
aa(lp782
Vthe
p783
aVstories
p784
aVas
p785
aVonly
p786
aVhe
p787
aVcould
p788
aVtell
p789
aVthem
p790
aVdied
p791
aVwith
p792
aVhim
p793
aV.
aa(lp794
Vbut
p795
aVhis
p796
aVvoice
p797
aVof
p798
aVjoy
p799
aVand
p800
aVlaughter
p801
aV,
aVhis
p802
aVenduring
p803
aVstrength
p804
aV,
aVhis
p805
aVprinciples
p806
aVand
p807
aVconstant
p808
aVwisdom
p809
aVre-
p810
aVmain
p811
aV,
aVa
aVpart
p812
aVof
p813
aVall
p814
aVthose
p815
aVwho
p816
aVknew
p817
aVand
p818
aVloved
p819
aVhim
p820
aVwell
p821
aV.
aa(lp822
Vthey
p823
aVremain
p824
aValso
p825
aVwithin
p826
aVthe
p827
aVpages
p828
aVof
p829
aVthis
p830
aVbook
p831
aV,
aVits
p832
aVguiding
p833
aVspirit
p834
aVand
p835
aVtotal
p836
aVpower
p837
aV.
aa(lp838
Vmildred
p839
aVd.
p840
aVtaylor
p841
aVapril
p842
aV1976
p843
aVone
p844
aV'little
p845
aVman
p846
aV,
aVwould
p847
aVyou
p848
aVcome
p849
aVon
p850
aV!
aa(lp851
Vyou
p852
aVkeep
p853
aVit
p854
aVup
p855
aVand
p856
aVyou
p857
aV're
p858
aVgon
p859
aVna
p860
aVmake
p861
aVus
p862
aVlate
p863
aV.
aV'
aa(lp864
Vmy
p865
aVyoungest
p866
aVbrother
p867
aVpaid
p868
aVno
p869
aVattention
p870
aVto
p871
aVme
p872
aV.
aa(lp873
Vgrasping
p874
aVmore
p875
aVfirmly
p876
aVhis
p877
aVnewspaper-wrapped
p878
aVnotebook
p879
aVand
p880
aVhis
p881
aVtin
p882
aVcan
p883
aVlunch
p884
aVof
p885
aVcornbread
p886
aVand
p887
aVoil
p888
aVsausages
p889
aV,
aVhe
p890
aVcontinued
p891
aVto
p892
aVconcentrate
p893
aVon
p894
aVthe
p895
aVdusty
p896
aVroad
p897
aV.
aa(lp898
Vhe
p899
aVlagged
p900
aVseveral
p901
aVfeet
p902
aVbehind
p903
aVmy
p904
aVother
p905
aVbrothers
p906
aV,
aVstacey
p907
aVand
p908
aVchristopher-john
p909
aV,
aVand
p910
aVme
p911
aV,
aVattempting
p912
aVto
p913
aVkeep
p914
aVthe
p915
aVrusty
p916
aVmississippi
p917
aVdust
p918
aVfrom
p919
aVswelling
p920
aVwith
p921
aVeach
p922
aVstep
p923
aVand
p924
aVdrifting
p925
aVback
p926
aVupon
p927
aVhis
p928
aVshiny
p929
aVblack
p930
aVshoes
p931
aVand
p932
aVthe
p933
aVcuffs
p934
aVof
p935
aVhis
p936
aVcorduroy
p937
aVpants
p938
aVby
p939
aVlifting
p940
aVeach
p941
aVfoot
p942
aVhigh
p943
aVbefore
p944
aVsetting
p945
aVit
p946
aVgently
p947
aVdown
p948
aVagain
p949
aV.
aa(lp950
Valways
p951
aVmeticulously
p952
aVneat
p953
aV,
aVsix-year
p954
aVold
p955
aVlittle
p956
aVman
p957
aVnever
p958
aVallowed
p959
aVdirt
p960
aVor
p961
aVtears
p962
aVor
p963
aVstains
p964
aVto
p965
aVmar
p966
aVanything
p967
aVhe
p968
aVowned
p969
aV.
aa(lp970
Vtoday
p971
aVwas
p972
aVno
p973
aVexception
p974
aV.
aa(lp975
V'you
p976
aVkeep
p977
aVit
p978
aVup
p979
aVand
p980
aVmake
p981
aVus
p982
aVlate
p983
aVfor
p984
aVschool
p985
aV,
aVmama
p986
aV's
p987
aVgon
p988
aVna
p989
aVwear
p990
aVyou
p991
aVout
p992
aV.
aV'
aa(lp993
Vi
aVthreatened
p994
aV,
aVpulling
p995
aVwith
p996
aVexasperation
p997
aVat
p998
aVthe
p999
aVhigh
p1000
aVcollar
p1001
aVof
p1002
aVthe
p1003
aVsunday
p1004
aVdress
p1005
aVmama
p1006
aVhad
p1007
aVmade
p1008
aVme
p1009
aVwear
p1010
aVfor
p1011
aVthe
p1012
aVfirst
p1013
aVday
p1014
aVof
p1015
aVschool
p1016
aV-
aVas
p1017
aVif
p1018
aVthat
p1019
aVevent
p1020
aVwere
p1021
aVsomething
p1022
aVspecial
p1023
aV.
aa(lp1024
Vit
p1025
aVseemed
p1026
aVto
p1027
aVme
p1028
aVthat
p1029
aVshowing
p1030
aVup
p1031
aVat
p1032
aVschool
p1033
aVat
p1034
aVall
p1035
aVon
p1036
aVa
aVbright
p1037
aVaugust-like
p1038
aVoctober
p1039
aVmorning
p1040
aVmade
p1041
aVfor
p1042
aVrunning
p1043
aVthe
p1044
aVcool
p1045
aVforest
p1046
aVtrails
p1047
aVand
p1048
aVwading
p1049
aVbarefoot
p1050
aVin
p1051
aVthe
p1052
aVforest
p1053
aVpond
p1054
aVwas
p1055
aVconcession
p1056
aVenough
p1057
aV;
aVsunday
p1058
aVclothing
p1059
aVwas
p1060
aVasking
p1061
aVtoo
p1062
aVmuch
p1063
aV.
aa(lp1064
Vchristopher-john
p1065
aVand
p1066
aVstacey
p1067
aVwere
p1068
aVnot
p1069
aVtoo
p1070
aVpleased
p1071
aVabout
p1072
aVthe
p1073
aVclothing
p1074
aVor
p1075
aVschool
p1076
aVeither
p1077
aV.
aa(lp1078
Vonly
p1079
aVlittle
p1080
aVman
p1081
aV,
aVjust
p1082
aVbeginning
p1083
aVhis
p1084
aVschool
p1085
aVcareer
p1086
aV,
aVfound
p1087
aVthe
p1088
aVprospects
p1089
aVof
p1090
aVboth
p1091
aVintriguing
p1092
aV.
aa(lp1093
V'y'all
p1094
aVgo
p1095
aVahead
p1096
aVand
p1097
aVget
p1098
aVdirty
p1099
aVif
p1100
aVy'all
p1101
aVwan
p1102
aVna
p1103
aV,
aV'
aVhe
p1104
aVreplied
p1105
aVwithout
p1106
aVeven
p1107
aVlooking
p1108
aVup
p1109
aVfrom
p1110
aVhis
p1111
aVstudied
p1112
aVsteps
p1113
aV,
aV'me
p1114
aV,
aVi
aV'm
p1115
aVgon
p1116
aVna
p1117
aVstay
p1118
aVclean
p1119
aV.
aV'
aa(lp1120
V\u2018i
p1121
aVbetcha
p1122
aVmama
p1123
aV's
p1124
aVgon
p1125
aVna
p1126
aV``
p1127
aVclean
p1128
aV''
p1129
aVyou
p1130
aV,
aVyou
p1131
aVkeep
p1132
aVit
p1133
aVup
p1134
aV.
aV'
aa(lp1135
Vi
aVgrumbled
p1136
aV.
aa(lp1137
V\u2018ah
p1138
aV,
aVcassie
p1139
aV,
aVleave
p1140
aVhim
p1141
aVbe
p1142
aV,
aV'
aVstacey
p1143
aVadmonished
p1144
aV,
aVfrowning
p1145
aVand
p1146
aVkicking
p1147
aVtestily
p1148
aVat
p1149
aVthe
p1150
aVroad
p1151
aV.
aa(lp1152
V\u2018i
p1153
aVai
p1154
aVn't
p1155
aVsaid
p1156
aVnothing
p1157
aVbut..\u2019
p1158
aVstacey
p1159
aVcut
p1160
aVme
p1161
aVa
aVwicked
p1162
aVlook
p1163
aVand
p1164
aVi
aVgrew
p1165
aVsilent
p1166
aV.
aa(lp1167
Vhis
p1168
aVdisposition
p1169
aVhad
p1170
aVbeen
p1171
aVirritatingly
p1172
aVsour
p1173
aVlately
p1174
aV.
aa(lp1175
Vif
p1176
aVi
aVhad
p1177
aVn't
p1178
aVknown
p1179
aVthe
p1180
aVcause
p1181
aVof
p1182
aVit
p1183
aV.
aa(lp1184
Vi
aVcould
p1185
aVhave
p1186
aVforgotten
p1187
aVvery
p1188
aVeasily
p1189
aVthat
p1190
aVhe
p1191
aVwas
p1192
aVat
p1193
aVtwelve
p1194
aV,
aVbigger
p1195
aVthan
p1196
aVi
aV,
aVand
p1197
aVthat
p1198
aVi
aVhad
p1199
aVpromised
p1200
aVmama
p1201
aVto
p1202
aVarrive
p1203
aVat
p1204
aVschool
p1205
aVlooking
p1206
aVclean
p1207
aVand
p1208
aVladylike
p1209
aV.
aa(lp1210
V'shoot
p1211
aV,
aV'
aVi
aVmumbled
p1212
aVfinally
p1213
aV,
aVunable
p1214
aVto
p1215
aVrestrain
p1216
aVmyself
p1217
aVfrom
p1218
aVfurther
p1219
aVcomment
p1220
aV,
aV'it
p1221
aVai
p1222
aVn't
p1223
aVmy
p1224
aVfault
p1225
aVyou
p1226
aVgot
p1227
aVta
p1228
aVbe
p1229
aVin
p1230
aVmama
p1231
aV's
p1232
aVclass
p1233
aVthis
p1234
aVyear
p1235
aV.
aV'
aa(lp1236
Vstacey
p1237
aV's
p1238
aVfrown
p1239
aVdeepened
p1240
aVand
p1241
aVhe
p1242
aVjammed
p1243
aVhis
p1244
aVfists
p1245
aVinto
p1246
aVhis
p1247
aVpockets
p1248
aV,
aVbut
p1249
aVsaid
p1250
aVnothing
p1251
aV.
aa(lp1252
Vchristopher-john
p1253
aV,
aVwalking
p1254
aVbetween
p1255
aVstacey
p1256
aVand
p1257
aVme
p1258
aV,
aVglanced
p1259
aVuneasily
p1260
aVat
p1261
aVboth
p1262
aVof
p1263
aVus
p1264
aVbut
p1265
aVdid
p1266
aVnot
p1267
aVinterfere
p1268
aV.
aa(lp1269
Va
aVshort
p1270
aV,
aVround
p1271
aVboy
p1272
aVof
p1273
aVseven
p1274
aV,
aVhe
p1275
aVtook
p1276
aVlittle
p1277
aVinterest
p1278
aVin
p1279
aVtroublesome
p1280
aVthings
p1281
aV,
aVpreferring
p1282
aVto
p1283
aVremain
p1284
aVon
p1285
aVgood
p1286
aVterms
p1287
aVwith
p1288
aVeveryone
p1289
aV,
aVyet
p1290
aVhe
p1291
aVwas
p1292
aValways
p1293
aVsensitive
p1294
aVto
p1295
aVothers
p1296
aVand
p1297
aVnow
p1298
aV,
aVshifting
p1299
aVthe
p1300
aVhandle
p1301
aVof
p1302
aVhis
p1303
aVlunch
p1304
aVcan
p1305
aVfrom
p1306
aVhis
p1307
aVright
p1308
aVhand
p1309
aVto
p1310
aVhis
p1311
aVright
p1312
aVwrist
p1313
aVand
p1314
aVhis
p1315
aVsmudged
p1316
aVnotebook
p1317
aVfrom
p1318
aVhis
p1319
aVleft
p1320
aVhand
p1321
aVto
p1322
aVhis
p1323
aVleft
p1324
aVarmpit
p1325
aV.
aa(lp1326
Vhe
p1327
aVstuffed
p1328
aVhis
p1329
aVfree
p1330
aVhands
p1331
aVinto
p1332
aVhis
p1333
aVpockets
p1334
aVand
p1335
aVattempted
p1336
aVto
p1337
aVmake
p1338
aVhis
p1339
aVface
p1340
aVas
p1341
aVmoody
p1342
aVas
p1343
aVstacey
p1344
aV's
p1345
aVand
p1346
aVas
p1347
aVcranky
p1348
aVas
p1349
aVmine
p1350
aV.
aa(lp1351
Vbut
p1352
aVafter
p1353
aVa
aVfew
p1354
aVmoments
p1355
aVhe
p1356
aVseemed
p1357
aVto
p1358
aVforget
p1359
aVthat
p1360
aVhe
p1361
aVwas
p1362
aVsupposed
p1363
aVto
p1364
aVbe
p1365
aVgrouchy
p1366
aVand
p1367
aVbegan
p1368
aVwhistling
p1369
aVcheerfully
p1370
aV.
aa(lp1371
Vthere
p1372
aVwas
p1373
aVlittle
p1374
aVthat
p1375
aVcould
p1376
aVmake
p1377
aVchristopher-john
p1378
aVunhappy
p1379
aVfor
p1380
aVvery
p1381
aVlong
p1382
aV,
aVnot
p1383
aVeven
p1384
aVthe
p1385
aVthought
p1386
aVof
p1387
aVschool
p1388
aV.
aa(lp1389
Vi
aVtugged
p1390
aVagain
p1391
aVat
p1392
aVmy
p1393
aVcollar
p1394
aVand
p1395
aVdragged
p1396
aVmy
p1397
aVfeet
p1398
aVin
p1399
aVthe
p1400
aVdust
p1401
aV,
aVallowing
p1402
aVit
p1403
aVto
p1404
aVsift
p1405
aVback
p1406
aVonto
p1407
aVmy
p1408
aVsocks
p1409
aVand
p1410
aVshoes
p1411
aVlike
p1412
aVgritty
p1413
aVred
p1414
aVsnow
p1415
aV.
aa(lp1416
Vi
aVhated
p1417
aVthe
p1418
aVdress
p1419
aV.
aa(lp1420
Vand
p1421
aVthe
p1422
aVshoes
p1423
aV.
aa(lp1424
Vthere
p1425
aVwas
p1426
aVlittle
p1427
aVi
aVcould
p1428
aVdo
p1429
aVin
p1430
aVa
aVdress
p1431
aV,
aVand
p1432
aVas
p1433
aVfor
p1434
aVshoes
p1435
aV,
aVthey
p1436
aVimprisoned
p1437
aVfreedomloving
p1438
aVfeet
p1439
aVaccustomed
p1440
aVto
p1441
aVthe
p1442
aVfeel
p1443
aVof
p1444
aVthe
p1445
aVwarm
p1446
aVearth
p1447
aV,
aV\u2018cassie
p1448
aV,
aVstop
p1449
aVthat
p1450
aV,
aV'
aVstacey
p1451
aVsnapped
p1452
aVas
p1453
aVthe
p1454
aVdust
p1455
aVbillowed
p1456
aVin
p1457
aVswirling
p1458
aVclouds
p1459
aVaround
p1460
aVmy
p1461
aVfeet
p1462
aV.
aa(lp1463
Vi
aVlooked
p1464
aVup
p1465
aVsharply
p1466
aV,
aVready
p1467
aVto
p1468
aVprotest
p1469
aV.
aa(lp1470
Vchristopher-john
p1471
aV's
p1472
aVwhistling
p1473
aVincreased
p1474
aVto
p1475
aVa
aVraucous
p1476
aV,
aVnervous
p1477
aVshrill
p1478
aV.
aa(lp1479
Vand
p1480
aVgrudgingly
p1481
aVt
aVlet
p1482
aVthe
p1483
aVmatter
p1484
aVdrop
p1485
aVand
p1486
aVtrudged
p1487
aValong
p1488
aVin
p1489
aVmoody
p1490
aVsilence
p1491
aV,
aVmy
p1492
aVbrothers
p1493
aVgrowing
p1494
aVas
p1495
aVpensively
p1496
aVquiet
p1497
aVas
p1498
aVi.
p1499
aVbefore
p1500
aVus
p1501
aVthe
p1502
aVnarrow
p1503
aV,
aVsun-splotched
p1504
aVroad
p1505
aVwound
p1506
aVlike
p1507
aVa
aVlazy
p1508
aVred
p1509
aVserpent
p1510
aVdividing
p1511
aVthe
p1512
aVhigh
p1513
aVforest
p1514
aVbank
p1515
aVof
p1516
aVquiet
p1517
aV,
aVold
p1518
aVtrees
p1519
aVon
p1520
aVthe
p1521
aVleft
p1522
aVfrom
p1523
aVthe
p1524
aVcotton
p1525
aVfield
p1526
aV,
aVforested
p1527
aVby
p1528
aVgiant
p1529
aVgreen-and-purple
p1530
aVstalks
p1531
aV.
aa(lp1532
Von
p1533
aVthe
p1534
aVright
p1535
aV.
aa(lp1536
Va
aVbarbed-wire
p1537
aVfence
p1538
aVran
p1539
aVthe
p1540
aVlength
p1541
aVof
p1542
aVthe
p1543
aVdeep
p1544
aVfield
p1545
aV,
aVstretching
p1546
aVeastward
p1547
aVfor
p1548
aVover
p1549
aVa
aVquarter
p1550
aVof
p1551
aVa
aVmile
p1552
aVuntil
p1553
aVit
p1554
aVmet
p1555
aVthe
p1556
aVsloping
p1557
aVgreen
p1558
aVpasture
p1559
aVthat
p1560
aVsignaled
p1561
aVthe
p1562
aVend
p1563
aVof
p1564
aVour
p1565
aVfamily
p1566
aV's
p1567
aVfour
p1568
aVhundred
p1569
aVacres
p1570
aV,
aVan
p1571
aVancient
p1572
aVoak
p1573
aVtree
p1574
aVon
p1575
aVthe
p1576
aVslope
p1577
aV,
aVvisible
p1578
aVeven
p1579
aVnow
p1580
aV,
aVwas
p1581
aVthe
p1582
aVofficial
p1583
aVdividing
p1584
aVmark
p1585
aVbetween
p1586
aVlogan
p1587
aVland
p1588
aVand
p1589
aVthe
p1590
aVbeginning
p1591
aVof
p1592
aVa
aVdense
p1593
aVforest
p1594
aV.
aa(lp1595
Vbeyond
p1596
aVthe
p1597
aVprotective
p1598
aVfencing
p1599
aVof
p1600
aVthe
p1601
aVforest
p1602
aV,
aVvast
p1603
aVfarming
p1604
aVfields
p1605
aV,
aVworked
p1606
aVby
p1607
aVa
aVmultitude
p1608
aVof
p1609
aVshare-
p1610
aVcropping
p1611
aVfamilies
p1612
aV,
aVcovered
p1613
aVtwo-thirds
p1614
aVof
p1615
aVa
aVten-square-mile
p1616
aVplantation
p1617
aV.
aa(lp1618
Vthat
p1619
aVwas
p1620
aVharlan
p1621
aVgranger
p1622
aVland
p1623
aV.
aa(lp1624
Vonce
p1625
aVour
p1626
aVland
p1627
aVhad
p1628
aVbeen
p1629
aVgranger
p1630
aVland
p1631
aVtoo
p1632
aV,
aVbut
p1633
aVthe
p1634
aVgrangers
p1635
aVhad
p1636
aVsold
p1637
aVit
p1638
aVduring
p1639
aVreconstruction
p1640
aVto
p1641
aVa
aVyankee
p1642
aVfor
p1643
aVtax
p1644
aVmoney
p1645
aV.
aa(lp1646
Vin
p1647
aV1887
p1648
aV,
aVwhen
p1649
aVthe
p1650
aVland
p1651
aVwas
p1652
aVup
p1653
aVfor
p1654
aVsell
p1655
aVagain
p1656
aV,
aVgrandpa
p1657
aVhad
p1658
aVbought
p1659
aVtwo
p1660
aVhundred
p1661
aVacres
p1662
aVof
p1663
aVit
p1664
aV,
aVand
p1665
aVin
p1666
aV19i8
p1667
aV,
aVafter
p1668
aVthe
p1669
aVfirst
p1670
aVtwo
p1671
aVhundred
p1672
aVacres
p1673
aVhad
p1674
aVbeen
p1675
aVpaid
p1676
aVoff
p1677
aV,
aVhe
p1678
aVhad
p1679
aVbought
p1680
aVanother
p1681
aVtwo
p1682
aVhundred
p1683
aV,
aVit
p1684
aVwas
p1685
aVgood
p1686
aVrich
p1687
aVland
p1688
aV,
aVmuch
p1689
aVof
p1690
aVit
p1691
aVstill
p1692
aVvirgin
p1693
aVforest
p1694
aV,
aVand
p1695
aVthere
p1696
aVwas
p1697
aVno
p1698
aVdebt
p1699
aVon
p1700
aVhalf
p1701
aVof
p1702
aVit
p1703
aV.
aa(lp1704
Vbut
p1705
aVthere
p1706
aVwas
p1707
aVa
aVmortgage
p1708
aVon
p1709
aVthe
p1710
aVtwo
p1711
aVhundred
p1712
aVacres
p1713
aVbought
p1714
aVin
p1715
aV1918
p1716
aVand
p1717
aVthere
p1718
aVwere
p1719
aVtaxes
p1720
aVon
p1721
aVthe
p1722
aVfull
p1723
aVfour
p1724
aVhundred
p1725
aV,
aVand
p1726
aVfor
p1727
aVthe
p1728
aVpast
p1729
aVthree
p1730
aVyears
p1731
aVthere
p1732
aVhad
p1733
aVnot
p1734
aVbeen
p1735
aVenough
p1736
aVmoney
p1737
aVfrom
p1738
aVthe
p1739
aVcotton
p1740
aVto
p1741
aVpay
p1742
aVboth
p1743
aVand
p1744
aVlive
p1745
aVon
p1746
aVtoo
p1747
aV.
aa(lp1748
Vthat
p1749
aVwas
p1750
aVwhy
p1751
aVpapa
p1752
aVhad
p1753
aVgone
p1754
aVto
p1755
aVwork
p1756
aVon
p1757
aVthe
p1758
aVrailroad
p1759
aV.
aa(lp1760
Vin
p1761
aV1930
p1762
aVthe
p1763
aVprice
p1764
aVof
p1765
aVcotton
p1766
aVdropped
p1767
aV,
aVand
p1768
aVso
p1769
aV,
aVin
p1770
aVthe
p1771
aVspring
p1772
aVof
p1773
aV1931
p1774
aV,
aVpapa
p1775
aVset
p1776
aVout
p1777
aVlooking
p1778
aVfor
p1779
aVwork
p1780
aV,
aVgoing
p1781
aVas
p1782
aVfar
p1783
aVnorth
p1784
aVas
p1785
aVmemphis
p1786
aVand
p1787
aVas
p1788
aVfar
p1789
aVsouth
p1790
aVas
p1791
aVthe
p1792
aVdelta
p1793
aVcountry
p1794
aV,
aVhe
p1795
aVhad
p1796
aVgone
p1797
aVwest
p1798
aVtoo
p1799
aV,
aVinto
p1800
aVlouisiana
p1801
aV.
aa(lp1802
Vit
p1803
aVwas
p1804
aVthere
p1805
aVhe
p1806
aVfound
p1807
aVwork
p1808
aVlaying
p1809
aVtrack
p1810
aVfor
p1811
aVthe
p1812
aVrailroad
p1813
aV.
aa(lp1814
Vhe
p1815
aVworked
p1816
aVthe
p1817
aVremainder
p1818
aVof
p1819
aVthe
p1820
aVyear
p1821
aVaway
p1822
aVfrom
p1823
aVus
p1824
aV,
aVnot
p1825
aVreturning
p1826
aVuntil
p1827
aVthe
p1828
aVdeep
p1829
aVwinter
p1830
aVwhen
p1831
aVthe
p1832
aVground
p1833
aVwas
p1834
aVcold
p1835
aVand
p1836
aVbarren
p1837
aV.
aa(lp1838
Vthe
p1839
aVfollowing
p1840
aVspring
p1841
aVafter
p1842
aVthe
p1843
aVplanting
p1844
aVwas
p1845
aVfinished
p1846
aV.
aa(lp1847
Vhe
p1848
aVdid
p1849
aVthe
p1850
aVsame
p1851
aV.
aa(lp1852
Vnow
p1853
aVit
p1854
aVwas
p1855
aV1933
p1856
aVand
p1857
aVpapa
p1858
aVwas
p1859
aVagain
p1860
aVin
p1861
aVlouisiana
p1862
aVlaying
p1863
aVtrack
p1864
aV,
aVi
aVasked
p1865
aVhim
p1866
aVonce
p1867
aVwhy
p1868
aVhe
p1869
aVhad
p1870
aVto
p1871
aVgo
p1872
aVaway
p1873
aV,
aVwhy
p1874
aVthe
p1875
aVland
p1876
aVwas
p1877
aVso
p1878
aVimportant
p1879
aV.
aa(lp1880
Vhe
p1881
aVtook
p1882
aVmy
p1883
aVhand
p1884
aVand
p1885
aVsaid
p1886
aVin
p1887
aVhis
p1888
aVquiet
p1889
aVway
p1890
aV:
aV'look
p1891
aVout
p1892
aVthere
p1893
aV,
aVcassie
p1894
aVgirl
p1895
aV.
aa(lp1896
Vall
p1897
aVthat
p1898
aVbelongs
p1899
aVto
p1900
aVyou
p1901
aV.
aa(lp1902
Vyou
p1903
aVai
p1904
aVn't
p1905
aVnever
p1906
aVhad
p1907
aVto
p1908
aVlive
p1909
aVon
p1910
aVnobody
p1911
aV's
p1912
aVplace
p1913
aVbut
p1914
aVyour
p1915
aVown
p1916
aVand
p1917
aVlong
p1918
aVas
p1919
aVi
aVlive
p1920
aVand
p1921
aVthe
p1922
aVfamily
p1923
aVsurvives
p1924
aV,
aVyou
p1925
aV'll
p1926
aVnever
p1927
aVhave
p1928
aVto
p1929
aV.
aa(lp1930
Vthat
p1931
aV's
p1932
aVimportant
p1933
aV.
aa(lp1934
Vyou
p1935
aVmay
p1936
aVnot
p1937
aVunderstand
p1938
aVthat
p1939
aVnow
p1940
aV,
aVbut
p1941
aVone
p1942
aVday
p1943
aVyou
p1944
aVwill
p1945
aV.
aa(lp1946
Vthen
p1947
aVyou
p1948
aV'll
p1949
aVsee
p1950
aV.
aa(lp1951
Vi
aVlooked
p1952
aVat
p1953
aVpapa
p1954
aVstrangely
p1955
aVwhen
p1956
aVhe
p1957
aVsaid
p1958
aVthat
p1959
aV,
aVfor
p1960
aVi
aVknew
p1961
aVthat
p1962
aVall
p1963
aVthe
p1964
aVland
p1965
aVdid
p1966
aVnot
p1967
aVbelong
p1968
aVto
p1969
aVme
p1970
aV.
aa(lp1971
Vsome
p1972
aVof
p1973
aVit
p1974
aVbelonged
p1975
aVto
p1976
aVstacey
p1977
aV,
aVchristopher-john
p1978
aV,
aVand
p1979
aVlittle
p1980
aVman
p1981
aV,
aVnot
p1982
aVto
p1983
aVmention
p1984
aVthe
p1985
aVpart
p1986
aVthat
p1987
aVbelonged
p1988
aVto
p1989
aVbig
p1990
aVma
p1991
aV.
aa(lp1992
Vmama
p1993
aV,
aVand
p1994
aVuncle
p1995
aVhammer
p1996
aV,
aVpapa
p1997
aV's
p1998
aVolder
p1999
aVbrother
p2000
aVwho
p2001
aVlived
p2002
aVin
p2003
aVchicago
p2004
aV.
aa(lp2005
Vbut
p2006
aVpapa
p2007
aVnever
p2008
aVdivided
p2009
aVthe
p2010
aVland
p2011
aVin
p2012
aVhis
p2013
aVmind
p2014
aV:
aVit
p2015
aVwas
p2016
aVsimply
p2017
aVlogan
p2018
aVland
p2019
aV.
aa(lp2020
Vfor
p2021
aVit
p2022
aVhe
p2023
aVwould
p2024
aVwork
p2025
aVthe
p2026
aVlong
p2027
aV,
aVhot
p2028
aVsummer
p2029
aVpounding
p2030
aVsteel
p2031
aV:
aVmama
p2032
aVwould
p2033
aVteach
p2034
aVand
p2035
aVrun
p2036
aVthe
p2037
aVfarm
p2038
aV;
aVbig
p2039
aVma
p2040
aV,
aVin
p2041
aVher
p2042
aVsixties
p2043
aV,
aVwould
p2044
aVwork
p2045
aVlike
p2046
aVa
aVwoman
p2047
aVof
p2048
aVtwenty
p2049
aVin
p2050
aVthe
p2051
aVfields
p2052
aVand
p2053
aVkeep
p2054
aVthe
p2055
aVhouse
p2056
aV;
aVand
p2057
aVthe
p2058
aVboys
p2059
aVand
p2060
aVi
aVwould
p2061
aVwear
p2062
aVthreadbare
p2063
aVclothing
p2064
aVwashed
p2065
aVto
p2066
aVdishwater
p2067
aVcolor
p2068
aV:
aVbut
p2069
aValways
p2070
aV,
aVthe
p2071
aVtaxes
p2072
aVand
p2073
aVthe
p2074
aVmortgage
p2075
aVwould
p2076
aVbe
p2077
aVpaid
p2078
aV.
aa(lp2079
Vpapa
p2080
aVsaid
p2081
aVthat
p2082
aVone
p2083
aVday
p2084
aVi
aVwould
p2085
aVunderstand
p2086
aV.
aa(lp2087
Vi
aVwondered
p2088
aV.
aa(lp2089
Vwhen
p2090
aVthe
p2091
aVfields
p2092
aVended
p2093
aVand
p2094
aVthe
p2095
aVgranger
p2096
aVforest
p2097
aVfanned
p2098
aVboth
p2099
aVsides
p2100
aVof
p2101
aVthe
p2102
aVroad
p2103
aVwith
p2104
aVlong
p2105
aVoverhanging
p2106
aVbranches
p2107
aV,
aVa
aVtall
p2108
aV,
aVemaciated-looking
p2109
aVboy
p2110
aVpopped
p2111
aVsuddenly
p2112
aVfrom
p2113
aVa
aVforest
p2114
aVtrail
p2115
aVand
p2116
aVswung
p2117
aVa
aVthin
p2118
aVarm
p2119
aVaround
p2120
aVstacey
p2121
aV.
aa(lp2122
Vit
p2123
aVwas
p2124
aVt.
p2125
aVj.
p2126
aVavery
p2127
aV.
aa(lp2128
Vhis
p2129
aVyounger
p2130
aVbrother
p2131
aVclaude
p2132
aVemerged
p2133
aVa
aVmoment
p2134
aVlater
p2135
aV,
aVsmiling
p2136
aVweakly
p2137
aVas
p2138
aVif
p2139
aVit
p2140
aVpained
p2141
aVhim
p2142
aVto
p2143
aVdo
p2144
aVso
p2145
aV.
aa(lp2146
Vneither
p2147
aVboy
p2148
aVhad
p2149
aVon
p2150
aVshoes
p2151
aV,
aVand
p2152
aVtheir
p2153
aVsunday
p2154
aVclothing
p2155
aV,
aVpatched
p2156
aVand
p2157
aVworn
p2158
aV,
aVhung
p2159
aVloosely
p2160
aVupon
p2161
aVtheir
p2162
aVfrail
p2163
aVframes
p2164
aV.
aa(lp2165
Vthe
p2166
aVavery
p2167
aVfamily
p2168
aVshare-
p2169
aVcropped
p2170
aVon
p2171
aVgranger
p2172
aVland
p2173
aV.
aa(lp2174
V'well
p2175
aV.
aV'
aa(lp2176
Vsaid
p2177
aVt.j..
p2178
aVjauntily
p2179
aVswinging
p2180
aVinto
p2181
aVstep
p2182
aVwith
p2183
aVstacey
p2184
aV,
aVthere
p2185
aVwe
p2186
aVgo
p2187
aVagain
p2188
aVstartin
p2189
aV'
aVanother
p2190
aVschool
p2191
aVyear
p2192
aV.
aa(lp2193
V'yeah
p2194
aV,
aV'
aVsighed
p2195
aVstacey
p2196
aV,
aV'ah
p2197
aV,
aVman
p2198
aV,
aVdo
p2199
aVn't
p2200
aVlook
p2201
aVso
p2202
aVdown
p2203
aV,
aV'
aVt.j.
p2204
aVsaid
p2205
aVcheerfully
p2206
aV.
aa(lp2207
V'your
p2208
aVmama
p2209
aV's
p2210
aVreally
p2211
aVone
p2212
aVgreat
p2213
aVteacher
p2214
aV.
aa(lp2215
Vi
aVshould
p2216
aVknow
p2217
aV.
aV'
aa(lp2218
Vhe
p2219
aVcertainly
p2220
aVshould
p2221
aV.
aa(lp2222
Vhe
p2223
aVhad
p2224
aVfailed
p2225
aVmama
p2226
aV's
p2227
aVclass
p2228
aVlast
p2229
aVyear
p2230
aVand
p2231
aVwas
p2232
aVnow
p2233
aVreturning
p2234
aVfor
p2235
aVa
aVsecond
p2236
aVtry
p2237
aV,
aV'shoot
p2238
aV!
aa(lp2239
Vyou
p2240
aVcan
p2241
aVsay
p2242
aVthat
p2243
aV,
aV'
aVexclaimed
p2244
aVstacey
p2245
aV.
aa(lp2246
V'you
p2247
aVdo
p2248
aVn't
p2249
aVhave
p2250
aVto
p2251
aVspend
p2252
aVall
p2253
aVday
p2254
aVin
p2255
aVa
aVclassroom
p2256
aVwith
p2257
aVyour
p2258
aVmama
p2259
aV.
aV'
aa(lp2260
V'look
p2261
aVon
p2262
aVthe
p2263
aVbright
p2264
aVside
p2265
aV,
aV'
aVsaid
p2266
aVt.j.
p2267
aV'jus
p2268
aV'
aVthink
p2269
aVof
p2270
aVthe
p2271
aVadvantage
p2272
aVyou
p2273
aV've
p2274
aVgot
p2275
aV.
aa(lp2276
Vyou
p2277
aV'll
p2278
aVbe
p2279
aVlearnin
p2280
aV'
aVall
p2281
aVsorts
p2282
aVof
p2283
aVstuff
p2284
aV'fore
p2285
aVthe
p2286
aVrest
p2287
aVof
p2288
aVus
p2289
aV...
p2290
aV'
aVhe
p2291
aVsmiled
p2292
aVslyly
p2293
aV.
aa(lp2294
V'like
p2295
aVwhat
p2296
aV's
p2297
aVon
p2298
aVall
p2299
aVthem
p2300
aVtests
p2301
aV.
aa(lp2302
Vstacey
p2303
aVthrust
p2304
aVt.j.
p2305
aV's
p2306
aVarm
p2307
aVfrom
p2308
aVhis
p2309
aVshoulders
p2310
aV.
aa(lp2311
V'if
p2312
aVthat
p2313
aV's
p2314
aVwhat
p2315
aVyou
p2316
aVthink
p2317
aV,
aVyou
p2318
aVdo
p2319
aVn't
p2320
aVknow
p2321
aVmama
p2322
aV.
aV'
aa(lp2323
V'ai
p2324
aVn't
p2325
aVno
p2326
aVneed
p2327
aVgettin
p2328
aV'
aVmad
p2329
aV,
aV'
aVt.j.
p2330
aVreplied
p2331
aVundaunted
p2332
aV.
aa(lp2333
V'jus
p2334
aV'
aVan
p2335
aVidea
p2336
aV.
aV'
aa(lp2337
Vhe
p2338
aVwas
p2339
aVquiet
p2340
aVfor
p2341
aVa
aVmoment
p2342
aV,
aVthen
p2343
aVannounced
p2344
aV,
aV'i
p2345
aVbetcha
p2346
aVi
aVcould
p2347
aVgive
p2348
aVy'all
p2349
aVan
p2350
aVearful
p2351
aV'bout
p2352
aVthat
p2353
aVburnin
p2354
aV'
aVlast
p2355
aVnight
p2356
aV.
aV'
aa(lp2357
V'burning
p2358
aVi
aVwhat
p2359
aVburning
p2360
aV?
aV'
aa(lp2361
Vasked
p2362
aVstacey
p2363
aV.
aa(lp2364
V'man
p2365
aV,
aVdo
p2366
aVn't
p2367
aVy'all
p2368
aVknow
p2369
aVnothin
p2370
aV'
aV!
aa(lp2371
Vthe
p2372
aVberrys
p2373
aV'
aVburnin
p2374
aV'
aV.
aa(lp2375
Vi
aVthought
p2376
aVy'all
p2377
aV's
p2378
aVgrandmother
p2379
aVwent
p2380
aVover
p2381
aVthere
p2382
aVlast
p2383
aVnight
p2384
aVto
p2385
aVsee
p2386
aV'bout
p2387
aV'em
p2388
aV.
aV'
aa(lp2389
Vof
p2390
aVcourse
p2391
aVwe
p2392
aVknew
p2393
aVthat
p2394
aVbig
p2395
aVma
p2396
aVhad
p2397
aVgone
p2398
aVto
p2399
aVa
aVsick
p2400
aVhouse
p2401
aVlast
p2402
aVnight
p2403
aV.
aa(lp2404
Vshe
p2405
aVwas
p2406
aVgood
p2407
aVat
p2408
aVmedicines
p2409
aVand
p2410
aVpeople
p2411
aVoften
p2412
aVcalled
p2413
aVher
p2414
aVinstead
p2415
aVof
p2416
aVa
aVdoctor
p2417
aVwhen
p2418
aVthey
p2419
aVwere
p2420
aVsick
p2421
aV.
aa(lp2422
Vbut
p2423
aVwe
p2424
aVdid
p2425
aVn't
p2426
aVknow
p2427
aVanything
p2428
aVabout
p2429
aVany
p2430
aVburnings
p2431
aV,
aVand
p2432
aVi
aVcertainly
p2433
aVdid
p2434
aVn't
p2435
aVknow
p2436
aVanything
p2437
aVabout
p2438
aVany
p2439
aVberrys
p2440
aVeither
p2441
aV.
aa(lp2442
V'what
p2443
aVberrys
p2444
aVhe
p2445
aVtalking
p2446
aV'bout
p2447
aV,
aVstacey
p2448
aV!
aV'
aa(lp2449
Vi
aVasked
p2450
aV.
aa(lp2451
V'i
p2452
aVdo
p2453
aVn't
p2454
aVknow
p2455
aVno
p2456
aVberrys
p2457
aV.
aa(lp2458
V'they
p2459
aVlive
p2460
aVway
p2461
aVover
p2462
aVon
p2463
aVthe
p2464
aVother
p2465
aVside
p2466
aVof
p2467
aVsmellings
p2468
aVcreek
p2469
aV.
aa(lp2470
Vthey
p2471
aVcome
p2472
aVup
p2473
aVto
p2474
aVchurch
p2475
aVsometimes
p2476
aV,
aV'
aVsaid
p2477
aVstacey
p2478
aVabsently
p2479
aV.
aa(lp2480
Vthen
p2481
aVhe
p2482
aVturned
p2483
aVback
p2484
aVto
p2485
aVt.j.
p2486
aV'mr
p2487
aV.
aa(lp2488
Vlanier
p2489
aVcome
p2490
aVby
p2491
aVreal
p2492
aVlate
p2493
aVand
p2494
aVgot
p2495
aVbig
p2496
aVma
p2497
aV.
aa(lp2498
Vsaid
p2499
aVmr..
p2500
aVberry
p2501
aVwas
p2502
aVlow
p2503
aVsick
p2504
aVand
p2505
aVneeded
p2506
aVher
p2507
aVto
p2508
aVhelp
p2509
aVnurse
p2510
aVhim
p2511
aV,
aVbut
p2512
aVhe
p2513
aVai
p2514
aVn't
p2515
aVsaid
p2516
aVnothing
p2517
aV'bout
p2518
aVno
p2519
aVburning
p2520
aV.
aV'
aa(lp2521
V'he
p2522
aV's
p2523
aVlow
p2524
aVsick
p2525
aVall
p2526
aVright
p2527
aV~'cause
p2528
aVhe
p2529
aVgot
p2530
aVburnt
p2531
aVnear
p2532
aVto
p2533
aVdeath
p2534
aV.
aa(lp2535
Vhim
p2536
aVand
p2537
aVhis
p2538
aVtwo
p2539
aVnephews
p2540
aV,
aVand
p2541
aVyou
p2542
aVknow
p2543
aVwho
p2544
aVdone
p2545
aV'who
p2546
aV!
aV'
aa(lp2547
Vstacey
p2548
aVand
p2549
aVi
aVasked
p2550
aVtogether
p2551
aV.
aa(lp2552
V'well
p2553
aV,
aVsince
p2554
aVy'all
p2555
aVdo
p2556
aVn't
p2557
aVseem
p2558
aVto
p2559
aVknow
p2560
aVnothin
p2561
aV'
aV,
aV'
aVsaid
p2562
aVt.j.
p2563
aV,
aVin
p2564
aVhis
p2565
aVusual
p2566
aVsickening
p2567
aVway
p2568
aVof
p2569
aVnursing
p2570
aVa
aVtidbit
p2571
aVof
p2572
aVinformation
p2573
aVto
p2574
aVdeath
p2575
aV,
aV'maybe
p2576
aVi
aVought
p2577
aVnot
p2578
aVtell
p2579
aVy'all
p2580
aV,
aVit
p2581
aVmight
p2582
aVhurt
p2583
aVy'all
p2584
aV's
p2585
aVlittle
p2586
aVears
p2587
aV.
aV'
aa(lp2588
V'ah
p2589
aV,
aVboy
p2590
aV,
aV'
aVi
aVsaid
p2591
aV,
aV'do
p2592
aVn't
p2593
aVstart
p2594
aVthat
p2595
aVmess
p2596
aVagain
p2597
aV.
aV'
aa(lp2598
Vi
aVdid
p2599
aVn't
p2600
aVlike
p2601
aVt.j.
p2602
aVvery
p2603
aVmuch
p2604
aVand
p2605
aVhis
p2606
aVstalling
p2607
aVaround
p2608
aVdid
p2609
aVn't
p2610
aVhelp
p2611
aV.
aa(lp2612
V'come
p2613
aVon
p2614
aV,
aVt.j.
p2615
aV,
aV'
aVsaid
p2616
aVstacey
p2617
aV,
aV'out
p2618
aVwith
p2619
aVit
p2620
aV.
aV'
aa(lp2621
V'well
p2622
aV...
p2623
aV'
aVt.j.
p2624
aVmurmured
p2625
aV,
aVthen
p2626
aVgrew
p2627
aVsilent
p2628
aVas
p2629
aVif
p2630
aVconsidering
p2631
aVwhether
p2632
aVor
p2633
aVnot
p2634
aVhe
p2635
aVshould
p2636
aVtalk
p2637
aV,
aVwe
p2638
aVreached
p2639
aVthe
p2640
aVfirst
p2641
aVof
p2642
aVtwo
p2643
aVcrossroads
p2644
aVand
p2645
aVturned
p2646
aVnorth
p2647
aV;
aVanother
p2648
aVmile
p2649
aVand
p2650
aVwe
p2651
aVwould
p2652
aVapproach
p2653
aVthe
p2654
aVsecond
p2655
aVcrossroads
p2656
aVand
p2657
aVturn
p2658
aVeast
p2659
aVagain
p2660
aV.
aa(lp2661
Vfinally
p2662
aVt.j.
p2663
aVsaid
p2664
aV,
aV'okay
p2665
aV.
aa(lp2666
Vsee
p2667
aV,
aVthem
p2668
aVberrys
p2669
aV'
aVburnin
p2670
aV'
aVwas
p2671
aVn't
p2672
aVno
p2673
aVaccident
p2674
aV.
aa(lp2675
Vsome
p2676
aVwhite
p2677
aVmen
p2678
aVtook
p2679
aVa
aVmatch
p2680
aVto
p2681
aV'em
p2682
aV,
aV'
aV'y-you
p2683
aVmean
p2684
aVjust
p2685
aVlit
p2686
aV'em
p2687
aVup
p2688
aVlike
p2689
aVa
aVpiece
p2690
aVof
p2691
aVwood
p2692
aV!
aV'
aa(lp2693
Vstammered
p2694
aVchristopher-john
p2695
aV,
aVhis
p2696
aVeyes
p2697
aVgrowing
p2698
aVbig
p2699
aVwith
p2700
aVdisbelief
p2701
aV.
aa(lp2702
V'but
p2703
aVwhy
p2704
aV!
aV'
aa(lp2705
Vasked
p2706
aVstacey
p2707
aV,
aVt.j.
p2708
aVshrugged
p2709
aV.
aa(lp2710
V'do
p2711
aVn't
p2712
aVknow
p2713
aVwhy
p2714
aV.
aa(lp2715
Vjus
p2716
aV'
aVknow
p2717
aVthey
p2718
aVdone
p2719
aVit
p2720
aV,
aVthat
p2721
aV's
p2722
aVall
p2723
aV.
aV'
aa(lp2724
V'how
p2725
aVyou
p2726
aVknow
p2727
aV!
aV'
aa(lp2728
Vi
aVquestioned
p2729
aVsuspiciously
p2730
aV.
aa(lp2731
Vhe
p2732
aVsmiled
p2733
aVsmugly
p2734
aV.
aa(lp2735
V''cause
p2736
aVyour
p2737
aVmama
p2738
aVcome
p2739
aVdown
p2740
aVon
p2741
aVher
p2742
aVway
p2743
aVto
p2744
aVschool
p2745
aVand
p2746
aVtalked
p2747
aVto
p2748
aVmy
p2749
aVmama
p2750
aV'bout
p2751
aVit
p2752
aV.
aV'
aa(lp2753
V'she
p2754
aVdid
p2755
aV!
aV'
aa(lp2756
V'yeah
p2757
aV,
aVand
p2758
aVyou
p2759
aVshould
p2760
aV've
p2761
aVseen
p2762
aVthe
p2763
aVway
p2764
aVshe
p2765
aVlook
p2766
aVwhen
p2767
aVshe
p2768
aVcome
p2769
aVouta
p2770
aVthat
p2771
aVhouse
p2772
aV.
aV'
aa(lp2773
V'how
p2774
aV'd
p2775
aVshe
p2776
aVlook
p2777
aV!
aV'
aa(lp2778
Vinquired
p2779
aVlittle
p2780
aVman
p2781
aV,
aVinterested
p2782
aVenough
p2783
aVto
p2784
aVglance
p2785
aVup
p2786
aVfrom
p2787
aVthe
p2788
aVroad
p2789
aVfor
p2790
aVthe
p2791
aVfirst
p2792
aVtime
p2793
aV.
aa(lp2794
Vt.j.
p2795
aVlooked
p2796
aVaround
p2797
aVgrimly
p2798
aVand
p2799
aVwhispered
p2800
aV.
aa(lp2801
V'like
p2802
aV...
p2803
aa(lp2804
Vdeath
p2805
aV.
aV'
aa(lp2806
Vhe
p2807
aVwaited
p2808
aVa
aVmoment
p2809
aVfor
p2810
aVhis
p2811
aVwords
p2812
aVto
p2813
aVbe
p2814
aVappropriately
p2815
aVshocking
p2816
aV,
aVbut
p2817
aVthe
p2818
aVeffect
p2819
aVwas
p2820
aVspoiled
p2821
aVby
p2822
aVlittle
p2823
aVman
p2824
aV,
aVwho
p2825
aVasked
p2826
aVlightly
p2827
aV,
aV'what
p2828
aVdoes
p2829
aVdeath
p2830
aVlook
p2831
aVlike
p2832
aV!
aV'
aa(lp2833
Vt.j.
p2834
aVturned
p2835
aVin
p2836
aVannoyance
p2837
aV.
aa(lp2838
V'do
p2839
aVn't
p2840
aVhe
p2841
aVknow
p2842
aVnothin
p2843
aV'
aV!
aV'
aa(lp2844
V'well
p2845
aV,
aVwhat
p2846
aVdoes
p2847
aVit
p2848
aVlook
p2849
aVlike
p2850
aV?
aV'
aa(lp2851
Vlittle
p2852
aVman
p2853
aVdemanded
p2854
aVto
p2855
aVknow
p2856
aV.
aa(lp2857
Vhe
p2858
aVdid
p2859
aVn't
p2860
aVlike
p2861
aVt.j.
p2862
aVeither
p2863
aV,
aV'like
p2864
aVmy
p2865
aVgrandfather
p2866
aVlooked
p2867
aVjus
p2868
aV'
aV'fore
p2869
aVthey
p2870
aVburied
p2871
aVhim
p2872
aV,
aVt.j.
p2873
aVdescribed
p2874
aVall-knowingly
p2875
aV.
aa(lp2876
V'oh
p2877
aV.
aV'
aa(lp2878
Vreplied
p2879
aVlittle
p2880
aVman
p2881
aV,
aVlosing
p2882
aVinterest
p2883
aVand
p2884
aVconcentrating
p2885
aVon
p2886
aVthe
p2887
aVroad
p2888
aVagain
p2889
aV.
aa(lp2890
V'i
p2891
aVtell
p2892
aVya
p2893
aV.
aa(lp2894
Vstacey
p2895
aV,
aVman
p2896
aV,
aV'
aVsaid
p2897
aVt.j.
p2898
aVmorosely
p2899
aV,
aVshaking
p2900
aVhis
p2901
aVhead
p2902
aV.
aa(lp2903
V'sometimes
p2904
aVi
aVjus
p2905
aV'
aVdo
p2906
aVn't
p2907
aVknow
p2908
aV'bout
p2909
aVthat
p2910
aVfamily
p2911
aVof
p2912
aVyours
p2913
aV.
aa(lp2914
Vstacey
p2915
aVpulled
p2916
aVback
p2917
aV,
aVconsidering
p2918
aVwhether
p2919
aVor
p2920
aVnot
p2921
aVt.j.
p2922
aV's
p2923
aVwords
p2924
aVwere
p2925
aVoffensive
p2926
aV.
aa(lp2927
Vbut
p2928
aVt.
p2929
aV]
aV.
aa(lp2930
Vimmediately
p2931
aVerased
p2932
aVthe
p2933
aVquestion
p2934
aVby
p2935
aVcontinuing
p2936
aVamiably
p2937
aV.
aa(lp2938
V'do
p2939
aVn't
p2940
aVget
p2941
aVme
p2942
aVwrong
p2943
aV,
aVstacey
p2944
aV.
aa(lp2945
Vthey
p2946
aVsome
p2947
aVreal
p2948
aVswell
p2949
aVkids
p2950
aV,
aVbut
p2951
aVthat
p2952
aVcassie
p2953
aV'bout
p2954
aVgot
p2955
aVme
p2956
aVwhipped
p2957
aVthis
p2958
aVmornin
p2959
aV'
aV.
aa(lp2960
V'good
p2961
aV!
aV'
aa(lp2962
Vi
aVsaid
p2963
aV.
aa(lp2964
V'now
p2965
aVhow
p2966
aV'd
p2967
aVshe
p2968
aVdo
p2969
aVthat
p2970
aV!
aV'
aa(lp2971
Vstacey
p2972
aVlaughed
p2973
aV.
aa(lp2974
V'you
p2975
aVwould
p2976
aVn't
p2977
aVbe
p2978
aVlaughin
p2979
aV'
aVif
p2980
aVit'd
p2981
aV've
p2982
aVhappened
p2983
aVto
p2984
aVyou
p2985
aV.
aa(lp2986
Vshe
p2987
aVup
p2988
aVand
p2989
aVtold
p2990
aVyour
p2991
aVmama
p2992
aV'bout
p2993
aVme
p2994
aVgoin
p2995
aV'
aVup
p2996
aVto
p2997
aVthat
p2998
aVwallace
p2999
aVstore
p3000
aVdancin
p3001
aV'
aVroom
p3002
aVand
p3003
aVmiz
p3004
aVlogan
p3005
aVtold
p3006
aVmama
p3007
aV.
aV'
aa(lp3008
Vhe
p3009
aVeyed
p3010
aVme
p3011
aVdisdainfully
p3012
aVthen
p3013
aVwent
p3014
aVon
p3015
aV.
aa(lp3016
V'but
p3017
aVdo
p3018
aVn't
p3019
aVworry
p3020
aV,
aVi
aVgot
p3021
aVout
p3022
aVof
p3023
aVit
p3024
aVthough
p3025
aV.
aa(lp3026
Vwhen
p3027
aVmama
p3028
aVasked
p3029
aVme
p3030
aV'bout
p3031
aVit
p3032
aV,
aVi
aVjus
p3033
aV'
aVsaid
p3034
aVole
p3035
aVclaude
p3036
aVwas
p3037
aValways
p3038
aVsneakin
p3039
aV'
aVup
p3040
aVthere
p3041
aVto
p3042
aVget
p3043
aVsome
p3044
aVof
p3045
aVthat
p3046
aVfree
p3047
aVcandy
p3048
aVmr.
p3049
aVkaleb
p3050
aVgive
p3051
aVout
p3052
aVsometimes
p3053
aVand
p3054
aVi
aVhad
p3055
aVto
p3056
aVgo
p3057
aVand
p3058
aVget
p3059
aVhim
p3060
aV'cause
p3061
aVi
aVknowed
p3062
aVgood
p3063
aVand
p3064
aVwell
p3065
aVshe
p3066
aVdid
p3067
aVn't
p3068
aVwant
p3069
aVus
p3070
aVup
p3071
aVthere
p3072
aV.
aa(lp3073
Vboy
p3074
aV,
aVdid
p3075
aVhe
p3076
aVget
p3077
aVit
p3078
aV?
aV'
aa(lp3079
Vt.j.
p3080
aVlaughed
p3081
aV.
aa(lp3082
V'mama
p3083
aV'bout
p3084
aVwore
p3085
aVhim
p3086
aVout
p3087
aV.
aa(lp3088
Vi
aVstared
p3089
aVat
p3090
aVquiet
p3091
aVclaude
p3092
aV.
aa(lp3093
V'you
p3094
aVlet
p3095
aVhim
p3096
aVdo
p3097
aVthat
p3098
aV!
aV'
aa(lp3099
Vi
aVexclaimed
p3100
aV.
aa(lp3101
Vbut
p3102
aVclaude
p3103
aVonly
p3104
aVsmiled
p3105
aVin
p3106
aVthat
p3107
aVsickly
p3108
aVway
p3109
aVof
p3110
aVhis
p3111
aVand
p3112
aVi
aVknew
p3113
aVthat
p3114
aVhe
p3115
aVhad
p3116
aV.
aa(lp3117
Vhe
p3118
aVwas
p3119
aVmore
p3120
aVafraid
p3121
aVof
p3122
aVt.j.
p3123
aVthan
p3124
aVof
p3125
aVhis
p3126
aVmother
p3127
aV.
aa(lp3128
Vagain
p3129
aVlittle
p3130
aVman
p3131
aVglanced
p3132
aVup
p3133
aVand
p3134
aVi
aVcould
p3135
aVsee
p3136
aVhis
p3137
aVdislike
p3138
aVfor
p3139
aVt.j.
p3140
aVgrowing
p3141
aV.
aa(lp3142
Vfriendly
p3143
aVchristopher-john
p3144
aVglared
p3145
aVat
p3146
aVt.j.
p3147
aV,
aVand
p3148
aVputting
p3149
aVhis
p3150
aVshort
p3151
aVarm
p3152
aVaround
p3153
aVclaude
p3154
aV's
p3155
aVshoulder
p3156
aVsaid
p3157
aV.
aa(lp3158
V'come
p3159
aVon
p3160
aV,
aVclaude
p3161
aV.
aa(lp3162
Vlet
p3163
aV's
p3164
aVgo
p3165
aVon
p3166
aVahead
p3167
aV.
aV'
aa(lp3168
Vthen
p3169
aVhe
p3170
aVand
p3171
aVclaude
p3172
aVhurried
p3173
aVup
p3174
aVthe
p3175
aVroad
p3176
aV,
aVaway
p3177
aVfrom
p3178
aVt.j.
p3179
aVstacey
p3180
aV,
aVwho
p3181
aVgenerally
p3182
aVoverlooked
p3183
aVt.j.
p3184
aV's
p3185
aVunderhanded
p3186
aVstunts
p3187
aV,
aVshook
p3188
aVhis
p3189
aVhead
p3190
aV.
aa(lp3191
V'that
p3192
aVwas
p3193
aVdirty
p3194
aV.
aa(lp3195
V'well
p3196
aV,
aVwhat
p3197
aV'd
p3198
aVya
p3199
aVexpect
p3200
aVme
p3201
aVto
p3202
aVdo
p3203
aV!
aa(lp3204
Vi
aVcould
p3205
aVn't
p3206
aVlet
p3207
aVher
p3208
aVthink
p3209
aVi
aVwas
p3210
aVg-oin
p3211
aV'
aVup
p3212
aVthere
p3213
aV'cause
p3214
aVi
aVlike
p3215
aVto
p3216
aV,
aVcould
p3217
aVi
aV!
aa(lp3218
Vshe
p3219
aV'
aVd
aV've
p3220
aVkilled
p3221
aVme
p3222
aV!
aV'
aa(lp3223
V'and
p3224
aVgood
p3225
aVriddance
p3226
aV.
aV'
aa(lp3227
Vi
aVthought
p3228
aV,
aVpromising
p3229
aVmyself
p3230
aVthat
p3231
aVif
p3232
aVhe
p3233
aVever
p3234
aVpulled
p3235
aVanything
p3236
aVlike
p3237
aVthat
p3238
aVon
p3239
aVme
p3240
aV,
aVi
aV'd
p3241
aVknock
p3242
aVhis
p3243
aVblock
p3244
aVoff
p3245
aV.
aa(lp3246
Vwe
p3247
aVwere
p3248
aVnearing
p3249
aVthe
p3250
aVsecond
p3251
aVcrossroads
p3252
aV,
aVwhere
p3253
aVdeep
p3254
aVgullies
p3255
aVlined
p3256
aVboth
p3257
aVsides
p3258
aVof
p3259
aVthe
p3260
aVroad
p3261
aVand
p3262
aVthe
p3263
aVdense
p3264
aVforest
p3265
aVcrept
p3266
aVto
p3267
aVthe
p3268
aVvery
p3269
aVedges
p3270
aVof
p3271
aVhigh
p3272
aV.
aa(lp3273
Vjagged
p3274
aV,
aVclay-walled
p3275
aVbanks
p3276
aV.
aa(lp3277
Vsuddenly
p3278
aV,
aVstacey
p3279
aVturned
p3280
aV,
aV'quick
p3281
aV!
aV'
aa(lp3282
Vhe
p3283
aVcried
p3284
aV.
aa(lp3285
V'off
p3286
aVthe
p3287
aVroad
p3288
aV!
aV'
aa(lp3289
Vwithout
p3290
aVanother
p3291
aVword
p3292
aV,
aVall
p3293
aVof
p3294
aVus
p3295
aVbut
p3296
aVlittle
p3297
aVman
p3298
aVscrambled
p3299
aVup
p3300
aVthe
p3301
aVsteep
p3302
aVright
p3303
aVbank
p3304
aVinto
p3305
aVthe
p3306
aVforest
p3307
aV.
aa(lp3308
V'get
p3309
aVup
p3310
aVhere
p3311
aV,
aVman
p3312
aV.
aV'
aa(lp3313
Vstacey
p3314
aVordered
p3315
aV,
aVbut
p3316
aVlittle
p3317
aVman
p3318
aVonly
p3319
aVgazed
p3320
aVat
p3321
aVthe
p3322
aVragged
p3323
aVred
p3324
aVbank
p3325
aVsparsely
p3326
aVcovered
p3327
aVwith
p3328
aVscraggly
p3329
aVbrown
p3330
aVbriars
p3331
aVand
p3332
aVkept
p3333
aVon
p3334
aVwalking
p3335
aV.
aa(lp3336
V'come
p3337
aVon
p3338
aV,
aVdo
p3339
aVlike
p3340
aVi
aVsay
p3341
aV.
aa(lp3342
V'but
p3343
aVi
aV'll
p3344
aVget
p3345
aVmy
p3346
aVclothes
p3347
aVdirty
p3348
aVi
aV'
aVprotested
p3349
aVlittle
p3350
aVman
p3351
aV.
aa(lp3352
V'you
p3353
aV're
p3354
aVgon
p3355
aVna
p3356
aVget
p3357
aVthem
p3358
aVa
aVwhole
p3359
aVlot
p3360
aVdirtier
p3361
aVyou
p3362
aVstay
p3363
aVdown
p3364
aVthere
p3365
aV.
aa(lp3366
Vlook
p3367
aV!
aV'
aa(lp3368
Vlittle
p3369
aVman
p3370
aVturned
p3371
aVaround
p3372
aVand
p3373
aVwatched
p3374
aVsaucer-eyed
p3375
aVas
p3376
aVa
aVbus
p3377
aVbore
p3378
aVdown
p3379
aVon
p3380
aVhim
p3381
aVspewing
p3382
aVclouds
p3383
aVof
p3384
aVred
p3385
aVdust
p3386
aVlike
p3387
aVa
aVhuge
p3388
aVyellow
p3389
aVdragon
p3390
aVbreathing
p3391
aVfire
p3392
aV.
aa(lp3393
Vlittle
p3394
aVman
p3395
aVheaded
p3396
aVtoward
p3397
aVthe
p3398
aVbank
p3399
aV,
aVbut
p3400
aVit
p3401
aVwas
p3402
aVtoo
p3403
aVsteep
p3404
aV.
aa(lp3405
Vhe
p3406
aVran
p3407
aVfrantically
p3408
aValong
p3409
aVthe
p3410
aVroad
p3411
aVlooking
p3412
aVfor
p3413
aVa
aVfoothold
p3414
aVand
p3415
aV,
aVfinding
p3416
aVone
p3417
aV,
aVhopped
p3418
aVonto
p3419
aVthe
p3420
aVbank
p3421
aV,
aVbut
p3422
aVnot
p3423
aVbefore
p3424
aVthe
p3425
aVbus
p3426
aVhad
p3427
aVsped
p3428
aVpast
p3429
aVenveloping
p3430
aVhim
p3431
aVin
p3432
aVa
aVscarlet
p3433
aVhaze
p3434
aVwhile
p3435
aVlaughing
p3436
aVwhite
p3437
aVfaces
p3438
aVpressed
p3439
aVagainst
p3440
aVthe
p3441
aVbus
p3442
aVwindows
p3443
aV.
aa(lp3444
Vlittle
p3445
aVman
p3446
aVshook
p3447
aVa
aVthreatening
p3448
aVfist
p3449
aVinto
p3450
aVthe
p3451
aVthick
p3452
aVair
p3453
aV,
aVthen
p3454
aVlooked
p3455
aVdismally
p3456
aVdown
p3457
aVat
p3458
aVhimself
p3459
aV.
aa(lp3460
V'well
p3461
aV,
aVole
p3462
aVlittle
p3463
aVman
p3464
aVdone
p3465
aVgot
p3466
aVhis
p3467
aVsunday
p3468
aVclothes
p3469
aVdirty
p3470
aV,
aVt.j.
p3471
aVlaughed
p3472
aVas
p3473
aVwe
p3474
aVjumped
p3475
aVdown
p3476
aVfrom
p3477
aVthe
p3478
aVbank
p3479
aV.
aa(lp3480
Vangry
p3481
aVtears
p3482
aVwelled
p3483
aVin
p3484
aVlittle
p3485
aVman
p3486
aV's
p3487
aVeyes
p3488
aVbut
p3489
aVhe
p3490
aVquickly
p3491
aVbrushed
p3492
aVthem
p3493
aVaway
p3494
aVbefore
p3495
aVt.j.
p3496
aVcould
p3497
aVsee
p3498
aVthem
p3499
aV.
aa(lp3500
V'ah
p3501
aV,
aVshut
p3502
aVup
p3503
aV,
aVt.j.
p3504
aV,
aV'
aVstacey
p3505
aVsnapped
p3506
aV,
aV'yeah
p3507
aV,
aVshut
p3508
aVup
p3509
aV.
aa(lp3510
Vt.j.
p3511
aV,
aV'
aVi
aVechoed
p3512
aV.
aa(lp3513
V'come
p3514
aVon
p3515
aV,
aVman
p3516
aV,
aV'
aVstacey
p3517
aVsaid
p3518
aV,
aV'
aVand
p3519
aVnext
p3520
aVtime
p3521
aVdo
p3522
aVlike
p3523
aVi
aVtell
p3524
aVya
p3525
aV.
aV'
aa(lp3526
Vlittle
p3527
aVman
p3528
aVhopped
p3529
aVdown
p3530
aVfrom
p3531
aVthe
p3532
aVbank
p3533
aV.
aa(lp3534
V'how
p3535
aV's
p3536
aVcome
p3537
aVthey
p3538
aVdid
p3539
aVthat
p3540
aV.
aa(lp3541
Vstacey
p3542
aV,
aVhuh
p3543
aV!
aV'
aa(lp3544
Vhe
p3545
aVasked
p3546
aV.
aa(lp3547
Vdusting
p3548
aVhimself
p3549
aVoff
p3550
aV.
aa(lp3551
V'how
p3552
aV's
p3553
aVcome
p3554
aVthey
p3555
aVdid
p3556
aVn't
p3557
aVeven
p3558
aVstop
p3559
aVfor
p3560
aVus
p3561
aV!
aV'
aa(lp3562
V''cause
p3563
aVthey
p3564
aVlike
p3565
aVto
p3566
aVsee
p3567
aVus
p3568
aVrun
p3569
aVand
p3570
aVit
p3571
aVai
p3572
aVn't
p3573
aVour
p3574
aVbus
p3575
aV.
aV'
aa(lp3576
Vstacey
p3577
aVsaid
p3578
aV,
aVballing
p3579
aVhis
p3580
aVfists
p3581
aVand
p3582
aVjamming
p3583
aVthem
p3584
aVtightly
p3585
aVinto
p3586
aVhis
p3587
aVpockets
p3588
aV.
aa(lp3589
V'well
p3590
aV,
aVwhere
p3591
aV's
p3592
aVour
p3593
aVbus
p3594
aV!
aV'
aa(lp3595
Vdemanded
p3596
aVlittle
p3597
aVman
p3598
aV.
aa(lp3599
V'we
p3600
aVai
p3601
aVn't
p3602
aVgot
p3603
aVone
p3604
aV.
aV'
aa(lp3605
V'well
p3606
aV,
aVwhy
p3607
aVnot
p3608
aV!
aV'
aa(lp3609
V'ask
p3610
aVmama
p3611
aV,
aV'
aVstacey
p3612
aVreplied
p3613
aVas
p3614
aVa
aVtowheaded
p3615
aVboy
p3616
aV,
aVbare-
p3617
aVfooted
p3618
aVand
p3619
aVpale
p3620
aV.
aa(lp3621
Vcame
p3622
aVrunning
p3623
aVdown
p3624
aVa
aVforest
p3625
aVpath
p3626
aVtoward
p3627
aVus
p3628
aV.
aa(lp3629
Vthe
p3630
aVboy
p3631
aVquickly
p3632
aVcaught
p3633
aVup
p3634
aVand
p3635
aVfell
p3636
aVin
p3637
aVstride
p3638
aVwith
p3639
aVstacey
p3640
aVand
p3641
aVt.j.
p3642
aV'hey
p3643
aV,
aVstacey
p3644
aV,
aV'
aVhe
p3645
aVsaid
p3646
aVshyly
p3647
aV.
aa(lp3648
V'hey
p3649
aV,
aVjeremy
p3650
aV,
aV'
aVstacey
p3651
aVsaid
p3652
aV.
aa(lp3653
Vthere
p3654
aVwas
p3655
aVan
p3656
aVawkward
p3657
aVsilence
p3658
aV.
aa(lp3659
V'y'all
p3660
aVjus
p3661
aV'
aVstartin
p3662
aV'
aVschool
p3663
aVtoday
p3664
aV!
aV'
aa(lp3665
V'yeah
p3666
aV.
aV'
aa(lp3667
Vreplied
p3668
aVstacey
p3669
aV,
aV'i
p3670
aVwishin
p3671
aV'
aVours
p3672
aVwas
p3673
aVjus
p3674
aV'
aVstartin
p3675
aV'
aV,
aV'
aVsighed
p3676
aVjeremy
p3677
aV.
aa(lp3678
V'ours
p3679
aVbeen
p3680
aVgoin
p3681
aV'
aVsince
p3682
aVthe
p3683
aVend
p3684
aVof
p3685
aVaugust
p3686
aV.
aV'
aa(lp3687
Vjeremy
p3688
aV's
p3689
aVeyes
p3690
aVwere
p3691
aVa
aVwhitewashed
p3692
aVblue
p3693
aVand
p3694
aVthey
p3695
aVseemed
p3696
aVto
p3697
aVweep
p3698
aVwhen
p3699
aVhe
p3700
aVspoke
p3701
aV.
aa(lp3702
V'yeah
p3703
aV,
aV'
aVsaid
p3704
aVstacey
p3705
aVagain
p3706
aV.
aa(lp3707
Vjeremy
p3708
aVkicked
p3709
aVthe
p3710
aVdust
p3711
aVbriskly
p3712
aVand
p3713
aVlooked
p3714
aVtoward
p3715
aVthe
p3716
aVnorth
p3717
aV.
aa(lp3718
Vhe
p3719
aVwas
p3720
aVa
aVstrange
p3721
aVboy
p3722
aV.
aa(lp3723
Vever
p3724
aVsince
p3725
aVi
aVhad
p3726
aVbegun
p3727
aVschool
p3728
aV,
aVhe
p3729
aVhad
p3730
aVwalked
p3731
aVwith
p3732
aVus
p3733
aVas
p3734
aVfar
p3735
aVas
p3736
aVthe
p3737
aVcrossroads
p3738
aVin
p3739
aVthe
p3740
aVmorning
p3741
aV.
aa(lp3742
Vand
p3743
aVmet
p3744
aVus
p3745
aVthere
p3746
aVin
p3747
aVthe
p3748
aVafternoon
p3749
aV.
aa(lp3750
Vhe
p3751
aVwas
p3752
aVoften
p3753
aVridiculed
p3754
aVby
p3755
aVthe
p3756
aVother
p3757
aVchildren
p3758
aVat
p3759
aVhis
p3760
aVschool
p3761
aVand
p3762
aVhad
p3763
aVshown
p3764
aVup
p3765
aVmore
p3766
aVthan
p3767
aVonce
p3768
aVwith
p3769
aVwide
p3770
aVred
p3771
aVwelts
p3772
aVon
p3773
aVhis
p3774
aVarms
p3775
aVwhich
p3776
aVlillian
p3777
aVjean
p3778
aV,
aVhis
p3779
aVolder
p3780
aVsister
p3781
aV,
aVhad
p3782
aVrevealed
p3783
aVwith
p3784
aVsatisfaction
p3785
aVwere
p3786
aVthe
p3787
aVresult
p3788
aVof
p3789
aVhis
p3790
aVassociating
p3791
aVwith
p3792
aVus
p3793
aV.
aa(lp3794
Vstill
p3795
aV,
aVjeremy
p3796
aVcontinued
p3797
aVto
p3798
aVmeet
p3799
aVus
p3800
aV.
aa(lp3801
Vwhen
p3802
aVwe
p3803
aVreached
p3804
aVthe
p3805
aVcrossroads
p3806
aV,
aVthree
p3807
aVmore
p3808
aVchildren
p3809
aV,
aVa
aVgirl
p3810
aVof
p3811
aVtwelve
p3812
aVor
p3813
aVthirteen
p3814
aVand
p3815
aVtwo
p3816
aVboys
p3817
aV,
aVall
p3818
aVlooking
p3819
aVvery
p3820
aVmuch
p3821
aVlike
p3822
aVjeremy
p3823
aV,
aVrushed
p3824
aVpast
p3825
aV,
aVthe
p3826
aVgirl
p3827
aVwas
p3828
aVlillian
p3829
aVjean
p3830
aV,
aV'jeremy
p3831
aV,
aVcome
p3832
aVon
p3833
aV.
aV'
aa(lp3834
Vshe
p3835
aVsaid
p3836
aVwithout
p3837
aVa
aVbackward
p3838
aVglance
p3839
aV,
aVand
p3840
aVjeremy
p3841
aV,
aVsmiling
p3842
aVsheepishly
p3843
aV,
aVwaved
p3844
aVa
aVtimid
p3845
aVgood-bye
p3846
aVand
p3847
aVslowly
p3848
aVfollowed
p3849
aVher
p3850
aV.
aa(lp3851
Vwe
p3852
aVstood
p3853
aVin
p3854
aVthe
p3855
aVcrossing
p3856
aVgazing
p3857
aVafter
p3858
aVthem
p3859
aV.
aa(lp3860
Vjeremy
p3861
aVlooked
p3862
aVback
p3863
aVonce
p3864
aVbut
p3865
aVthen
p3866
aVlillian
p3867
aVjean
p3868
aVyelled
p3869
aVshrilly
p3870
aVat
p3871
aVhim
p3872
aVand
p3873
aVhe
p3874
aVdid
p3875
aVnot
p3876
aVlook
p3877
aVback
p3878
aVagain
p3879
aV.
aa(lp3880
Vthey
p3881
aVwere
p3882
aVheaded
p3883
aVfor
p3884
aVthe
p3885
aVjefferson
p3886
aVdavis
p3887
aVcounty
p3888
aVschool
p3889
aV.
aa(lp3890
Va
aVlong
p3891
aVwhite
p3892
aVwooden
p3893
aVbuilding
p3894
aVlooming
p3895
aVin
p3896
aVthe
p3897
aVdistance
p3898
aV.
aa(lp3899
Vbehind
p3900
aVthe
p3901
aVbuilding
p3902
aVwas
p3903
aVa
aVwide
p3904
aVsports
p3905
aVfield
p3906
aVaround
p3907
aVwhich
p3908
aVwere
p3909
aVscattered
p3910
aVrows
p3911
aVof
p3912
aVtiered
p3913
aVgray-looking
p3914
aVbenches
p3915
aV.
aa(lp3916
Vin
p3917
aVfront
p3918
aVof
p3919
aVit
p3920
aVwere
p3921
aVtwo
p3922
aVyellow
p3923
aVbuses
p3924
aV,
aVour
p3925
aVown
p3926
aVtormentor
p3927
aVand
p3928
aVone
p3929
aVthat
p3930
aVbrought
p3931
aVstudents
p3932
aVfrom
p3933
aVthe
p3934
aVother
p3935
aVdirection
p3936
aV,
aVand
p3937
aVloitering
p3938
aVstudents
p3939
aVawaiting
p3940
aVthe
p3941
aVknell
p3942
aVof
p3943
aVthe
p3944
aVmorning
p3945
aVbell
p3946
aV.
aa(lp3947
Vin
p3948
aVthe
p3949
aVvery
p3950
aVcenter
p3951
aVof
p3952
aVthe
p3953
aVexpansive
p3954
aVfront
p3955
aVlawn
p3956
aV,
aVwaving
p3957
aVred
p3958
aV,
aVwhite
p3959
aVand
p3960
aVblue
p3961
aVwith
p3962
aVthe
p3963
aVemblem
p3964
aVof
p3965
aVthe
p3966
aVconfederacy
p3967
aVemblazoned
p3968
aVin
p3969
aVits
p3970
aVupper
p3971
aVleft-hand
p3972
aVcorner
p3973
aV.
aa(lp3974
Vwas
p3975
aVthe
p3976
aVmississippi
p3977
aVnag
p3978
aV.
aa(lp3979
Vdirectly
p3980
aVbelow
p3981
aVit
p3982
aVwas
p3983
aVthe
p3984
aVamerican
p3985
aVflag
p3986
aV.
aa(lp3987
Vas
p3988
aVjeremy
p3989
aVand
p3990
aVhis
p3991
aVsister
p3992
aVand
p3993
aVbrothers
p3994
aVhurried
p3995
aVreward
p3996
aVthose
p3997
aVtransposed
p3998
aVflags
p3999
aV,
aVwe
p4000
aVturned
p4001
aVeastward
p4002
aVtoward
p4003
aVour
p4004
aVown
p4005
aVschool
p4006
aV.
aa(lp4007
Vthe
p4008
aVgreat
p4009
aVfaith
p4010
aVelementary
p4011
aVand
p4012
aVsecondary
p4013
aVschool
p4014
aV,
aVone
p4015
aVof
p4016
aVthe
p4017
aVlargest
p4018
aVblack
p4019
aVschools
p4020
aVin
p4021
aVthe
p4022
aVcounty
p4023
aV,
aVwas
p4024
aVa
aVdismal
p4025
aVend
p4026
aVto
p4027
aVan
p4028
aVhour
p4029
aV's
p4030
aVjourney
p4031
aV.
aa(lp4032
Vconsisting
p4033
aVof
p4034
aVfour
p4035
aVweather-beaten
p4036
aVwooden
p4037
aVhouses
p4038
aVon
p4039
aVstilts
p4040
aVof
p4041
aVbrick
p4042
aV.
aa(lp4043
V320
p4044
aVstudents
p4045
aV,
aVseven
p4046
aVteachers
p4047
aV.
aa(lp4048
Va
aVprincipal
p4049
aV.
aa(lp4050
Va
aVcaretaker
p4051
aV,
aVand
p4052
aVthe
p4053
aVcaretaker
p4054
aV's
p4055
aVcow
p4056
aV,
aVwhich
p4057
aVkept
p4058
aVthe
p4059
aVwide
p4060
aVcrabgrass
p4061
aVlawn
p4062
aVsufficiently
p4063
aVclipped
p4064
aVin
p4065
aVspring
p4066
aVand
p4067
aVsummer
p4068
aV,
aVthe
p4069
aVschool
p4070
aVwas
p4071
aVlocated
p4072
aVnear
p4073
aVthree
p4074
aVplantations
p4075
aV,
aVthe
p4076
aVlargest
p4077
aVand
p4078
aVclosest
p4079
aVby
p4080
aVfar
p4081
aVbeing
p4082
aVthe
p4083
aVgranger
p4084
aVplantation
p4085
aV.
aa(lp4086
Vmost
p4087
aVof
p4088
aVthe
p4089
aVstudents
p4090
aVwere
p4091
aVfrom
p4092
aVfamilies
p4093
aVthat
p4094
aVsharecropped
p4095
aVon
p4096
aVgranger
p4097
aVland
p4098
aV,
aVand
p4099
aVthe
p4100
aVothers
p4101
aVmainly
p4102
aVfrom
p4103
aVmontier
p4104
aVand
p4105
aVharrison
p4106
aVplantation
p4107
aVfamilies
p4108
aV.
aa(lp4109
Vbecause
p4110
aVthe
p4111
aVstudents
p4112
aVwere
p4113
aVneeded
p4114
aVin
p4115
aVthe
p4116
aVfields
p4117
aVfrom
p4118
aVearly
p4119
aVspring
p4120
aVwhen
p4121
aVthe
p4122
aVcotton
p4123
aVwas
p4124
aVplanted
p4125
aVuntil
p4126
aVafter
p4127
aVmost
p4128
aVof
p4129
aVthe
p4130
aVcotton
p4131
aVhad
p4132
aVbeen
p4133
aVpicked
p4134
aVin
p4135
aVthe
p4136
aVfall
p4137
aV,
aVthe
p4138
aVschool
p4139
aVadjusted
p4140
aVits
p4141
aVterms
p4142
aVaccordingly
p4143
aV,
aVbeginning
p4144
aVin
p4145
aVoctober
p4146
aVand
p4147
aVdismissing
p4148
aVin
p4149
aVmarch
p4150
aV.
aa(lp4151
Vbut
p4152
aVeven
p4153
aVso
p4154
aV,
aVafter
p4155
aVtoday
p4156
aVa
aVnumber
p4157
aVof
p4158
aVthe
p4159
aVolder
p4160
aVstudents
p4161
aVwould
p4162
aVnot
p4163
aVbe
p4164
aVseen
p4165
aVagain
p4166
aVfor
p4167
aVa
aVmonth
p4168
aVor
p4169
aVtwo
p4170
aV,
aVnot
p4171
aVuntil
p4172
aVthe
p4173
aVlast
p4174
aVpuff
p4175
aVof
p4176
aVcotton
p4177
aVhad
p4178
aVbeen
p4179
aVgleaned
p4180
aVfrom
p4181
aVthe
p4182
aVfields
p4183
aV,
aVand
p4184
aVeventually
p4185
aVmost
p4186
aVwould
p4187
aVdrop
p4188
aVout
p4189
aVof
p4190
aVschool
p4191
aValtogether
p4192
aV.
aa(lp4193
Vbecause
p4194
aVof
p4195
aVthis
p4196
aVthe
p4197
aVclasses
p4198
aVin
p4199
aVthe
p4200
aVhigher
p4201
aVgrades
p4202
aVgrew
p4203
aVsmaller
p4204
aVwith
p4205
aVeach
p4206
aVpassing
p4207
aVyear
p4208
aV.
aa(lp4209
Vthe
p4210
aVclass
p4211
aVbuildings
p4212
aV,
aVwith
p4213
aVtheir
p4214
aVbacks
p4215
aVpractically
p4216
aVagainst
p4217
aVthe
p4218
aVforest
p4219
aVwall
p4220
aV,
aVformed
p4221
aVa
aVsemicircle
p4222
aVfacing
p4223
aVa
aVsmall
p4224
aVone-room
p4225
aVchurch
p4226
aVat
p4227
aVthe
p4228
aVopposite
p4229
aVedge
p4230
aVof
p4231
aVthe
p4232
aVcompound
p4233
aV.
aa(lp4234
Vit
p4235
aVwas
p4236
aVto
p4237
aVthis
p4238
aVchurch
p4239
aVthat
p4240
aVmany
p4241
aVof
p4242
aVthe
p4243
aVschool
p4244
aV's
p4245
aVstudents
p4246
aVand
p4247
aVtheir
p4248
aVparents
p4249
aVbelonged
p4250
aV.
aa(lp4251
Vas
p4252
aVwe
p4253
aVarrived
p4254
aV,
aVthe
p4255
aVenormous
p4256
aViron
p4257
aVbell
p4258
aVin
p4259
aVthe
p4260
aVchurch
p4261
aVbelfry
p4262
aVwas
p4263
aVringing
p4264
aVvigorously
p4265
aV,
aVwarning
p4266
aVthe
p4267
aVmilling
p4268
aVstudents
p4269
aVthat
p4270
aVonly
p4271
aVfive
p4272
aVminutes
p4273
aVof
p4274
aVfreedom
p4275
aVremained
p4276
aV.
aa(lp4277
Vlittle
p4278
aVman
p4279
aVimmediately
p4280
aVpushed
p4281
aVhis
p4282
aVway
p4283
aVacross
p4284
aVthe
p4285
aVlawn
p4286
aVto
p4287
aVthe
p4288
aVwell
p4289
aV.
aa(lp4290
Vstacey
p4291
aVand
p4292
aVt.j.
p4293
aV,
aVignoring
p4294
aVthe
p4295
aVrest
p4296
aVof
p4297
aVus
p4298
aVnow
p4299
aVthat
p4300
aVthey
p4301
aVwere
p4302
aVon
p4303
aVthe
p4304
aVschool
p4305
aVgrounds
p4306
aV,
aVwandered
p4307
aVoff
p4308
aVto
p4309
aVbe
p4310
aVwith
p4311
aVthe
p4312
aVother
p4313
aVseventh-grade
p4314
aVboys
p4315
aV,
aVand
p4316
aVchristopher-john
p4317
aVand
p4318
aVclaude
p4319
aVrushed
p4320
aVto
p4321
aVreunite
p4322
aVwith
p4323
aVtheir
p4324
aVclassmates
p4325
aVof
p4326
aVlast
p4327
aVyear
p4328
aV.
aa(lp4329
Vleft
p4330
aValone
p4331
aV,
aVi
aVdragged
p4332
aVslowly
p4333
aVto
p4334
aVthe
p4335
aVbuilding
p4336
aVthat
p4337
aVheld
p4338
aVthe
p4339
aVfirst
p4340
aVfour
p4341
aVgrades
p4342
aVand
p4343
aVsat
p4344
aVon
p4345
aVthe
p4346
aVbottom
p4347
aVstep
p4348
aV.
aa(lp4349
Vplopping
p4350
aVmy
p4351
aVpencils
p4352
aVand
p4353
aVnotebook
p4354
aVinto
p4355
aVthe
p4356
aVdirt
p4357
aV,
aVi
aVpropped
p4358
aVmy
p4359
aVelbows
p4360
aVon
p4361
aVmy
p4362
aVknees
p4363
aVand
p4364
aVrested
p4365
aVmy
p4366
aVchin
p4367
aVin
p4368
aVthe
p4369
aVpalms
p4370
aVof
p4371
aVmy
p4372
aVhands
p4373
aV.
aa(lp4374
V'hey
p4375
aV,
aVcassie
p4376
aV,
aV'
aVsaid
p4377
aVmary
p4378
aVlou
p4379
aVwellever
p4380
aV,
aVthe
p4381
aVprincipal
p4382
aV's
p4383
aVdaughter
p4384
aV,
aVas
p4385
aVshe
p4386
aVflounced
p4387
aVby
p4388
aVin
p4389
aVa
aVnew
p4390
aVyellow
p4391
aVdress
p4392
aV.
aa(lp4393
V'hey
p4394
aV,
aVyourself
p4395
aV,
aV'
aVi
aVsaid
p4396
aV,
aVscowling
p4397
aVso
p4398
aVferociously
p4399
aVthat
p4400
aVshe
p4401
aVkept
p4402
aVon
p4403
aVwalking
p4404
aV.
aa(lp4405
Vi
aVstared
p4406
aVafter
p4407
aVher
p4408
aVa
aVmoment
p4409
aVnoting
p4410
aVthat
p4411
aVshe
p4412
aVwould
p4413
aVhave
p4414
aVon
p4415
aVa
aVnew
p4416
aVdress
p4417
aV.
aa(lp4418
Vcertainly
p4419
aVno
p4420
aVone
p4421
aVelse
p4422
aVdid
p4423
aV.
aa(lp4424
Vpatches
p4425
aVon
p4426
aVfaded
p4427
aVpants
p4428
aVand
p4429
aVdresses
p4430
aVabounded
p4431
aVon
p4432
aVboys
p4433
aVand
p4434
aVgirls
p4435
aVcome
p4436
aVso
p4437
aVrecently
p4438
aVfrom
p4439
aVthe
p4440
aVheat
p4441
aVof
p4442
aVthe
p4443
aVcotton
p4444
aVfields
p4445
aV.
aa(lp4446
Vgirls
p4447
aVstood
p4448
aVawkwardly
p4449
aV,
aVafraid
p4450
aVto
p4451
aVsit
p4452
aV,
aVand
p4453
aVboys
p4454
aVpulled
p4455
aVrestlessly
p4456
aVat
p4457
aVstarched
p4458
aV,
aVhighbuttoned
p4459
aVcollars
p4460
aV.
aa(lp4461
Vthose
p4462
aVstudents
p4463
aVfortunate
p4464
aVenough
p4465
aVto
p4466
aVhave
p4467
aVshoes
p4468
aVhopped
p4469
aVfrom
p4470
aVone
p4471
aVpinched
p4472
aVfoot
p4473
aVto
p4474
aVthe
p4475
aVother
p4476
aV.
aa(lp4477
Vtonight
p4478
aVthe
p4479
aVsunday
p4480
aVclothes
p4481
aVwould
p4482
aVbe
p4483
aVwrapped
p4484
aVin
p4485
aVnewspaper
p4486
aVand
p4487
aVhung
p4488
aVfor
p4489
aVsunday
p4490
aVand
p4491
aVthe
p4492
aVshoes
p4493
aVwould
p4494
aVbe
p4495
aVpacked
p4496
aVaway
p4497
aVto
p4498
aVbe
p4499
aVbrought
p4500
aVout
p4501
aVagain
p4502
aVonly
p4503
aVwhen
p4504
aVthe
p4505
aVweather
p4506
aVturned
p4507
aVso
p4508
aVcold
p4509
aVthat
p4510
aVbare
p4511
aVfeet
p4512
aVcould
p4513
aVno
p4514
aVlonger
p4515
aVtraverse
p4516
aVthe
p4517
aVfrozen
p4518
aVroads
p4519
aV:
aVbut
p4520
aVfor
p4521
aVtoday
p4522
aVwe
p4523
aVall
p4524
aVsuffered
p4525
aV.
aa(lp4526
Von
p4527
aVthe
p4528
aVfar
p4529
aVside
p4530
aVof
p4531
aVthe
p4532
aVlawn
p4533
aVi
aVspied
p4534
aVmoe
p4535
aVturner
p4536
aVspeeding
p4537
aVtoward
p4538
aVthe
p4539
aVseventh-grade-class
p4540
aVbuilding
p4541
aV,
aVand
p4542
aVwondered
p4543
aVat
p4544
aVhis
p4545
aVenergy
p4546
aV.
aa(lp4547
Vmoe
p4548
aVwas
p4549
aVone
p4550
aVof
p4551
aVstacey
p4552
aV's
p4553
aVfriends
p4554
aV.
aa(lp4555
Vhe
p4556
aVlived
p4557
aVon
p4558
aVthe
p4559
aVmontier
p4560
aVplantation
p4561
aV,
aVa
aVthree-and-a-half-hour
p4562
aVwalk
p4563
aVfrom
p4564
aVthe
p4565
aVschool
p4566
aV.
aa(lp4567
Vbecause
p4568
aVof
p4569
aVthe
p4570
aVdistance
p4571
aV.
aa(lp4572
Vmany
p4573
aVchildren
p4574
aVfrom
p4575
aVthe
p4576
aVmontier
p4577
aVplantation
p4578
aVdid
p4579
aVnot
p4580
aVcome
p4581
aVto
p4582
aVgreat
p4583
aVfaith
p4584
aVafter
p4585
aVthey
p4586
aVhad
p4587
aVfinished
p4588
aVthe
p4589
aVfour-year
p4590
aVschool
p4591
aVnear
p4592
aVsmellings
p4593
aVcreek
p4594
aV.
aa(lp4595
Vbut
p4596
aVthere
p4597
aVwere
p4598
aVsome
p4599
aVgirls
p4600
aVand
p4601
aVboys
p4602
aVlike
p4603
aVmoe
p4604
aVwho
p4605
aVmade
p4606
aVthe
p4607
aVtrek
p4608
aVdaily
p4609
aV,
aVleaving
p4610
aVtheir
p4611
aVhomes
p4612
aVwhile
p4613
aVthe
p4614
aVsky
p4615
aVwas
p4616
aVblack
p4617
aVand
p4618
aVnot
p4619
aVreturning
p4620
aVuntil
p4621
aVall
p4622
aVwas
p4623
aVblackness
p4624
aVagain
p4625
aV.
aa(lp4626
Vi
aVfor
p4627
aVone
p4628
aVwas
p4629
aVcertainly
p4630
aVglad
p4631
aVthat
p4632
aVi
aVdid
p4633
aVn't
p4634
aVlive
p4635
aVthat
p4636
aVfar
p4637
aVaway
p4638
aV.
aa(lp4639
Vi
aVdo
p4640
aVn't
p4641
aVthink
p4642
aVmy
p4643
aVfeet
p4644
aVwould
p4645
aVhave
p4646
aVwanted
p4647
aVthat
p4648
aVbadly
p4649
aVfor
p4650
aVme
p4651
aVto
p4652
aVbe
p4653
aVeducated
p4654
aV.
aa(lp4655
Vthe
p4656
aVchiming
p4657
aVof
p4658
aVthe
p4659
aVsecond
p4660
aVbell
p4661
aVbegan
p4662
aV.
aa(lp4663
Vi
aVstood
p4664
aVup
p4665
aVdusting
p4666
aVmy
p4667
aVbottom
p4668
aVas
p4669
aVthe
p4670
aVfirst
p4671
aV,
aVsecond
p4672
aV,
aVthird
p4673
aV,
aVand
p4674
aVfourth
p4675
aVgraders
p4676
aVcrowded
p4677
aVup
p4678
aVthe
p4679
aVstairs
p4680
aVinto
p4681
aVthe
p4682
aVhallway
p4683
aV.
aa(lp4684
Vlittle
p4685
aVman
p4686
aVflashed
p4687
aVproudly
p4688
aVpast
p4689
aV,
aVhis
p4690
aVface
p4691
aVand
p4692
aVhands
p4693
aVclean
p4694
aVand
p4695
aVhis
p4696
aVblack
p4697
aVshoes
p4698
aVshining
p4699
aVagain
p4700
aV.
aa(lp4701
Vi
aVglanced
p4702
aVdown
p4703
aVat
p4704
aVmy
p4705
aVown
p4706
aVshoes
p4707
aVpowdered
p4708
aVred
p4709
aVand
p4710
aV,
aVraising
p4711
aVmy
p4712
aVright
p4713
aVfoot
p4714
aV,
aVrubbed
p4715
aVit
p4716
aVagainst
p4717
aVthe
p4718
aVback
p4719
aVof
p4720
aVmy
p4721
aVleft
p4722
aVleg
p4723
aV,
aVthen
p4724
aVreversed
p4725
aVthe
p4726
aVprocedure
p4727
aV.
aa(lp4728
Vas
p4729
aVthe
p4730
aVlast
p4731
aVgong
p4732
aVof
p4733
aVthe
p4734
aVbell
p4735
aVreverberated
p4736
aVacross
p4737
aVthe
p4738
aVcompound
p4739
aV,
aVi
aVswooped
p4740
aVup
p4741
aVmy
p4742
aVpencils
p4743
aVand
p4744
aVnotebook
p4745
aVand
p4746
aVran
p4747
aVinside
p4748
aV.
aa(lp4749
Va
aVhallway
p4750
aVextended
p4751
aVfrom
p4752
aVthe
p4753
aVfront
p4754
aVto
p4755
aVthe
p4756
aVback
p4757
aVdoor
p4758
aVof
p4759
aVthe
p4760
aVbuilding
p4761
aV.
aa(lp4762
Von
p4763
aVeither
p4764
aVside
p4765
aVof
p4766
aVthe
p4767
aVhallway
p4768
aVwere
p4769
aVtwo
p4770
aVdoor-
p4771
aVways
p4772
aV.
aa(lp4773
Vboth
p4774
aVleading
p4775
aVinto
p4776
aVthe
p4777
aVsame
p4778
aVlarge
p4779
aVroom
p4780
aVwhich
p4781
aVwas
p4782
aVdivided
p4783
aVinto
p4784
aVtwo
p4785
aVclassrooms
p4786
aVby
p4787
aVa
aVheavy
p4788
aVcanvas
p4789
aVcurtain
p4790
aV.
aa(lp4791
Vthe
p4792
aVsecond
p4793
aVand
p4794
aVthird
p4795
aVgrades
p4796
aVwere
p4797
aVon
p4798
aVthe
p4799
aVleft
p4800
aV,
aVthe
p4801
aVfirst
p4802
aVand
p4803
aVfourth
p4804
aVgrades
p4805
aVon
p4806
aVthe
p4807
aVright
p4808
aV.
aa(lp4809
Vi
aVhurried
p4810
aVto
p4811
aVthe
p4812
aVrear
p4813
aVof
p4814
aVthe
p4815
aVbuilding
p4816
aV,
aVturned
p4817
aVto
p4818
aVthe
p4819
aVright
p4820
aV,
aVand
p4821
aVslid
p4822
aVinto
p4823
aVa
aVthird-row
p4824
aVbench
p4825
aVoccupied
p4826
aVby
p4827
aVgracey
p4828
aVpearson
p4829
aVand
p4830
aValma
p4831
aVscott
p4832
aV.
aa(lp4833
V'you
p4834
aVca
p4835
aVn't
p4836
aVsit
p4837
aVhere
p4838
aV.
aV'
aa(lp4839
Vobjected
p4840
aVgracey
p4841
aV.
aa(lp4842
V'i
p4843
aV'm
p4844
aVsaving
p4845
aVit
p4846
aVfor
p4847
aVmary
p4848
aVlou
p4849
aV.
aa(lp4850
Vi
aVglanced
p4851
aVback
p4852
aVat
p4853
aVmary
p4854
aVlou
p4855
aVwellever
p4856
aV,
aVdepositing
p4857
aVher
p4858
aVlunch
p4859
aVpail
p4860
aVon
p4861
aVa
aVshelf
p4862
aVin
p4863
aVthe
p4864
aVback
p4865
aVof
p4866
aVthe
p4867
aVroom
p4868
aVand
p4869
aVsaid
p4870
aV,
aV'not
p4871
aVany
p4872
aVmore
p4873
aVyou
p4874
aVai
p4875
aVn't
p4876
aV,
aV'
aVmiss
p4877
aVdaisy
p4878
aVcrocker
p4879
aV,
aVyellow
p4880
aVand
p4881
aVbuckeyed
p4882
aV,
aVglared
p4883
aVdown
p4884
aVat
p4885
aVme
p4886
aVfrom
p4887
aVthe
p4888
aVmiddle
p4889
aVof
p4890
aVthe
p4891
aVroom
p4892
aVwith
p4893
aVa
aVlook
p4894
aVthat
p4895
aVsaid
p4896
aV,
aV'soooooooo
p4897
aV,
aVit
p4898
aV's
p4899
aVyou
p4900
aV,
aVcassie
p4901
aVlogan
p4902
aV.
aV'
aa(lp4903
Vthen
p4904
aVshe
p4905
aVpursed
p4906
aVher
p4907
aVlips
p4908
aVand
p4909
aVdrew
p4910
aVthe
p4911
aVcurtain
p4912
aValong
p4913
aVthe
p4914
aVrusted
p4915
aViron
p4916
aVrod
p4917
aVand
p4918
aVtucked
p4919
aVit
p4920
aVinto
p4921
aVa
aVwide
p4922
aVloop
p4923
aVin
p4924
aVthe
p4925
aVback
p4926
aVwall
p4927
aV.
aa(lp4928
Vwith
p4929
aVthe
p4930
aVcurtain
p4931
aVdrawn
p4932
aVback
p4933
aV,
aVthe
p4934
aVfirst
p4935
aVgraders
p4936
aVgazed
p4937
aVquizzically
p4938
aVat
p4939
aVus
p4940
aV.
aa(lp4941
Vlittle
p4942
aVman
p4943
aVsat
p4944
aVby
p4945
aVa
aVwindow
p4946
aV,
aVhis
p4947
aVhands
p4948
aVfolded
p4949
aV,
aVpatiently
p4950
aVwaiting
p4951
aVfor
p4952
aVmiss
p4953
aVcrocker
p4954
aVto
p4955
aVspeak
p4956
aV.
aa(lp4957
Vmary
p4958
aVlou
p4959
aVnudged
p4960
aVme
p4961
aV.
aa(lp4962
V'that
p4963
aV's
p4964
aVmy
p4965
aVseat
p4966
aV,
aVcassie
p4967
aVlogan
p4968
aV.
aa(lp4969
V'mary
p4970
aVlou
p4971
aVwellever
p4972
aV,
aV'
aVmiss
p4973
aVcrocker
p4974
aVcalled
p4975
aVprimly
p4976
aV,
aV'have
p4977
aVa
aVseat
p4978
aV.
aV'
aa(lp4979
V'yes
p4980
aV,
aVma'am
p4981
aV,
aV'
aVsaid
p4982
aVmary
p4983
aVlou
p4984
aV,
aVeyeing
p4985
aVme
p4986
aVwith
p4987
aVa
aVlook
p4988
aVof
p4989
aVpure
p4990
aVhate
p4991
aVbefore
p4992
aVturning
p4993
aVaway
p4994
aV.
aa(lp4995
Vmiss
p4996
aVcrocker
p4997
aVwalked
p4998
aVstiffly
p4999
aVto
p5000
aVher
p5001
aVdesk
p5002
aV,
aVwhich
p5003
aVwas
p5004
aVset
p5005
aVon
p5006
aVa
aVtiny
p5007
aVplatform
p5008
aVand
p5009
aVpiled
p5010
aVhigh
p5011
aVwith
p5012
aVbulky
p5013
aVobjects
p5014
aVcovered
p5015
aVby
p5016
aVa
aVtarpaulin
p5017
aV,
aVshe
p5018
aVrapped
p5019
aVthe
p5020
aVdesk
p5021
aVwith
p5022
aVa
aVruler
p5023
aV,
aValthough
p5024
aVthe
p5025
aVroom
p5026
aVwas
p5027
aVperfectly
p5028
aVstill
p5029
aV,
aVand
p5030
aVsaid
p5031
aV,
aV'welcome
p5032
aV,
aVchildren
p5033
aV,
aVto
p5034
aVgreat
p5035
aVfaith
p5036
aVelementary
p5037
aVschool
p5038
aV.
aV'
aa(lp5039
Vturning
p5040
aVslightly
p5041
aVso
p5042
aVthat
p5043
aVshe
p5044
aVstared
p5045
aVsquarely
p5046
aVat
p5047
aVthe
p5048
aVleft
p5049
aVside
p5050
aVof
p5051
aVthe
p5052
aVroom
p5053
aV,
aVshe
p5054
aVcontinued
p5055
aV,
aV'to
p5056
aVall
p5057
aVof
p5058
aVyou
p5059
aVfourth
p5060
aVgraders
p5061
aV,
aVit
p5062
aV's
p5063
aVgood
p5064
aVto
p5065
aVhave
p5066
aVyou
p5067
aVin
p5068
aVmy
p5069
aVclass
p5070
aV.
aa(lp5071
Vi
aV'll
p5072
aVbe
p5073
aVexpecting
p5074
aVmany
p5075
aVgood
p5076
aVand
p5077
aVwonderful
p5078
aVthings
p5079
aVfrom
p5080
aVyou
p5081
aV.
aV'
aa(lp5082
Vthen
p5083
aVaddressing
p5084
aVthe
p5085
aVright
p5086
aVside
p5087
aVof
p5088
aVthe
p5089
aVroom
p5090
aV,
aVshe
p5091
aVsaid
p5092
aV,
aV\u2018and
p5093
aVto
p5094
aVall
p5095
aVour
p5096
aVlittle
p5097
aVfirst
p5098
aVgrade
p5099
aVfriends
p5100
aVonly
p5101
aVtoday
p5102
aVstarting
p5103
aVon
p5104
aVthe
p5105
aVroad
p5106
aVto
p5107
aVknowledge
p5108
aVand
p5109
aVeducation
p5110
aV,
aVmay
p5111
aVyour
p5112
aVtiny
p5113
aVfeet
p5114
aVfind
p5115
aVthe
p5116
aVpathways
p5117
aVof
p5118
aVlearning
p5119
aVsteady
p5120
aVand
p5121
aVforever
p5122
aVbefore
p5123
aVyou
p5124
aV.
aV'
aa(lp5125
Valready
p5126
aVbored
p5127
aV,
aVi
aVstretched
p5128
aVmy
p5129
aVright
p5130
aVarm
p5131
aVon
p5132
aVthe
p5133
aVdesk
p5134
aVand
p5135
aVrested
p5136
aVmy
p5137
aVhead
p5138
aVin
p5139
aVmy
p5140
aVupraised
p5141
aVhand
p5142
aV.
aa(lp5143
Vmiss
p5144
aVcrocker
p5145
aVsmiled
p5146
aVmechanically
p5147
aV,
aVthen
p5148
aVrapped
p5149
aVon
p5150
aVher
p5151
aVdesk
p5152
aVagain
p5153
aV.
aa(lp5154
V'now
p5155
aV,
aVlittle
p5156
aVones
p5157
aV,
aV'
aVshe
p5158
aVsaid
p5159
aV,
aVstill
p5160
aVtalking
p5161
aVto
p5162
aVthe
p5163
aVfirst
p5164
aVgrade
p5165
aV,
aV'your
p5166
aVteacher
p5167
aV,
aVmiss
p5168
aVdavis
p5169
aV,
aVhas
p5170
aVbeen
p5171
aVheld
p5172
aVup
p5173
aVin
p5174
aVjackson
p5175
aVfor
p5176
aVa
aVfew
p5177
aVdays
p5178
aVso
p5179
aVi
aV'll
p5180
aVhave
p5181
aVthe
p5182
aVpleasure
p5183
aVof
p5184
aVsprinkling
p5185
aVyour
p5186
aVlittle
p5187
aVminds
p5188
aVwith
p5189
aVthe
p5190
aVfirst
p5191
aVrays
p5192
aVof
p5193
aVknowledge
p5194
aV.
aV'
aa(lp5195
Vshe
p5196
aVbeamed
p5197
aVdown
p5198
aVupon
p5199
aVthem
p5200
aVas
p5201
aVif
p5202
aVshe
p5203
aVexpected
p5204
aVto
p5205
aVbe
p5206
aVapplauded
p5207
aVfor
p5208
aVthis
p5209
aVbit
p5210
aVof
p5211
aVnews
p5212
aV,
aVthen
p5213
aVwith
p5214
aVa
aVswoop
p5215
aVof
p5216
aVher
p5217
aVlarge
p5218
aVeyes
p5219
aVto
p5220
aVinclude
p5221
aVthe
p5222
aVfourth
p5223
aVgraders
p5224
aV,
aVshe
p5225
aVwent
p5226
aVon
p5227
aV.
aa(lp5228
V'now
p5229
aVsince
p5230
aVthere
p5231
aV's
p5232
aVonly
p5233
aVone
p5234
aVof
p5235
aVme
p5236
aV,
aVwe
p5237
aVshall
p5238
aVhave
p5239
aVto
p5240
aVsacrifice
p5241
aVfor
p5242
aVthe
p5243
aVnext
p5244
aVfew
p5245
aVdays
p5246
aV.
aa(lp5247
Vwe
p5248
aVshall
p5249
aVwork
p5250
aV,
aVwork
p5251
aV,
aVwork
p5252
aV.
aa(lp5253
Vbut
p5254
aVwe
p5255
aVshall
p5256
aVhave
p5257
aVto
p5258
aVwork
p5259
aVlike
p5260
aVlittle
p5261
aVchristian
p5262
aVboys
p5263
aVand
p5264
aVgirls
p5265
aVand
p5266
aVshare
p5267
aV,
aVshare
p5268
aV,
aVshare
p5269
aV.
aa(lp5270
Vnow
p5271
aVare
p5272
aVwe
p5273
aVwilling
p5274
aVto
p5275
aVdo
p5276
aVthat
p5277
aV!
aV'
aa(lp5278
V'yes
p5279
aV'm
p5280
aV.
aa(lp5281
Vmiz
p5282
aVcrocker
p5283
aV,
aV'
aVthe
p5284
aVchildren
p5285
aVchorused
p5286
aV.
aa(lp5287
Vbut
p5288
aVi
aVremained
p5289
aVsilent
p5290
aV.
aa(lp5291
Vi
aVnever
p5292
aVdid
p5293
aVapprove
p5294
aVof
p5295
aVgroup
p5296
aVresponses
p5297
aV.
aa(lp5298
Vadjusting
p5299
aVmy
p5300
aVhead
p5301
aVin
p5302
aVmy
p5303
aVhand
p5304
aV,
aVi
aVsighed
p5305
aVheavily
p5306
aV,
aVmy
p5307
aVmind
p5308
aVon
p5309
aVthe
p5310
aVburning
p5311
aVof
p5312
aVthe
p5313
aVberrys
p5314
aV.
aa(lp5315
V'cassie
p5316
aVlogan
p5317
aV!
aV'
aa(lp5318
Vi
aVlooked
p5319
aVup
p5320
aV,
aVstartled
p5321
aV.
aa(lp5322
V'cassie
p5323
aVlogan
p5324
aV!
aV'
aa(lp5325
V'yes
p5326
aV,
aVma'am
p5327
aV!
aV'
aa(lp5328
Vi
aVjumped
p5329
aVup
p5330
aVquickly
p5331
aVto
p5332
aVface
p5333
aVmiss
p5334
aVcrocker
p5335
aV.
aa(lp5336
V'are
p5337
aVn't
p5338
aVyou
p5339
aVwilling
p5340
aVto
p5341
aVwork
p5342
aVand
p5343
aVshare
p5344
aV!
aV'
aa(lp5345
V'yes'm.\u2019
p5346
aV\u2018then
p5347
aVsay
p5348
aVso
p5349
aV!
aV'
aa(lp5350
V'yes
p5351
aV'm
p5352
aV,
aV'
aVi
aVmurmured
p5353
aV,
aVsliding
p5354
aVback
p5355
aVinto
p5356
aVmy
p5357
aVseat
p5358
aVas
p5359
aVmary
p5360
aVlou
p5361
aV.
aa(lp5362
Vgracey
p5363
aV,
aVand
p5364
aValma
p5365
aVgiggled
p5366
aV.
aa(lp5367
Vhere
p5368
aVit
p5369
aVwas
p5370
aVonly
p5371
aVfive
p5372
aVminutes
p5373
aVinto
p5374
aVthe
p5375
aVnew
p5376
aVschool
p5377
aVyear
p5378
aVand
p5379
aValready
p5380
aVi
aVwas
p5381
aVin
p5382
aVtrouble
p5383
aV.
aa(lp5384
Vby
p5385
aVten
p5386
aVo'clock
p5387
aV,
aVmiss
p5388
aVcrocker
p5389
aVhad
p5390
aVrearranged
p5391
aVour
p5392
aVseating
p5393
aVand
p5394
aVwritten
p5395
aVour
p5396
aVnames
p5397
aVon
p5398
aVher
p5399
aVseating
p5400
aVchart
p5401
aV.
aa(lp5402
Vi
aVwas
p5403
aVstill
p5404
aVsitting
p5405
aVbeside
p5406
aVgracey
p5407
aVand
p5408
aValma
p5409
aVbut
p5410
aVwe
p5411
aVhad
p5412
aVbeen
p5413
aVmoved
p5414
aVfrom
p5415
aVthe
p5416
aVthird
p5417
aVto
p5418
aVthe
p5419
aVfirst
p5420
aVrow
p5421
aVin
p5422
aVfront
p5423
aVof
p5424
aVa
aVsmall
p5425
aVpotbellied
p5426
aVstove
p5427
aV.
aa(lp5428
Valthough
p5429
aVbeing
p5430
aVeyeball
p5431
aVto
p5432
aVeyeball
p5433
aVwith
p5434
aVmiss
p5435
aVcrocker
p5436
aVwas
p5437
aVnothing
p5438
aVto
p5439
aVlook
p5440
aVforward
p5441
aVto
p5442
aV,
aVthe
p5443
aVprospect
p5444
aVof
p5445
aVbeing
p5446
aVwarm
p5447
aVonce
p5448
aVthe
p5449
aVcold
p5450
aVweather
p5451
aVset
p5452
aVin
p5453
aVwas
p5454
aVnothing
p5455
aVto
p5456
aVbe
p5457
aVsneezed
p5458
aVat
p5459
aVeither
p5460
aV,
aVso
p5461
aVi
aVresolved
p5462
aVto
p5463
aVmake
p5464
aVthe
p5465
aVbest
p5466
aVof
p5467
aVmy
p5468
aVrather
p5469
aVdubious
p5470
aVposition
p5471
aV.
aa(lp5472
Vnow
p5473
aVmiss
p5474
aVcrocker
p5475
aVmade
p5476
aVa
aVstartling
p5477
aVannouncement
p5478
aV:
aV'this
p5479
aVyear
p5480
aVwe
p5481
aVwould
p5482
aVall
p5483
aVhave
p5484
aVbooks
p5485
aV.
aa(lp5486
Veveryone
p5487
aVgasped
p5488
aV,
aVfor
p5489
aVmost
p5490
aVof
p5491
aVthe
p5492
aVstudents
p5493
aVhad
p5494
aVnever
p5495
aVhandled
p5496
aVa
aVbook
p5497
aVat
p5498
aVall
p5499
aVbesides
p5500
aVthe
p5501
aVfamily
p5502
aVbible
p5503
aV.
aa(lp5504
Vi
aVadmit
p5505
aVthat
p5506
aVeven
p5507
aVi
aVwas
p5508
aVsomewhat
p5509
aVexcited
p5510
aV.
aa(lp5511
Valthough
p5512
aVmama
p5513
aVhad
p5514
aVseveral
p5515
aVbooks
p5516
aV.
aa(lp5517
Vi
aVhad
p5518
aVnever
p5519
aVhad
p5520
aVone
p5521
aVof
p5522
aVmy
p5523
aVvery
p5524
aVown
p5525
aV.
aa(lp5526
V'now
p5527
aVwe
p5528
aV're
p5529
aVvery
p5530
aVfortunate
p5531
aVto
p5532
aVget
p5533
aVthese
p5534
aVreaders
p5535
aV,
aV'
aVmiss
p5536
aVcrocker
p5537
aVexplained
p5538
aVwhile
p5539
aVwe
p5540
aVeagerly
p5541
aVawaited
p5542
aVthe
p5543
aVunveiling
p5544
aV.
aa(lp5545
Vthe
p5546
aVcounty
p5547
aVsuperintendent
p5548
aVof
p5549
aVschools
p5550
aVhimself
p5551
aVbrought
p5552
aVthese
p5553
aVbooks
p5554
aVdown
p5555
aVhere
p5556
aVfor
p5557
aVour
p5558
aVuse
p5559
aVand
p5560
aVwe
p5561
aVmust
p5562
aVtake
p5563
aVextra-good
p5564
aVcare
p5565
aVof
p5566
aVthem
p5567
aV.
aV'
aa(lp5568
Vshe
p5569
aVmoved
p5570
aVtoward
p5571
aVher
p5572
aVdesk
p5573
aV.
aa(lp5574
V'so
p5575
aVlet
p5576
aV's
p5577
aVall
p5578
aVpromise
p5579
aVthat
p5580
aVwe
p5581
aV'll
p5582
aVtake
p5583
aVthe
p5584
aVbest
p5585
aVcare
p5586
aVpossible
p5587
aVof
p5588
aVthese
p5589
aVnew
p5590
aVbooks
p5591
aV.
aV'
aa(lp5592
Vshe
p5593
aVstared
p5594
aVdown
p5595
aV,
aVexpecting
p5596
aVour
p5597
aVresponse
p5598
aV.
aa(lp5599
V'all
p5600
aVright
p5601
aV,
aVall
p5602
aVtogether
p5603
aV,
aVlet
p5604
aV's
p5605
aVrepeat
p5606
aV,
aV``
p5607
aVwe
p5608
aVpromise
p5609
aVto
p5610
aVtake
p5611
aVgood
p5612
aVcare
p5613
aVof
p5614
aVour
p5615
aVnew
p5616
aVbooks
p5617
aV.
aV''
p5618
aV'
aa(lp5619
Vshe
p5620
aVlooked
p5621
aVsharply
p5622
aVat
p5623
aVme
p5624
aVas
p5625
aVshe
p5626
aVspoke
p5627
aV.
aa(lp5628
V'we
p5629
aVpromise
p5630
aVto
p5631
aVtake
p5632
aVgood
p5633
aVcare
p5634
aVof
p5635
aVour
p5636
aVnew
p5637
aVbooks
p5638
aV!
aV'
aa(lp5639
V'fine
p5640
aV,
aV'
aVmiss
p5641
aVcrocker
p5642
aVbeamed
p5643
aV,
aVthen
p5644
aVproudly
p5645
aVthrew
p5646
aVback
p5647
aVthe
p5648
aVtarpaulin
p5649
aV.
aa(lp5650
Vsitting
p5651
aVso
p5652
aVclose
p5653
aVto
p5654
aVthe
p5655
aVdesk
p5656
aV,
aVi
aVcould
p5657
aVsee
p5658
aVthat
p5659
aVthe
p5660
aVcovers
p5661
aVof
p5662
aVthe
p5663
aVbooks
p5664
aV,
aVa
aVmotley
p5665
aVred
p5666
aV,
aVwere
p5667
aVbadly
p5668
aVworn
p5669
aVand
p5670
aVthat
p5671
aVthe
p5672
aVgray
p5673
aVedges
p5674
aVof
p5675
aVthe
p5676
aVpages
p5677
aVhad
p5678
aVbeen
p5679
aVmarred
p5680
aVby
p5681
aVpencils
p5682
aV,
aVcrayons
p5683
aV,
aVand
p5684
aVink
p5685
aV.
aa(lp5686
Vmy
p5687
aVanticipation
p5688
aVat
p5689
aVhaving
p5690
aVmy
p5691
aVown
p5692
aVbook
p5693
aVebbed
p5694
aVto
p5695
aVa
aVsinking
p5696
aVdisappointment
p5697
aV.
aa(lp5698
Vbut
p5699
aVmiss
p5700
aVcrocker
p5701
aVcontinued
p5702
aVto
p5703
aVbeam
p5704
aVas
p5705
aVshe
p5706
aVcalled
p5707
aVeach
p5708
aVfourth
p5709
aVgrader
p5710
aVto
p5711
aVher
p5712
aVdesk
p5713
aVand
p5714
aV,
aVrecording
p5715
aVa
aVnumber
p5716
aVin
p5717
aVher
p5718
aVroll
p5719
aVbook
p5720
aV,
aVhanded
p5721
aVhim
p5722
aVor
p5723
aVher
p5724
aVa
aVbook
p5725
aV.
aa(lp5726
Vas
p5727
aVi
aVreturned
p5728
aVfrom
p5729
aVmy
p5730
aVtrip
p5731
aVto
p5732
aVher
p5733
aVdesk
p5734
aV,
aVi
aVnoticed
p5735
aVthe
p5736
aVfirst
p5737
aVgraders
p5738
aVanxiously
p5739
aVwatching
p5740
aVthe
p5741
aVdisappearing
p5742
aVpile
p5743
aV.
aa(lp5744
Vmiss
p5745
aVcrocker
p5746
aVmust
p5747
aVhave
p5748
aVnoticed
p5749
aVthem
p5750
aVtoo
p5751
aV,
aVfor
p5752
aVas
p5753
aVi
aVsat
p5754
aVdown
p5755
aVshe
p5756
aVsaid
p5757
aV,
aV'do
p5758
aVn't
p5759
aVworry
p5760
aV,
aVlittle
p5761
aVones
p5762
aV,
aVthere
p5763
aVare
p5764
aVplenty
p5765
aVof
p5766
aVreaders
p5767
aVfor
p5768
aVyou
p5769
aVtoo
p5770
aV.
aa(lp5771
Vsee
p5772
aVthere
p5773
aVon
p5774
aVmiss
p5775
aVdavis
p5776
aV's
p5777
aVdesk
p5778
aV.
aV'
aa(lp5779
Vwide
p5780
aVeyes
p5781
aVturned
p5782
aVto
p5783
aVthe
p5784
aVcovered
p5785
aVteacher
p5786
aV's
p5787
aVplatform
p5788
aVdirectly
p5789
aVin
p5790
aVfront
p5791
aVof
p5792
aVthem
p5793
aVand
p5794
aVan
p5795
aVaudible
p5796
aVsigh
p5797
aVof
p5798
aVrelief
p5799
aVswelled
p5800
aVin
p5801
aVthe
p5802
aVroom
p5803
aV.
aa(lp5804
Vi
aVglanced
p5805
aVacross
p5806
aVat
p5807
aVlittle
p5808
aVman
p5809
aV,
aVhis
p5810
aVface
p5811
aVlit
p5812
aVin
p5813
aVeager
p5814
aVexcitement
p5815
aV.
aa(lp5816
Vi
aVknew
p5817
aVthat
p5818
aVhe
p5819
aVcould
p5820
aVnot
p5821
aVsee
p5822
aVthe
p5823
aVsoiled
p5824
aVcovers
p5825
aVor
p5826
aVthe
p5827
aVmarred
p5828
aVpages
p5829
aVfrom
p5830
aVwhere
p5831
aVhe
p5832
aVsat
p5833
aV,
aVand
p5834
aVeven
p5835
aVthough
p5836
aVhis
p5837
aVpenchant
p5838
aVfor
p5839
aVcleanliness
p5840
aVwas
p5841
aVoften
p5842
aVannoying
p5843
aV,
aVi
aVdid
p5844
aVnot
p5845
aVlike
p5846
aVto
p5847
aVthink
p5848
aVof
p5849
aVhis
p5850
aVdisappointment
p5851
aVwhen
p5852
aVhe
p5853
aVsaw
p5854
aVthe
p5855
aVbooks
p5856
aVas
p5857
aVthey
p5858
aVreally
p5859
aVwere
p5860
aV.
aa(lp5861
Vbut
p5862
aVthere
p5863
aVwas
p5864
aVnothing
p5865
aVthat
p5866
aVi
aVcould
p5867
aVdo
p5868
aVabout
p5869
aVit
p5870
aV,
aVso
p5871
aVi
aVopened
p5872
aVmy
p5873
aVbook
p5874
aVto
p5875
aVits
p5876
aVcenter
p5877
aVand
p5878
aVbegan
p5879
aVbrowsing
p5880
aVthrough
p5881
aVthe
p5882
aVspotted
p5883
aVpages
p5884
aV.
aa(lp5885
Vgirls
p5886
aVwith
p5887
aVblond
p5888
aVbraids
p5889
aVand
p5890
aVboys
p5891
aVwith
p5892
aVblue
p5893
aVeyes
p5894
aVstared
p5895
aVup
p5896
aVat
p5897
aVme
p5898
aV.
aa(lp5899
Vi
aVfound
p5900
aVa
aVstory
p5901
aVabout
p5902
aVa
aVboy
p5903
aVand
p5904
aVhis
p5905
aVdog
p5906
aVlost
p5907
aVin
p5908
aVa
aVcave
p5909
aVand
p5910
aVbegan
p5911
aVreading
p5912
aVwhile
p5913
aVmiss
p5914
aVcrocker
p5915
aV's
p5916
aVvoice
p5917
aVdroned
p5918
aVon
p5919
aVmonotonously
p5920
aV.
aa(lp5921
Vsuddenly
p5922
aVi
aVgrew
p5923
aVconscious
p5924
aVof
p5925
aVa
aVbreak
p5926
aVin
p5927
aVthat
p5928
aVmonotonous
p5929
aVtone
p5930
aVand
p5931
aVi
aVlooked
p5932
aVup
p5933
aV.
aa(lp5934
Vmiss
p5935
aVcrocker
p5936
aVwas
p5937
aVsitting
p5938
aVat
p5939
aVmiss
p5940
aVdavis
p5941
aV's
p5942
aVdesk
p5943
aVwith
p5944
aVthe
p5945
aVfirst-grade
p5946
aVbooks
p5947
aVstacked
p5948
aVbefore
p5949
aVher
p5950
aV,
aVstaring
p5951
aVfiercely
p5952
aVdown
p5953
aVat
p5954
aVlittle
p5955
aVman
p5956
aV,
aVwho
p5957
aVwas
p5958
aVpushing
p5959
aVa
aVbook
p5960
aVback
p5961
aVupon
p5962
aVthe
p5963
aVdesk
p5964
aV.
aa(lp5965
V'what
p5966
aV's
p5967
aVthat
p5968
aVyou
p5969
aVsaid
p5970
aV,
aVclayton
p5971
aVchester
p5972
aVlogan
p5973
aV!
aV'
aa(lp5974
Vshe
p5975
aVasked
p5976
aV.
aa(lp5977
Vthe
p5978
aVroom
p5979
aVbecame
p5980
aVgravely
p5981
aVsilent
p5982
aV.
aa(lp5983
Veveryone
p5984
aVknew
p5985
aVthat
p5986
aVlittle
p5987
aVman
p5988
aVwas
p5989
aVin
p5990
aVbig
p5991
aVtrouble
p5992
aVfor
p5993
aVno
p5994
aVone
p5995
aV,
aVbut
p5996
aVno
p5997
aVone
p5998
aV,
aVever
p5999
aVcalled
p6000
aVlittle
p6001
aVman
p6002
aV'clayton
p6003
aVchester
p6004
aV'
aVunless
p6005
aVshe
p6006
aVor
p6007
aVhe
p6008
aVmeant
p6009
aVserious
p6010
aVbusiness
p6011
aV.
aa(lp6012
Vlittle
p6013
aVman
p6014
aVknew
p6015
aVthis
p6016
aVtoo
p6017
aV.
aa(lp6018
Vhis
p6019
aVlips
p6020
aVparted
p6021
aVslightly
p6022
aVas
p6023
aVhe
p6024
aVtook
p6025
aVhis
p6026
aVhands
p6027
aVfrom
p6028
aVthe
p6029
aVbook
p6030
aV.
aa(lp6031
Vhe
p6032
aVquivered
p6033
aV,
aVbut
p6034
aVhe
p6035
aVdid
p6036
aVnot
p6037
aVtake
p6038
aVhis
p6039
aVeyes
p6040
aVfrom
p6041
aVmiss
p6042
aVcrocker
p6043
aV.
aa(lp6044
V'i
p6045
aV\u2013i
p6046
aVsaid
p6047
aVmay
p6048
aVi
aVhave
p6049
aVanother
p6050
aVbook
p6051
aVplease
p6052
aV,
aVma'am
p6053
aV,
aV'
aVhe
p6054
aVsqueaked
p6055
aV.
aa(lp6056
V'that
p6057
aVone
p6058
aV's
p6059
aVdirty
p6060
aV.
aV'
aa(lp6061
V'dirty
p6062
aV!
aV'
aa(lp6063
Vmiss
p6064
aVcrocker
p6065
aVechoed
p6066
aV,
aVappalled
p6067
aVby
p6068
aVsuch
p6069
aVtemerity
p6070
aV.
aa(lp6071
Vshe
p6072
aVstood
p6073
aVup
p6074
aV,
aVgazing
p6075
aVdown
p6076
aVupon
p6077
aVlittle
p6078
aVman
p6079
aVlike
p6080
aVa
aVbony
p6081
aVgiant
p6082
aV,
aVbut
p6083
aVlittle
p6084
aVman
p6085
aVraised
p6086
aVhis
p6087
aVhead
p6088
aVand
p6089
aVcontinued
p6090
aVto
p6091
aVlook
p6092
aVinto
p6093
aVher
p6094
aVeyes
p6095
aV.
aa(lp6096
V'dirty
p6097
aV!
aa(lp6098
Vand
p6099
aVjust
p6100
aVwho
p6101
aVdo
p6102
aVyou
p6103
aVthink
p6104
aVyou
p6105
aVare
p6106
aV,
aVclayton
p6107
aVchester
p6108
aV!
aa(lp6109
Vhere
p6110
aVthe
p6111
aVcounty
p6112
aVis
p6113
aVgiving
p6114
aVus
p6115
aVthese
p6116
aVwonderful
p6117
aVbooks
p6118
aVduring
p6119
aVthese
p6120
aVhard
p6121
aVtimes
p6122
aVand
p6123
aVyou
p6124
aV're
p6125
aVgoing
p6126
aVto
p6127
aVstand
p6128
aVthere
p6129
aVand
p6130
aVtell
p6131
aVme
p6132
aVthat
p6133
aVthe
p6134
aVbook
p6135
aV's
p6136
aVtoo
p6137
aVdirty
p6138
aV!
aa(lp6139
Vnow
p6140
aVyou
p6141
aVtake
p6142
aVthat
p6143
aVbook
p6144
aVor
p6145
aVget
p6146
aVnothing
p6147
aVat
p6148
aVall
p6149
aVi'
p6150
aVlittle
p6151
aVman
p6152
aVlowered
p6153
aVhis
p6154
aVeyes
p6155
aVand
p6156
aVsaid
p6157
aVnothing
p6158
aVas
p6159
aVhe
p6160
aVstared
p6161
aVat
p6162
aVthe
p6163
aVbook
p6164
aV,
aVfor
p6165
aVseveral
p6166
aVmoments
p6167
aVhe
p6168
aVstood
p6169
aVthere
p6170
aV,
aVhis
p6171
aVface
p6172
aVbarely
p6173
aVvisible
p6174
aVabove
p6175
aVthe
p6176
aVdesk
p6177
aV,
aVthen
p6178
aVhe
p6179
aVturned
p6180
aVand
p6181
aVlooked
p6182
aVat
p6183
aVthe
p6184
aVfew
p6185
aVremaining
p6186
aVbooks
p6187
aVand
p6188
aV,
aVseeming
p6189
aVto
p6190
aVrealize
p6191
aVthat
p6192
aVthey
p6193
aVwere
p6194
aVas
p6195
aVbadly
p6196
aVsoiled
p6197
aVas
p6198
aVthe
p6199
aVone
p6200
aVmiss
p6201
aVcrocker
p6202
aVhad
p6203
aVgiven
p6204
aVhim
p6205
aV.
aa(lp6206
Vhe
p6207
aVlooked
p6208
aVacross
p6209
aVthe
p6210
aVroom
p6211
aVat
p6212
aVme
p6213
aV.
aa(lp6214
Vi
aVnodded
p6215
aVand
p6216
aVlittle
p6217
aVman
p6218
aV,
aVglancing
p6219
aVup
p6220
aVagain
p6221
aVat
p6222
aVmiss
p6223
aVcrocker
p6224
aV,
aVslid
p6225
aVthe
p6226
aVbook
p6227
aVfrom
p6228
aVthe
p6229
aVedge
p6230
aVof
p6231
aVthe
p6232
aVdesk
p6233
aV,
aVand
p6234
aVwith
p6235
aVhis
p6236
aVback
p6237
aVstraight
p6238
aVand
p6239
aVhis
p6240
aVhead
p6241
aVup
p6242
aVreturned
p6243
aVto
p6244
aVhis
p6245
aVseat
p6246
aV.
aa(lp6247
Vmiss
p6248
aVcrocker
p6249
aVsat
p6250
aVdown
p6251
aVagain
p6252
aV.
aa(lp6253
V'some
p6254
aVpeople
p6255
aVaround
p6256
aVhere
p6257
aVseem
p6258
aVto
p6259
aVbe
p6260
aVgiving
p6261
aVthemselves
p6262
aVairs
p6263
aV.
aa(lp6264
Vi\u2019ll
p6265
aVtolerate
p6266
aVno
p6267
aVmore
p6268
aVof
p6269
aVthat
p6270
aV.
aV'
aa(lp6271
Vshe
p6272
aVscowled
p6273
aV.
aa(lp6274
V'sharon
p6275
aVlake
p6276
aV,
aVcome
p6277
aVget
p6278
aVyour
p6279
aVbook
p6280
aV.
aa(lp6281
Vi
aVwatched
p6282
aVlittle
p6283
aVman
p6284
aVas
p6285
aVhe
p6286
aVscooted
p6287
aVinto
p6288
aVhis
p6289
aVseat
p6290
aVbeside
p6291
aVtwo
p6292
aVother
p6293
aVlittle
p6294
aVboys
p6295
aV.
aa(lp6296
Vhe
p6297
aVsat
p6298
aVfor
p6299
aVa
aVwhile
p6300
aVwith
p6301
aVa
aVstony
p6302
aVface
p6303
aVlooking
p6304
aVout
p6305
aVthe
p6306
aVwindow
p6307
aV;
aVthen
p6308
aV,
aVevidently
p6309
aVaccepting
p6310
aVthe
p6311
aVfact
p6312
aVthat
p6313
aVthe
p6314
aVbook
p6315
aVin
p6316
aVfront
p6317
aVof
p6318
aVhim
p6319
aVwas
p6320
aVthe
p6321
aVbest
p6322
aVthat
p6323
aVhe
p6324
aVcould
p6325
aVexpect
p6326
aV,
aVhe
p6327
aVturned
p6328
aVand
p6329
aVopened
p6330
aVit
p6331
aV.
aa(lp6332
Vrut
p6333
aVas
p6334
aVhe
p6335
aVstared
p6336
aVat
p6337
aVthe
p6338
aVbook
p6339
aV's
p6340
aVinside
p6341
aVcover
p6342
aV,
aVhis
p6343
aVface
p6344
aVclouded
p6345
aV,
aVchanging
p6346
aVfrom
p6347
aVsulky
p6348
aVacceptance
p6349
aVto
p6350
aVpuzzlement
p6351
aV.
aa(lp6352
Vhis
p6353
aVbrews
p6354
aVfurrowed
p6355
aV.
aa(lp6356
Vthen
p6357
aVhis
p6358
aVeyes
p6359
aVgrew
p6360
aVwide
p6361
aV,
aVand
p6362
aVsuddenly
p6363
aVhe
p6364
aVsucked
p6365
aVin
p6366
aVhis
p6367
aVbreath
p6368
aVand
p6369
aVsprang
p6370
aVfrom
p6371
aVhis
p6372
aVchair
p6373
aVlike
p6374
aVa
aVwounded
p6375
aVanimal
p6376
aV,
aVhinging
p6377
aVthe
p6378
aVbook
p6379
aVonto
p6380
aVthe
p6381
aVfloor
p6382
aVand
p6383
aVstomping
p6384
aVmadly
p6385
aVupon
p6386
aVit
p6387
aV.
aa(lp6388
Vmiss
p6389
aVcrocker
p6390
aVrushed
p6391
aVto
p6392
aVlittle
p6393
aVman
p6394
aVand
p6395
aVgrabbed
p6396
aVhim
p6397
aVup
p6398
aVin
p6399
aVpowerful
p6400
aVhands
p6401
aV.
aa(lp6402
Vshe
p6403
aVshook
p6404
aVhim
p6405
aVvigorously
p6406
aV,
aVthen
p6407
aVset
p6408
aVhim
p6409
aVon
p6410
aVthe
p6411
aVfloor
p6412
aVagain
p6413
aV,
aV'now
p6414
aV,
aVjust
p6415
aVwhat
p6416
aV's
p6417
aVgotten
p6418
aVinto
p6419
aVyou
p6420
aV,
aVclayton
p6421
aVchester
p6422
aV!
aV'
aa(lp6423
Vbut
p6424
aVlittle
p6425
aVman
p6426
aVsaid
p6427
aVnothing
p6428
aV.
aa(lp6429
Vhe
p6430
aVjust
p6431
aVstood
p6432
aVstaring
p6433
aVdown
p6434
aVat
p6435
aVthe
p6436
aVopen
p6437
aVbook
p6438
aV,
aVshivering
p6439
aVwith
p6440
aVindignant
p6441
aVanger
p6442
aV.
aa(lp6443
V'pick
p6444
aVit
p6445
aVup
p6446
aV,
aV'
aVshe
p6447
aVordered
p6448
aV.
aa(lp6449
V'no
p6450
aV!
aV'
aa(lp6451
Vdefied
p6452
aVlittle
p6453
aVman
p6454
aV.
aa(lp6455
V'no
p6456
aV!
aa(lp6457
Vi
aV'll
p6458
aVgive
p6459
aVyou
p6460
aVten
p6461
aVseconds
p6462
aVto
p6463
aVpick
p6464
aVup
p6465
aVthat
p6466
aVbook
p6467
aV,
aVboy
p6468
aV.
aa(lp6469
Vor
p6470
aVi
aV'm
p6471
aVgoing
p6472
aVto
p6473
aVget
p6474
aVmy
p6475
aVswitch
p6476
aV.
aV'
aa(lp6477
Vlittle
p6478
aVman
p6479
aVbit
p6480
aVhis
p6481
aVlower
p6482
aVlip
p6483
aV,
aVand
p6484
aVi
aVknew
p6485
aVthat
p6486
aVhe
p6487
aVwas
p6488
aVnot
p6489
aVgoing
p6490
aVto
p6491
aVpick
p6492
aVup
p6493
aVthe
p6494
aVbook
p6495
aV.
aa(lp6496
Vrapidly
p6497
aV,
aVi
aVturned
p6498
aVto
p6499
aVthe
p6500
aVinside
p6501
aVcover
p6502
aVof
p6503
aVmy
p6504
aVown
p6505
aVbook
p6506
aVand
p6507
aVsaw
p6508
aVimmediately
p6509
aVwhat
p6510
aVhad
p6511
aVmade
p6512
aVlittle
p6513
aVman
p6514
aVso
p6515
aVfurious
p6516
aV.
aa(lp6517
Vstamped
p6518
aVon
p6519
aVthe
p6520
aVinside
p6521
aVcover
p6522
aVwas
p6523
aVa
aVchart
p6524
aVwhich
p6525
aVread
p6526
aV:
aVthe
p6527
aVblank
p6528
aVlines
p6529
aVcontinued
p6530
aVdown
p6531
aVto
p6532
aVline
p6533
aV20
p6534
aVand
p6535
aVi
aVknew
p6536
aVthat
p6537
aVthey
p6538
aVhad
p6539
aVall
p6540
aVbeen
p6541
aVreserved
p6542
aVfor
p6543
aVblack
p6544
aVstudents
p6545
aV.
aa(lp6546
Va
aVknot
p6547
aVof
p6548
aVanger
p6549
aVswelled
p6550
aVin
p6551
aVmy
p6552
aVthroat
p6553
aVand
p6554
aVheld
p6555
aVthere
p6556
aV.
aa(lp6557
Vbut
p6558
aVas
p6559
aVmiss
p6560
aVcrocker
p6561
aVdirected
p6562
aVlittle
p6563
aVman
p6564
aVto
p6565
aVbend
p6566
aVover
p6567
aVthe
p6568
aV'whipping
p6569
aVchair
p6570
aV.
aa(lp6571
V1
aVput
p6572
aVaside
p6573
aVmy
p6574
aVanger
p6575
aVand
p6576
aVjumped
p6577
aVup
p6578
aV.
aa(lp6579
V'miz
p6580
aVcrocker
p6581
aV.
aa(lp6582
Vdo
p6583
aVn't
p6584
aV,
aVplease
p6585
aV!
aV'
aa(lp6586
Vi
aVcried
p6587
aV.
aa(lp6588
Vmiss
p6589
aVcrocker
p6590
aV's
p6591
aVdark
p6592
aVeyes
p6593
aVwarned
p6594
aVme
p6595
aVnot
p6596
aVto
p6597
aVsay
p6598
aVanother
p6599
aVword
p6600
aV.
aa(lp6601
V'i
p6602
aVknow
p6603
aVwhy
p6604
aVhe
p6605
aVdone
p6606
aVit
p6607
aV!
aV'
aa(lp6608
V'you
p6609
aVwant
p6610
aVpart
p6611
aVof
p6612
aVthis
p6613
aVswitch
p6614
aV,
aVcassie
p6615
aV!
aV'
aa(lp6616
V'no
p6617
aV'm
p6618
aV,
aV'
aVi
aVsaid
p6619
aVhastily
p6620
aV.
aa(lp6621
V'i
p6622
aVjust
p6623
aVwan
p6624
aVna
p6625
aVtell
p6626
aVyou
p6627
aVhow
p6628
aVcome
p6629
aVlittle
p6630
aVman
p6631
aVdone
p6632
aVwhat
p6633
aVhe
p6634
aVdone
p6635
aV.
aV'
aa(lp6636
V'sit
p6637
aVdown
p6638
aV!
aV'
aa(lp6639
Vshe
p6640
aVordered
p6641
aVas
p6642
aVi
aVhurried
p6643
aVtoward
p6644
aVher
p6645
aVwith
p6646
aVthe
p6647
aVopen
p6648
aVbook
p6649
aVin
p6650
aVmy
p6651
aVhand
p6652
aV,
aVholding
p6653
aVthe
p6654
aVbook
p6655
aVup
p6656
aVto
p6657
aVher
p6658
aV.
aa(lp6659
Vi
aVsaid
p6660
aV.
aa(lp6661
V'see
p6662
aV,
aVmiz
p6663
aVcrocker
p6664
aV,
aVsee
p6665
aVwhat
p6666
aVit
p6667
aVsays
p6668
aV.
aa(lp6669
Vthey
p6670
aVgive
p6671
aVus
p6672
aVthese
p6673
aVole
p6674
aVbooks
p6675
aVwhen
p6676
aVthey
p6677
aVdidn't
p6678
aVwant'em
p6679
aVno
p6680
aVmore
p6681
aV.
aa(lp6682
Vshe
p6683
aVregarded
p6684
aVme
p6685
aVimpatiently
p6686
aV,
aVbut
p6687
aVdid
p6688
aVnot
p6689
aVlook
p6690
aVat
p6691
aVthe
p6692
aVbook
p6693
aV.
aa(lp6694
V'now
p6695
aVhow
p6696
aVcould
p6697
aVhe
p6698
aVknow
p6699
aVwhat
p6700
aVit
p6701
aVsays
p6702
aV!
aa(lp6703
Vhe
p6704
aVca
p6705
aVn't
p6706
aVread
p6707
aV.
aV'
aa(lp6708
V'yes
p6709
aV'm
p6710
aV,
aVhe
p6711
aVcan
p6712
aV.
aa(lp6713
Vhe
p6714
aVbeen
p6715
aVreading
p6716
aVsince
p6717
aVhe
p6718
aVwas
p6719
aVfour
p6720
aV.
aa(lp6721
Vhe
p6722
aVca
p6723
aVn't
p6724
aVread
p6725
aVall
p6726
aVthem
p6727
aVbig
p6728
aVwords
p6729
aV,
aVbut
p6730
aVhe
p6731
aVcan
p6732
aVread
p6733
aVthem
p6734
aVcolumns
p6735
aV.
aa(lp6736
Vsee
p6737
aVwhat
p6738
aV's
p6739
aVin
p6740
aVthe
p6741
aVlast
p6742
aVrow
p6743
aV.
aa(lp6744
Vplease
p6745
aVlook
p6746
aV,
aVmiz
p6747
aVcrocker
p6748
aV.
aa(lp6749
Vthis
p6750
aVtime
p6751
aVmiss
p6752
aVcrocker
p6753
aVdid
p6754
aVlook
p6755
aV,
aVbut
p6756
aVher
p6757
aVface
p6758
aVdid
p6759
aVnot
p6760
aVchange
p6761
aV.
aa(lp6762
Vthen
p6763
aV,
aVholding
p6764
aVup
p6765
aVher
p6766
aVhead
p6767
aV,
aVshe
p6768
aVgazed
p6769
aVunblinkingly
p6770
aVdown
p6771
aVat
p6772
aVme
p6773
aV.
aa(lp6774
V's-see
p6775
aVwhat
p6776
aVthey
p6777
aVcalled
p6778
aVus
p6779
aV,
aV'
aVi
aVsaid
p6780
aV,
aVafraid
p6781
aVshe
p6782
aVhad
p6783
aVnot
p6784
aVseen
p6785
aV.
aa(lp6786
V'that
p6787
aV's
p6788
aVwhat
p6789
aVyou
p6790
aVare
p6791
aV.
aV'
aa(lp6792
Vshe
p6793
aVsaid
p6794
aVcoldly
p6795
aV.
aa(lp6796
V'now
p6797
aVgo
p6798
aVsit
p6799
aVdown
p6800
aV.
aa(lp6801
Vi
aVshook
p6802
aVmy
p6803
aVhead
p6804
aV,
aVrealizing
p6805
aVnow
p6806
aVthat
p6807
aVmiss
p6808
aVcrocker
p6809
aVdid
p6810
aVnot
p6811
aVeven
p6812
aVknow
p6813
aVwhat
p6814
aVi
aVwas
p6815
aVtalking
p6816
aVabout
p6817
aV,
aVshe
p6818
aVhad
p6819
aVlooked
p6820
aVat
p6821
aVthe
p6822
aVpage
p6823
aVand
p6824
aVhad
p6825
aVunderstood
p6826
aVnothing
p6827
aV,
aV'i
p6828
aVsaid
p6829
aVsit
p6830
aVdown
p6831
aV.
aa(lp6832
Vcassie
p6833
aV!
aV'
aa(lp6834
Vi
aVstarted
p6835
aVslowly
p6836
aVtoward
p6837
aVmy
p6838
aVdesk
p6839
aV,
aVbut
p6840
aVas
p6841
aVthe
p6842
aVhickory
p6843
aVstick
p6844
aVsliced
p6845
aVthe
p6846
aVtense
p6847
aVair
p6848
aV.
aa(lp6849
Vi
aVturned
p6850
aVback
p6851
aVaround
p6852
aV.
aa(lp6853
V'miz
p6854
aVcrocker
p6855
aV,
aV'
aVi
aVsaid
p6856
aV,
aV'i
p6857
aVdo
p6858
aVn't
p6859
aVwant
p6860
aVmy
p6861
aVbook
p6862
aVneither
p6863
aV.
aa(lp6864
Vthe
p6865
aVswitch
p6866
aVlanded
p6867
aVhard
p6868
aVupon
p6869
aVlittle
p6870
aVman
p6871
aV's
p6872
aVupturned
p6873
aVbottom
p6874
aV.
aa(lp6875
Vmiss
p6876
aVcrocker
p6877
aVlooked
p6878
aVquestioningly
p6879
aVat
p6880
aVme
p6881
aVas
p6882
aVi
aVreached
p6883
aVup
p6884
aVto
p6885
aVher
p6886
aVdesk
p6887
aVand
p6888
aVplaced
p6889
aVthe
p6890
aVbook
p6891
aVupon
p6892
aVit
p6893
aV.
aa(lp6894
Vthen
p6895
aVshe
p6896
aVswung
p6897
aVthe
p6898
aVswitch
p6899
aVfive
p6900
aVmore
p6901
aVtimes
p6902
aVand
p6903
aV,
aVdiscovering
p6904
aVthat
p6905
aVlittle
p6906
aVman
p6907
aVhad
p6908
aVno
p6909
aVintention
p6910
aVof
p6911
aVcrying
p6912
aV,
aVordered
p6913
aVhim
p6914
aVup
p6915
aV.
aa(lp6916
V'all
p6917
aVright
p6918
aV,
aVcassie
p6919
aV,
aV'
aVshe
p6920
aVsighed
p6921
aV,
aVturning
p6922
aVto
p6923
aVme
p6924
aV,
aV'come
p6925
aVon
p6926
aVand
p6927
aVget
p6928
aVyours
p6929
aV.
aV'
aa(lp6930
Vby
p6931
aVthe
p6932
aVend
p6933
aVof
p6934
aVthe
p6935
aVschool
p6936
aVday
p6937
aVi
aVhad
p6938
aVdecided
p6939
aVthat
p6940
aVi
aVwould
p6941
aVtell
p6942
aVmama
p6943
aVeverything
p6944
aVbefore
p6945
aVmiss
p6946
aVcrocker
p6947
aVhad
p6948
aVa
aVchance
p6949
aVto
p6950
aVdo
p6951
aVso
p6952
aV.
aa(lp6953
Vfrom
p6954
aVnine
p6955
aVyears
p6956
aVof
p6957
aVtrial
p6958
aVand
p6959
aVerror
p6960
aV,
aVi
aVhad
p6961
aVlearned
p6962
aVthat
p6963
aVpunishment
p6964
aVwas
p6965
aValways
p6966
aVless
p6967
aVsevere
p6968
aVwhen
p6969
aVi
aVpoured
p6970
aVout
p6971
aVthe
p6972
aVwhole
p6973
aVtruth
p6974
aVto
p6975
aVmama
p6976
aVon
p6977
aVmy
p6978
aVown
p6979
aVbefore
p6980
aVshe
p6981
aVhad
p6982
aVheard
p6983
aVanything
p6984
aVfrom
p6985
aVanyone
p6986
aVelse
p6987
aV.
aa(lp6988
Vi
aVknew
p6989
aVthat
p6990
aVmiss
p6991
aVcrocker
p6992
aVhad
p6993
aVnot
p6994
aVspoken
p6995
aVto
p6996
aVmama
p6997
aVduring
p6998
aVthe
p6999
aVlunch
p7000
aVperiod
p7001
aV,
aVfor
p7002
aVshe
p7003
aVhad
p7004
aVspent
p7005
aVthe
p7006
aVwhole
p7007
aVhour
p7008
aVin
p7009
aVthe
p7010
aVclassroom
p7011
aVpreparing
p7012
aVfor
p7013
aVthe
p7014
aVafternoon
p7015
aVsession
p7016
aV.
aa(lp7017
Vas
p7018
aVsoon
p7019
aVas
p7020
aVclass
p7021
aVwas
p7022
aVdismissed
p7023
aVi
aVsped
p7024
aVfrom
p7025
aVthe
p7026
aVroom
p7027
aV,
aVweaving
p7028
aVa
aVpath
p7029
aVthrough
p7030
aVthrongs
p7031
aVof
p7032
aVstudents
p7033
aVhappy
p7034
aVto
p7035
aVbe
p7036
aVfree
p7037
aV.
aa(lp7038
Vbut
p7039
aVbefore
p7040
aVi
aVcould
p7041
aVreach
p7042
aVthe
p7043
aVseventh-grade-class
p7044
aVbuilding
p7045
aV.
aa(lp7046
Vi
aVhad
p7047
aVthe
p7048
aVmisfortune
p7049
aVto
p7050
aVcollide
p7051
aVwith
p7052
aVmary
p7053
aVlou
p7054
aV's
p7055
aVfather
p7056
aV.
aa(lp7057
Vmr.
p7058
aVwellever
p7059
aVlooked
p7060
aVdown
p7061
aVon
p7062
aVme
p7063
aVwith
p7064
aVsurprise
p7065
aVthat
p7066
aVi
aVwould
p7067
aVactually
p7068
aVbump
p7069
aVinto
p7070
aVhim
p7071
aV,
aVthen
p7072
aVproceeded
p7073
aVto
p7074
aVlecture
p7075
aVme
p7076
aVon
p7077
aVthe
p7078
aVvirtues
p7079
aVof
p7080
aVwatching
p7081
aVwhere
p7082
aVone
p7083
aVwas
p7084
aVgoing
p7085
aV.
aa(lp7086
Vmeanwhile
p7087
aVmiss
p7088
aVcrocker
p7089
aVbriskly
p7090
aVcrossed
p7091
aVthe
p7092
aVlawn
p7093
aVto
p7094
aVmama
p7095
aV's
p7096
aVclass
p7097
aVbuilding
p7098
aV.
aa(lp7099
Vby
p7100
aVthe
p7101
aVtime
p7102
aVi
aVescaped
p7103
aVmr.
p7104
aVwellever
p7105
aV,
aVshe
p7106
aVhad
p7107
aValready
p7108
aVdisappeared
p7109
aVinto
p7110
aVthe
p7111
aVdarkness
p7112
aVof
p7113
aVthe
p7114
aVhallway
p7115
aV,
aVmama
p7116
aV's
p7117
aVclassroom
p7118
aVwas
p7119
aVin
p7120
aVthe
p7121
aVback
p7122
aV,
aVi
aVcrept
p7123
aVsilently
p7124
aValong
p7125
aVthe
p7126
aVquiet
p7127
aVhall
p7128
aVand
p7129
aVpeeped
p7130
aVcautiously
p7131
aVinto
p7132
aVthe
p7133
aVopen
p7134
aVdoorway
p7135
aV,
aVmama
p7136
aV,
aVpushing
p7137
aVa
aVstrand
p7138
aVof
p7139
aVher
p7140
aVlong
p7141
aV,
aVcrinkly
p7142
aVhair
p7143
aVback
p7144
aVinto
p7145
aVthe
p7146
aVchignon
p7147
aVat
p7148
aVthe
p7149
aVbase
p7150
aVof
p7151
aVher
p7152
aVslender
p7153
aVneck
p7154
aV,
aVwas
p7155
aVseated
p7156
aVat
p7157
aVher
p7158
aVdesk
p7159
aVwatching
p7160
aVmiss
p7161
aVcrocker
p7162
aVthrust
p7163
aVa
aVbook
p7164
aVbefore
p7165
aVher
p7166
aV,
aV'just
p7167
aVlook
p7168
aVat
p7169
aVthat
p7170
aV.
aa(lp7171
Vmary
p7172
aV,
aV'
aVmiss
p7173
aVcrocker
p7174
aVsaid
p7175
aV,
aVthumping
p7176
aVthe
p7177
aVbook
p7178
aVtwice
p7179
aVwith
p7180
aVher
p7181
aVforefinger
p7182
aV.
aa(lp7183
V'a
p7184
aVperfectly
p7185
aVgood
p7186
aVbook
p7187
aVruined
p7188
aV.
aa(lp7189
Vlook
p7190
aVat
p7191
aVthat
p7192
aVbroken
p7193
aVbinding
p7194
aVand
p7195
aVthose
p7196
aVfoot
p7197
aVmarks
p7198
aVall
p7199
aVover
p7200
aVit
p7201
aV.
aV'
aa(lp7202
Vmama
p7203
aVdid
p7204
aVnot
p7205
aVspeak
p7206
aVas
p7207
aVshe
p7208
aVstudied
p7209
aVthe
p7210
aVbook
p7211
aV.
aa(lp7212
V'and
p7213
aVhere
p7214
aV's
p7215
aVthe
p7216
aVone
p7217
aVcassie
p7218
aVwould
p7219
aVn't
p7220
aVtake
p7221
aV.
aV'
aa(lp7222
Vshe
p7223
aVsaid
p7224
aV,
aVplacing
p7225
aVa
aVsecond
p7226
aVbook
p7227
aVon
p7228
aVmama
p7229
aV's
p7230
aVdesk
p7231
aVwith
p7232
aVan
p7233
aVoutraged
p7234
aVslam
p7235
aV.
aa(lp7236
V'at
p7237
aVleast
p7238
aVshe
p7239
aVdid
p7240
aVn't
p7241
aVhave
p7242
aVa
aVtantrum
p7243
aVand
p7244
aVstomp
p7245
aVall
p7246
aVover
p7247
aVhers
p7248
aV.
aa(lp7249
Vi
aVtell
p7250
aVyou
p7251
aV,
aVmary
p7252
aV.
aa(lp7253
Vi
aVjust
p7254
aVdo
p7255
aVn't
p7256
aVknow
p7257
aVwhat
p7258
aVgot
p7259
aVinto
p7260
aVthose
p7261
aVchildren
p7262
aVtoday
p7263
aV.
aa(lp7264
Vi
aValways
p7265
aVknew
p7266
aVcassie
p7267
aVwas
p7268
aVrather
p7269
aVhigh-strung
p7270
aV,
aVbut
p7271
aVlittle
p7272
aVman
p7273
aV!
aa(lp7274
Vhe
p7275
aV's
p7276
aValways
p7277
aVsuch
p7278
aVa
aVperfect
p7279
aVlittle
p7280
aVgentle-
p7281
aVman
p7282
aV.
aV'
aa(lp7283
Vmama
p7284
aVglanced
p7285
aVat
p7286
aVthe
p7287
aVbook
p7288
aVi
aVhad
p7289
aVrejected
p7290
aVand
p7291
aVopened
p7292
aVthe
p7293
aVfront
p7294
aVcover
p7295
aVso
p7296
aVthat
p7297
aVthe
p7298
aVoffensive
p7299
aVpages
p7300
aVof
p7301
aVboth
p7302
aVbooks
p7303
aVfaced
p7304
aVher
p7305
aV.
aa(lp7306
V'you
p7307
aVsay
p7308
aVcassie
p7309
aVsaid
p7310
aVit
p7311
aVwas
p7312
aVbecause
p7313
aVof
p7314
aVthis
p7315
aVfront
p7316
aVpage
p7317
aVthat
p7318
aVshe
p7319
aVand
p7320
aVlittle
p7321
aVman
p7322
aVdid
p7323
aVn't
p7324
aVwant
p7325
aVthe
p7326
aVbooks
p7327
aV!
aV'
aa(lp7328
Vmama
p7329
aVasked
p7330
aVquietly
p7331
aV.
aa(lp7332
V'yes
p7333
aV,
aVai
p7334
aVn't
p7335
aVthat
p7336
aVsomething
p7337
aV!
aV'
aa(lp7338
Vmiss
p7339
aVcrocker
p7340
aVsaid
p7341
aV,
aVforgetting
p7342
aVher
p7343
aVteacher-training-school
p7344
aVdiction
p7345
aVin
p7346
aVher
p7347
aVindignation
p7348
aV.
aa(lp7349
V'the
p7350
aVvery
p7351
aVidea
p7352
aV!
aa(lp7353
Vthat
p7354
aV's
p7355
aVon
p7356
aVall
p7357
aVthe
p7358
aVbooks
p7359
aV,
aVand
p7360
aVwhy
p7361
aVthey
p7362
aVgot
p7363
aVso
p7364
aVupset
p7365
aVabout
p7366
aVit
p7367
aVi
aV'll
p7368
aVnever
p7369
aVknow
p7370
aV.
aV'
aa(lp7371
V'you
p7372
aVpunish
p7373
aVthem
p7374
aV!
aV'
aa(lp7375
Vasked
p7376
aVmama
p7377
aV,
aVglancing
p7378
aVup
p7379
aVat
p7380
aVmiss
p7381
aVcrocker
p7382
aV.
aa(lp7383
V'well
p7384
aV,
aVi
aVcertainly
p7385
aVdid
p7386
aV!
aa(lp7387
Vwhipped
p7388
aVboth
p7389
aVof
p7390
aVthem
p7391
aVgood
p7392
aVwith
p7393
aVmy
p7394
aVhickory
p7395
aVstick
p7396
aV.
aa(lp7397
Vwould
p7398
aVn't
p7399
aVyou
p7400
aVhave
p7401
aV!
aV'
aa(lp7402
Vwhen
p7403
aVmama
p7404
aVdid
p7405
aVnot
p7406
aVreply
p7407
aV,
aVshe
p7408
aVadded
p7409
aVdefensively
p7410
aV,
aV'i
p7411
aVhad
p7412
aVa
aVperfect
p7413
aVright
p7414
aVto
p7415
aV.
aV'
aa(lp7416
V'of
p7417
aVcourse
p7418
aVyou
p7419
aVdid
p7420
aV.
aa(lp7421
Vdaisy
p7422
aV.
aV'
aa(lp7423
Vmama
p7424
aVsaid
p7425
aV,
aVturning
p7426
aVback
p7427
aVto
p7428
aVthe
p7429
aVbooks
p7430
aVagain
p7431
aV.
aa(lp7432
V'they
p7433
aVdisobeyed
p7434
aVyou
p7435
aV.
aV'
aa(lp7436
Vbut
p7437
aVher
p7438
aVtone
p7439
aVwas
p7440
aVso
p7441
aVquiet
p7442
aVand
p7443
aVnoncommittal
p7444
aVthat
p7445
aVi
aVknew
p7446
aVmiss
p7447
aVcrocker
p7448
aVwas
p7449
aVnot
p7450
aVsatisfied
p7451
aVwith
p7452
aVher
p7453
aVreaction
p7454
aV.
aa(lp7455
V'well
p7456
aV,
aVi
aVthought
p7457
aVyou
p7458
aVwould
p7459
aV've
p7460
aVwanted
p7461
aVto
p7462
aVknow
p7463
aV,
aVmary
p7464
aV,
aVin
p7465
aVcase
p7466
aVyou
p7467
aVwanted
p7468
aVto
p7469
aVgive
p7470
aVthem
p7471
aVa
aVpiece
p7472
aVof
p7473
aVyour
p7474
aVmind
p7475
aValso
p7476
aV.
aV'
aa(lp7477
Vmama
p7478
aVsmiled
p7479
aVup
p7480
aVat
p7481
aVmiss
p7482
aVcrocker
p7483
aVand
p7484
aVsaid
p7485
aVrather
p7486
aVabsently
p7487
aV,
aV\u2018yes
p7488
aV,
aVof
p7489
aVcourse
p7490
aV,
aVdaisy
p7491
aV.
aa(lp7492
Vthank
p7493
aVyou
p7494
aV.
aV'
aa(lp7495
Vthen
p7496
aVshe
p7497
aVopened
p7498
aVher
p7499
aVdesk
p7500
aVdrawer
p7501
aVand
p7502
aVpulled
p7503
aVout
p7504
aVsome
p7505
aVpaper
p7506
aV,
aVa
aVpair
p7507
aVof
p7508
aVscissors
p7509
aV.
aa(lp7510
Vand
p7511
aVa
aVsmall
p7512
aVbrown
p7513
aVbottle
p7514
aV.
aa(lp7515
Vmiss
p7516
aVcrocker
p7517
aV,
aVdismayed
p7518
aVby
p7519
aVmama
p7520
aV's
p7521
aVseeming
p7522
aVunconcern
p7523
aVfor
p7524
aVthe
p7525
aVseriousness
p7526
aVof
p7527
aVthe
p7528
aVmatter
p7529
aV,
aVthrust
p7530
aVher
p7531
aVshoulders
p7532
aVback
p7533
aVand
p7534
aVbegan
p7535
aVmoving
p7536
aVaway
p7537
aVfrom
p7538
aVthe
p7539
aVdesk
p7540
aV.
aa(lp7541
V\u2018you
p7542
aVunderstand
p7543
aVthat
p7544
aVif
p7545
aVthey
p7546
aVdo
p7547
aVn't
p7548
aVhave
p7549
aVthose
p7550
aVbooks
p7551
aVto
p7552
aVstudy
p7553
aVfrom
p7554
aV,
aVi\u2019ll
p7555
aVhave
p7556
aVto
p7557
aVfail
p7558
aVthem
p7559
aVin
p7560
aVboth
p7561
aVreading
p7562
aVand
p7563
aVcomposition
p7564
aV,
aVsince
p7565
aVi
aVplan
p7566
aVto
p7567
aVbase
p7568
aVall
p7569
aVmy
p7570
aVlessons
p7571
aVaround
p7572
aV-
aV'
aVshe
p7573
aVstopped
p7574
aVabruptly
p7575
aVand
p7576
aVstared
p7577
aVin
p7578
aVamazement
p7579
aVat
p7580
aVmama
p7581
aV.
aa(lp7582
V\u2018mary
p7583
aV,
aVwhat
p7584
aVin
p7585
aVthe
p7586
aVworld
p7587
aVare
p7588
aVyou
p7589
aVdoing
p7590
aV!
aV'
aa(lp7591
Vmama
p7592
aVdid
p7593
aVnot
p7594
aVanswer
p7595
aV.
aa(lp7596
Vshe
p7597
aVhad
p7598
aVtrimmed
p7599
aVthe
p7600
aVpaper
p7601
aVto
p7602
aVthe
p7603
aVsize
p7604
aVof
p7605
aVthe
p7606
aVbooks
p7607
aVand
p7608
aVwas
p7609
aVnow
p7610
aVdipping
p7611
aVa
aVgray-looking
p7612
aVglue
p7613
aVfrom
p7614
aVthe
p7615
aVbrown
p7616
aVbottle
p7617
aVonto
p7618
aVthe
p7619
aVinside
p7620
aVcover
p7621
aVof
p7622
aVone
p7623
aVof
p7624
aVthe
p7625
aVbooks
p7626
aV.
aa(lp7627
Vthen
p7628
aVshe
p7629
aVtook
p7630
aVthe
p7631
aVpaper
p7632
aVand
p7633
aVplaced
p7634
aVit
p7635
aVover
p7636
aVthe
p7637
aVglue
p7638
aV.
aa(lp7639
V'mary
p7640
aVlogan
p7641
aV,
aVdo
p7642
aVyou
p7643
aVknow
p7644
aVwhat
p7645
aVyou
p7646
aV're
p7647
aVdoing
p7648
aV!
aa(lp7649
Vthat
p7650
aVbook
p7651
aVbelongs
p7652
aVto
p7653
aVthe
p7654
aVcounty
p7655
aV.
aa(lp7656
Vif
p7657
aVsomebody
p7658
aVfrom
p7659
aVthe
p7660
aVsuperintendent
p7661
aV's
p7662
aVoffice
p7663
aVever
p7664
aVcomes
p7665
aVdown
p7666
aVhere
p7667
aVand
p7668
aVsees
p7669
aVthat
p7670
aVbook
p7671
aV,
aVyou
p7672
aV'll
p7673
aVbe
p7674
aVin
p7675
aVreal
p7676
aVtrouble
p7677
aV.
aV'
aa(lp7678
Vmama
p7679
aVlaughed
p7680
aVand
p7681
aVpicked
p7682
aVup
p7683
aVthe
p7684
aVother
p7685
aVbook
p7686
aV.
aa(lp7687
V'in
p7688
aVthe
p7689
aVfirst
p7690
aVplace
p7691
aVno
p7692
aVone
p7693
aVcares
p7694
aVenough
p7695
aVto
p7696
aVcome
p7697
aVdown
p7698
aVhere
p7699
aV,
aVand
p7700
aVin
p7701
aVthe
p7702
aVsecond
p7703
aasb.