ccopy_reg
_reconstructor
p1
(cData.Book
Book
p2
c__builtin__
object
p3
NtRp4
(dp5
S'stored_object'
p6
S'Books/Winter_Dreams/Book_object.p'
p7
sS'title'
p8
S'Winter Dreams'
p9
sS'main_text_path'
p10
S'Books/Winter_Dreams/main_cleaned.txt'
p11
sS'metadata_path'
p12
S'Books/Winter_Dreams/meta_data.csv'
p13
sS'book_path'
p14
S'Books/Winter_Dreams/'
p15
sS'characters'
p16
(dp17
S'judy jones'
p18
(dp19
S'list'
p20
(lp21
(lp22
V[
aVCHARACTER
p23
aV]
aV-
aVthe
p24
aVdaughter
p25
aVof
p26
aVthe
p27
aVaffluent
p28
aVmortimer
p29
aVjones
p30
aV.
aa(lp31
Vglowing
p32
aVwith
p33
aVvitality
p34
aV,
aVjudy
p35
aVis
p36
aValoof
p37
aV,
aVcharming
p38
aV,
aVand
p39
aVirresistible
p40
aVto
p41
aVmany
p42
aVmen
p43
aV,
aVincluding
p44
aVdexter
p45
aV.
aa(lp46
Vshe
p47
aVis
p48
aValluring
p49
aV,
aVunattainable
p50
aV,
aVand
p51
aVwhimsical
p52
aV,
aVconcerned
p53
aVonly
p54
aVwith
p55
aVthe
p56
aVgratification
p57
aVof
p58
aVher
p59
aVdesires
p60
aV.
aa(lp61
Vjudy
p62
aVdoes
p63
aVnot
p64
aVseem
p65
aVto
p66
aVbe
p67
aVfully
p68
aVaware
p69
aVof
p70
aVhow
p71
aVmanipulative
p72
aVshe
p73
aVis
p74
aVtoward
p75
aVthe
p76
aVvarious
p77
aVsuitors
p78
aVwho
p79
aVpursue
p80
aVher
p81
aV--
p82
aVor
p83
aVif
p84
aVshe
p85
aVis
p86
aVaware
p87
aV,
aVshe
p88
aVdoes
p89
aVn't
p90
aVcare
p91
aV.
aasS'analysis'
p92
(lp93
(lp94
V[
aVCHARACTER
p95
aV]
aVin
p96
aVa
aVway
p97
aV,
aV[
aVCHARACTER
p98
aV]
aVis
p99
aVshaped
p100
aVby
p101
aVmen
p102
aVwho
p103
aVview
p104
aVher
p105
aVas
p106
aVthe
p107
aVideal
p108
aVwoman
p109
aV,
aVas
p110
aVthey
p111
aVmust
p112
aVcontort
p113
aVher
p114
aVto
p115
aVfit
p116
aVtheir
p117
aVfantasy
p118
aVof
p119
aVthis
p120
aVvision
p121
aVof
p122
aVfeminine
p123
aVbeauty
p124
aVand
p125
aVgrace
p126
aV.
aa(lp127
Vjudy
p128
aVdepends
p129
aVon
p130
aVthese
p131
aVsuitors
p132
aV'
aVattentions
p133
aVto
p134
aVgive
p135
aVher
p136
aVlife
p137
aVmeaning
p138
aV.
aa(lp139
Vjust
p140
aVas
p141
aVdexter
p142
aVseems
p143
aVout
p144
aVof
p145
aVhis
p146
aVelement
p147
aVwhen
p148
aVhe
p149
aVbecomes
p150
aVpart
p151
aVof
p152
aVjudy
p153
aV's
p154
aVworld
p155
aV,
aVjudy
p156
aVtoo
p157
aVsuffers
p158
aVfrom
p159
aVa
aVkind
p160
aVof
p161
aVdisplacement
p162
aV.
aa(lp163
Vas
p164
aVa
aVchild
p165
aV,
aVshe
p166
aVadopts
p167
aVthe
p168
aVstilted
p169
aV,
aVprecocious
p170
aVtone
p171
aVof
p172
aVa
aVdaughter
p173
aVof
p174
aVprosperity
p175
aV,
aVand
p176
aVher
p177
aVself-confidence
p178
aVand
p179
aVcomportment
p180
aVsuggest
p181
aVa
aVmaturity
p182
aVbeyond
p183
aVher
p184
aVyears
p185
aV.
aa(lp186
Valthough
p187
aVshe
p188
aVis
p189
aVolder
p190
aVthan
p191
aVdexter
p192
aV,
aVshe
p193
aVaddresses
p194
aVhim
p195
aVas
p196
aV``
p197
aVboy
p198
aV,
aV''
p199
aVwhich
p200
aVreflects
p201
aVnot
p202
aVtheir
p203
aVage
p204
aVdifference
p205
aVbut
p206
aVdifferent
p207
aVstations
p208
aVin
p209
aVlife
p210
aV.
aa(lp211
Vwhen
p212
aVjudy
p213
aVenters
p214
aVadulthood
p215
aV,
aVhowever
p216
aV,
aVthe
p217
aVshallow
p218
aV,
aVimmature
p219
aV,
aVand
p220
aVcruel
p221
aVside
p222
aVof
p223
aVher
p224
aVnature
p225
aVbecomes
p226
aVclear
p227
aV.
aa(lp228
Vjudy
p229
aV's
p230
aVselfishness
p231
aV,
aVwillfulness
p232
aV,
aVand
p233
aVimpulse-driven
p234
aVbehavior
p235
aVare
p236
aVleftovers
p237
aVfrom
p238
aVthe
p239
aVrealm
p240
aVof
p241
aVchildhood
p242
aVand
p243
aVbelie
p244
aVthe
p245
aVpolish
p246
aVand
p247
aVsophistication
p248
aVthat
p249
aVher
p250
aVadult
p251
aVbeauty
p252
aVsuggests
p253
aV.
aa(lp254
Vjudy
p255
aV's
p256
aVlack
p257
aVof
p258
aVhumility
p259
aVand
p260
aVinner
p261
aVreserves
p262
aVsuggest
p263
aVthe
p264
aVnegative
p265
aVeffects
p266
aVof
p267
aVan
p268
aVoverly
p269
aVindulged
p270
aVexistence
p271
aVin
p272
aVwhich
p273
aVshe
p274
aVwas
p275
aVsheltered
p276
aVfrom
p277
aVthe
p278
aVsting
p279
aVof
p280
aVthe
p281
aVreal
p282
aVworld
p283
aV.
aa(lp284
Vjust
p285
aVas
p286
aVdexter
p287
aVequates
p288
aVprofessional
p289
aVsuccess
p290
aVwith
p291
aVpersonal
p292
aVvalidation
p293
aV,
aVjudy
p294
aVsees
p295
aVher
p296
aVradiant
p297
aVbeauty
p298
aVas
p299
aVa
aVsign
p300
aVthat
p301
aVshe
p302
aVdeserves
p303
aVgreat
p304
aVhappiness
p305
aV.
aa(lp306
V``
p307
aVi
aV'm
p308
aVmore
p309
aVbeautiful
p310
aVthan
p311
aVanybody
p312
aVelse
p313
aV,
aV''
p314
aVshe
p315
aVbrazenly
p316
aVasserts
p317
aV,
aV``
p318
aVwhy
p319
aVca
p320
aVn't
p321
aVi
aVbe
p322
aVhappy
p323
aV?
aV''
p324
aa(lp325
Vjudy
p326
aVfails
p327
aVto
p328
aVattain
p329
aVthe
p330
aVhappiness
p331
aVshe
p332
aVseeks
p333
aVbecause
p334
aVshe
p335
aVis
p336
aVunaware
p337
aVof
p338
aVwhat
p339
aVhappiness
p340
aVrequires
p341
aVand
p342
aVwhat
p343
aVpath
p344
aVwill
p345
aVlead
p346
aVher
p347
aVthere
p348
aV.
aa(lp349
Vmired
p350
aVin
p351
aVsurface
p352
aVimpressions
p353
aVand
p354
aVthe
p355
aVflattery
p356
aVthat
p357
aVher
p358
aVserial
p359
aVdating
p360
aVprovides
p361
aV,
aVshe
p362
aVis
p363
aVunable
p364
aVto
p365
aVproperly
p366
aVarticulate
p367
aVher
p368
aVdissatisfaction
p369
aV.
aa(lp370
Vshe
p371
aVuses
p372
aVher
p373
aVphysical
p374
aVattributes
p375
aVas
p376
aVher
p377
aVsole
p378
aVmeans
p379
aVof
p380
aVengaging
p381
aVwith
p382
aVand
p383
aVinterpreting
p384
aVthe
p385
aVworld
p386
aV.
aa(lp387
Vlike
p388
aVdexter
p389
aV's
p390
aV,
aVthe
p391
aVlife
p392
aVshe
p393
aVinhabits
p394
aVat
p395
aVthe
p396
aVend
p397
aVof
p398
aVthe
p399
aVstory
p400
aVfalls
p401
aVfar
p402
aVshort
p403
aVof
p404
aVthe
p405
aVlife
p406
aVshe
p407
aVhad
p408
aVexpected
p409
aV.
aa(lp410
Vshe
p411
aVis
p412
aVthe
p413
aVvictim
p414
aVof
p415
aVher
p416
aVmalformed
p417
aVimpressions
p418
aVof
p419
aVthe
p420
aVworld
p421
aVand
p422
aVinability
p423
aVto
p424
aVindependently
p425
aVdiscover
p426
aVwho
p427
aVshe
p428
aVtruly
p429
aVis
p430
aV.
aassS't. a. hedrick'
p431
(dp432
g20
(lp433
(lp434
V[
aVCHARACTER
p435
aV]
aV-
aVa
aVpillar
p436
aVof
p437
aVthe
p438
aVcommunity
p439
aV.
aa(lp440
Vmr.
p441
aVhedrick
p442
aVis
p443
aVthe
p444
aVman
p445
aVdexter
p446
aVtrounces
p447
aVin
p448
aVhis
p449
aVimaginary
p450
aVgolf
p451
aVtournaments
p452
aV.
aa(lp453
Vdexter
p454
aVdoes
p455
aVeventually
p456
aVgolf
p457
aVwith
p458
aVmr.
p459
aVhedrick
p460
aV,
aVwho
p461
aVemerges
p462
aVas
p463
aVa
aVbore
p464
aVwith
p465
aVfew
p466
aVskills
p467
aVas
p468
aVa
aVplayer
p469
aV.
aa(lp470
Von
p471
aVthe
p472
aVcourse
p473
aV,
aVmr.
p474
aVhedrick
p475
aVis
p476
aVhit
p477
aVin
p478
aVthe
p479
aVstomach
p480
aVby
p481
aVan
p482
aVerrant
p483
aVball
p484
aVstruck
p485
aVby
p486
aVjudy
p487
aVjones
p488
aV.
aasg92
NssS'dexter green'
p489
(dp490
g20
(lp491
(lp492
V[
aVCHARACTER
p493
aV]
aV-
aVa
aVsuccessful
p494
aVbusinessman
p495
aVand
p496
aVthe
p497
aVstory
p498
aV's
p499
aVprotagonist
p500
aV.
aa(lp501
Vdexter
p502
aVgrew
p503
aVup
p504
aVin
p505
aVkeeble
p506
aV,
aVa
aVsmall
p507
aVminnesota
p508
aVvillage
p509
aV,
aVthe
p510
aVson
p511
aVof
p512
aVa
aVgrocer
p513
aVand
p514
aVbohemian
p515
aVmother
p516
aV.
aa(lp517
Vambitious
p518
aVand
p519
aVeager
p520
aV,
aVhe
p521
aVworks
p522
aVhard
p523
aVto
p524
aVgain
p525
aVthe
p526
aVtrappings
p527
aVof
p528
aVwealth
p529
aVand
p530
aVstatus
p531
aV.
aa(lp532
Vdexter
p533
aVboth
p534
aVcelebrates
p535
aVand
p536
aVdenies
p537
aVhis
p538
aVhumble
p539
aVworking-class
p540
aVorigins
p541
aV.
aa(lp542
Vhe
p543
aVfeels
p544
aVlike
p545
aVa
aVtrespasser
p546
aVin
p547
aVthe
p548
aVhalls
p549
aVof
p550
aVthe
p551
aVaffluent
p552
aV,
aVbut
p553
aVat
p554
aVthe
p555
aVsame
p556
aVtime
p557
aVhe
p558
aVfeels
p559
aVsuperior
p560
aVfor
p561
aVhaving
p562
aVworked
p563
aVhis
p564
aVway
p565
aVinto
p566
aVthe
p567
aVupper
p568
aVranks
p569
aV,
aVa
aVgroup
p570
aVcomprising
p571
aVpeople
p572
aVfor
p573
aVwhom
p574
aVhe
p575
aVhas
p576
aVlittle
p577
aVrespect
p578
aV.
aasg92
(lp579
(lp580
V[
aVCHARACTER
p581
aV]
aVdexter
p582
aVis
p583
aVdesperate
p584
aVto
p585
aVvalidate
p586
aVhis
p587
aVexistence
p588
aVthrough
p589
aVsuccess
p590
aVand
p591
aVstatus
p592
aV,
aVbut
p593
aVhe
p594
aVis
p595
aValso
p596
aVcritical
p597
aVof
p598
aVhis
p599
aVattempts
p600
aVto
p601
aVtranscend
p602
aVhis
p603
aVhumble
p604
aVorigins
p605
aVby
p606
aVblindly
p607
aVpursuing
p608
aVwealth
p609
aVand
p610
aVsophistication
p611
aV.
aa(lp612
Vdexter
p613
aVboth
p614
aVcelebrates
p615
aVand
p616
aVdenies
p617
aVhis
p618
aVmiddle-class
p619
aVbackground
p620
aV,
aVand
p621
aVhe
p622
aVhimself
p623
aVultimately
p624
aVbecomes
p625
aVthe
p626
aVobstacle
p627
aVthat
p628
aVstands
p629
aVin
p630
aVthe
p631
aVway
p632
aVof
p633
aVthe
p634
aVpersonal
p635
aVhappiness
p636
aVhe
p637
aVseeks
p638
aV.
aa(lp639
Vdexter
p640
aVis
p641
aVunable
p642
aVto
p643
aVresolve
p644
aVthis
p645
aVessential
p646
aVconflict
p647
aVof
p648
aVidentity
p649
aV.
aa(lp650
Vhaving
p651
aVfinally
p652
aVachieved
p653
aVguest
p654
aVentrance
p655
aVto
p656
aVthe
p657
aVcountry
p658
aVclub
p659
aV,
aVhe
p660
aVfeels
p661
aVlike
p662
aVa
aVtrespasser
p663
aV,
aVwhile
p664
aVat
p665
aVthe
p666
aVsame
p667
aVtime
p668
aVfeeling
p669
aVsuperior
p670
aVto
p671
aVthe
p672
aVcaptains
p673
aVof
p674
aVindustry
p675
aVwhom
p676
aVhe
p677
aVfinds
p678
aVboring
p679
aVand
p680
aVlacking
p681
aVin
p682
aVgolf
p683
aVskills
p684
aV.
aa(lp685
Vthis
p686
aVinherent
p687
aVduality
p688
aVin
p689
aVdexter
p690
aVis
p691
aVevident
p692
aVin
p693
aVhis
p694
aVcomplex
p695
aVhistory
p696
aVwith
p697
aVjudy
p698
aV.
aa(lp699
Valthough
p700
aVhe
p701
aVis
p702
aVable
p703
aVto
p704
aVconvince
p705
aVhimself
p706
aVthat
p707
aVhe
p708
aVdoes
p709
aVnot
p710
aVwant
p711
aVher
p712
aVas
p713
aVa
aVpartner
p714
aVor
p715
aVwife
p716
aV,
aVhe
p717
aVcan
p718
aVnot
p719
aVcontrol
p720
aVthe
p721
aVardor
p722
aVher
p723
aVpresence
p724
aVin
p725
aVhis
p726
aVlife
p727
aVtriggers
p728
aV.
aa(lp729
Vdexter
p730
aVdeliberately
p731
aVcreates
p732
aVobstacles
p733
aVto
p734
aVhis
p735
aVown
p736
aVhappiness
p737
aV.
aa(lp738
Vafraid
p739
aVof
p740
aVcommitment
p741
aV,
aVhe
p742
aVprefers
p743
aVa
aVsolitary
p744
aVexistence
p745
aV,
aVhovering
p746
aVon
p747
aVthe
p748
aVedges
p749
aVof
p750
aVa
aVworld
p751
aVof
p752
aVcarousing
p753
aVand
p754
aVbachelorhood
p755
aV.
aa(lp756
Vhe
p757
aVonce
p758
aVcoveted
p759
aVa
aVlife
p760
aVof
p761
aVfinancial
p762
aVease
p763
aV,
aVbut
p764
aVwhen
p765
aVhe
p766
aVfinally
p767
aVreaches
p768
aVhis
p769
aVgoal
p770
aV,
aVhe
p771
aVfeels
p772
aVlike
p773
aVan
p774
aVoutsider
p775
aVbecause
p776
aVhe
p777
aVhad
p778
aVto
p779
aVwork
p780
aVhard
p781
aVfor
p782
aVhis
p783
aVmoney
p784
aV.
aa(lp785
Vhe
p786
aVfeels
p787
aVthat
p788
aVhis
p789
aVnewly
p790
aVacquired
p791
aVstatus
p792
aVhas
p793
aVbeen
p794
aVpurchased
p795
aVrather
p796
aVthan
p797
aVdeserved
p798
aV.
aa(lp799
Vthe
p800
aVsatisfaction
p801
aVhe
p802
aVfeels
p803
aVat
p804
aVbecoming
p805
aVthe
p806
aVrichest
p807
aVyoung
p808
aVman
p809
aVin
p810
aVthe
p811
aVupper
p812
aVmidwest
p813
aVleads
p814
aVhim
p815
aVto
p816
aVpursue
p817
aVunattainable
p818
aVgoals
p819
aV,
aVsuch
p820
aVas
p821
aVthe
p822
aVpossession
p823
aVof
p824
aVjudy
p825
aVjones
p826
aV.
aa(lp827
Vhe
p828
aVis
p829
aVblind
p830
aVto
p831
aVhis
p832
aVemotional
p833
aVfailings
p834
aVand
p835
aVpersonal
p836
aVshortcomings
p837
aV,
aVseeing
p838
aVlittle
p839
aVdistinction
p840
aVbetween
p841
aVthe
p842
aVpersonal
p843
aVand
p844
aVprofessional
p845
aV.
aa(lp846
Vfor
p847
aVhim
p848
aV,
aVlove
p849
aVand
p850
aVmoney
p851
aVare
p852
aVinextricably
p853
aVlinked
p854
aV.
aa(lp855
Vdexter
p856
aV's
p857
aVfixation
p858
aVon
p859
aVthe
p860
aVideal
p861
aVproves
p862
aVto
p863
aVbe
p864
aVthe
p865
aVmost
p866
aVsignificant
p867
aVobstacle
p868
aVto
p869
aVhis
p870
aVhappiness
p871
aV.
aa(lp872
Vhe
p873
aVpersists
p874
aVin
p875
aVbelieving
p876
aVthat
p877
aVjudy
p878
aVis
p879
aVan
p880
aVideal
p881
aVwoman
p882
aV,
aVwhen
p883
aVin
p884
aVreality
p885
aVshe
p886
aVis
p887
aVflawed
p888
aVand
p889
aVhuman
p890
aV.
aa(lp891
Vher
p892
aVtransformation
p893
aVinto
p894
aVa
aVhomely
p895
aVhousewife
p896
aVultimately
p897
aVshatters
p898
aVdexter
p899
aV's
p900
aVillusions
p901
aVand
p902
aVideals
p903
aV.
aassS'irene scheerer'
p904
(dp905
g20
(lp906
(lp907
V[
aVCHARACTER
p908
aV]
aV-
aVdexter
p909
aV's
p910
aVfiancee
p911
aV.
aa(lp912
Virene
p913
aVis
p914
aVlight-haired
p915
aV,
aVsweet
p916
aV,
aVand
p917
aVhonorable
p918
aV.
aa(lp919
Vdexter
p920
aVbreaks
p921
aVher
p922
aVheart
p923
aVby
p924
aVcheating
p925
aVon
p926
aVher
p927
aVwith
p928
aVjudy
p929
aV.
aasg92
NssS'mr. sandwood'
p930
(dp931
g20
(lp932
(lp933
Vmr.
p934
aV[
aVCHARACTER
p935
aV]
aV-
aVa
aVmember
p936
aVof
p937
aVthe
p938
aVsherry
p939
aVisland
p940
aVgolf
p941
aVclub
p942
aVwho
p943
aVgolfs
p944
aVone
p945
aVday
p946
aVwith
p947
aVthe
p948
aVtwenty-three-year-old
p949
aVdexter
p950
aV.
aa(lp951
Vmr.
p952
aV[
aVCHARACTER
p953
aV]
aVis
p954
aVcaptivated
p955
aVby
p956
aVjudy
p957
aVjones
p958
aV's
p959
aVbeauty
p960
aV.
aasg92
NssS'mrs. scheerer'
p961
(dp962
g20
(lp963
(lp964
Vmrs.
p965
aV[
aVCHARACTER
p966
aV]
aV-
aVirene
p967
aV's
p968
aVmother
p969
aV.
aa(lp970
Va
aVkind
p971
aVpresence
p972
aV,
aVmrs.
p973
aV[
aVCHARACTER
p974
aV]
aVlikes
p975
aVdexter
p976
aVand
p977
aVthe
p978
aVidea
p979
aVof
p980
aVhim
p981
aVbecoming
p982
aVher
p983
aVson-in-law
p984
aV.
aa(lp985
Vdexter
p986
aV's
p987
aVbetrayal
p988
aVof
p989
aVirene
p990
aVhurts
p991
aVher
p992
aVdeeply
p993
aV.
aasg92
NssS'mr. hart'
p994
(dp995
g20
(lp996
(lp997
Vmr.
p998
aV[
aVCHARACTER
p999
aV]
aV-
aVa
aVsuccessful
p1000
aVman
p1001
aVwho
p1002
aVadmires
p1003
aVyoung
p1004
aVdexter
p1005
aV's
p1006
aVdrive
p1007
aVand
p1008
aVwork
p1009
aVethic
p1010
aV.
aa(lp1011
Vmr.
p1012
aV[
aVCHARACTER
p1013
aV]
aVgives
p1014
aVdexter
p1015
aVa
aVweekend
p1016
aVguest
p1017
aVpass
p1018
aVto
p1019
aVthe
p1020
aVsherry
p1021
aVisland
p1022
aVgolf
p1023
aVclub
p1024
aV.
aasg92
NssS'mortimer jones'
p1025
(dp1026
g20
(lp1027
(lp1028
V[
aVCHARACTER
p1029
aV]
aV-
aVa
aVwealthy
p1030
aVmember
p1031
aVof
p1032
aVthe
p1033
aVsherry
p1034
aVisland
p1035
aVgold
p1036
aVclub
p1037
aVand
p1038
aVjudy
p1039
aV's
p1040
aVfather
p1041
aV.
aa(lp1042
Vin
p1043
aVone
p1044
aVof
p1045
aVdexter
p1046
aV's
p1047
aVfantasies
p1048
aV,
aVmr.
p1049
aVjones
p1050
aVwatches
p1051
aVdexter
p1052
aVamaze
p1053
aVthe
p1054
aVclub
p1055
aVmembers
p1056
aVwith
p1057
aVhis
p1058
aVmastery
p1059
aVof
p1060
aVthe
p1061
aVspringboard
p1062
aV.
aa(lp1063
Vthe
p1064
aVreal
p1065
aVmr.
p1066
aVjones
p1067
aVapproaches
p1068
aVdexter
p1069
aVone
p1070
aVday
p1071
aV,
aVwith
p1072
aVtears
p1073
aVin
p1074
aVhis
p1075
aVeyes
p1076
aV,
aVproclaiming
p1077
aVhim
p1078
aVthe
p1079
aVbest
p1080
aVcaddy
p1081
aVand
p1082
aVexhorting
p1083
aVhim
p1084
aVnot
p1085
aVto
p1086
aVquit
p1087
aV.
aasg92
NssS'devlin'
p1088
(dp1089
g20
(lp1090
(lp1091
V[
aVCHARACTER
p1092
aV]
aV-
aVa
aVbusinessman
p1093
aVfrom
p1094
aVdetroit
p1095
aVwho
p1096
aVvisits
p1097
aVdexter
p1098
aVin
p1099
aVnew
p1100
aVyork
p1101
aV.
aa(lp1102
V[
aVCHARACTER
p1103
aV]
aVinforms
p1104
aVdexter
p1105
aVthat
p1106
aVjudy
p1107
aVmarried
p1108
aVone
p1109
aVof
p1110
aV[
aVCHARACTER
p1111
aV]
aV's
p1112
aVbest
p1113
aVfriends
p1114
aV,
aVthe
p1115
aVcouple
p1116
aVis
p1117
aVunhappily
p1118
aVmarried
p1119
aV,
aVand
p1120
aVjudy
p1121
aVhas
p1122
aVlost
p1123
aVher
p1124
aVlegendary
p1125
aVgood
p1126
aVlooks
p1127
aV.
aasg92
NsssS'mainText'
p1128
(lp1129
(lp1130
Vwinter
p1131
aVdreams
p1132
aVsome
p1133
aVof
p1134
aVthe
p1135
aVcaddies
p1136
aVwere
p1137
aVpoor
p1138
aVas
p1139
aVsin
p1140
aVand
p1141
aVlived
p1142
aVin
p1143
aVone-room
p1144
aVhouses
p1145
aVwith
p1146
aVa
aVneurasthenic
p1147
aVcow
p1148
aVin
p1149
aVthe
p1150
aVfront
p1151
aVyard
p1152
aV,
aVbut
p1153
aVdexter
p1154
aVgreen
p1155
aV's
p1156
aVfather
p1157
aVowned
p1158
aVthe
p1159
aVsecond
p1160
aVbest
p1161
aVgrocery-store
p1162
aVin
p1163
aVblack
p1164
aVbear
p1165
aV--
p1166
aVthe
p1167
aVbest
p1168
aVone
p1169
aVwas
p1170
aV``
p1171
aVthe
p1172
aVhub
p1173
aV,
aV''
p1174
aVpatronized
p1175
aVby
p1176
aVthe
p1177
aVwealthy
p1178
aVpeople
p1179
aVfrom
p1180
aVsherry
p1181
aVisland
p1182
aV--
p1183
aVand
p1184
aVdexter
p1185
aVcaddied
p1186
aVonly
p1187
aVfor
p1188
aVpocket-money
p1189
aV.
aa(lp1190
Vin
p1191
aVthe
p1192
aVfall
p1193
aVwhen
p1194
aVthe
p1195
aVdays
p1196
aVbecame
p1197
aVcrisp
p1198
aVand
p1199
aVgray
p1200
aV,
aVand
p1201
aVthe
p1202
aVlong
p1203
aVminnesota
p1204
aVwinter
p1205
aVshut
p1206
aVdown
p1207
aVlike
p1208
aVthe
p1209
aVwhite
p1210
aVlid
p1211
aVof
p1212
aVa
aVbox
p1213
aV,
aVdexter
p1214
aV's
p1215
aVskis
p1216
aVmoved
p1217
aVover
p1218
aVthe
p1219
aVsnow
p1220
aVthat
p1221
aVhid
p1222
aVthe
p1223
aVfairways
p1224
aVof
p1225
aVthe
p1226
aVgolf
p1227
aVcourse
p1228
aV.
aa(lp1229
Vat
p1230
aVthese
p1231
aVtimes
p1232
aVthe
p1233
aVcountry
p1234
aVgave
p1235
aVhim
p1236
aVa
aVfeeling
p1237
aVof
p1238
aVprofound
p1239
aVmelancholy
p1240
aV--
p1241
aVit
p1242
aVoffended
p1243
aVhim
p1244
aVthat
p1245
aVthe
p1246
aVlinks
p1247
aVshould
p1248
aVlie
p1249
aVin
p1250
aVenforced
p1251
aVfallowness
p1252
aV,
aVhaunted
p1253
aVby
p1254
aVragged
p1255
aVsparrows
p1256
aVfor
p1257
aVthe
p1258
aVlong
p1259
aVseason
p1260
aV.
aa(lp1261
Vit
p1262
aVwas
p1263
aVdreary
p1264
aV,
aVtoo
p1265
aV,
aVthat
p1266
aVon
p1267
aVthe
p1268
aVtees
p1269
aVwhere
p1270
aVthe
p1271
aVgay
p1272
aVcolors
p1273
aVfluttered
p1274
aVin
p1275
aVsummer
p1276
aVthere
p1277
aVwere
p1278
aVnow
p1279
aVonly
p1280
aVthe
p1281
aVdesolate
p1282
aVsand-boxes
p1283
aVknee-deep
p1284
aVin
p1285
aVcrusted
p1286
aVice
p1287
aV.
aa(lp1288
Vwhen
p1289
aVhe
p1290
aVcrossed
p1291
aVthe
p1292
aVhills
p1293
aVthe
p1294
aVwind
p1295
aVblew
p1296
aVcold
p1297
aVas
p1298
aVmisery
p1299
aV,
aVand
p1300
aVif
p1301
aVthe
p1302
aVsun
p1303
aVwas
p1304
aVout
p1305
aVhe
p1306
aVtramped
p1307
aVwith
p1308
aVhis
p1309
aVeyes
p1310
aVsquinted
p1311
aVup
p1312
aVagainst
p1313
aVthe
p1314
aVhard
p1315
aVdimensionless
p1316
aVglare
p1317
aV.
aa(lp1318
Vin
p1319
aVapril
p1320
aVthe
p1321
aVwinter
p1322
aVceased
p1323
aVabruptly
p1324
aV.
aa(lp1325
Vthe
p1326
aVsnow
p1327
aVran
p1328
aVdown
p1329
aVinto
p1330
aVblack
p1331
aVbear
p1332
aVlake
p1333
aVscarcely
p1334
aVtarrying
p1335
aVfor
p1336
aVthe
p1337
aVearly
p1338
aVgolfers
p1339
aVto
p1340
aVbrave
p1341
aVthe
p1342
aVseason
p1343
aVwith
p1344
aVred
p1345
aVand
p1346
aVblack
p1347
aVballs
p1348
aV.
aa(lp1349
Vwithout
p1350
aVelation
p1351
aV,
aVwithout
p1352
aVan
p1353
aVinterval
p1354
aVof
p1355
aVmoist
p1356
aVglory
p1357
aV,
aVthe
p1358
aVcold
p1359
aVwas
p1360
aVgone
p1361
aV.
aa(lp1362
Vdexter
p1363
aVknew
p1364
aVthat
p1365
aVthere
p1366
aVwas
p1367
aVsomething
p1368
aVdismal
p1369
aVabout
p1370
aVthis
p1371
aVnorthern
p1372
aVspring
p1373
aV,
aVjust
p1374
aVas
p1375
aVhe
p1376
aVknew
p1377
aVthere
p1378
aVwas
p1379
aVsomething
p1380
aVgorgeous
p1381
aVabout
p1382
aVthe
p1383
aVfall
p1384
aV.
aa(lp1385
Vfall
p1386
aVmade
p1387
aVhim
p1388
aVclinch
p1389
aVhis
p1390
aVhands
p1391
aVand
p1392
aVtremble
p1393
aVand
p1394
aVrepeat
p1395
aVidiotic
p1396
aVsentences
p1397
aVto
p1398
aVhimself
p1399
aV,
aVand
p1400
aVmake
p1401
aVbrisk
p1402
aVabrupt
p1403
aVgestures
p1404
aVof
p1405
aVcommand
p1406
aVto
p1407
aVimaginary
p1408
aVaudiences
p1409
aVand
p1410
aVarmies
p1411
aV.
aa(lp1412
Voctober
p1413
aVfilled
p1414
aVhim
p1415
aVwith
p1416
aVhope
p1417
aVwhich
p1418
aVnovember
p1419
aVraised
p1420
aVto
p1421
aVa
aVsort
p1422
aVof
p1423
aVecstatic
p1424
aVtriumph
p1425
aV,
aVand
p1426
aVin
p1427
aVthis
p1428
aVmood
p1429
aVthe
p1430
aVfleeting
p1431
aVbrilliant
p1432
aVimpressions
p1433
aVof
p1434
aVthe
p1435
aVsummer
p1436
aVat
p1437
aVsherry
p1438
aVisland
p1439
aVwere
p1440
aVready
p1441
aVgrist
p1442
aVto
p1443
aVhis
p1444
aVmill
p1445
aV.
aa(lp1446
Vhe
p1447
aVbecame
p1448
aVa
aVgolf
p1449
aVchampion
p1450
aVand
p1451
aVdefeated
p1452
aVmr.
p1453
aVt.
p1454
aVa.
p1455
aVhedrick
p1456
aVin
p1457
aVa
aVmarvellous
p1458
aVmatch
p1459
aVplayed
p1460
aVa
aVhundred
p1461
aVtimes
p1462
aVover
p1463
aVthe
p1464
aVfairways
p1465
aVof
p1466
aVhis
p1467
aVimagination
p1468
aV,
aVa
aVmatch
p1469
aVeach
p1470
aVdetail
p1471
aVof
p1472
aVwhich
p1473
aVhe
p1474
aVchanged
p1475
aVabout
p1476
aVuntiringly
p1477
aV--
p1478
aVsometimes
p1479
aVhe
p1480
aVwon
p1481
aVwith
p1482
aValmost
p1483
aVlaughable
p1484
aVease
p1485
aV,
aVsometimes
p1486
aVhe
p1487
aVcame
p1488
aVup
p1489
aVmagnificently
p1490
aVfrom
p1491
aVbehind
p1492
aV.
aa(lp1493
Vagain
p1494
aV,
aVstepping
p1495
aVfrom
p1496
aVa
aVpierce-arrow
p1497
aVautomobile
p1498
aV,
aVlike
p1499
aVmr.
p1500
aVmortimer
p1501
aVjones
p1502
aV,
aVhe
p1503
aVstrolled
p1504
aVfrigidly
p1505
aVinto
p1506
aVthe
p1507
aVlounge
p1508
aVof
p1509
aVthe
p1510
aVsherry
p1511
aVisland
p1512
aVgolf
p1513
aVclub
p1514
aV--
p1515
aVor
p1516
aVperhaps
p1517
aV,
aVsurrounded
p1518
aVby
p1519
aVan
p1520
aVadmiring
p1521
aVcrowd
p1522
aV,
aVhe
p1523
aVgave
p1524
aVan
p1525
aVexhibition
p1526
aVof
p1527
aVfancy
p1528
aVdiving
p1529
aVfrom
p1530
aVthe
p1531
aVspring-board
p1532
aVof
p1533
aVthe
p1534
aVclub
p1535
aVraft
p1536
aV.
aa(lp1537
V.
aa(lp1538
V.
aa(lp1539
V.
aa(lp1540
Vamong
p1541
aVthose
p1542
aVwho
p1543
aVwatched
p1544
aVhim
p1545
aVin
p1546
aVopen-mouthed
p1547
aVwonder
p1548
aVwas
p1549
aVmr.
p1550
aVmortimer
p1551
aVjones
p1552
aV.
aa(lp1553
Vand
p1554
aVone
p1555
aVday
p1556
aVit
p1557
aVcame
p1558
aVto
p1559
aVpass
p1560
aVthat
p1561
aVmr.
p1562
aVjones
p1563
aV--
p1564
aVhimself
p1565
aVand
p1566
aVnot
p1567
aVhis
p1568
aVghost
p1569
aV--
p1570
aVcame
p1571
aVup
p1572
aVto
p1573
aVdexter
p1574
aVwith
p1575
aVtears
p1576
aVin
p1577
aVhis
p1578
aVeyes
p1579
aVand
p1580
aVsaid
p1581
aVthat
p1582
aVdexter
p1583
aVwas
p1584
aVthe
p1585
aV--
p1586
aV--
p1587
aVbest
p1588
aVcaddy
p1589
aVin
p1590
aVthe
p1591
aVclub
p1592
aV,
aVand
p1593
aVwould
p1594
aVn't
p1595
aVhe
p1596
aVdecide
p1597
aVnot
p1598
aVto
p1599
aVquit
p1600
aVif
p1601
aVmr.
p1602
aVjones
p1603
aVmade
p1604
aVit
p1605
aVworth
p1606
aVhis
p1607
aVwhile
p1608
aV,
aVbecause
p1609
aVevery
p1610
aVother
p1611
aV--
p1612
aV--
p1613
aVcaddy
p1614
aVin
p1615
aVthe
p1616
aVclub
p1617
aVlost
p1618
aVone
p1619
aVball
p1620
aVa
aVhole
p1621
aVfor
p1622
aVhim
p1623
aV--
p1624
aVregularly
p1625
aV--
p1626
aV''
p1627
aVno
p1628
aV,
aVsir
p1629
aV,
aV''
p1630
aVsaid
p1631
aVdexter
p1632
aVdecisively
p1633
aV,
aV``
p1634
aVi
aVdo
p1635
aVn't
p1636
aVwant
p1637
aVto
p1638
aVcaddy
p1639
aVany
p1640
aVmore
p1641
aV.
aV''
p1642
aa(lp1643
Vthen
p1644
aV,
aVafter
p1645
aVa
aVpause
p1646
aV:
aV``
p1647
aVi
aV'm
p1648
aVtoo
p1649
aVold
p1650
aV.
aV''
p1651
aa(lp1652
V``
p1653
aVyou
p1654
aV're
p1655
aVnot
p1656
aVmore
p1657
aVthan
p1658
aVfourteen
p1659
aV.
aa(lp1660
Vwhy
p1661
aVthe
p1662
aVdevil
p1663
aVdid
p1664
aVyou
p1665
aVdecide
p1666
aVjust
p1667
aVthis
p1668
aVmorning
p1669
aVthat
p1670
aVyou
p1671
aVwanted
p1672
aVto
p1673
aVquit
p1674
aV?
aa(lp1675
Vyou
p1676
aVpromised
p1677
aVthat
p1678
aVnext
p1679
aVweek
p1680
aVyou
p1681
aV'd
p1682
aVgo
p1683
aVover
p1684
aVto
p1685
aVthe
p1686
aVstate
p1687
aVtournament
p1688
aVwith
p1689
aVme
p1690
aV.
aV''
p1691
aa(lp1692
V``
p1693
aVi
aVdecided
p1694
aVi
aVwas
p1695
aVtoo
p1696
aVold
p1697
aV.
aV''
p1698
aa(lp1699
Vdexter
p1700
aVhanded
p1701
aVin
p1702
aVhis
p1703
aV``
p1704
aVa
aVclass
p1705
aV''
p1706
aVbadge
p1707
aV,
aVcollected
p1708
aVwhat
p1709
aVmoney
p1710
aVwas
p1711
aVdue
p1712
aVhim
p1713
aVfrom
p1714
aVthe
p1715
aVcaddy
p1716
aVmaster
p1717
aV,
aVand
p1718
aVwalked
p1719
aVhome
p1720
aVto
p1721
aVblack
p1722
aVbear
p1723
aVvillage
p1724
aV.
aa(lp1725
V``
p1726
aVthe
p1727
aVbest
p1728
aV--
p1729
aV--
p1730
aVcaddy
p1731
aVi
aVever
p1732
aVsaw
p1733
aV,
aV''
p1734
aVshouted
p1735
aVmr.
p1736
aVmortimer
p1737
aVjones
p1738
aVover
p1739
aVa
aVdrink
p1740
aVthat
p1741
aVafternoon
p1742
aV.
aa(lp1743
V``
p1744
aVnever
p1745
aVlost
p1746
aVa
aVball
p1747
aV!
aa(lp1748
Vwilling
p1749
aV!
aa(lp1750
Vintelligent
p1751
aV!
aa(lp1752
Vquiet
p1753
aV!
aa(lp1754
Vhonest
p1755
aV!
aa(lp1756
Vgrateful
p1757
aV!
aV''
p1758
aa(lp1759
Vthe
p1760
aVlittle
p1761
aVgirl
p1762
aVwho
p1763
aVhad
p1764
aVdone
p1765
aVthis
p1766
aVwas
p1767
aVeleven
p1768
aV--
p1769
aVbeautifully
p1770
aVugly
p1771
aVas
p1772
aVlittle
p1773
aVgirls
p1774
aVare
p1775
aVapt
p1776
aVto
p1777
aVbe
p1778
aVwho
p1779
aVare
p1780
aVdestined
p1781
aVafter
p1782
aVa
aVfew
p1783
aVyears
p1784
aVto
p1785
aVbe
p1786
aVinexpressibly
p1787
aVlovely
p1788
aVand
p1789
aVbring
p1790
aVno
p1791
aVend
p1792
aVof
p1793
aVmisery
p1794
aVto
p1795
aVa
aVgreat
p1796
aVnumber
p1797
aVof
p1798
aVmen
p1799
aV.
aa(lp1800
Vthe
p1801
aVspark
p1802
aV,
aVhowever
p1803
aV,
aVwas
p1804
aVperceptible
p1805
aV.
aa(lp1806
Vthere
p1807
aVwas
p1808
aVa
aVgeneral
p1809
aVungodliness
p1810
aVin
p1811
aVthe
p1812
aVway
p1813
aVher
p1814
aVlips
p1815
aVtwisted
p1816
aVdown
p1817
aVat
p1818
aVthe
p1819
aVcorners
p1820
aVwhen
p1821
aVshe
p1822
aVsmiled
p1823
aV,
aVand
p1824
aVin
p1825
aVthe
p1826
aV--
p1827
aVheaven
p1828
aVhelp
p1829
aVus
p1830
aV!
aV--
p1831
aVin
p1832
aVthe
p1833
aValmost
p1834
aVpassionate
p1835
aVquality
p1836
aVof
p1837
aVher
p1838
aVeyes
p1839
aV.
aa(lp1840
Vvitality
p1841
aVis
p1842
aVborn
p1843
aVearly
p1844
aVin
p1845
aVsuch
p1846
aVwomen
p1847
aV.
aa(lp1848
Vit
p1849
aVwas
p1850
aVutterly
p1851
aVin
p1852
aVevidence
p1853
aVnow
p1854
aV,
aVshining
p1855
aVthrough
p1856
aVher
p1857
aVthin
p1858
aVframe
p1859
aVin
p1860
aVa
aVsort
p1861
aVof
p1862
aVglow
p1863
aV.
aa(lp1864
Vshe
p1865
aVhad
p1866
aVcome
p1867
aVeagerly
p1868
aVout
p1869
aVon
p1870
aVto
p1871
aVthe
p1872
aVcourse
p1873
aVat
p1874
aVnine
p1875
aVo'clock
p1876
aVwith
p1877
aVa
aVwhite
p1878
aVlinen
p1879
aVnurse
p1880
aVand
p1881
aVfive
p1882
aVsmall
p1883
aVnew
p1884
aVgolf-clubs
p1885
aVin
p1886
aVa
aVwhite
p1887
aVcanvas
p1888
aVbag
p1889
aVwhich
p1890
aVthe
p1891
aVnurse
p1892
aVwas
p1893
aVcarrying
p1894
aV.
aa(lp1895
Vwhen
p1896
aVdexter
p1897
aVfirst
p1898
aVsaw
p1899
aVher
p1900
aVshe
p1901
aVwas
p1902
aVstanding
p1903
aVby
p1904
aVthe
p1905
aVcaddy
p1906
aVhouse
p1907
aV,
aVrather
p1908
aVill
p1909
aVat
p1910
aVease
p1911
aVand
p1912
aVtrying
p1913
aVto
p1914
aVconceal
p1915
aVthe
p1916
aVfact
p1917
aVby
p1918
aVengaging
p1919
aVher
p1920
aVnurse
p1921
aVin
p1922
aVan
p1923
aVobviously
p1924
aVunnatural
p1925
aVconversation
p1926
aVgraced
p1927
aVby
p1928
aVstartling
p1929
aVand
p1930
aVirrelevant
p1931
aVgrimaces
p1932
aVfrom
p1933
aVherself
p1934
aV.
aa(lp1935
V``
p1936
aVwell
p1937
aV,
aVit
p1938
aV's
p1939
aVcertainly
p1940
aVa
aVnice
p1941
aVday
p1942
aV,
aVhilda
p1943
aV,
aV''
p1944
aVdexter
p1945
aVheard
p1946
aVher
p1947
aVsay
p1948
aV.
aa(lp1949
Vshe
p1950
aVdrew
p1951
aVdown
p1952
aVthe
p1953
aVcorners
p1954
aVof
p1955
aVher
p1956
aVmouth
p1957
aV,
aVsmiled
p1958
aV,
aVand
p1959
aVglanced
p1960
aVfurtively
p1961
aVaround
p1962
aV,
aVher
p1963
aVeyes
p1964
aVin
p1965
aVtransit
p1966
aVfalling
p1967
aVfor
p1968
aVan
p1969
aVinstant
p1970
aVon
p1971
aVdexter
p1972
aV.
aa(lp1973
Vthen
p1974
aVto
p1975
aVthe
p1976
aVnurse
p1977
aV:
aV''
p1978
aVwell
p1979
aV,
aVi
aVguess
p1980
aVthere
p1981
aVare
p1982
aVn't
p1983
aVvery
p1984
aVmany
p1985
aVpeople
p1986
aVout
p1987
aVhere
p1988
aVthis
p1989
aVmorning
p1990
aV,
aVare
p1991
aVthere
p1992
aV?
aV''
p1993
aa(lp1994
Vthe
p1995
aVsmile
p1996
aVagain
p1997
aV--
p1998
aVradiant
p1999
aV,
aVblatantly
p2000
aVartificial
p2001
aV--
p2002
aVconvincing
p2003
aV.
aa(lp2004
V``
p2005
aVi
aVdo
p2006
aVn't
p2007
aVknow
p2008
aVwhat
p2009
aVwe
p2010
aV're
p2011
aVsupposed
p2012
aVto
p2013
aVdo
p2014
aVnow
p2015
aV,
aV''
p2016
aVsaid
p2017
aVthe
p2018
aVnurse
p2019
aV,
aVlooking
p2020
aVnowhere
p2021
aVin
p2022
aVparticular
p2023
aV.
aa(lp2024
V``
p2025
aVoh
p2026
aV,
aVthat
p2027
aV's
p2028
aVall
p2029
aVright
p2030
aV.
aa(lp2031
Vi
aV'll
p2032
aVfix
p2033
aVit
p2034
aVup
p2035
aV.
aV''
p2036
aa(lp2037
Vdexter
p2038
aVstood
p2039
aVperfectly
p2040
aVstill
p2041
aV,
aVhis
p2042
aVmouth
p2043
aVslightly
p2044
aVajar
p2045
aV.
aa(lp2046
Vhe
p2047
aVknew
p2048
aVthat
p2049
aVif
p2050
aVhe
p2051
aVmoved
p2052
aVforward
p2053
aVa
aVstep
p2054
aVhis
p2055
aVstare
p2056
aVwould
p2057
aVbe
p2058
aVin
p2059
aVher
p2060
aVline
p2061
aVof
p2062
aVvision
p2063
aV--
p2064
aVif
p2065
aVhe
p2066
aVmoved
p2067
aVbackward
p2068
aVhe
p2069
aVwould
p2070
aVlose
p2071
aVhis
p2072
aVfull
p2073
aVview
p2074
aVof
p2075
aVher
p2076
aVface
p2077
aV.
aa(lp2078
Vfor
p2079
aVa
aVmoment
p2080
aVhe
p2081
aVhad
p2082
aVnot
p2083
aVrealized
p2084
aVhow
p2085
aVyoung
p2086
aVshe
p2087
aVwas
p2088
aV.
aa(lp2089
Vnow
p2090
aVhe
p2091
aVremembered
p2092
aVhaving
p2093
aVseen
p2094
aVher
p2095
aVseveral
p2096
aVtimes
p2097
aVthe
p2098
aVyear
p2099
aVbefore
p2100
aV--
p2101
aVin
p2102
aVbloomers
p2103
aV.
aa(lp2104
Vsuddenly
p2105
aV,
aVinvoluntarily
p2106
aV,
aVhe
p2107
aVlaughed
p2108
aV,
aVa
aVshort
p2109
aVabrupt
p2110
aVlaugh
p2111
aV--
p2112
aVthen
p2113
aV,
aVstartled
p2114
aVby
p2115
aVhimself
p2116
aV,
aVhe
p2117
aVturned
p2118
aVand
p2119
aVbegan
p2120
aVto
p2121
aVwalk
p2122
aVquickly
p2123
aVaway
p2124
aV.
aa(lp2125
V``
p2126
aVboy
p2127
aV!
aV''
p2128
aa(lp2129
Vdexter
p2130
aVstopped
p2131
aV.
aa(lp2132
V``
p2133
aVboy
p2134
aV--
p2135
aV''
p2136
aVbeyond
p2137
aVquestion
p2138
aVhe
p2139
aVwas
p2140
aVaddressed
p2141
aV.
aa(lp2142
Vnot
p2143
aVonly
p2144
aVthat
p2145
aV,
aVbut
p2146
aVhe
p2147
aVwas
p2148
aVtreated
p2149
aVto
p2150
aVthat
p2151
aVabsurd
p2152
aVsmile
p2153
aV,
aVthat
p2154
aVpreposterous
p2155
aVsmile
p2156
aV--
p2157
aVthe
p2158
aVmemory
p2159
aVof
p2160
aVwhich
p2161
aVat
p2162
aVleast
p2163
aVa
aVdozen
p2164
aVmen
p2165
aVwere
p2166
aVto
p2167
aVcarry
p2168
aVinto
p2169
aVmiddle
p2170
aVage
p2171
aV.
aa(lp2172
V``
p2173
aVboy
p2174
aV,
aVdo
p2175
aVyou
p2176
aVknow
p2177
aVwhere
p2178
aVthe
p2179
aVgolf
p2180
aVteacher
p2181
aVis
p2182
aV?
aV''
p2183
aa(lp2184
V``
p2185
aVhe
p2186
aV's
p2187
aVgiving
p2188
aVa
aVlesson
p2189
aV.
aV''
p2190
aa(lp2191
V``
p2192
aVwell
p2193
aV,
aVdo
p2194
aVyou
p2195
aVknow
p2196
aVwhere
p2197
aVthe
p2198
aVcaddy-master
p2199
aVis
p2200
aV?
aV''
p2201
aa(lp2202
V``
p2203
aVhe
p2204
aVis
p2205
aVn't
p2206
aVhere
p2207
aVyet
p2208
aVthis
p2209
aVmorning
p2210
aV.
aV''
p2211
aa(lp2212
V``
p2213
aVoh
p2214
aV.
aV''
p2215
aa(lp2216
Vfor
p2217
aVa
aVmoment
p2218
aVthis
p2219
aVbaffled
p2220
aVher
p2221
aV.
aa(lp2222
Vshe
p2223
aVstood
p2224
aValternately
p2225
aVon
p2226
aVher
p2227
aVright
p2228
aVand
p2229
aVleft
p2230
aVfoot
p2231
aV.
aa(lp2232
V``
p2233
aVwe
p2234
aV'd
p2235
aVlike
p2236
aVto
p2237
aVget
p2238
aVa
aVcaddy
p2239
aV,
aV''
p2240
aVsaid
p2241
aVthe
p2242
aVnurse
p2243
aV.
aa(lp2244
V``
p2245
aVmrs.
p2246
aVmortimer
p2247
aVjones
p2248
aVsent
p2249
aVus
p2250
aVout
p2251
aVto
p2252
aVplay
p2253
aVgolf
p2254
aV,
aVand
p2255
aVwe
p2256
aVdo
p2257
aVn't
p2258
aVknow
p2259
aVhow
p2260
aVwithout
p2261
aVwe
p2262
aVget
p2263
aVa
aVcaddy
p2264
aV.
aV''
p2265
aa(lp2266
Vhere
p2267
aVshe
p2268
aVwas
p2269
aVstopped
p2270
aVby
p2271
aVan
p2272
aVominous
p2273
aVglance
p2274
aVfrom
p2275
aVmiss
p2276
aVjones
p2277
aV,
aVfollowed
p2278
aVimmediately
p2279
aVby
p2280
aVthe
p2281
aVsmile
p2282
aV.
aa(lp2283
V``
p2284
aVthere
p2285
aVare
p2286
aVn't
p2287
aVany
p2288
aVcaddies
p2289
aVhere
p2290
aVexcept
p2291
aVme
p2292
aV,
aV''
p2293
aVsaid
p2294
aVdexter
p2295
aVto
p2296
aVthe
p2297
aVnurse
p2298
aV,
aV``
p2299
aVand
p2300
aVi
aVgot
p2301
aVto
p2302
aVstay
p2303
aVhere
p2304
aVin
p2305
aVcharge
p2306
aVuntil
p2307
aVthe
p2308
aVcaddy-master
p2309
aVgets
p2310
aVhere
p2311
aV.
aV''
p2312
aa(lp2313
V``
p2314
aVoh
p2315
aV.
aV''
p2316
aa(lp2317
Vmiss
p2318
aVjones
p2319
aVand
p2320
aVher
p2321
aVretinue
p2322
aVnow
p2323
aVwithdrew
p2324
aV,
aVand
p2325
aVat
p2326
aVa
aVproper
p2327
aVdistance
p2328
aVfrom
p2329
aVdexter
p2330
aVbecame
p2331
aVinvolved
p2332
aVin
p2333
aVa
aVheated
p2334
aVconversation
p2335
aV,
aVwhich
p2336
aVwas
p2337
aVconcluded
p2338
aVby
p2339
aVmiss
p2340
aVjones
p2341
aVtaking
p2342
aVone
p2343
aVof
p2344
aVthe
p2345
aVclubs
p2346
aVand
p2347
aVhitting
p2348
aVit
p2349
aVon
p2350
aVthe
p2351
aVground
p2352
aVwith
p2353
aVviolence
p2354
aV.
aa(lp2355
Vfor
p2356
aVfurther
p2357
aVemphasis
p2358
aVshe
p2359
aVraised
p2360
aVit
p2361
aVagain
p2362
aVand
p2363
aVwas
p2364
aVabout
p2365
aVto
p2366
aVbring
p2367
aVit
p2368
aVdown
p2369
aVsmartly
p2370
aVupon
p2371
aVthe
p2372
aVnurse
p2373
aV's
p2374
aVbosom
p2375
aV,
aVwhen
p2376
aVthe
p2377
aVnurse
p2378
aVseized
p2379
aVthe
p2380
aVclub
p2381
aVand
p2382
aVtwisted
p2383
aVit
p2384
aVfrom
p2385
aVher
p2386
aVhands
p2387
aV.
aa(lp2388
V``
p2389
aVyou
p2390
aVdamn
p2391
aVlittle
p2392
aVmean
p2393
aVold
p2394
aVthing
p2395
aV!
aV''
p2396
aa(lp2397
Vcried
p2398
aVmiss
p2399
aVjones
p2400
aVwildly
p2401
aV.
aa(lp2402
Vanother
p2403
aVargument
p2404
aVensued
p2405
aV.
aa(lp2406
Vrealizing
p2407
aVthat
p2408
aVthe
p2409
aVelements
p2410
aVof
p2411
aVthe
p2412
aVcomedy
p2413
aVwere
p2414
aVimplied
p2415
aVin
p2416
aVthe
p2417
aVscene
p2418
aV,
aVdexter
p2419
aVseveral
p2420
aVtimes
p2421
aVbegan
p2422
aVto
p2423
aVlaugh
p2424
aV,
aVbut
p2425
aVeach
p2426
aVtime
p2427
aVrestrained
p2428
aVthe
p2429
aVlaugh
p2430
aVbefore
p2431
aVit
p2432
aVreached
p2433
aVaudibility
p2434
aV.
aa(lp2435
Vhe
p2436
aVcould
p2437
aVnot
p2438
aVresist
p2439
aVthe
p2440
aVmonstrous
p2441
aVconviction
p2442
aVthat
p2443
aVthe
p2444
aVlittle
p2445
aVgirl
p2446
aVwas
p2447
aVjustified
p2448
aVin
p2449
aVbeating
p2450
aVthe
p2451
aVnurse
p2452
aV.
aa(lp2453
Vthe
p2454
aVsituation
p2455
aVwas
p2456
aVresolved
p2457
aVby
p2458
aVthe
p2459
aVfortuitous
p2460
aVappearance
p2461
aVof
p2462
aVthe
p2463
aVcaddy-master
p2464
aV,
aVwho
p2465
aVwas
p2466
aVappealed
p2467
aVto
p2468
aVimmediately
p2469
aVby
p2470
aVthe
p2471
aVnurse
p2472
aV.
aa(lp2473
V``
p2474
aVmiss
p2475
aVjones
p2476
aVis
p2477
aVto
p2478
aVhave
p2479
aVa
aVlittle
p2480
aVcaddy
p2481
aV,
aVand
p2482
aVthis
p2483
aVone
p2484
aVsays
p2485
aVhe
p2486
aVca
p2487
aVn't
p2488
aVgo
p2489
aV.
aV''
p2490
aa(lp2491
V``
p2492
aVmr.
p2493
aVmckenna
p2494
aVsaid
p2495
aVi
aVwas
p2496
aVto
p2497
aVwait
p2498
aVhere
p2499
aVtill
p2500
aVyou
p2501
aVcame
p2502
aV,
aV''
p2503
aVsaid
p2504
aVdexter
p2505
aVquickly
p2506
aV.
aa(lp2507
V``
p2508
aVwell
p2509
aV,
aVhe
p2510
aV's
p2511
aVhere
p2512
aVnow
p2513
aV.
aV''
p2514
aa(lp2515
Vmiss
p2516
aVjones
p2517
aVsmiled
p2518
aVcheerfully
p2519
aVat
p2520
aVthe
p2521
aVcaddy-master
p2522
aV.
aa(lp2523
Vthen
p2524
aVshe
p2525
aVdropped
p2526
aVher
p2527
aVbag
p2528
aVand
p2529
aVset
p2530
aVoff
p2531
aVat
p2532
aVa
aVhaughty
p2533
aVmince
p2534
aVtoward
p2535
aVthe
p2536
aVfirst
p2537
aVtee
p2538
aV.
aa(lp2539
V``
p2540
aVwell
p2541
aV?
aV''
p2542
aa(lp2543
Vthe
p2544
aVcaddy-master
p2545
aVturned
p2546
aVto
p2547
aVdexter
p2548
aV.
aa(lp2549
V``
p2550
aVwhat
p2551
aVyou
p2552
aVstanding
p2553
aVthere
p2554
aVlike
p2555
aVa
aVdummy
p2556
aVfor
p2557
aV?
aa(lp2558
Vgo
p2559
aVpick
p2560
aVup
p2561
aVthe
p2562
aVyoung
p2563
aVlady
p2564
aV's
p2565
aVclubs
p2566
aV.
aV''
p2567
aa(lp2568
V``
p2569
aVi
aVdo
p2570
aVn't
p2571
aVthink
p2572
aVi
aV'll
p2573
aVgo
p2574
aVout
p2575
aVto-day
p2576
aV,
aV''
p2577
aVsaid
p2578
aVdexter
p2579
aV.
aa(lp2580
V``
p2581
aVyou
p2582
aVdo
p2583
aVn't
p2584
aV--
p2585
aV''
p2586
aV''
p2587
aVi
aVthink
p2588
aVi
aV'll
p2589
aVquit
p2590
aV.
aV''
p2591
aa(lp2592
Vthe
p2593
aVenormity
p2594
aVof
p2595
aVhis
p2596
aVdecision
p2597
aVfrightened
p2598
aVhim
p2599
aV.
aa(lp2600
Vhe
p2601
aVwas
p2602
aVa
aVfavorite
p2603
aVcaddy
p2604
aV,
aVand
p2605
aVthe
p2606
aVthirty
p2607
aVdollars
p2608
aVa
aVmonth
p2609
aVhe
p2610
aVearned
p2611
aVthrough
p2612
aVthe
p2613
aVsummer
p2614
aVwere
p2615
aVnot
p2616
aVto
p2617
aVbe
p2618
aVmade
p2619
aVelsewhere
p2620
aVaround
p2621
aVthe
p2622
aVlake
p2623
aV.
aa(lp2624
Vbut
p2625
aVhe
p2626
aVhad
p2627
aVreceived
p2628
aVa
aVstrong
p2629
aVemotional
p2630
aVshock
p2631
aV,
aVand
p2632
aVhis
p2633
aVperturbation
p2634
aVrequired
p2635
aVa
aVviolent
p2636
aVand
p2637
aVimmediate
p2638
aVoutlet
p2639
aV.
aa(lp2640
Vit
p2641
aVis
p2642
aVnot
p2643
aVso
p2644
aVsimple
p2645
aVas
p2646
aVthat
p2647
aV,
aVeither
p2648
aV.
aa(lp2649
Vas
p2650
aVso
p2651
aVfrequently
p2652
aVwould
p2653
aVbe
p2654
aVthe
p2655
aVcase
p2656
aVin
p2657
aVthe
p2658
aVfuture
p2659
aV,
aVdexter
p2660
aVwas
p2661
aVunconsciously
p2662
aVdictated
p2663
aVto
p2664
aVby
p2665
aVhis
p2666
aVwinter
p2667
aVdreams
p2668
aV.
aa(lp2669
Vii
p2670
aVnow
p2671
aV,
aVof
p2672
aVcourse
p2673
aV,
aVthe
p2674
aVquality
p2675
aVand
p2676
aVthe
p2677
aVseasonability
p2678
aVof
p2679
aVthese
p2680
aVwinter
p2681
aVdreams
p2682
aVvaried
p2683
aV,
aVbut
p2684
aVthe
p2685
aVstuff
p2686
aVof
p2687
aVthem
p2688
aVremained
p2689
aV.
aa(lp2690
Vthey
p2691
aVpersuaded
p2692
aVdexter
p2693
aVseveral
p2694
aVyears
p2695
aVlater
p2696
aVto
p2697
aVpass
p2698
aVup
p2699
aVa
aVbusiness
p2700
aVcourse
p2701
aVat
p2702
aVthe
p2703
aVstate
p2704
aVuniversity
p2705
aV--
p2706
aVhis
p2707
aVfather
p2708
aV,
aVprospering
p2709
aVnow
p2710
aV,
aVwould
p2711
aVhave
p2712
aVpaid
p2713
aVhis
p2714
aVway
p2715
aV--
p2716
aVfor
p2717
aVthe
p2718
aVprecarious
p2719
aVadvantage
p2720
aVof
p2721
aVattending
p2722
aVan
p2723
aVolder
p2724
aVand
p2725
aVmore
p2726
aVfamous
p2727
aVuniversity
p2728
aVin
p2729
aVthe
p2730
aVeast
p2731
aV,
aVwhere
p2732
aVhe
p2733
aVwas
p2734
aVbothered
p2735
aVby
p2736
aVhis
p2737
aVscanty
p2738
aVfunds
p2739
aV.
aa(lp2740
Vbut
p2741
aVdo
p2742
aVnot
p2743
aVget
p2744
aVthe
p2745
aVimpression
p2746
aV,
aVbecause
p2747
aVhis
p2748
aVwinter
p2749
aVdreams
p2750
aVhappened
p2751
aVto
p2752
aVbe
p2753
aVconcerned
p2754
aVat
p2755
aVfirst
p2756
aVwith
p2757
aVmusings
p2758
aVon
p2759
aVthe
p2760
aVrich
p2761
aV,
aVthat
p2762
aVthere
p2763
aVwas
p2764
aVanything
p2765
aVmerely
p2766
aVsnobbish
p2767
aVin
p2768
aVthe
p2769
aVboy
p2770
aV.
aa(lp2771
Vhe
p2772
aVwanted
p2773
aVnot
p2774
aVassociation
p2775
aVwith
p2776
aVglittering
p2777
aVthings
p2778
aVand
p2779
aVglittering
p2780
aVpeople
p2781
aV--
p2782
aVhe
p2783
aVwanted
p2784
aVthe
p2785
aVglittering
p2786
aVthings
p2787
aVthemselves
p2788
aV.
aa(lp2789
Voften
p2790
aVhe
p2791
aVreached
p2792
aVout
p2793
aVfor
p2794
aVthe
p2795
aVbest
p2796
aVwithout
p2797
aVknowing
p2798
aVwhy
p2799
aVhe
p2800
aVwanted
p2801
aVit
p2802
aV--
p2803
aVand
p2804
aVsometimes
p2805
aVhe
p2806
aVran
p2807
aVup
p2808
aVagainst
p2809
aVthe
p2810
aVmysterious
p2811
aVdenials
p2812
aVand
p2813
aVprohibitions
p2814
aVin
p2815
aVwhich
p2816
aVlife
p2817
aVindulges
p2818
aV.
aa(lp2819
Vit
p2820
aVis
p2821
aVwith
p2822
aVone
p2823
aVof
p2824
aVthose
p2825
aVdenials
p2826
aVand
p2827
aVnot
p2828
aVwith
p2829
aVhis
p2830
aVcareer
p2831
aVas
p2832
aVa
aVwhole
p2833
aVthat
p2834
aVthis
p2835
aVstory
p2836
aVdeals
p2837
aV.
aa(lp2838
Vhe
p2839
aVmade
p2840
aVmoney
p2841
aV.
aa(lp2842
Vit
p2843
aVwas
p2844
aVrather
p2845
aVamazing
p2846
aV.
aa(lp2847
Vafter
p2848
aVcollege
p2849
aVhe
p2850
aVwent
p2851
aVto
p2852
aVthe
p2853
aVcity
p2854
aVfrom
p2855
aVwhich
p2856
aVblack
p2857
aVbear
p2858
aVlake
p2859
aVdraws
p2860
aVits
p2861
aVwealthy
p2862
aVpatrons
p2863
aV.
aa(lp2864
Vwhen
p2865
aVhe
p2866
aVwas
p2867
aVonly
p2868
aVtwenty-three
p2869
aVand
p2870
aVhad
p2871
aVbeen
p2872
aVthere
p2873
aVnot
p2874
aVquite
p2875
aVtwo
p2876
aVyears
p2877
aV,
aVthere
p2878
aVwere
p2879
aValready
p2880
aVpeople
p2881
aVwho
p2882
aVliked
p2883
aVto
p2884
aVsay
p2885
aV:
aV``
p2886
aVnow
p2887
aVthere
p2888
aV's
p2889
aVa
aVboy
p2890
aV--
p2891
aV''
p2892
aVall
p2893
aVabout
p2894
aVhim
p2895
aVrich
p2896
aVmen
p2897
aV's
p2898
aVsons
p2899
aVwere
p2900
aVpeddling
p2901
aVbonds
p2902
aVprecariously
p2903
aV,
aVor
p2904
aVinvesting
p2905
aVpatrimonies
p2906
aVprecariously
p2907
aV,
aVor
p2908
aVplodding
p2909
aVthrough
p2910
aVthe
p2911
aVtwo
p2912
aVdozen
p2913
aVvolumes
p2914
aVof
p2915
aVthe
p2916
aV``
p2917
aVgeorge
p2918
aVwashington
p2919
aVcommercial
p2920
aVcourse
p2921
aV,
aV''
p2922
aVbut
p2923
aVdexter
p2924
aVborrowed
p2925
aVa
aVthousand
p2926
aVdollars
p2927
aVon
p2928
aVhis
p2929
aVcollege
p2930
aVdegree
p2931
aVand
p2932
aVhis
p2933
aVconfident
p2934
aVmouth
p2935
aV,
aVand
p2936
aVbought
p2937
aVa
aVpartnership
p2938
aVin
p2939
aVa
aVlaundry
p2940
aV.
aa(lp2941
Vit
p2942
aVwas
p2943
aVa
aVsmall
p2944
aVlaundry
p2945
aVwhen
p2946
aVhe
p2947
aVwent
p2948
aVinto
p2949
aVit
p2950
aVbut
p2951
aVdexter
p2952
aVmade
p2953
aVa
aVspecialty
p2954
aVof
p2955
aVlearning
p2956
aVhow
p2957
aVthe
p2958
aVenglish
p2959
aVwashed
p2960
aVfine
p2961
aVwoollen
p2962
aVgolf-stockings
p2963
aVwithout
p2964
aVshrinking
p2965
aVthem
p2966
aV,
aVand
p2967
aVwithin
p2968
aVa
aVyear
p2969
aVhe
p2970
aVwas
p2971
aVcatering
p2972
aVto
p2973
aVthe
p2974
aVtrade
p2975
aVthat
p2976
aVwore
p2977
aVknickerbockers
p2978
aV.
aa(lp2979
Vmen
p2980
aVwere
p2981
aVinsisting
p2982
aVthat
p2983
aVtheir
p2984
aVshetland
p2985
aVhose
p2986
aVand
p2987
aVsweaters
p2988
aVgo
p2989
aVto
p2990
aVhis
p2991
aVlaundry
p2992
aVjust
p2993
aVas
p2994
aVthey
p2995
aVhad
p2996
aVinsisted
p2997
aVon
p2998
aVa
aVcaddy
p2999
aVwho
p3000
aVcould
p3001
aVfind
p3002
aVgolf-balls
p3003
aV.
aa(lp3004
Va
aVlittle
p3005
aVlater
p3006
aVhe
p3007
aVwas
p3008
aVdoing
p3009
aVtheir
p3010
aVwives
p3011
aV'
aVlingerie
p3012
aVas
p3013
aVwell
p3014
aV--
p3015
aVand
p3016
aVrunning
p3017
aVfive
p3018
aVbranches
p3019
aVin
p3020
aVdifferent
p3021
aVparts
p3022
aVof
p3023
aVthe
p3024
aVcity
p3025
aV.
aa(lp3026
Vbefore
p3027
aVhe
p3028
aVwas
p3029
aVtwenty-seven
p3030
aVhe
p3031
aVowned
p3032
aVthe
p3033
aVlargest
p3034
aVstring
p3035
aVof
p3036
aVlaundries
p3037
aVin
p3038
aVhis
p3039
aVsection
p3040
aVof
p3041
aVthe
p3042
aVcountry
p3043
aV.
aa(lp3044
Vit
p3045
aVwas
p3046
aVthen
p3047
aVthat
p3048
aVhe
p3049
aVsold
p3050
aVout
p3051
aVand
p3052
aVwent
p3053
aVto
p3054
aVnew
p3055
aVyork
p3056
aV.
aa(lp3057
Vbut
p3058
aVthe
p3059
aVpart
p3060
aVof
p3061
aVhis
p3062
aVstory
p3063
aVthat
p3064
aVconcerns
p3065
aVus
p3066
aVgoes
p3067
aVback
p3068
aVto
p3069
aVthe
p3070
aVdays
p3071
aVwhen
p3072
aVhe
p3073
aVwas
p3074
aVmaking
p3075
aVhis
p3076
aVfirst
p3077
aVbig
p3078
aVsuccess
p3079
aV.
aa(lp3080
Vwhen
p3081
aVhe
p3082
aVwas
p3083
aVtwenty-three
p3084
aVmr.
p3085
aVhart
p3086
aV--
p3087
aVone
p3088
aVof
p3089
aVthe
p3090
aVgray-haired
p3091
aVmen
p3092
aVwho
p3093
aVlike
p3094
aVto
p3095
aVsay
p3096
aV``
p3097
aVnow
p3098
aVthere
p3099
aV's
p3100
aVa
aVboy
p3101
aV''
p3102
aV--
p3103
aVgave
p3104
aVhim
p3105
aVa
aVguest
p3106
aVcard
p3107
aVto
p3108
aVthe
p3109
aVsherry
p3110
aVisland
p3111
aVgolf
p3112
aVclub
p3113
aVfor
p3114
aVa
aVweek-end
p3115
aV.
aa(lp3116
Vso
p3117
aVhe
p3118
aVsigned
p3119
aVhis
p3120
aVname
p3121
aVone
p3122
aVday
p3123
aVon
p3124
aVthe
p3125
aVregister
p3126
aV,
aVand
p3127
aVthat
p3128
aVafternoon
p3129
aVplayed
p3130
aVgolf
p3131
aVin
p3132
aVa
aVfoursome
p3133
aVwith
p3134
aVmr.
p3135
aVhart
p3136
aVand
p3137
aVmr.
p3138
aVsandwood
p3139
aVand
p3140
aVmr.
p3141
aVt.
p3142
aVa.
p3143
aVhedrick
p3144
aV.
aa(lp3145
Vhe
p3146
aVdid
p3147
aVnot
p3148
aVconsider
p3149
aVit
p3150
aVnecessary
p3151
aVto
p3152
aVremark
p3153
aVthat
p3154
aVhe
p3155
aVhad
p3156
aVonce
p3157
aVcarried
p3158
aVmr.
p3159
aVhart
p3160
aV's
p3161
aVbag
p3162
aVover
p3163
aVthis
p3164
aVsame
p3165
aVlinks
p3166
aV,
aVand
p3167
aVthat
p3168
aVhe
p3169
aVknew
p3170
aVevery
p3171
aVtrap
p3172
aVand
p3173
aVgully
p3174
aVwith
p3175
aVhis
p3176
aVeyes
p3177
aVshut
p3178
aV--
p3179
aVbut
p3180
aVhe
p3181
aVfound
p3182
aVhimself
p3183
aVglancing
p3184
aVat
p3185
aVthe
p3186
aVfour
p3187
aVcaddies
p3188
aVwho
p3189
aVtrailed
p3190
aVthem
p3191
aV,
aVtrying
p3192
aVto
p3193
aVcatch
p3194
aVa
aVgleam
p3195
aVor
p3196
aVgesture
p3197
aVthat
p3198
aVwould
p3199
aVremind
p3200
aVhim
p3201
aVof
p3202
aVhimself
p3203
aV,
aVthat
p3204
aVwould
p3205
aVlessen
p3206
aVthe
p3207
aVgap
p3208
aVwhich
p3209
aVlay
p3210
aVbetween
p3211
aVhis
p3212
aVpresent
p3213
aVand
p3214
aVhis
p3215
aVpast
p3216
aV.
aa(lp3217
Vit
p3218
aVwas
p3219
aVa
aVcurious
p3220
aVday
p3221
aV,
aVslashed
p3222
aVabruptly
p3223
aVwith
p3224
aVfleeting
p3225
aV,
aVfamiliar
p3226
aVimpressions
p3227
aV.
aa(lp3228
Vone
p3229
aVminute
p3230
aVhe
p3231
aVhad
p3232
aVthe
p3233
aVsense
p3234
aVof
p3235
aVbeing
p3236
aVa
aVtrespasser
p3237
aV--
p3238
aVin
p3239
aVthe
p3240
aVnext
p3241
aVhe
p3242
aVwas
p3243
aVimpressed
p3244
aVby
p3245
aVthe
p3246
aVtremendous
p3247
aVsuperiority
p3248
aVhe
p3249
aVfelt
p3250
aVtoward
p3251
aVmr.
p3252
aVt.
p3253
aVa.
p3254
aVhedrick
p3255
aV,
aVwho
p3256
aVwas
p3257
aVa
aVbore
p3258
aVand
p3259
aVnot
p3260
aVeven
p3261
aVa
aVgood
p3262
aVgolfer
p3263
aVany
p3264
aVmore
p3265
aV.
aa(lp3266
Vthen
p3267
aV,
aVbecause
p3268
aVof
p3269
aVa
aVball
p3270
aVmr.
p3271
aVhart
p3272
aVlost
p3273
aVnear
p3274
aVthe
p3275
aVfifteenth
p3276
aVgreen
p3277
aV,
aVan
p3278
aVenormous
p3279
aVthing
p3280
aVhappened
p3281
aV.
aa(lp3282
Vwhile
p3283
aVthey
p3284
aVwere
p3285
aVsearching
p3286
aVthe
p3287
aVstiff
p3288
aVgrasses
p3289
aVof
p3290
aVthe
p3291
aVrough
p3292
aVthere
p3293
aVwas
p3294
aVa
aVclear
p3295
aVcall
p3296
aVof
p3297
aV``
p3298
aVfore
p3299
aV!
aV''
p3300
aa(lp3301
Vfrom
p3302
aVbehind
p3303
aVa
aVhill
p3304
aVin
p3305
aVtheir
p3306
aVrear
p3307
aV.
aa(lp3308
Vand
p3309
aVas
p3310
aVthey
p3311
aVall
p3312
aVturned
p3313
aVabruptly
p3314
aVfrom
p3315
aVtheir
p3316
aVsearch
p3317
aVa
aVbright
p3318
aVnew
p3319
aVball
p3320
aVsliced
p3321
aVabruptly
p3322
aVover
p3323
aVthe
p3324
aVhill
p3325
aVand
p3326
aVcaught
p3327
aVmr.
p3328
aVt.
p3329
aVa.
p3330
aVhedrick
p3331
aVin
p3332
aVthe
p3333
aVabdomen
p3334
aV.
aa(lp3335
V``
p3336
aVby
p3337
aVgad
p3338
aV!
aV''
p3339
aa(lp3340
Vcried
p3341
aVmr.
p3342
aVt.
p3343
aVa.
p3344
aVhedrick
p3345
aV,
aV``
p3346
aVthey
p3347
aVought
p3348
aVto
p3349
aVput
p3350
aVsome
p3351
aVof
p3352
aVthese
p3353
aVcrazy
p3354
aVwomen
p3355
aVoff
p3356
aVthe
p3357
aVcourse
p3358
aV.
aa(lp3359
Vit
p3360
aV's
p3361
aVgetting
p3362
aVto
p3363
aVbe
p3364
aVoutrageous
p3365
aV.
aV''
p3366
aa(lp3367
Va
aVhead
p3368
aVand
p3369
aVa
aVvoice
p3370
aVcame
p3371
aVup
p3372
aVtogether
p3373
aVover
p3374
aVthe
p3375
aVhill
p3376
aV:
aV''
p3377
aVdo
p3378
aVyou
p3379
aVmind
p3380
aVif
p3381
aVwe
p3382
aVgo
p3383
aVthrough
p3384
aV?
aV''
p3385
aa(lp3386
V``
p3387
aVyou
p3388
aVhit
p3389
aVme
p3390
aVin
p3391
aVthe
p3392
aVstomach
p3393
aV!
aV''
p3394
aa(lp3395
Vdeclared
p3396
aVmr.
p3397
aVhedrick
p3398
aVwildly
p3399
aV.
aa(lp3400
V``
p3401
aVdid
p3402
aVi
aV?
aV''
p3403
aa(lp3404
Vthe
p3405
aVgirl
p3406
aVapproached
p3407
aVthe
p3408
aVgroup
p3409
aVof
p3410
aVmen
p3411
aV.
aa(lp3412
V``
p3413
aVi
aV'm
p3414
aVsorry
p3415
aV.
aa(lp3416
Vi
aVyelled
p3417
aV'fore
p3418
aV!
aV'
aV''
p3419
aa(lp3420
Vher
p3421
aVglance
p3422
aVfell
p3423
aVcasually
p3424
aVon
p3425
aVeach
p3426
aVof
p3427
aVthe
p3428
aVmen
p3429
aV--
p3430
aVthen
p3431
aVscanned
p3432
aVthe
p3433
aVfairway
p3434
aVfor
p3435
aVher
p3436
aVball
p3437
aV.
aa(lp3438
V``
p3439
aVdid
p3440
aVi
aVbounce
p3441
aVinto
p3442
aVthe
p3443
aVrough
p3444
aV?
aV''
p3445
aa(lp3446
Vit
p3447
aVwas
p3448
aVimpossible
p3449
aVto
p3450
aVdetermine
p3451
aVwhether
p3452
aVthis
p3453
aVquestion
p3454
aVwas
p3455
aVingenuous
p3456
aVor
p3457
aVmalicious
p3458
aV.
aa(lp3459
Vin
p3460
aVa
aVmoment
p3461
aV,
aVhowever
p3462
aV,
aVshe
p3463
aVleft
p3464
aVno
p3465
aVdoubt
p3466
aV,
aVfor
p3467
aVas
p3468
aVher
p3469
aVpartner
p3470
aVcame
p3471
aVup
p3472
aVover
p3473
aVthe
p3474
aVhill
p3475
aVshe
p3476
aVcalled
p3477
aVcheerfully
p3478
aV:
aV''
p3479
aVhere
p3480
aVi
aVam
p3481
aV!
aa(lp3482
Vi
aV'd
p3483
aVhave
p3484
aVgone
p3485
aVon
p3486
aVthe
p3487
aVgreen
p3488
aVexcept
p3489
aVthat
p3490
aVi
aVhit
p3491
aVsomething
p3492
aV.
aV''
p3493
aa(lp3494
Vas
p3495
aVshe
p3496
aVtook
p3497
aVher
p3498
aVstance
p3499
aVfor
p3500
aVa
aVshort
p3501
aVmashie
p3502
aVshot
p3503
aV,
aVdexter
p3504
aVlooked
p3505
aVat
p3506
aVher
p3507
aVclosely
p3508
aV.
aa(lp3509
Vshe
p3510
aVwore
p3511
aVa
aVblue
p3512
aVgingham
p3513
aVdress
p3514
aV,
aVrimmed
p3515
aVat
p3516
aVthroat
p3517
aVand
p3518
aVshoulders
p3519
aVwith
p3520
aVa
aVwhite
p3521
aVedging
p3522
aVthat
p3523
aVaccentuated
p3524
aVher
p3525
aVtan
p3526
aV.
aa(lp3527
Vthe
p3528
aVquality
p3529
aVof
p3530
aVexaggeration
p3531
aV,
aVof
p3532
aVthinness
p3533
aV,
aVwhich
p3534
aVhad
p3535
aVmade
p3536
aVher
p3537
aVpassionate
p3538
aVeyes
p3539
aVand
p3540
aVdown-turning
p3541
aVmouth
p3542
aVabsurd
p3543
aVat
p3544
aVeleven
p3545
aV,
aVwas
p3546
aVgone
p3547
aVnow
p3548
aV.
aa(lp3549
Vshe
p3550
aVwas
p3551
aVarrestingly
p3552
aVbeautiful
p3553
aV.
aa(lp3554
Vthe
p3555
aVcolor
p3556
aVin
p3557
aVher
p3558
aVcheeks
p3559
aVwas
p3560
aVcentered
p3561
aVlike
p3562
aVthe
p3563
aVcolor
p3564
aVin
p3565
aVa
aVpicture
p3566
aV--
p3567
aVit
p3568
aVwas
p3569
aVnot
p3570
aVa
aV``
p3571
aVhigh
p3572
aV''
p3573
aVcolor
p3574
aV,
aVbut
p3575
aVa
aVson
p3576
aVof
p3577
aVfluctuating
p3578
aVand
p3579
aVfeverish
p3580
aVwarmth
p3581
aV,
aVso
p3582
aVshaded
p3583
aVthat
p3584
aVit
p3585
aVseemed
p3586
aVat
p3587
aVany
p3588
aVmoment
p3589
aVit
p3590
aVwould
p3591
aVrecede
p3592
aVand
p3593
aVdisappear
p3594
aV.
aa(lp3595
Vthis
p3596
aVcolor
p3597
aVand
p3598
aVthe
p3599
aVmobility
p3600
aVof
p3601
aVher
p3602
aVmouth
p3603
aVgave
p3604
aVa
aVcontinual
p3605
aVimpression
p3606
aVof
p3607
aVflux
p3608
aV,
aVof
p3609
aVintense
p3610
aVlife
p3611
aV,
aVof
p3612
aVpassionate
p3613
aVvitality
p3614
aV--
p3615
aVbalanced
p3616
aVonly
p3617
aVpartially
p3618
aVby
p3619
aVthe
p3620
aVsad
p3621
aVluxury
p3622
aVof
p3623
aVher
p3624
aVeyes
p3625
aV.
aa(lp3626
Vshe
p3627
aVswung
p3628
aVher
p3629
aVmashie
p3630
aVimpatiently
p3631
aVand
p3632
aVwithout
p3633
aVinterest
p3634
aV,
aVpitching
p3635
aVthe
p3636
aVball
p3637
aVinto
p3638
aVa
aVsand-pit
p3639
aVon
p3640
aVthe
p3641
aVother
p3642
aVside
p3643
aVof
p3644
aVthe
p3645
aVgreen
p3646
aV.
aa(lp3647
Vwith
p3648
aVa
aVquick
p3649
aV,
aVinsincere
p3650
aVsmile
p3651
aVand
p3652
aVa
aVcareless
p3653
aV``
p3654
aVthank
p3655
aVyou
p3656
aV!
aV''
p3657
aa(lp3658
Vshe
p3659
aVwent
p3660
aVon
p3661
aVafter
p3662
aVit
p3663
aV.
aa(lp3664
V``
p3665
aVthat
p3666
aVjudy
p3667
aVjones
p3668
aV!
aV''
p3669
aa(lp3670
Vremarked
p3671
aVmr.
p3672
aVhedrick
p3673
aVon
p3674
aVthe
p3675
aVnext
p3676
aVtee
p3677
aV,
aVas
p3678
aVthey
p3679
aVwaited
p3680
aV--
p3681
aVsome
p3682
aVmoments
p3683
aV--
p3684
aVfor
p3685
aVher
p3686
aVto
p3687
aVplay
p3688
aVon
p3689
aVahead
p3690
aV.
aa(lp3691
V``
p3692
aVall
p3693
aVshe
p3694
aVneeds
p3695
aVis
p3696
aVto
p3697
aVbe
p3698
aVturned
p3699
aVup
p3700
aVand
p3701
aVspanked
p3702
aVfor
p3703
aVsix
p3704
aVmonths
p3705
aVand
p3706
aVthen
p3707
aVto
p3708
aVbe
p3709
aVmarried
p3710
aVoff
p3711
aVto
p3712
aVan
p3713
aVold-fashioned
p3714
aVcavalry
p3715
aVcaptain
p3716
aV.
aV''
p3717
aa(lp3718
V``
p3719
aVmy
p3720
aVgod
p3721
aV,
aVshe
p3722
aV's
p3723
aVgood-looking
p3724
aV!
aV''
p3725
aa(lp3726
Vsaid
p3727
aVmr.
p3728
aVsandwood
p3729
aV,
aVwho
p3730
aVwas
p3731
aVjust
p3732
aVover
p3733
aVthirty
p3734
aV.
aa(lp3735
V``
p3736
aVgood-looking
p3737
aV!
aV''
p3738
aa(lp3739
Vcried
p3740
aVmr.
p3741
aVhedrick
p3742
aVcontemptuously
p3743
aV,
aV``
p3744
aVshe
p3745
aValways
p3746
aVlooks
p3747
aVas
p3748
aVif
p3749
aVshe
p3750
aVwanted
p3751
aVto
p3752
aVbe
p3753
aVkissed
p3754
aV!
aa(lp3755
Vturning
p3756
aVthose
p3757
aVbig
p3758
aVcow-eyes
p3759
aVon
p3760
aVevery
p3761
aVcalf
p3762
aVin
p3763
aVtown
p3764
aV!
aV''
p3765
aa(lp3766
Vit
p3767
aVwas
p3768
aVdoubtful
p3769
aVif
p3770
aVmr.
p3771
aVhedrick
p3772
aVintended
p3773
aVa
aVreference
p3774
aVto
p3775
aVthe
p3776
aVmaternal
p3777
aVinstinct
p3778
aV.
aa(lp3779
V``
p3780
aVshe
p3781
aV'd
p3782
aVplay
p3783
aVpretty
p3784
aVgood
p3785
aVgolf
p3786
aVif
p3787
aVshe
p3788
aV'd
p3789
aVtry
p3790
aV,
aV''
p3791
aVsaid
p3792
aVmr.
p3793
aVsandwood
p3794
aV.
aa(lp3795
V``
p3796
aVshe
p3797
aVhas
p3798
aVno
p3799
aVform
p3800
aV,
aV''
p3801
aVsaid
p3802
aVmr.
p3803
aVhedrick
p3804
aVsolemnly
p3805
aV.
aa(lp3806
V``
p3807
aVshe
p3808
aVhas
p3809
aVa
aVnice
p3810
aVfigure
p3811
aV,
aV''
p3812
aVsaid
p3813
aVmr.
p3814
aVsandwood
p3815
aV.
aa(lp3816
V``
p3817
aVbetter
p3818
aVthank
p3819
aVthe
p3820
aVlord
p3821
aVshe
p3822
aVdoes
p3823
aVn't
p3824
aVdrive
p3825
aVa
aVswifter
p3826
aVball
p3827
aV,
aV''
p3828
aVsaid
p3829
aVmr.
p3830
aVhart
p3831
aV,
aVwinking
p3832
aVat
p3833
aVdexter
p3834
aV.
aa(lp3835
Vlater
p3836
aVin
p3837
aVthe
p3838
aVafternoon
p3839
aVthe
p3840
aVsun
p3841
aVwent
p3842
aVdown
p3843
aVwith
p3844
aVa
aVriotous
p3845
aVswirl
p3846
aVof
p3847
aVgold
p3848
aVand
p3849
aVvarying
p3850
aVblues
p3851
aVand
p3852
aVscarlets
p3853
aV,
aVand
p3854
aVleft
p3855
aVthe
p3856
aVdry
p3857
aV,
aVrustling
p3858
aVnight
p3859
aVof
p3860
aVwestern
p3861
aVsummer
p3862
aV.
aa(lp3863
Vdexter
p3864
aVwatched
p3865
aVfrom
p3866
aVthe
p3867
aVveranda
p3868
aVof
p3869
aVthe
p3870
aVgolf
p3871
aVclub
p3872
aV,
aVwatched
p3873
aVthe
p3874
aVeven
p3875
aVoverlap
p3876
aVof
p3877
aVthe
p3878
aVwaters
p3879
aVin
p3880
aVthe
p3881
aVlittle
p3882
aVwind
p3883
aV,
aVsilver
p3884
aVmolasses
p3885
aVunder
p3886
aVthe
p3887
aVharvest-moon
p3888
aV.
aa(lp3889
Vthen
p3890
aVthe
p3891
aVmoon
p3892
aVheld
p3893
aVa
aVfinger
p3894
aVto
p3895
aVher
p3896
aVlips
p3897
aVand
p3898
aVthe
p3899
aVlake
p3900
aVbecame
p3901
aVa
aVclear
p3902
aVpool
p3903
aV,
aVpale
p3904
aVand
p3905
aVquiet
p3906
aV.
aa(lp3907
Vdexter
p3908
aVput
p3909
aVon
p3910
aVhis
p3911
aVbathing-suit
p3912
aVand
p3913
aVswam
p3914
aVout
p3915
aVto
p3916
aVthe
p3917
aVfarthest
p3918
aVraft
p3919
aV,
aVwhere
p3920
aVhe
p3921
aVstretched
p3922
aVdripping
p3923
aVon
p3924
aVthe
p3925
aVwet
p3926
aVcanvas
p3927
aVof
p3928
aVthe
p3929
aVspringboard
p3930
aV.
aa(lp3931
Vthere
p3932
aVwas
p3933
aVa
aVfish
p3934
aVjumping
p3935
aVand
p3936
aVa
aVstar
p3937
aVshining
p3938
aVand
p3939
aVthe
p3940
aVlights
p3941
aVaround
p3942
aVthe
p3943
aVlake
p3944
aVwere
p3945
aVgleaming
p3946
aV.
aa(lp3947
Vover
p3948
aVon
p3949
aVa
aVdark
p3950
aVpeninsula
p3951
aVa
aVpiano
p3952
aVwas
p3953
aVplaying
p3954
aVthe
p3955
aVsongs
p3956
aVof
p3957
aVlast
p3958
aVsummer
p3959
aVand
p3960
aVof
p3961
aVsummers
p3962
aVbefore
p3963
aVthat
p3964
aV--
p3965
aVsongs
p3966
aVfrom
p3967
aV``
p3968
aVchin-chin
p3969
aV''
p3970
aVand
p3971
aV``
p3972
aVthe
p3973
aVcount
p3974
aVof
p3975
aVluxemburg
p3976
aV''
p3977
aVand
p3978
aV``
p3979
aVthe
p3980
aVchocolate
p3981
aVsoldier
p3982
aV''
p3983
aV--
p3984
aVand
p3985
aVbecause
p3986
aVthe
p3987
aVsound
p3988
aVof
p3989
aVa
aVpiano
p3990
aVover
p3991
aVa
aVstretch
p3992
aVof
p3993
aVwater
p3994
aVhad
p3995
aValways
p3996
aVseemed
p3997
aVbeautiful
p3998
aVto
p3999
aVdexter
p4000
aVhe
p4001
aVlay
p4002
aVperfectly
p4003
aVquiet
p4004
aVand
p4005
aVlistened
p4006
aV.
aa(lp4007
Vthe
p4008
aVtune
p4009
aVthe
p4010
aVpiano
p4011
aVwas
p4012
aVplaying
p4013
aVat
p4014
aVthat
p4015
aVmoment
p4016
aVhad
p4017
aVbeen
p4018
aVgay
p4019
aVand
p4020
aVnew
p4021
aVfive
p4022
aVyears
p4023
aVbefore
p4024
aVwhen
p4025
aVdexter
p4026
aVwas
p4027
aVa
aVsophomore
p4028
aVat
p4029
aVcollege
p4030
aV.
aa(lp4031
Vthey
p4032
aVhad
p4033
aVplayed
p4034
aVit
p4035
aVat
p4036
aVa
aVprom
p4037
aVonce
p4038
aVwhen
p4039
aVhe
p4040
aVcould
p4041
aVnot
p4042
aVafford
p4043
aVthe
p4044
aVluxury
p4045
aVof
p4046
aVproms
p4047
aV,
aVand
p4048
aVhe
p4049
aVhad
p4050
aVstood
p4051
aVoutside
p4052
aVthe
p4053
aVgymnasium
p4054
aVand
p4055
aVlistened
p4056
aV.
aa(lp4057
Vthe
p4058
aVsound
p4059
aVof
p4060
aVthe
p4061
aVtune
p4062
aVprecipitated
p4063
aVin
p4064
aVhim
p4065
aVa
aVsort
p4066
aVof
p4067
aVecstasy
p4068
aVand
p4069
aVit
p4070
aVwas
p4071
aVwith
p4072
aVthat
p4073
aVecstasy
p4074
aVhe
p4075
aVviewed
p4076
aVwhat
p4077
aVhappened
p4078
aVto
p4079
aVhim
p4080
aVnow
p4081
aV.
aa(lp4082
Vit
p4083
aVwas
p4084
aVa
aVmood
p4085
aVof
p4086
aVintense
p4087
aVappreciation
p4088
aV,
aVa
aVsense
p4089
aVthat
p4090
aV,
aVfor
p4091
aVonce
p4092
aV,
aVhe
p4093
aVwas
p4094
aVmagnificently
p4095
aVattune
p4096
aVto
p4097
aVlife
p4098
aVand
p4099
aVthat
p4100
aVeverything
p4101
aVabout
p4102
aVhim
p4103
aVwas
p4104
aVradiating
p4105
aVa
aVbrightness
p4106
aVand
p4107
aVa
aVglamour
p4108
aVhe
p4109
aVmight
p4110
aVnever
p4111
aVknow
p4112
aVagain
p4113
aV.
aa(lp4114
Va
aVlow
p4115
aV,
aVpale
p4116
aVoblong
p4117
aVdetached
p4118
aVitself
p4119
aVsuddenly
p4120
aVfrom
p4121
aVthe
p4122
aVdarkness
p4123
aVof
p4124
aVthe
p4125
aVisland
p4126
aV,
aVspitting
p4127
aVforth
p4128
aVthe
p4129
aVreverberate
p4130
aVsound
p4131
aVof
p4132
aVa
aVracing
p4133
aVmotor-boat
p4134
aV.
aa(lp4135
Vtwo
p4136
aVwhite
p4137
aVstreamers
p4138
aVof
p4139
aVcleft
p4140
aVwater
p4141
aVrolled
p4142
aVthemselves
p4143
aVout
p4144
aVbehind
p4145
aVit
p4146
aVand
p4147
aValmost
p4148
aVimmediately
p4149
aVthe
p4150
aVboat
p4151
aVwas
p4152
aVbeside
p4153
aVhim
p4154
aV,
aVdrowning
p4155
aVout
p4156
aVthe
p4157
aVhot
p4158
aVtinkle
p4159
aVof
p4160
aVthe
p4161
aVpiano
p4162
aVin
p4163
aVthe
p4164
aVdrone
p4165
aVof
p4166
aVits
p4167
aVspray
p4168
aV.
aa(lp4169
Vdexter
p4170
aVraising
p4171
aVhimself
p4172
aVon
p4173
aVhis
p4174
aVarms
p4175
aVwas
p4176
aVaware
p4177
aVof
p4178
aVa
aVfigure
p4179
aVstanding
p4180
aVat
p4181
aVthe
p4182
aVwheel
p4183
aV,
aVof
p4184
aVtwo
p4185
aVdark
p4186
aVeyes
p4187
aVregarding
p4188
aVhim
p4189
aVover
p4190
aVthe
p4191
aVlengthening
p4192
aVspace
p4193
aVof
p4194
aVwater
p4195
aV--
p4196
aVthen
p4197
aVthe
p4198
aVboat
p4199
aVhad
p4200
aVgone
p4201
aVby
p4202
aVand
p4203
aVwas
p4204
aVsweeping
p4205
aVin
p4206
aVan
p4207
aVimmense
p4208
aVand
p4209
aVpurposeless
p4210
aVcircle
p4211
aVof
p4212
aVspray
p4213
aVround
p4214
aVand
p4215
aVround
p4216
aVin
p4217
aVthe
p4218
aVmiddle
p4219
aVof
p4220
aVthe
p4221
aVlake
p4222
aV.
aa(lp4223
Vwith
p4224
aVequal
p4225
aVeccentricity
p4226
aVone
p4227
aVof
p4228
aVthe
p4229
aVcircles
p4230
aVflattened
p4231
aVout
p4232
aVand
p4233
aVheaded
p4234
aVback
p4235
aVtoward
p4236
aVthe
p4237
aVraft
p4238
aV.
aa(lp4239
V``
p4240
aVwho
p4241
aV's
p4242
aVthat
p4243
aV?
aV''
p4244
aa(lp4245
Vshe
p4246
aVcalled
p4247
aV,
aVshutting
p4248
aVoff
p4249
aVher
p4250
aVmotor
p4251
aV.
aa(lp4252
Vshe
p4253
aVwas
p4254
aVso
p4255
aVnear
p4256
aVnow
p4257
aVthat
p4258
aVdexter
p4259
aVcould
p4260
aVsee
p4261
aVher
p4262
aVbathing-suit
p4263
aV,
aVwhich
p4264
aVconsisted
p4265
aVapparently
p4266
aVof
p4267
aVpink
p4268
aVrompers
p4269
aV.
aa(lp4270
Vthe
p4271
aVnose
p4272
aVof
p4273
aVthe
p4274
aVboat
p4275
aVbumped
p4276
aVthe
p4277
aVraft
p4278
aV,
aVand
p4279
aVas
p4280
aVthe
p4281
aVlatter
p4282
aVtilted
p4283
aVrakishly
p4284
aVhe
p4285
aVwas
p4286
aVprecipitated
p4287
aVtoward
p4288
aVher
p4289
aV.
aa(lp4290
Vwith
p4291
aVdifferent
p4292
aVdegrees
p4293
aVof
p4294
aVinterest
p4295
aVthey
p4296
aVrecognized
p4297
aVeach
p4298
aVother
p4299
aV.
aa(lp4300
V``
p4301
aVare
p4302
aVn't
p4303
aVyou
p4304
aVone
p4305
aVof
p4306
aVthose
p4307
aVmen
p4308
aVwe
p4309
aVplayed
p4310
aVthrough
p4311
aVthis
p4312
aVafternoon
p4313
aV?
aV''
p4314
aa(lp4315
Vshe
p4316
aVdemanded
p4317
aV.
aa(lp4318
Vhe
p4319
aVwas
p4320
aV.
aa(lp4321
V``
p4322
aVwell
p4323
aV,
aVdo
p4324
aVyou
p4325
aVknow
p4326
aVhow
p4327
aVto
p4328
aVdrive
p4329
aVa
aVmotor-boat
p4330
aV?
aa(lp4331
Vbecause
p4332
aVif
p4333
aVyou
p4334
aVdo
p4335
aVi
aVwish
p4336
aVyou
p4337
aV'd
p4338
aVdrive
p4339
aVthis
p4340
aVone
p4341
aVso
p4342
aVi
aVcan
p4343
aVride
p4344
aVon
p4345
aVthe
p4346
aVsurf-board
p4347
aVbehind
p4348
aV.
aa(lp4349
Vmy
p4350
aVname
p4351
aVis
p4352
aVjudy
p4353
aVjones
p4354
aV''
p4355
aV--
p4356
aVshe
p4357
aVfavored
p4358
aVhim
p4359
aVwith
p4360
aVan
p4361
aVabsurd
p4362
aVsmirk
p4363
aV--
p4364
aVrather
p4365
aV,
aVwhat
p4366
aVtried
p4367
aVto
p4368
aVbe
p4369
aVa
aVsmirk
p4370
aV,
aVfor
p4371
aV,
aVtwist
p4372
aVher
p4373
aVmouth
p4374
aVas
p4375
aVshe
p4376
aVmight
p4377
aV,
aVit
p4378
aVwas
p4379
aVnot
p4380
aVgrotesque
p4381
aV,
aVit
p4382
aVwas
p4383
aVmerely
p4384
aVbeautiful
p4385
aV--
p4386
aV''
p4387
aVand
p4388
aVi
aVlive
p4389
aVin
p4390
aVa
aVhouse
p4391
aVover
p4392
aVthere
p4393
aVon
p4394
aVthe
p4395
aVisland
p4396
aV,
aVand
p4397
aVin
p4398
aVthat
p4399
aVhouse
p4400
aVthere
p4401
aVis
p4402
aVa
aVman
p4403
aVwaiting
p4404
aVfor
p4405
aVme
p4406
aV.
aa(lp4407
Vwhen
p4408
aVhe
p4409
aVdrove
p4410
aVup
p4411
aVat
p4412
aVthe
p4413
aVdoor
p4414
aVi
aVdrove
p4415
aVout
p4416
aVof
p4417
aVthe
p4418
aVdock
p4419
aVbecause
p4420
aVhe
p4421
aVsays
p4422
aVi
aV'm
p4423
aVhis
p4424
aVideal
p4425
aV.
aV''
p4426
aa(lp4427
Vthere
p4428
aVwas
p4429
aVa
aVfish
p4430
aVjumping
p4431
aVand
p4432
aVa
aVstar
p4433
aVshining
p4434
aVand
p4435
aVthe
p4436
aVlights
p4437
aVaround
p4438
aVthe
p4439
aVlake
p4440
aVwere
p4441
aVgleaming
p4442
aV.
aa(lp4443
Vdexter
p4444
aVsat
p4445
aVbeside
p4446
aVjudy
p4447
aVjones
p4448
aVand
p4449
aVshe
p4450
aVexplained
p4451
aVhow
p4452
aVher
p4453
aVboat
p4454
aVwas
p4455
aVdriven
p4456
aV.
aa(lp4457
Vthen
p4458
aVshe
p4459
aVwas
p4460
aVin
p4461
aVthe
p4462
aVwater
p4463
aV,
aVswimming
p4464
aVto
p4465
aVthe
p4466
aVfloating
p4467
aVsurfboard
p4468
aVwith
p4469
aVa
aVsinuous
p4470
aVcrawl
p4471
aV.
aa(lp4472
Vwatching
p4473
aVher
p4474
aVwas
p4475
aVwithout
p4476
aVeffort
p4477
aVto
p4478
aVthe
p4479
aVeye
p4480
aV,
aVwatching
p4481
aVa
aVbranch
p4482
aVwaving
p4483
aVor
p4484
aVa
aVsea-gull
p4485
aVflying
p4486
aV.
aa(lp4487
Vher
p4488
aVarms
p4489
aV,
aVburned
p4490
aVto
p4491
aVbutternut
p4492
aV,
aVmoved
p4493
aVsinuously
p4494
aVamong
p4495
aVthe
p4496
aVdull
p4497
aVplatinum
p4498
aVripples
p4499
aV,
aVelbow
p4500
aVappearing
p4501
aVfirst
p4502
aV,
aVcasting
p4503
aVthe
p4504
aVforearm
p4505
aVback
p4506
aVwith
p4507
aVa
aVcadence
p4508
aVof
p4509
aVfalling
p4510
aVwater
p4511
aV,
aVthen
p4512
aVreaching
p4513
aVout
p4514
aVand
p4515
aVdown
p4516
aV,
aVstabbing
p4517
aVa
aVpath
p4518
aVahead
p4519
aV.
aa(lp4520
Vthey
p4521
aVmoved
p4522
aVout
p4523
aVinto
p4524
aVthe
p4525
aVlake
p4526
aV;
aVturning
p4527
aV,
aVdexter
p4528
aVsaw
p4529
aVthat
p4530
aVshe
p4531
aVwas
p4532
aVkneeling
p4533
aVon
p4534
aVthe
p4535
aVlow
p4536
aVrear
p4537
aVof
p4538
aVthe
p4539
aVnow
p4540
aVuptilted
p4541
aVsurf-board
p4542
aV.
aa(lp4543
V``
p4544
aVgo
p4545
aVfaster
p4546
aV,
aV''
p4547
aVshe
p4548
aVcalled
p4549
aV,
aV``
p4550
aVfast
p4551
aVas
p4552
aVit
p4553
aV'll
p4554
aVgo
p4555
aV.
aV''
p4556
aa(lp4557
Vobediently
p4558
aVhe
p4559
aVjammed
p4560
aVthe
p4561
aVlever
p4562
aVforward
p4563
aVand
p4564
aVthe
p4565
aVwhite
p4566
aVspray
p4567
aVmounted
p4568
aVat
p4569
aVthe
p4570
aVbow
p4571
aV.
aa(lp4572
Vwhen
p4573
aVhe
p4574
aVlooked
p4575
aVaround
p4576
aVagain
p4577
aVthe
p4578
aVgirl
p4579
aVwas
p4580
aVstanding
p4581
aVup
p4582
aVon
p4583
aVthe
p4584
aVrushing
p4585
aVboard
p4586
aV,
aVher
p4587
aVarms
p4588
aVspread
p4589
aVwide
p4590
aV,
aVher
p4591
aVeyes
p4592
aVlifted
p4593
aVtoward
p4594
aVthe
p4595
aVmoon
p4596
aV.
aa(lp4597
V``
p4598
aVit
p4599
aV's
p4600
aVawful
p4601
aVcold
p4602
aV,
aV''
p4603
aVshe
p4604
aVshouted
p4605
aV.
aa(lp4606
V``
p4607
aVwhat
p4608
aV's
p4609
aVyour
p4610
aVname
p4611
aV?
aV''
p4612
aa(lp4613
Vhe
p4614
aVtold
p4615
aVher
p4616
aV.
aa(lp4617
V``
p4618
aVwell
p4619
aV,
aVwhy
p4620
aVdo
p4621
aVn't
p4622
aVyou
p4623
aVcome
p4624
aVto
p4625
aVdinner
p4626
aVto-morrow
p4627
aVnight
p4628
aV?
aV''
p4629
aa(lp4630
Vhis
p4631
aVheart
p4632
aVturned
p4633
aVover
p4634
aVlike
p4635
aVthe
p4636
aVfly-wheel
p4637
aVof
p4638
aVthe
p4639
aVboat
p4640
aV,
aVand
p4641
aV,
aVfor
p4642
aVthe
p4643
aVsecond
p4644
aVtime
p4645
aV,
aVher
p4646
aVcasual
p4647
aVwhim
p4648
aVgave
p4649
aVa
aVnew
p4650
aVdirection
p4651
aVto
p4652
aVhis
p4653
aVlife
p4654
aV.
aa(lp4655
Viii
p4656
aVnext
p4657
aVevening
p4658
aVwhile
p4659
aVhe
p4660
aVwaited
p4661
aVfor
p4662
aVher
p4663
aVto
p4664
aVcome
p4665
aVdown-stairs
p4666
aV,
aVdexter
p4667
aVpeopled
p4668
aVthe
p4669
aVsoft
p4670
aVdeep
p4671
aVsummer
p4672
aVroom
p4673
aVand
p4674
aVthe
p4675
aVsun-porch
p4676
aVthat
p4677
aVopened
p4678
aVfrom
p4679
aVit
p4680
aVwith
p4681
aVthe
p4682
aVmen
p4683
aVwho
p4684
aVhad
p4685
aValready
p4686
aVloved
p4687
aVjudy
p4688
aVjones
p4689
aV.
aa(lp4690
Vhe
p4691
aVknew
p4692
aVthe
p4693
aVsort
p4694
aVof
p4695
aVmen
p4696
aVthey
p4697
aVwere
p4698
aV--
p4699
aVthe
p4700
aVmen
p4701
aVwho
p4702
aVwhen
p4703
aVhe
p4704
aVfirst
p4705
aVwent
p4706
aVto
p4707
aVcollege
p4708
aVhad
p4709
aVentered
p4710
aVfrom
p4711
aVthe
p4712
aVgreat
p4713
aVprep
p4714
aVschools
p4715
aVwith
p4716
aVgraceful
p4717
aVclothes
p4718
aVand
p4719
aVthe
p4720
aVdeep
p4721
aVtan
p4722
aVof
p4723
aVhealthy
p4724
aVsummers
p4725
aV.
aa(lp4726
Vhe
p4727
aVhad
p4728
aVseen
p4729
aVthat
p4730
aV,
aVin
p4731
aVone
p4732
aVsense
p4733
aV,
aVhe
p4734
aVwas
p4735
aVbetter
p4736
aVthan
p4737
aVthese
p4738
aVmen
p4739
aV.
aa(lp4740
Vhe
p4741
aVwas
p4742
aVnewer
p4743
aVand
p4744
aVstronger
p4745
aV.
aa(lp4746
Vyet
p4747
aVin
p4748
aVacknowledging
p4749
aVto
p4750
aVhimself
p4751
aVthat
p4752
aVhe
p4753
aVwished
p4754
aVhis
p4755
aVchildren
p4756
aVto
p4757
aVbe
p4758
aVlike
p4759
aVthem
p4760
aVhe
p4761
aVwas
p4762
aVadmitting
p4763
aVthat
p4764
aVhe
p4765
aVwas
p4766
aVbut
p4767
aVthe
p4768
aVrough
p4769
aV,
aVstrong
p4770
aVstuff
p4771
aVfrom
p4772
aVwhich
p4773
aVthey
p4774
aVeternally
p4775
aVsprang
p4776
aV.
aa(lp4777
Vwhen
p4778
aVthe
p4779
aVtime
p4780
aVhad
p4781
aVcome
p4782
aVfor
p4783
aVhim
p4784
aVto
p4785
aVwear
p4786
aVgood
p4787
aVclothes
p4788
aV,
aVhe
p4789
aVhad
p4790
aVknown
p4791
aVwho
p4792
aVwere
p4793
aVthe
p4794
aVbest
p4795
aVtailors
p4796
aVin
p4797
aVamerica
p4798
aV,
aVand
p4799
aVthe
p4800
aVbest
p4801
aVtailors
p4802
aVin
p4803
aVamerica
p4804
aVhad
p4805
aVmade
p4806
aVhim
p4807
aVthe
p4808
aVsuit
p4809
aVhe
p4810
aVwore
p4811
aVthis
p4812
aVevening
p4813
aV.
aa(lp4814
Vhe
p4815
aVhad
p4816
aVacquired
p4817
aVthat
p4818
aVparticular
p4819
aVreserve
p4820
aVpeculiar
p4821
aVto
p4822
aVhis
p4823
aVuniversity
p4824
aV,
aVthat
p4825
aVset
p4826
aVit
p4827
aVoff
p4828
aVfrom
p4829
aVother
p4830
aVuniversities
p4831
aV.
aa(lp4832
Vhe
p4833
aVrecognized
p4834
aVthe
p4835
aVvalue
p4836
aVto
p4837
aVhim
p4838
aVof
p4839
aVsuch
p4840
aVa
aVmannerism
p4841
aVand
p4842
aVhe
p4843
aVhad
p4844
aVadopted
p4845
aVit
p4846
aV;
aVhe
p4847
aVknew
p4848
aVthat
p4849
aVto
p4850
aVbe
p4851
aVcareless
p4852
aVin
p4853
aVdress
p4854
aVand
p4855
aVmanner
p4856
aVrequired
p4857
aVmore
p4858
aVconfidence
p4859
aVthan
p4860
aVto
p4861
aVbe
p4862
aVcareful
p4863
aV.
aa(lp4864
Vbut
p4865
aVcarelessness
p4866
aVwas
p4867
aVfor
p4868
aVhis
p4869
aVchildren
p4870
aV.
aa(lp4871
Vhis
p4872
aVmother
p4873
aV's
p4874
aVname
p4875
aVhad
p4876
aVbeen
p4877
aVkrimslich
p4878
aV.
aa(lp4879
Vshe
p4880
aVwas
p4881
aVa
aVbohemian
p4882
aVof
p4883
aVthe
p4884
aVpeasant
p4885
aVclass
p4886
aVand
p4887
aVshe
p4888
aVhad
p4889
aVtalked
p4890
aVbroken
p4891
aVenglish
p4892
aVto
p4893
aVthe
p4894
aVend
p4895
aVof
p4896
aVher
p4897
aVdays
p4898
aV.
aa(lp4899
Vher
p4900
aVson
p4901
aVmust
p4902
aVkeep
p4903
aVto
p4904
aVthe
p4905
aVset
p4906
aVpatterns
p4907
aV.
aa(lp4908
Vat
p4909
aVa
aVlittle
p4910
aVafter
p4911
aVseven
p4912
aVjudy
p4913
aVjones
p4914
aVcame
p4915
aVdown-stairs
p4916
aV.
aa(lp4917
Vshe
p4918
aVwore
p4919
aVa
aVblue
p4920
aVsilk
p4921
aVafternoon
p4922
aVdress
p4923
aV,
aVand
p4924
aVhe
p4925
aVwas
p4926
aVdisappointed
p4927
aVat
p4928
aVfirst
p4929
aVthat
p4930
aVshe
p4931
aVhad
p4932
aVnot
p4933
aVput
p4934
aVon
p4935
aVsomething
p4936
aVmore
p4937
aVelaborate
p4938
aV.
aa(lp4939
Vthis
p4940
aVfeeling
p4941
aVwas
p4942
aVaccentuated
p4943
aVwhen
p4944
aV,
aVafter
p4945
aVa
aVbrief
p4946
aVgreeting
p4947
aV,
aVshe
p4948
aVwent
p4949
aVto
p4950
aVthe
p4951
aVdoor
p4952
aVof
p4953
aVa
aVbutler
p4954
aV's
p4955
aVpantry
p4956
aVand
p4957
aVpushing
p4958
aVit
p4959
aVopen
p4960
aVcalled
p4961
aV:
aV``
p4962
aVyou
p4963
aVcan
p4964
aVserve
p4965
aVdinner
p4966
aV,
aVmartha
p4967
aV.
aV''
p4968
aa(lp4969
Vhe
p4970
aVhad
p4971
aVrather
p4972
aVexpected
p4973
aVthat
p4974
aVa
aVbutler
p4975
aVwould
p4976
aVannounce
p4977
aVdinner
p4978
aV,
aVthat
p4979
aVthere
p4980
aVwould
p4981
aVbe
p4982
aVa
aVcocktail
p4983
aV.
aa(lp4984
Vthen
p4985
aVhe
p4986
aVput
p4987
aVthese
p4988
aVthoughts
p4989
aVbehind
p4990
aVhim
p4991
aVas
p4992
aVthey
p4993
aVsat
p4994
aVdown
p4995
aVside
p4996
aVby
p4997
aVside
p4998
aVon
p4999
aVa
aVlounge
p5000
aVand
p5001
aVlooked
p5002
aVat
p5003
aVeach
p5004
aVother
p5005
aV.
aa(lp5006
V``
p5007
aVfather
p5008
aVand
p5009
aVmother
p5010
aVwo
p5011
aVn't
p5012
aVbe
p5013
aVhere
p5014
aV,
aV''
p5015
aVshe
p5016
aVsaid
p5017
aVthoughtfully
p5018
aV.
aa(lp5019
Vhe
p5020
aVremembered
p5021
aVthe
p5022
aVlast
p5023
aVtime
p5024
aVhe
p5025
aVhad
p5026
aVseen
p5027
aVher
p5028
aVfather
p5029
aV,
aVand
p5030
aVhe
p5031
aVwas
p5032
aVglad
p5033
aVthe
p5034
aVparents
p5035
aVwere
p5036
aVnot
p5037
aVto
p5038
aVbe
p5039
aVhere
p5040
aVto-night
p5041
aV--
p5042
aVthey
p5043
aVmight
p5044
aVwonder
p5045
aVwho
p5046
aVhe
p5047
aVwas
p5048
aV.
aa(lp5049
Vhe
p5050
aVhad
p5051
aVbeen
p5052
aVborn
p5053
aVin
p5054
aVkeeble
p5055
aV,
aVa
aVminnesota
p5056
aVvillage
p5057
aVfifty
p5058
aVmiles
p5059
aVfarther
p5060
aVnorth
p5061
aV,
aVand
p5062
aVhe
p5063
aValways
p5064
aVgave
p5065
aVkeeble
p5066
aVas
p5067
aVhis
p5068
aVhome
p5069
aVinstead
p5070
aVof
p5071
aVblack
p5072
aVbear
p5073
aVvillage
p5074
aV.
aa(lp5075
Vcountry
p5076
aVtowns
p5077
aVwere
p5078
aVwell
p5079
aVenough
p5080
aVto
p5081
aVcome
p5082
aVfrom
p5083
aVif
p5084
aVthey
p5085
aVwere
p5086
aVn't
p5087
aVinconveniently
p5088
aVin
p5089
aVsight
p5090
aVand
p5091
aVused
p5092
aVas
p5093
aVfootstools
p5094
aVby
p5095
aVfashionable
p5096
aVlakes
p5097
aV.
aa(lp5098
Vthey
p5099
aVtalked
p5100
aVof
p5101
aVhis
p5102
aVuniversity
p5103
aV,
aVwhich
p5104
aVshe
p5105
aVhad
p5106
aVvisited
p5107
aVfrequently
p5108
aVduring
p5109
aVthe
p5110
aVpast
p5111
aVtwo
p5112
aVyears
p5113
aV,
aVand
p5114
aVof
p5115
aVthe
p5116
aVnear-by
p5117
aVcity
p5118
aVwhich
p5119
aVsupplied
p5120
aVsherry
p5121
aVisland
p5122
aVwith
p5123
aVits
p5124
aVpatrons
p5125
aV,
aVand
p5126
aVwhither
p5127
aVdexter
p5128
aVwould
p5129
aVreturn
p5130
aVnext
p5131
aVday
p5132
aVto
p5133
aVhis
p5134
aVprospering
p5135
aVlaundries
p5136
aV.
aa(lp5137
Vduring
p5138
aVdinner
p5139
aVshe
p5140
aVslipped
p5141
aVinto
p5142
aVa
aVmoody
p5143
aVdepression
p5144
aVwhich
p5145
aVgave
p5146
aVdexter
p5147
aVa
aVfeeling
p5148
aVof
p5149
aVuneasiness
p5150
aV.
aa(lp5151
Vwhatever
p5152
aVpetulance
p5153
aVshe
p5154
aVuttered
p5155
aVin
p5156
aVher
p5157
aVthroaty
p5158
aVvoice
p5159
aVworried
p5160
aVhim
p5161
aV.
aa(lp5162
Vwhatever
p5163
aVshe
p5164
aVsmiled
p5165
aVat
p5166
aV--
p5167
aVat
p5168
aVhim
p5169
aV,
aVat
p5170
aVa
aVchicken
p5171
aVliver
p5172
aV,
aVat
p5173
aVnothing
p5174
aV--
p5175
aVit
p5176
aVdisturbed
p5177
aVhim
p5178
aVthat
p5179
aVher
p5180
aVsmile
p5181
aVcould
p5182
aVhave
p5183
aVno
p5184
aVroot
p5185
aVin
p5186
aVmirth
p5187
aV,
aVor
p5188
aVeven
p5189
aVin
p5190
aVamusement
p5191
aV.
aa(lp5192
Vwhen
p5193
aVthe
p5194
aVscarlet
p5195
aVcorners
p5196
aVof
p5197
aVher
p5198
aVlips
p5199
aVcurved
p5200
aVdown
p5201
aV,
aVit
p5202
aVwas
p5203
aVless
p5204
aVa
aVsmile
p5205
aVthan
p5206
aVan
p5207
aVinvitation
p5208
aVto
p5209
aVa
aVkiss
p5210
aV.
aa(lp5211
Vthen
p5212
aV,
aVafter
p5213
aVdinner
p5214
aV,
aVshe
p5215
aVled
p5216
aVhim
p5217
aVout
p5218
aVon
p5219
aVthe
p5220
aVdark
p5221
aVsun-porch
p5222
aVand
p5223
aVdeliberately
p5224
aVchanged
p5225
aVthe
p5226
aVatmosphere
p5227
aV.
aa(lp5228
V``
p5229
aVdo
p5230
aVyou
p5231
aVmind
p5232
aVif
p5233
aVi
aVweep
p5234
aVa
aVlittle
p5235
aV?
aV''
p5236
aa(lp5237
Vshe
p5238
aVsaid
p5239
aV.
aa(lp5240
V``
p5241
aVi
aV'm
p5242
aVafraid
p5243
aVi
aV'm
p5244
aVboring
p5245
aVyou
p5246
aV,
aV''
p5247
aVhe
p5248
aVresponded
p5249
aVquickly
p5250
aV.
aa(lp5251
V``
p5252
aVyou
p5253
aV're
p5254
aVnot
p5255
aV.
aa(lp5256
Vi
aVlike
p5257
aVyou
p5258
aV.
aa(lp5259
Vbut
p5260
aVi
aV've
p5261
aVjust
p5262
aVhad
p5263
aVa
aVterrible
p5264
aVafternoon
p5265
aV.
aa(lp5266
Vthere
p5267
aVwas
p5268
aVa
aVman
p5269
aVi
aVcared
p5270
aVabout
p5271
aV,
aVand
p5272
aVthis
p5273
aVafternoon
p5274
aVhe
p5275
aVtold
p5276
aVme
p5277
aVout
p5278
aVof
p5279
aVa
aVclear
p5280
aVsky
p5281
aVthat
p5282
aVhe
p5283
aVwas
p5284
aVpoor
p5285
aVas
p5286
aVa
aVchurch-mouse
p5287
aV.
aa(lp5288
Vhe
p5289
aV'd
p5290
aVnever
p5291
aVeven
p5292
aVhinted
p5293
aVit
p5294
aVbefore
p5295
aV.
aa(lp5296
Vdoes
p5297
aVthis
p5298
aVsound
p5299
aVhorribly
p5300
aVmundane
p5301
aV?
aV''
p5302
aa(lp5303
V``
p5304
aVperhaps
p5305
aVhe
p5306
aVwas
p5307
aVafraid
p5308
aVto
p5309
aVtell
p5310
aVyou
p5311
aV.
aV''
p5312
aa(lp5313
V``
p5314
aVsuppose
p5315
aVhe
p5316
aVwas
p5317
aV,
aV''
p5318
aVshe
p5319
aVanswered
p5320
aV.
aa(lp5321
V``
p5322
aVhe
p5323
aVdid
p5324
aVn't
p5325
aVstart
p5326
aVright
p5327
aV.
aa(lp5328
Vyou
p5329
aVsee
p5330
aV,
aVif
p5331
aVi
aV'd
p5332
aVthought
p5333
aVof
p5334
aVhim
p5335
aVas
p5336
aVpoor
p5337
aV--
p5338
aVwell
p5339
aV,
aVi
aV've
p5340
aVbeen
p5341
aVmad
p5342
aVabout
p5343
aVloads
p5344
aVof
p5345
aVpoor
p5346
aVmen
p5347
aV,
aVand
p5348
aVfully
p5349
aVintended
p5350
aVto
p5351
aVmarry
p5352
aVthem
p5353
aVall
p5354
aV.
aa(lp5355
Vbut
p5356
aVin
p5357
aVthis
p5358
aVcase
p5359
aV,
aVi
aVhad
p5360
aVn't
p5361
aVthought
p5362
aVof
p5363
aVhim
p5364
aVthat
p5365
aVway
p5366
aV,
aVand
p5367
aVmy
p5368
aVinterest
p5369
aVin
p5370
aVhim
p5371
aVwas
p5372
aVn't
p5373
aVstrong
p5374
aVenough
p5375
aVto
p5376
aVsurvive
p5377
aVthe
p5378
aVshock
p5379
aV.
aa(lp5380
Vas
p5381
aVif
p5382
aVa
aVgirl
p5383
aVcalmly
p5384
aVinformed
p5385
aVher
p5386
aVfianc
p5387
aVthat
p5388
aVshe
p5389
aVwas
p5390
aVa
aVwidow
p5391
aV.
aa(lp5392
Vhe
p5393
aVmight
p5394
aVnot
p5395
aVobject
p5396
aVto
p5397
aVwidows
p5398
aV,
aVbut
p5399
aV--
p5400
aV''
p5401
aVlet
p5402
aV's
p5403
aVstart
p5404
aVright
p5405
aV,
aV''
p5406
aVshe
p5407
aVinterrupted
p5408
aVherself
p5409
aVsuddenly
p5410
aV.
aa(lp5411
V``
p5412
aVwho
p5413
aVare
p5414
aVyou
p5415
aV,
aVanyhow
p5416
aV?
aV''
p5417
aa(lp5418
Vfor
p5419
aVa
aVmoment
p5420
aVdexter
p5421
aVhesitated
p5422
aV.
aa(lp5423
Vthen
p5424
aV:
aV''
p5425
aVi
aV'm
p5426
aVnobody
p5427
aV,
aV''
p5428
aVhe
p5429
aVannounced
p5430
aV.
aa(lp5431
V``
p5432
aVmy
p5433
aVcareer
p5434
aVis
p5435
aVlargely
p5436
aVa
aVmatter
p5437
aVof
p5438
aVfutures
p5439
aV.
aV''
p5440
aa(lp5441
V``
p5442
aVare
p5443
aVyou
p5444
aVpoor
p5445
aV?
aV''
p5446
aa(lp5447
V``
p5448
aVno
p5449
aV,
aV''
p5450
aVhe
p5451
aVsaid
p5452
aVfrankly
p5453
aV,
aV``
p5454
aVi
aV'm
p5455
aVprobably
p5456
aVmaking
p5457
aVmore
p5458
aVmoney
p5459
aVthan
p5460
aVany
p5461
aVman
p5462
aVmy
p5463
aVage
p5464
aVin
p5465
aVthe
p5466
aVnorthwest
p5467
aV.
aa(lp5468
Vi
aVknow
p5469
aVthat
p5470
aV's
p5471
aVan
p5472
aVobnoxious
p5473
aVremark
p5474
aV,
aVbut
p5475
aVyou
p5476
aVadvised
p5477
aVme
p5478
aVto
p5479
aVstart
p5480
aVright
p5481
aV.
aV''
p5482
aa(lp5483
Vthere
p5484
aVwas
p5485
aVa
aVpause
p5486
aV.
aa(lp5487
Vthen
p5488
aVshe
p5489
aVsmiled
p5490
aVand
p5491
aVthe
p5492
aVcorners
p5493
aVof
p5494
aVher
p5495
aVmouth
p5496
aVdrooped
p5497
aVand
p5498
aVan
p5499
aValmost
p5500
aVimperceptible
p5501
aVsway
p5502
aVbrought
p5503
aVher
p5504
aVcloser
p5505
aVto
p5506
aVhim
p5507
aV,
aVlooking
p5508
aVup
p5509
aVinto
p5510
aVhis
p5511
aVeyes
p5512
aV.
aa(lp5513
Va
aVlump
p5514
aVrose
p5515
aVin
p5516
aVdexter
p5517
aV's
p5518
aVthroat
p5519
aV,
aVand
p5520
aVhe
p5521
aVwaited
p5522
aVbreathless
p5523
aVfor
p5524
aVthe
p5525
aVexperiment
p5526
aV,
aVfacing
p5527
aVthe
p5528
aVunpredictable
p5529
aVcompound
p5530
aVthat
p5531
aVwould
p5532
aVform
p5533
aVmysteriously
p5534
aVfrom
p5535
aVthe
p5536
aVelements
p5537
aVof
p5538
aVtheir
p5539
aVlips
p5540
aV.
aa(lp5541
Vthen
p5542
aVhe
p5543
aVsaw
p5544
aV--
p5545
aVshe
p5546
aVcommunicated
p5547
aVher
p5548
aVexcitement
p5549
aVto
p5550
aVhim
p5551
aV,
aVlavishly
p5552
aV,
aVdeeply
p5553
aV,
aVwith
p5554
aVkisses
p5555
aVthat
p5556
aVwere
p5557
aVnot
p5558
aVa
aVpromise
p5559
aVbut
p5560
aVa
aVfulfillment
p5561
aV.
aa(lp5562
Vthey
p5563
aVaroused
p5564
aVin
p5565
aVhim
p5566
aVnot
p5567
aVhunger
p5568
aVdemanding
p5569
aVrenewal
p5570
aVbut
p5571
aVsurfeit
p5572
aVthat
p5573
aVwould
p5574
aVdemand
p5575
aVmore
p5576
aVsurfeit
p5577
aV.
aa(lp5578
V.
aa(lp5579
V.
aa(lp5580
Vkisses
p5581
aVthat
p5582
aVwere
p5583
aVlike
p5584
aVcharity
p5585
aV,
aVcreating
p5586
aVwant
p5587
aVby
p5588
aVholding
p5589
aVback
p5590
aVnothing
p5591
aVat
p5592
aVall
p5593
aV.
aa(lp5594
Vit
p5595
aVdid
p5596
aVnot
p5597
aVtake
p5598
aVhim
p5599
aVmany
p5600
aVhours
p5601
aVto
p5602
aVdecide
p5603
aVthat
p5604
aVhe
p5605
aVhad
p5606
aVwanted
p5607
aVjudy
p5608
aVjones
p5609
aVever
p5610
aVsince
p5611
aVhe
p5612
aVwas
p5613
aVa
aVproud
p5614
aV,
aVdesirous
p5615
aVlittle
p5616
aVboy
p5617
aV.
aa(lp5618
Viv
p5619
aVit
p5620
aVbegan
p5621
aVlike
p5622
aVthat
p5623
aV--
p5624
aVand
p5625
aVcontinued
p5626
aV,
aVwith
p5627
aVvarying
p5628
aVshades
p5629
aVof
p5630
aVintensity
p5631
aV,
aVon
p5632
aVsuch
p5633
aVa
aVnote
p5634
aVright
p5635
aVup
p5636
aVto
p5637
aVthe
p5638
aVdnouement
p5639
aV.
aa(lp5640
Vdexter
p5641
aVsurrendered
p5642
aVa
aVpart
p5643
aVof
p5644
aVhimself
p5645
aVto
p5646
aVthe
p5647
aVmost
p5648
aVdirect
p5649
aVand
p5650
aVunprincipled
p5651
aVpersonality
p5652
aVwith
p5653
aVwhich
p5654
aVhe
p5655
aVhad
p5656
aVever
p5657
aVcome
p5658
aVin
p5659
aVcontact
p5660
aV.
aa(lp5661
Vwhatever
p5662
aVjudy
p5663
aVwanted
p5664
aV,
aVshe
p5665
aVwent
p5666
aVafter
p5667
aVwith
p5668
aVthe
p5669
aVfull
p5670
aVpressure
p5671
aVof
p5672
aVher
p5673
aVcharm
p5674
aV.
aa(lp5675
Vthere
p5676
aVwas
p5677
aVno
p5678
aVdivergence
p5679
aVof
p5680
aVmethod
p5681
aV,
aVno
p5682
aVjockeying
p5683
aVfor
p5684
aVposition
p5685
aVor
p5686
aVpremeditation
p5687
aVof
p5688
aVeffects
p5689
aV--
p5690
aVthere
p5691
aVwas
p5692
aVa
aVvery
p5693
aVlittle
p5694
aVmental
p5695
aVside
p5696
aVto
p5697
aVany
p5698
aVof
p5699
aVher
p5700
aVaffairs
p5701
aV.
aa(lp5702
Vshe
p5703
aVsimply
p5704
aVmade
p5705
aVmen
p5706
aVconscious
p5707
aVto
p5708
aVthe
p5709
aVhighest
p5710
aVdegree
p5711
aVof
p5712
aVher
p5713
aVphysical
p5714
aVloveliness
p5715
aV.
aa(lp5716
Vdexter
p5717
aVhad
p5718
aVno
p5719
aVdesire
p5720
aVto
p5721
aVchange
p5722
aVher
p5723
aV.
aa(lp5724
Vher
p5725
aVdeficiencies
p5726
aVwere
p5727
aVknit
p5728
aVup
p5729
aVwith
p5730
aVa
aVpassionate
p5731
aVenergy
p5732
aVthat
p5733
aVtranscended
p5734
aVand
p5735
aVjustified
p5736
aVthem
p5737
aV.
aa(lp5738
Vwhen
p5739
aV,
aVas
p5740
aVjudy
p5741
aV's
p5742
aVhead
p5743
aVlay
p5744
aVagainst
p5745
aVhis
p5746
aVshoulder
p5747
aVthat
p5748
aVfirst
p5749
aVnight
p5750
aV,
aVshe
p5751
aVwhispered
p5752
aV,
aV``
p5753
aVi
aVdo
p5754
aVn't
p5755
aVknow
p5756
aVwhat
p5757
aV's
p5758
aVthe
p5759
aVmatter
p5760
aVwith
p5761
aVme
p5762
aV.
aa(lp5763
Vlast
p5764
aVnight
p5765
aVi
aVthought
p5766
aVi
aVwas
p5767
aVin
p5768
aVlove
p5769
aVwith
p5770
aVa
aVman
p5771
aVand
p5772
aVto-night
p5773
aVi
aVthink
p5774
aVi
aV'm
p5775
aVin
p5776
aVlove
p5777
aVwith
p5778
aVyou
p5779
aV--
p5780
aV''
p5781
aV--
p5782
aVit
p5783
aVseemed
p5784
aVto
p5785
aVhim
p5786
aVa
aVbeautiful
p5787
aVand
p5788
aVromantic
p5789
aVthing
p5790
aVto
p5791
aVsay
p5792
aV.
aa(lp5793
Vit
p5794
aVwas
p5795
aVthe
p5796
aVexquisite
p5797
aVexcitability
p5798
aVthat
p5799
aVfor
p5800
aVthe
p5801
aVmoment
p5802
aVhe
p5803
aVcontrolled
p5804
aVand
p5805
aVowned
p5806
aV.
aa(lp5807
Vbut
p5808
aVa
aVweek
p5809
aVlater
p5810
aVhe
p5811
aVwas
p5812
aVcompelled
p5813
aVto
p5814
aVview
p5815
aVthis
p5816
aVsame
p5817
aVquality
p5818
aVin
p5819
aVa
aVdifferent
p5820
aVlight
p5821
aV.
aa(lp5822
Vshe
p5823
aVtook
p5824
aVhim
p5825
aVin
p5826
aVher
p5827
aVroadster
p5828
aVto
p5829
aVa
aVpicnic
p5830
aVsupper
p5831
aV,
aVand
p5832
aVafter
p5833
aVsupper
p5834
aVshe
p5835
aVdisappeared
p5836
aV,
aVlikewise
p5837
aVin
p5838
aVher
p5839
aVroadster
p5840
aV,
aVwith
p5841
aVanother
p5842
aVman
p5843
aV.
aa(lp5844
Vdexter
p5845
aVbecame
p5846
aVenormously
p5847
aVupset
p5848
aVand
p5849
aVwas
p5850
aVscarcely
p5851
aVable
p5852
aVto
p5853
aVbe
p5854
aVdecently
p5855
aVcivil
p5856
aVto
p5857
aVthe
p5858
aVother
p5859
aVpeople
p5860
aVpresent
p5861
aV.
aa(lp5862
Vwhen
p5863
aVshe
p5864
aVassured
p5865
aVhim
p5866
aVthat
p5867
aVshe
p5868
aVhad
p5869
aVnot
p5870
aVkissed
p5871
aVthe
p5872
aVother
p5873
aVman
p5874
aV,
aVhe
p5875
aVknew
p5876
aVshe
p5877
aVwas
p5878
aVlying
p5879
aV--
p5880
aVyet
p5881
aVhe
p5882
aVwas
p5883
aVglad
p5884
aVthat
p5885
aVshe
p5886
aVhad
p5887
aVtaken
p5888
aVthe
p5889
aVtrouble
p5890
aVto
p5891
aVlie
p5892
aVto
p5893
aVhim
p5894
aV.
aa(lp5895
Vhe
p5896
aVwas
p5897
aV,
aVas
p5898
aVhe
p5899
aVfound
p5900
aVbefore
p5901
aVthe
p5902
aVsummer
p5903
aVended
p5904
aV,
aVone
p5905
aVof
p5906
aVa
aVvarying
p5907
aVdozen
p5908
aVwho
p5909
aVcirculated
p5910
aVabout
p5911
aVher
p5912
aV.
aa(lp5913
Veach
p5914
aVof
p5915
aVthem
p5916
aVhad
p5917
aVat
p5918
aVone
p5919
aVtime
p5920
aVbeen
p5921
aVfavored
p5922
aVabove
p5923
aVall
p5924
aVothers
p5925
aV--
p5926
aVabout
p5927
aVhalf
p5928
aVof
p5929
aVthem
p5930
aVstill
p5931
aVbasked
p5932
aVin
p5933
aVthe
p5934
aVsolace
p5935
aVof
p5936
aVoccasional
p5937
aVsentimental
p5938
aVrevivals
p5939
aV.
aa(lp5940
Vwhenever
p5941
aVone
p5942
aVshowed
p5943
aVsigns
p5944
aVof
p5945
aVdropping
p5946
aVout
p5947
aVthrough
p5948
aVlong
p5949
aVneglect
p5950
aV,
aVshe
p5951
aVgranted
p5952
aVhim
p5953
aVa
aVbrief
p5954
aVhoneyed
p5955
aVhour
p5956
aV,
aVwhich
p5957
aVencouraged
p5958
aVhim
p5959
aVto
p5960
aVtag
p5961
aValong
p5962
aVfor
p5963
aVa
aVyear
p5964
aVor
p5965
aVso
p5966
aVlonger
p5967
aV.
aa(lp5968
Vjudy
p5969
aVmade
p5970
aVthese
p5971
aVforays
p5972
aVupon
p5973
aVthe
p5974
aVhelpless
p5975
aVand
p5976
aVdefeated
p5977
aVwithout
p5978
aVmalice
p5979
aV,
aVindeed
p5980
aVhalf
p5981
aVunconscious
p5982
aVthat
p5983
aVthere
p5984
aVwas
p5985
aVanything
p5986
aVmischievous
p5987
aVin
p5988
aVwhat
p5989
aVshe
p5990
aVdid
p5991
aV.
aa(lp5992
Vwhen
p5993
aVa
aVnew
p5994
aVman
p5995
aVcame
p5996
aVto
p5997
aVtown
p5998
aVevery
p5999
aVone
p6000
aVdropped
p6001
aVout
p6002
aV--
p6003
aVdates
p6004
aVwere
p6005
aVautomatically
p6006
aVcancelled
p6007
aV.
aa(lp6008
Vthe
p6009
aVhelpless
p6010
aVpart
p6011
aVof
p6012
aVtrying
p6013
aVto
p6014
aVdo
p6015
aVanything
p6016
aVabout
p6017
aVit
p6018
aVwas
p6019
aVthat
p6020
aVshe
p6021
aVdid
p6022
aVit
p6023
aVall
p6024
aVherself
p6025
aV.
aa(lp6026
Vshe
p6027
aVwas
p6028
aVnot
p6029
aVa
aVgirl
p6030
aVwho
p6031
aVcould
p6032
aVbe
p6033
aV``
p6034
aVwon
p6035
aV''
p6036
aVin
p6037
aVthe
p6038
aVkinetic
p6039
aVsense
p6040
aV--
p6041
aVshe
p6042
aVwas
p6043
aVproof
p6044
aVagainst
p6045
aVcleverness
p6046
aV,
aVshe
p6047
aVwas
p6048
aVproof
p6049
aVagainst
p6050
aVcharm
p6051
aV;
aVif
p6052
aVany
p6053
aVof
p6054
aVthese
p6055
aVassailed
p6056
aVher
p6057
aVtoo
p6058
aVstrongly
p6059
aVshe
p6060
aVwould
p6061
aVimmediately
p6062
aVresolve
p6063
aVthe
p6064
aVaffair
p6065
aVto
p6066
aVa
aVphysical
p6067
aVbasis
p6068
aV,
aVand
p6069
aVunder
p6070
aVthe
p6071
aVmagic
p6072
aVof
p6073
aVher
p6074
aVphysical
p6075
aVsplendor
p6076
aVthe
p6077
aVstrong
p6078
aVas
p6079
aVwell
p6080
aVas
p6081
aVthe
p6082
aVbrilliant
p6083
aVplayed
p6084
aVher
p6085
aVgame
p6086
aVand
p6087
aVnot
p6088
aVtheir
p6089
aVown
p6090
aV.
aa(lp6091
Vshe
p6092
aVwas
p6093
aVentertained
p6094
aVonly
p6095
aVby
p6096
aVthe
p6097
aVgratification
p6098
aVof
p6099
aVher
p6100
aVdesires
p6101
aVand
p6102
aVby
p6103
aVthe
p6104
aVdirect
p6105
aVexercise
p6106
aVof
p6107
aVher
p6108
aVown
p6109
aVcharm
p6110
aV.
aa(lp6111
Vperhaps
p6112
aVfrom
p6113
aVso
p6114
aVmuch
p6115
aVyouthful
p6116
aVlove
p6117
aV,
aVso
p6118
aVmany
p6119
aVyouthful
p6120
aVlovers
p6121
aV,
aVshe
p6122
aVhad
p6123
aVcome
p6124
aV,
aVin
p6125
aVself-defense
p6126
aV,
aVto
p6127
aVnourish
p6128
aVherself
p6129
aVwholly
p6130
aVfrom
p6131
aVwithin
p6132
aV.
aa(lp6133
Vsucceeding
p6134
aVdexter
p6135
aV's
p6136
aVfirst
p6137
aVexhilaration
p6138
aVcame
p6139
aVrestlessness
p6140
aVand
p6141
aVdissatisfaction
p6142
aV.
aa(lp6143
Vthe
p6144
aVhelpless
p6145
aVecstasy
p6146
aVof
p6147
aVlosing
p6148
aVhimself
p6149
aVin
p6150
aVher
p6151
aVwas
p6152
aVopiate
p6153
aVrather
p6154
aVthan
p6155
aVtonic
p6156
aV.
aa(lp6157
Vit
p6158
aVwas
p6159
aVfortunate
p6160
aVfor
p6161
aVhis
p6162
aVwork
p6163
aVduring
p6164
aVthe
p6165
aVwinter
p6166
aVthat
p6167
aVthose
p6168
aVmoments
p6169
aVof
p6170
aVecstasy
p6171
aVcame
p6172
aVinfrequently
p6173
aV.
aa(lp6174
Vearly
p6175
aVin
p6176
aVtheir
p6177
aVacquaintance
p6178
aVit
p6179
aVhad
p6180
aVseemed
p6181
aVfor
p6182
aVa
aVwhile
p6183
aVthat
p6184
aVthere
p6185
aVwas
p6186
aVa
aVdeep
p6187
aVand
p6188
aVspontaneous
p6189
aVmutual
p6190
aVattraction
p6191
aV--
p6192
aVthat
p6193
aVfirst
p6194
aVaugust
p6195
aV,
aVfor
p6196
aVexample
p6197
aV--
p6198
aVthree
p6199
aVdays
p6200
aVof
p6201
aVlong
p6202
aVevenings
p6203
aVon
p6204
aVher
p6205
aVdusky
p6206
aVveranda
p6207
aV,
aVof
p6208
aVstrange
p6209
aVwan
p6210
aVkisses
p6211
aVthrough
p6212
aVthe
p6213
aVlate
p6214
aVafternoon
p6215
aV,
aVin
p6216
aVshadowy
p6217
aValcoves
p6218
aVor
p6219
aVbehind
p6220
aVthe
p6221
aVprotecting
p6222
aVtrellises
p6223
aVof
p6224
aVthe
p6225
aVgarden
p6226
aVarbors
p6227
aV,
aVof
p6228
aVmornings
p6229
aVwhen
p6230
aVshe
p6231
aVwas
p6232
aVfresh
p6233
aVas
p6234
aVa
aVdream
p6235
aVand
p6236
aValmost
p6237
aVshy
p6238
aVat
p6239
aVmeeting
p6240
aVhim
p6241
aVin
p6242
aVthe
p6243
aVclarity
p6244
aVof
p6245
aVthe
p6246
aVrising
p6247
aVday
p6248
aV.
aa(lp6249
Vthere
p6250
aVwas
p6251
aVall
p6252
aVthe
p6253
aVecstasy
p6254
aVof
p6255
aVan
p6256
aVengagement
p6257
aVabout
p6258
aVit
p6259
aV,
aVsharpened
p6260
aVby
p6261
aVhis
p6262
aVrealization
p6263
aVthat
p6264
aVthere
p6265
aVwas
p6266
aVno
p6267
aVengagement
p6268
aV.
aa(lp6269
Vit
p6270
aVwas
p6271
aVduring
p6272
aVthose
p6273
aVthree
p6274
aVdays
p6275
aVthat
p6276
aV,
aVfor
p6277
aVthe
p6278
aVfirst
p6279
aVtime
p6280
aV,
aVhe
p6281
aVhad
p6282
aVasked
p6283
aVher
p6284
aVto
p6285
aVmarry
p6286
aVhim
p6287
aV.
aa(lp6288
Vshe
p6289
aVsaid
p6290
aV``
p6291
aVmaybe
p6292
aVsome
p6293
aVday
p6294
aV,
aV''
p6295
aVshe
p6296
aVsaid
p6297
aV``
p6298
aVkiss
p6299
aVme
p6300
aV,
aV''
p6301
aVshe
p6302
aVsaid
p6303
aV``
p6304
aVi
aV'd
p6305
aVlike
p6306
aVto
p6307
aVmarry
p6308
aVyou
p6309
aV,
aV''
p6310
aVshe
p6311
aVsaid
p6312
aV``
p6313
aVi
aVlove
p6314
aVyou
p6315
aV''
p6316
aV--
p6317
aVshe
p6318
aVsaid
p6319
aV--
p6320
aVnothing
p6321
aV.
aa(lp6322
Vthe
p6323
aVthree
p6324
aVdays
p6325
aVwere
p6326
aVinterrupted
p6327
aVby
p6328
aVthe
p6329
aVarrival
p6330
aVof
p6331
aVa
aVnew
p6332
aVyork
p6333
aVman
p6334
aVwho
p6335
aVvisited
p6336
aVat
p6337
aVher
p6338
aVhouse
p6339
aVfor
p6340
aVhalf
p6341
aVseptember
p6342
aV.
aa(lp6343
Vto
p6344
aVdexter
p6345
aV's
p6346
aVagony
p6347
aV,
aVrumor
p6348
aVengaged
p6349
aVthem
p6350
aV.
aa(lp6351
Vthe
p6352
aVman
p6353
aVwas
p6354
aVthe
p6355
aVson
p6356
aVof
p6357
aVthe
p6358
aVpresident
p6359
aVof
p6360
aVa
aVgreat
p6361
aVtrust
p6362
aVcompany
p6363
aV.
aa(lp6364
Vbut
p6365
aVat
p6366
aVthe
p6367
aVend
p6368
aVof
p6369
aVa
aVmonth
p6370
aVit
p6371
aVwas
p6372
aVreported
p6373
aVthat
p6374
aVjudy
p6375
aVwas
p6376
aVyawning
p6377
aV.
aa(lp6378
Vat
p6379
aVa
aVdance
p6380
aVone
p6381
aVnight
p6382
aVshe
p6383
aVsat
p6384
aVall
p6385
aVevening
p6386
aVin
p6387
aVa
aVmotor-boat
p6388
aVwith
p6389
aVa
aVlocal
p6390
aVbeau
p6391
aV,
aVwhile
p6392
aVthe
p6393
aVnew
p6394
aVyorker
p6395
aVsearched
p6396
aVthe
p6397
aVclub
p6398
aVfor
p6399
aVher
p6400
aVfrantically
p6401
aV.
aa(lp6402
Vshe
p6403
aVtold
p6404
aVthe
p6405
aVlocal
p6406
aVbeau
p6407
aVthat
p6408
aVshe
p6409
aVwas
p6410
aVbored
p6411
aVwith
p6412
aVher
p6413
aVvisitor
p6414
aV,
aVand
p6415
aVtwo
p6416
aVdays
p6417
aVlater
p6418
aVhe
p6419
aVleft
p6420
aV.
aa(lp6421
Vshe
p6422
aVwas
p6423
aVseen
p6424
aVwith
p6425
aVhim
p6426
aVat
p6427
aVthe
p6428
aVstation
p6429
aV,
aVand
p6430
aVit
p6431
aVwas
p6432
aVreported
p6433
aVthat
p6434
aVhe
p6435
aVlooked
p6436
aVvery
p6437
aVmournful
p6438
aVindeed
p6439
aV.
aa(lp6440
Von
p6441
aVthis
p6442
aVnote
p6443
aVthe
p6444
aVsummer
p6445
aVended
p6446
aV.
aa(lp6447
Vdexter
p6448
aVwas
p6449
aVtwenty-four
p6450
aV,
aVand
p6451
aVhe
p6452
aVfound
p6453
aVhimself
p6454
aVincreasingly
p6455
aVin
p6456
aVa
aVposition
p6457
aVto
p6458
aVdo
p6459
aVas
p6460
aVhe
p6461
aVwished
p6462
aV.
aa(lp6463
Vhe
p6464
aVjoined
p6465
aVtwo
p6466
aVclubs
p6467
aVin
p6468
aVthe
p6469
aVcity
p6470
aVand
p6471
aVlived
p6472
aVat
p6473
aVone
p6474
aVof
p6475
aVthem
p6476
aV.
aa(lp6477
Vthough
p6478
aVhe
p6479
aVwas
p6480
aVby
p6481
aVno
p6482
aVmeans
p6483
aVan
p6484
aVintegral
p6485
aVpart
p6486
aVof
p6487
aVthe
p6488
aVstag-lines
p6489
aVat
p6490
aVthese
p6491
aVclubs
p6492
aV,
aVhe
p6493
aVmanaged
p6494
aVto
p6495
aVbe
p6496
aVon
p6497
aVhand
p6498
aVat
p6499
aVdances
p6500
aVwhere
p6501
aVjudy
p6502
aVjones
p6503
aVwas
p6504
aVlikely
p6505
aVto
p6506
aVappear
p6507
aV.
aa(lp6508
Vhe
p6509
aVcould
p6510
aVhave
p6511
aVgone
p6512
aVout
p6513
aVsocially
p6514
aVas
p6515
aVmuch
p6516
aVas
p6517
aVhe
p6518
aVliked
p6519
aV--
p6520
aVhe
p6521
aVwas
p6522
aVan
p6523
aVeligible
p6524
aVyoung
p6525
aVman
p6526
aV,
aVnow
p6527
aV,
aVand
p6528
aVpopular
p6529
aVwith
p6530
aVdown-town
p6531
aVfathers
p6532
aV.
aa(lp6533
Vhis
p6534
aVconfessed
p6535
aVdevotion
p6536
aVto
p6537
aVjudy
p6538
aVjones
p6539
aVhad
p6540
aVrather
p6541
aVsolidified
p6542
aVhis
p6543
aVposition
p6544
aV.
aa(lp6545
Vbut
p6546
aVhe
p6547
aVhad
p6548
aVno
p6549
aVsocial
p6550
aVaspirations
p6551
aVand
p6552
aVrather
p6553
aVdespised
p6554
aVthe
p6555
aVdancing
p6556
aVmen
p6557
aVwho
p6558
aVwere
p6559
aValways
p6560
aVon
p6561
aVtap
p6562
aVfor
p6563
aVthe
p6564
aVthursday
p6565
aVor
p6566
aVsaturday
p6567
aVparties
p6568
aVand
p6569
aVwho
p6570
aVfilled
p6571
aVin
p6572
aVat
p6573
aVdinners
p6574
aVwith
p6575
aVthe
p6576
aVyounger
p6577
aVmarried
p6578
aVset
p6579
aV.
aa(lp6580
Valready
p6581
aVhe
p6582
aVwas
p6583
aVplaying
p6584
aVwith
p6585
aVthe
p6586
aVidea
p6587
aVof
p6588
aVgoing
p6589
aVeast
p6590
aVto
p6591
aVnew
p6592
aVyork
p6593
aV.
aa(lp6594
Vhe
p6595
aVwanted
p6596
aVto
p6597
aVtake
p6598
aVjudy
p6599
aVjones
p6600
aVwith
p6601
aVhim
p6602
aV.
aa(lp6603
Vno
p6604
aVdisillusion
p6605
aVas
p6606
aVto
p6607
aVthe
p6608
aVworld
p6609
aVin
p6610
aVwhich
p6611
aVshe
p6612
aVhad
p6613
aVgrown
p6614
aVup
p6615
aVcould
p6616
aVcure
p6617
aVhis
p6618
aVillusion
p6619
aVas
p6620
aVto
p6621
aVher
p6622
aVdesirability
p6623
aV.
aa(lp6624
Vremember
p6625
aVthat
p6626
aV--
p6627
aVfor
p6628
aVonly
p6629
aVin
p6630
aVthe
p6631
aVlight
p6632
aVof
p6633
aVit
p6634
aVcan
p6635
aVwhat
p6636
aVhe
p6637
aVdid
p6638
aVfor
p6639
aVher
p6640
aVbe
p6641
aVunderstood
p6642
aV.
aa(lp6643
Veighteen
p6644
aVmonths
p6645
aVafter
p6646
aVhe
p6647
aVfirst
p6648
aVmet
p6649
aVjudy
p6650
aVjones
p6651
aVhe
p6652
aVbecame
p6653
aVengaged
p6654
aVto
p6655
aVanother
p6656
aVgirl
p6657
aV.
aa(lp6658
Vher
p6659
aVname
p6660
aVwas
p6661
aVirene
p6662
aVscheerer
p6663
aV,
aVand
p6664
aVher
p6665
aVfather
p6666
aVwas
p6667
aVone
p6668
aVof
p6669
aVthe
p6670
aVmen
p6671
aVwho
p6672
aVhad
p6673
aValways
p6674
aVbelieved
p6675
aVin
p6676
aVdexter
p6677
aV.
aa(lp6678
Virene
p6679
aVwas
p6680
aVlight-haired
p6681
aVand
p6682
aVsweet
p6683
aVand
p6684
aVhonorable
p6685
aV,
aVand
p6686
aVa
aVlittle
p6687
aVstout
p6688
aV,
aVand
p6689
aVshe
p6690
aVhad
p6691
aVtwo
p6692
aVsuitors
p6693
aVwhom
p6694
aVshe
p6695
aVpleasantly
p6696
aVrelinquished
p6697
aVwhen
p6698
aVdexter
p6699
aVformally
p6700
aVasked
p6701
aVher
p6702
aVto
p6703
aVmarry
p6704
aVhim
p6705
aV.
aa(lp6706
Vsummer
p6707
aV,
aVfall
p6708
aV,
aVwinter
p6709
aV,
aVspring
p6710
aV,
aVanother
p6711
aVsummer
p6712
aV,
aVanother
p6713
aVfall
p6714
aV--
p6715
aVso
p6716
aVmuch
p6717
aVhe
p6718
aVhad
p6719
aVgiven
p6720
aVof
p6721
aVhis
p6722
aVactive
p6723
aVlife
p6724
aVto
p6725
aVthe
p6726
aVincorrigible
p6727
aVlips
p6728
aVof
p6729
aVjudy
p6730
aVjones
p6731
aV.
aa(lp6732
Vshe
p6733
aVhad
p6734
aVtreated
p6735
aVhim
p6736
aVwith
p6737
aVinterest
p6738
aV,
aVwith
p6739
aVencouragement
p6740
aV,
aVwith
p6741
aVmalice
p6742
aV,
aVwith
p6743
aVindifference
p6744
aV,
aVwith
p6745
aVcontempt
p6746
aV.
aa(lp6747
Vshe
p6748
aVhad
p6749
aVinflicted
p6750
aVon
p6751
aVhim
p6752
aVthe
p6753
aVinnumerable
p6754
aVlittle
p6755
aVslights
p6756
aVand
p6757
aVindignities
p6758
aVpossible
p6759
aVin
p6760
aVsuch
p6761
aVa
aVcase
p6762
aV--
p6763
aVas
p6764
aVif
p6765
aVin
p6766
aVrevenge
p6767
aVfor
p6768
aVhaving
p6769
aVever
p6770
aVcared
p6771
aVfor
p6772
aVhim
p6773
aVat
p6774
aVall
p6775
aV.
aa(lp6776
Vshe
p6777
aVhad
p6778
aVbeckoned
p6779
aVhim
p6780
aVand
p6781
aVyawned
p6782
aVat
p6783
aVhim
p6784
aVand
p6785
aVbeckoned
p6786
aVhim
p6787
aVagain
p6788
aVand
p6789
aVhe
p6790
aVhad
p6791
aVresponded
p6792
aVoften
p6793
aVwith
p6794
aVbitterness
p6795
aVand
p6796
aVnarrowed
p6797
aVeyes
p6798
aV.
aa(lp6799
Vshe
p6800
aVhad
p6801
aVbrought
p6802
aVhim
p6803
aVecstatic
p6804
aVhappiness
p6805
aVand
p6806
aVintolerable
p6807
aVagony
p6808
aVof
p6809
aVspirit
p6810
aV.
aa(lp6811
Vshe
p6812
aVhad
p6813
aVcaused
p6814
aVhim
p6815
aVuntold
p6816
aVinconvenience
p6817
aVand
p6818
aVnot
p6819
aVa
aVlittle
p6820
aVtrouble
p6821
aV.
aa(lp6822
Vshe
p6823
aVhad
p6824
aVinsulted
p6825
aVhim
p6826
aV,
aVand
p6827
aVshe
p6828
aVhad
p6829
aVridden
p6830
aVover
p6831
aVhim
p6832
aV,
aVand
p6833
aVshe
p6834
aVhad
p6835
aVplayed
p6836
aVhis
p6837
aVinterest
p6838
aVin
p6839
aVher
p6840
aVagainst
p6841
aVhis
p6842
aVinterest
p6843
aVin
p6844
aVhis
p6845
aVwork
p6846
aV--
p6847
aVfor
p6848
aVfun
p6849
aV.
aa(lp6850
Vshe
p6851
aVhad
p6852
aVdone
p6853
aVeverything
p6854
aVto
p6855
aVhim
p6856
aVexcept
p6857
aVto
p6858
aVcriticise
p6859
aVhim
p6860
aV--
p6861
aVthis
p6862
aVshe
p6863
aVhad
p6864
aVnot
p6865
aVdone
p6866
aV--
p6867
aVit
p6868
aVseemed
p6869
aVto
p6870
aVhim
p6871
aVonly
p6872
aVbecause
p6873
aVit
p6874
aVmight
p6875
aVhave
p6876
aVsullied
p6877
aVthe
p6878
aVutter
p6879
aVindifference
p6880
aVshe
p6881
aVmanifested
p6882
aVand
p6883
aVsincerely
p6884
aVfelt
p6885
aVtoward
p6886
aVhim
p6887
aV.
aa(lp6888
Vwhen
p6889
aVautumn
p6890
aVhad
p6891
aVcome
p6892
aVand
p6893
aVgone
p6894
aVagain
p6895
aVit
p6896
aVoccurred
p6897
aVto
p6898
aVhim
p6899
aVthat
p6900
aVhe
p6901
aVcould
p6902
aVnot
p6903
aVhave
p6904
aVjudy
p6905
aVjones
p6906
aV.
aa(lp6907
Vhe
p6908
aVhad
p6909
aVto
p6910
aVbeat
p6911
aVthis
p6912
aVinto
p6913
aVhis
p6914
aVmind
p6915
aVbut
p6916
aVhe
p6917
aVconvinced
p6918
aVhimself
p6919
aVat
p6920
aVlast
p6921
aV.
aa(lp6922
Vhe
p6923
aVlay
p6924
aVawake
p6925
aVat
p6926
aVnight
p6927
aVfor
p6928
aVa
aVwhile
p6929
aVand
p6930
aVargued
p6931
aVit
p6932
aVover
p6933
aV.
aa(lp6934
Vhe
p6935
aVtold
p6936
aVhimself
p6937
aVthe
p6938
aVtrouble
p6939
aVand
p6940
aVthe
p6941
aVpain
p6942
aVshe
p6943
aVhad
p6944
aVcaused
p6945
aVhim
p6946
aV,
aVhe
p6947
aVenumerated
p6948
aVher
p6949
aVglaring
p6950
aVdeficiencies
p6951
aVas
p6952
aVa
aVwife
p6953
aV.
aa(lp6954
Vthen
p6955
aVhe
p6956
aVsaid
p6957
aVto
p6958
aVhimself
p6959
aVthat
p6960
aVhe
p6961
aVloved
p6962
aVher
p6963
aV,
aVand
p6964
aVafter
p6965
aVa
aVwhile
p6966
aVhe
p6967
aVfell
p6968
aVasleep
p6969
aV.
aa(lp6970
Vfor
p6971
aVa
aVweek
p6972
aV,
aVlest
p6973
aVhe
p6974
aVimagined
p6975
aVher
p6976
aVhusky
p6977
aVvoice
p6978
aVover
p6979
aVthe
p6980
aVtelephone
p6981
aVor
p6982
aVher
p6983
aVeyes
p6984
aVopposite
p6985
aVhim
p6986
aVat
p6987
aVlunch
p6988
aV,
aVhe
p6989
aVworked
p6990
aVhard
p6991
aVand
p6992
aVlate
p6993
aV,
aVand
p6994
aVat
p6995
aVnight
p6996
aVhe
p6997
aVwent
p6998
aVto
p6999
aVhis
p7000
aVoffice
p7001
aVand
p7002
aVplotted
p7003
aVout
p7004
aVhis
p7005
aVyears
p7006
aV.
aa(lp7007
Vat
p7008
aVthe
p7009
aVend
p7010
aVof
p7011
aVa
aVweek
p7012
aVhe
p7013
aVwent
p7014
aVto
p7015
aVa
aVdance
p7016
aVand
p7017
aVcut
p7018
aVin
p7019
aVon
p7020
aVher
p7021
aVonce
p7022
aV.
aa(lp7023
Vfor
p7024
aValmost
p7025
aVthe
p7026
aVfirst
p7027
aVtime
p7028
aVsince
p7029
aVthey
p7030
aVhad
p7031
aVmet
p7032
aVhe
p7033
aVdid
p7034
aVnot
p7035
aVask
p7036
aVher
p7037
aVto
p7038
aVsit
p7039
aVout
p7040
aVwith
p7041
aVhim
p7042
aVor
p7043
aVtell
p7044
aVher
p7045
aVthat
p7046
aVshe
p7047
aVwas
p7048
aVlovely
p7049
aV.
aa(lp7050
Vit
p7051
aVhurt
p7052
aVhim
p7053
aVthat
p7054
aVshe
p7055
aVdid
p7056
aVnot
p7057
aVmiss
p7058
aVthese
p7059
aVthings
p7060
aV--
p7061
aVthat
p7062
aVwas
p7063
aVall
p7064
aV.
aa(lp7065
Vhe
p7066
aVwas
p7067
aVnot
p7068
aVjealous
p7069
aVwhen
p7070
aVhe
p7071
aVsaw
p7072
aVthat
p7073
aVthere
p7074
aVwas
p7075
aVa
aVnew
p7076
aVman
p7077
aVto-night
p7078
aV.
aa(lp7079
Vhe
p7080
aVhad
p7081
aVbeen
p7082
aVhardened
p7083
aVagainst
p7084
aVjealousy
p7085
aVlong
p7086
aVbefore
p7087
aV.
aa(lp7088
Vhe
p7089
aVstayed
p7090
aVlate
p7091
aVat
p7092
aVthe
p7093
aVdance
p7094
aV.
aa(lp7095
Vhe
p7096
aVsat
p7097
aVfor
p7098
aVan
p7099
aVhour
p7100
aVwith
p7101
aVirene
p7102
aVscheerer
p7103
aVand
p7104
aVtalked
p7105
aVabout
p7106
aVbooks
p7107
aVand
p7108
aVabout
p7109
aVmusic
p7110
aV.
aa(lp7111
Vhe
p7112
aVknew
p7113
aVvery
p7114
aVlittle
p7115
aVabout
p7116
aVeither
p7117
aV.
aa(lp7118
Vbut
p7119
aVhe
p7120
aVwas
p7121
aVbeginning
p7122
aVto
p7123
aVbe
p7124
aVmaster
p7125
aVof
p7126
aVhis
p7127
aVown
p7128
aVtime
p7129
aVnow
p7130
aV,
aVand
p7131
aVhe
p7132
aVhad
p7133
aVa
aVrather
p7134
aVpriggish
p7135
aVnotion
p7136
aVthat
p7137
aVhe
p7138
aV--
p7139
aVthe
p7140
aVyoung
p7141
aVand
p7142
aValready
p7143
aVfabulously
p7144
aVsuccessful
p7145
aVdexter
p7146
aVgreen
p7147
aV--
p7148
aVshould
p7149
aVknow
p7150
aVmore
p7151
aVabout
p7152
aVsuch
p7153
aVthings
p7154
aV.
aa(lp7155
Vthat
p7156
aVwas
p7157
aVin
p7158
aVoctober
p7159
aV,
aVwhen
p7160
aVhe
p7161
aVwas
p7162
aVtwenty-five
p7163
aV.
aa(lp7164
Vin
p7165
aVjanuary
p7166
aV,
aVdexter
p7167
aVand
p7168
aVirene
p7169
aVbecame
p7170
aVengaged
p7171
aV.
aa(lp7172
Vit
p7173
aVwas
p7174
aVto
p7175
aVbe
p7176
aVannounced
p7177
aVin
p7178
aVjune
p7179
aV,
aVand
p7180
aVthey
p7181
aVwere
p7182
aVto
p7183
aVbe
p7184
aVmarried
p7185
aVthree
p7186
aVmonths
p7187
aVlater
p7188
aV.
aa(lp7189
Vthe
p7190
aVminnesota
p7191
aVwinter
p7192
aVprolonged
p7193
aVitself
p7194
aVinterminably
p7195
aV,
aVand
p7196
aVit
p7197
aVwas
p7198
aValmost
p7199
aVmay
p7200
aVwhen
p7201
aVthe
p7202
aVwinds
p7203
aVcame
p7204
aVsoft
p7205
aVand
p7206
aVthe
p7207
aVsnow
p7208
aVran
p7209
aVdown
p7210
aVinto
p7211
aVblack
p7212
aVbear
p7213
aVlake
p7214
aVat
p7215
aVlast
p7216
aV.
aa(lp7217
Vfor
p7218
aVthe
p7219
aVfirst
p7220
aVtime
p7221
aVin
p7222
aVover
p7223
aVa
aVyear
p7224
aVdexter
p7225
aVwas
p7226
aVenjoying
p7227
aVa
aVcertain
p7228
aVtranquility
p7229
aVof
p7230
aVspirit
p7231
aV.
aa(lp7232
Vjudy
p7233
aVjones
p7234
aVhad
p7235
aVbeen
p7236
aVin
p7237
aVflorida
p7238
aV,
aVand
p7239
aVafterward
p7240
aVin
p7241
aVhot
p7242
aVsprings
p7243
aV,
aVand
p7244
aVsomewhere
p7245
aVshe
p7246
aVhad
p7247
aVbeen
p7248
aVengaged
p7249
aV,
aVand
p7250
aVsomewhere
p7251
aVshe
p7252
aVhad
p7253
aVbroken
p7254
aVit
p7255
aVoff
p7256
aV.
aa(lp7257
Vat
p7258
aVfirst
p7259
aV,
aVwhen
p7260
aVdexter
p7261
aVhad
p7262
aVdefinitely
p7263
aVgiven
p7264
aVher
p7265
aVup
p7266
aV,
aVit
p7267
aVhad
p7268
aVmade
p7269
aVhim
p7270
aVsad
p7271
aVthat
p7272
aVpeople
p7273
aVstill
p7274
aVlinked
p7275
aVthem
p7276
aVtogether
p7277
aVand
p7278
aVasked
p7279
aVfor
p7280
aVnews
p7281
aVof
p7282
aVher
p7283
aV,
aVbut
p7284
aVwhen
p7285
aVhe
p7286
aVbegan
p7287
aVto
p7288
aVbe
p7289
aVplaced
p7290
aVat
p7291
aVdinner
p7292
aVnext
p7293
aVto
p7294
aVirene
p7295
aVscheerer
p7296
aVpeople
p7297
aVdid
p7298
aVn't
p7299
aVask
p7300
aVhim
p7301
aVabout
p7302
aVher
p7303
aVany
p7304
aVmore
p7305
aV--
p7306
aVthey
p7307
aVtold
p7308
aVhim
p7309
aVabout
p7310
aVher
p7311
aV.
aa(lp7312
Vhe
p7313
aVceased
p7314
aVto
p7315
aVbe
p7316
aVan
p7317
aVauthority
p7318
aVon
p7319
aVher
p7320
aV.
aa(lp7321
Vmay
p7322
aVat
p7323
aVlast
p7324
aV.
aa(lp7325
Vdexter
p7326
aVwalked
p7327
aVthe
p7328
aVstreets
p7329
aVat
p7330
aVnight
p7331
aVwhen
p7332
aVthe
p7333
aVdarkness
p7334
aVwas
p7335
aVdamp
p7336
aVas
p7337
aVrain
p7338
aV,
aVwondering
p7339
aVthat
p7340
aVso
p7341
aVsoon
p7342
aV,
aVwith
p7343
aVso
p7344
aVlittle
p7345
aVdone
p7346
aV,
aVso
p7347
aVmuch
p7348
aVof
p7349
aVecstasy
p7350
aVhad
p7351
aVgone
p7352
aVfrom
p7353
aVhim
p7354
aV.
aa(lp7355
Vmay
p7356
aVone
p7357
aVyear
p7358
aVback
p7359
aVhad
p7360
aVbeen
p7361
aVmarked
p7362
aVby
p7363
aVjudy
p7364
aV's
p7365
aVpoignant
p7366
aV,
aVunforgivable
p7367
aV,
aVyet
p7368
aVforgiven
p7369
aVturbulence
p7370
aV--
p7371
aVit
p7372
aVhad
p7373
aVbeen
p7374
aVone
p7375
aVof
p7376
aVthose
p7377
aVrare
p7378
aVtimes
p7379
aVwhen
p7380
aVhe
p7381
aVfancied
p7382
aVshe
p7383
aVhad
p7384
aVgrown
p7385
aVto
p7386
aVcare
p7387
aVfor
p7388
aVhim
p7389
aV.
aa(lp7390
Vthat
p7391
aVold
p7392
aVpenny
p7393
aV's
p7394
aVworth
p7395
aVof
p7396
aVhappiness
p7397
aVhe
p7398
aVhad
p7399
aVspent
p7400
aVfor
p7401
aVthis
p7402
aVbushel
p7403
aVof
p7404
aVcontent
p7405
aV.
aa(lp7406
Vhe
p7407
aVknew
p7408
aVthat
p7409
aVirene
p7410
aVwould
p7411
aVbe
p7412
aVno
p7413
aVmore
p7414
aVthan
p7415
aVa
aVcurtain
p7416
aVspread
p7417
aVbehind
p7418
aVhim
p7419
aV,
aVa
aVhand
p7420
aVmoving
p7421
aVamong
p7422
aVgleaming
p7423
aVtea-cups
p7424
aV,
aVa
aVvoice
p7425
aVcalling
p7426
aVto
p7427
aVchildren
p7428
aV.
aa(lp7429
V.
aa(lp7430
V.
aa(lp7431
Vfire
p7432
aVand
p7433
aVloveliness
p7434
aVwere
p7435
aVgone
p7436
aV,
aVthe
p7437
aVmagic
p7438
aVof
p7439
aVnights
p7440
aVand
p7441
aVthe
p7442
aVwonder
p7443
aVof
p7444
aVthe
p7445
aVvarying
p7446
aVhours
p7447
aVand
p7448
aVseasons
p7449
aV.
aa(lp7450
V.
aa(lp7451
V.
aa(lp7452
Vslender
p7453
aVlips
p7454
aV,
aVdown-turning
p7455
aV,
aVdropping
p7456
aVto
p7457
aVhis
p7458
aVlips
p7459
aVand
p7460
aVbearing
p7461
aVhim
p7462
aVup
p7463
aVinto
p7464
aVa
aVheaven
p7465
aVof
p7466
aVeyes
p7467
aV.
aa(lp7468
V.
aa(lp7469
V.
aa(lp7470
V.
aa(lp7471
Vthe
p7472
aVthing
p7473
aVwas
p7474
aVdeep
p7475
aVin
p7476
aVhim
p7477
aV.
aa(lp7478
Vhe
p7479
aVwas
p7480
aVtoo
p7481
aVstrong
p7482
aVand
p7483
aValive
p7484
aVfor
p7485
aVit
p7486
aVto
p7487
aVdie
p7488
aVlightly
p7489
aV.
aa(lp7490
Vin
p7491
aVthe
p7492
aVmiddle
p7493
aVof
p7494
aVmay
p7495
aVwhen
p7496
aVthe
p7497
aVweather
p7498
aVbalanced
p7499
aVfor
p7500
aVa
aVfew
p7501
aVdays
p7502
aVon
p7503
aVthe
p7504
aVthin
p7505
aVbridge
p7506
aVthat
p7507
aVled
p7508
aVto
p7509
aVdeep
p7510
aVsummer
p7511
aVhe
p7512
aVturned
p7513
aVin
p7514
aVone
p7515
aVnight
p7516
aVat
p7517
aVirene
p7518
aV's
p7519
aVhouse
p7520
aV.
aa(lp7521
Vtheir
p7522
aVengagement
p7523
aVwas
p7524
aVto
p7525
aVbe
p7526
aVannounced
p7527
aVin
p7528
aVa
aVweek
p7529
aVnow
p7530
aV--
p7531
aVno
p7532
aVone
p7533
aVwould
p7534
aVbe
p7535
aVsurprised
p7536
aVat
p7537
aVit
p7538
aV.
aa(lp7539
Vand
p7540
aVto-night
p7541
aVthey
p7542
aVwould
p7543
aVsit
p7544
aVtogether
p7545
aVon
p7546
aVthe
p7547
aVlounge
p7548
aVat
p7549
aVthe
p7550
aVuniversity
p7551
aVclub
p7552
aVand
p7553
aVlook
p7554
aVon
p7555
aVfor
p7556
aVan
p7557
aVhour
p7558
aVat
p7559
aVthe
p7560
aVdancers
p7561
aV.
aa(lp7562
Vit
p7563
aVgave
p7564
aVhim
p7565
aVa
aVsense
p7566
aVof
p7567
aVsolidity
p7568
aVto
p7569
aVgo
p7570
aVwith
p7571
aVher
p7572
aV--
p7573
aVshe
p7574
aVwas
p7575
aVso
p7576
aVsturdily
p7577
aVpopular
p7578
aV,
aVso
p7579
aVintensely
p7580
aV``
p7581
aVgreat
p7582
aV.
aV''
p7583
aa(lp7584
Vhe
p7585
aVmounted
p7586
aVthe
p7587
aVsteps
p7588
aVof
p7589
aVthe
p7590
aVbrownstone
p7591
aVhouse
p7592
aVand
p7593
aVstepped
p7594
aVinside
p7595
aV.
aa(lp7596
V``
p7597
aVirene
p7598
aV,
aV''
p7599
aVhe
p7600
aVcalled
p7601
aV.
aa(lp7602
Vmrs.
p7603
aVscheerer
p7604
aVcame
p7605
aVout
p7606
aVof
p7607
aVthe
p7608
aVliving-room
p7609
aVto
p7610
aVmeet
p7611
aVhim
p7612
aV.
aa(lp7613
V``
p7614
aVdexter
p7615
aV,
aV''
p7616
aVshe
p7617
aVsaid
p7618
aV,
aV``
p7619
aVirene
p7620
aV's
p7621
aVgone
p7622
aVup-stairs
p7623
aVwith
p7624
aVa
aVsplitting
p7625
aVheadache
p7626
aV.
aa(lp7627
Vshe
p7628
aVwanted
p7629
aVto
p7630
aVgo
p7631
aVwith
p7632
aVyou
p7633
aVbut
p7634
aVi
aVmade
p7635
aVher
p7636
aVgo
p7637
aVto
p7638
aVbed
p7639
aV.
aV''
p7640
aa(lp7641
V``
p7642
aVnothing
p7643
aVserious
p7644
aV,
aVi
aV--
p7645
aV''
p7646
aV''
p7647
aVoh
p7648
aV,
aVno
p7649
aV.
aa(lp7650
Vshe
p7651
aV's
p7652
aVgoing
p7653
aVto
p7654
aVplay
p7655
aVgolf
p7656
aVwith
p7657
aVyou
p7658
aVin
p7659
aVthe
p7660
aVmorning
p7661
aV.
aa(lp7662
Vyou
p7663
aVcan
p7664
aVspare
p7665
aVher
p7666
aVfor
p7667
aVjust
p7668
aVone
p7669
aVnight
p7670
aV,
aVca
p7671
aVn't
p7672
aVyou
p7673
aV,
aVdexter
p7674
aV?
aV''
p7675
aa(lp7676
Vher
p7677
aVsmile
p7678
aVwas
p7679
aVkind
p7680
aV.
aa(lp7681
Vshe
p7682
aVand
p7683
aVdexter
p7684
aVliked
p7685
aVeach
p7686
aVother
p7687
aV.
aa(lp7688
Vin
p7689
aVthe
p7690
aVliving-room
p7691
aVhe
p7692
aVtalked
p7693
aVfor
p7694
aVa
aVmoment
p7695
aVbefore
p7696
aVhe
p7697
aVsaid
p7698
aVgood-night
p7699
aV.
aa(lp7700
Vreturning
p7701
aVto
p7702
aVthe
p7703
aVuniversity
p7704
aVclub
p7705
aV,
aVwhere
p7706
aVhe
p7707
aVhad
p7708
aVrooms
p7709
aV,
aVhe
p7710
aVstood
p7711
aVin
p7712
aVthe
p7713
aVdoorway
p7714
aVfor
p7715
aVa
aVmoment
p7716
aVand
p7717
aVwatched
p7718
aVthe
p7719
aVdancers
p7720
aV.
aa(lp7721
Vhe
p7722
aVleaned
p7723
aVagainst
p7724
aVthe
p7725
aVdoor-post
p7726
aV,
aVnodded
p7727
aVat
p7728
aVa
aVman
p7729
aVor
p7730
aVtwo
p7731
aV--
p7732
aVyawned
p7733
aV.
aa(lp7734
V``
p7735
aVhello
p7736
aV,
aVdarling
p7737
aV.
aV''
p7738
aa(lp7739
Vthe
p7740
aVfamiliar
p7741
aVvoice
p7742
aVat
p7743
aVhis
p7744
aVelbow
p7745
aVstartled
p7746
aVhim
p7747
aV.
aa(lp7748
Vjudy
p7749
aVjones
p7750
aVhad
p7751
aVleft
p7752
aVa
aVman
p7753
aVand
p7754
aVcrossed
p7755
aVthe
p7756
aVroom
p7757
aVto
p7758
aVhim
p7759
aV--
p7760
aVjudy
p7761
aVjones
p7762
aV,
aVa
aVslender
p7763
aVenamelled
p7764
aVdoll
p7765
aVin
p7766
aVcloth
p7767
aVof
p7768
aVgold
p7769
aV:
aVgold
p7770
aVin
p7771
aVa
aVband
p7772
aVat
p7773
aVher
p7774
aVhead
p7775
aV,
aVgold
p7776
aVin
p7777
aVtwo
p7778
aVslipper
p7779
aVpoints
p7780
aVat
p7781
aVher
p7782
aVdress
p7783
aV's
p7784
aVhem
p7785
aV.
aa(lp7786
Vthe
p7787
aVfragile
p7788
aVglow
p7789
aVof
p7790
aVher
p7791
aVface
p7792
aVseemed
p7793
aVto
p7794
aVblossom
p7795
aVas
p7796
aVshe
p7797
aVsmiled
p7798
aVat
p7799
aVhim
p7800
aV.
aa(lp7801
Va
aVbreeze
p7802
aVof
p7803
aVwarmth
p7804
aVand
p7805
aVlight
p7806
aVblew
p7807
aVthrough
p7808
aVthe
p7809
aVroom
p7810
aV.
aa(lp7811
Vhis
p7812
aVhands
p7813
aVin
p7814
aVthe
p7815
aVpockets
p7816
aVof
p7817
aVhis
p7818
aVdinner-jacket
p7819
aVtightened
p7820
aVspasmodically
p7821
aV.
aa(lp7822
Vhe
p7823
aVwas
p7824
aVfilled
p7825
aVwith
p7826
aVa
aVsudden
p7827
aVexcitement
p7828
aV.
aa(lp7829
V``
p7830
aVwhen
p7831
aVdid
p7832
aVyou
p7833
aVget
p7834
aVback
p7835
aV?
aV''
p7836
aa(lp7837
Vhe
p7838
aVasked
p7839
aVcasually
p7840
aV.
aa(lp7841
V``
p7842
aVcome
p7843
aVhere
p7844
aVand
p7845
aVi
aV'll
p7846
aVtell
p7847
aVyou
p7848
aVabout
p7849
aVit
p7850
aV.
aV''
p7851
aa(lp7852
Vshe
p7853
aVturned
p7854
aVand
p7855
aVhe
p7856
aVfollowed
p7857
aVher
p7858
aV.
aa(lp7859
Vshe
p7860
aVhad
p7861
aVbeen
p7862
aVaway
p7863
aV--
p7864
aVhe
p7865
aVcould
p7866
aVhave
p7867
aVwept
p7868
aVat
p7869
aVthe
p7870
aVwonder
p7871
aVof
p7872
aVher
p7873
aVreturn
p7874
aV.
aa(lp7875
Vshe
p7876
aVhad
p7877
aVpassed
p7878
aVthrough
p7879
aVenchanted
p7880
aVstreets
p7881
aV,
aVdoing
p7882
aVthings
p7883
aVthat
p7884
aVwere
p7885
aVlike
p7886
aVprovocative
p7887
aVmusic
p7888
aV.
aa(lp7889
Vall
p7890
aVmysterious
p7891
aVhappenings
p7892
aV,
aVall
p7893
aVfresh
p7894
aVand
p7895
aVquickening
p7896
aVhopes
p7897
aV,
aVhad
p7898
aVgone
p7899
aVaway
p7900
aVwith
p7901
aVher
p7902
aV,
aVcome
p7903
aVback
p7904
aVwith
p7905
aVher
p7906
aVnow
p7907
aV.
aa(lp7908
Vshe
p7909
aVturned
p7910
aVin
p7911
aVthe
p7912
aVdoorway
p7913
aV.
aa(lp7914
V``
p7915
aVhave
p7916
aVyou
p7917
aVa
aVcar
p7918
aVhere
p7919
aV?
aa(lp7920
Vif
p7921
aVyou
p7922
aVhave
p7923
aVn't
p7924
aV,
aVi
aVhave
p7925
aV.
aV''
p7926
aa(lp7927
V``
p7928
aVi
aVhave
p7929
aVa
aVcoup
p7930
aV.
aV''
p7931
aa(lp7932
Vin
p7933
aVthen
p7934
aV,
aVwith
p7935
aVa
aVrustle
p7936
aVof
p7937
aVgolden
p7938
aVcloth
p7939
aV.
aa(lp7940
Vhe
p7941
aVslammed
p7942
aVthe
p7943
aVdoor
p7944
aV.
aa(lp7945
Vinto
p7946
aVso
p7947
aVmany
p7948
aVcars
p7949
aVshe
p7950
aVhad
p7951
aVstepped
p7952
aV--
p7953
aVlike
p7954
aVthis
p7955
aV--
p7956
aVlike
p7957
aVthat
p7958
aV--
p7959
aVher
p7960
aVback
p7961
aVagainst
p7962
aVthe
p7963
aVleather
p7964
aV,
aVso
p7965
aV--
p7966
aVher
p7967
aVelbow
p7968
aVresting
p7969
aVon
p7970
aVthe
p7971
aVdoor
p7972
aV--
p7973
aVwaiting
p7974
aV.
aa(lp7975
Vshe
p7976
aVwould
p7977
aVhave
p7978
aVbeen
p7979
aVsoiled
p7980
aVlong
p7981
aVsince
p7982
aVhad
p7983
aVthere
p7984
aVbeen
p7985
aVanything
p7986
aVto
p7987
aVsoil
p7988
aVher
p7989
aV--
p7990
aVexcept
p7991
aVherself
p7992
aV--
p7993
aVbut
p7994
aVthis
p7995
aVwas
p7996
aVher
p7997
aVown
p7998
aVself
p7999
aVoutpouring
p8000
aV.
aa(lp8001
Vwith
p8002
aVan
p8003
aVeffort
p8004
aVhe
p8005
aVforced
p8006
aVhimself
p8007
aVto
p8008
aVstart
p8009
aVthe
p8010
aVcar
p8011
aVand
p8012
aVback
p8013
aVinto
p8014
aVthe
p8015
aVstreet
p8016
aV.
aa(lp8017
Vthis
p8018
aVwas
p8019
aVnothing
p8020
aV,
aVhe
p8021
aVmust
p8022
aVremember
p8023
aV.
aa(lp8024
Vshe
p8025
aVhad
p8026
aVdone
p8027
aVthis
p8028
aVbefore
p8029
aV,
aVand
p8030
aVhe
p8031
aVhad
p8032
aVput
p8033
aVher
p8034
aVbehind
p8035
aVhim
p8036
aV,
aVas
p8037
aVhe
p8038
aVwould
p8039
aVhave
p8040
aVcrossed
p8041
aVa
aVbad
p8042
aVaccount
p8043
aVfrom
p8044
aVhis
p8045
aVbooks
p8046
aV.
aa(lp8047
Vhe
p8048
aVdrove
p8049
aVslowly
p8050
aVdown-town
p8051
aVand
p8052
aV,
aVaffecting
p8053
aVabstraction
p8054
aV,
aVtraversed
p8055
aVthe
p8056
aVdeserted
p8057
aVstreets
p8058
aVof
p8059
aVthe
p8060
aVbusiness
p8061
aVsection
p8062
aV,
aVpeopled
p8063
aVhere
p8064
aVand
p8065
aVthere
p8066
aVwhere
p8067
aVa
aVmovie
p8068
aVwas
p8069
aVgiving
p8070
aVout
p8071
aVits
p8072
aVcrowd
p8073
aVor
p8074
aVwhere
p8075
aVconsumptive
p8076
aVor
p8077
aVpugilistic
p8078
aVyouth
p8079
aVlounged
p8080
aVin
p8081
aVfront
p8082
aVof
p8083
aVpool
p8084
aVhalls
p8085
aV.
aa(lp8086
Vthe
p8087
aVclink
p8088
aVof
p8089
aVglasses
p8090
aVand
p8091
aVthe
p8092
aVslap
p8093
aVof
p8094
aVhands
p8095
aVon
p8096
aVthe
p8097
aVbars
p8098
aVissued
p8099
aVfrom
p8100
aVsaloons
p8101
aV,
aVcloisters
p8102
aVof
p8103
aVglazed
p8104
aVglass
p8105
aVand
p8106
aVdirty
p8107
aVyellow
p8108
aVlight
p8109
aV.
aa(lp8110
Vshe
p8111
aVwas
p8112
aVwatching
p8113
aVhim
p8114
aVclosely
p8115
aVand
p8116
aVthe
p8117
aVsilence
p8118
aVwas
p8119
aVembarrassing
p8120
aV,
aVyet
p8121
aVin
p8122
aVthis
p8123
aVcrisis
p8124
aVhe
p8125
aVcould
p8126
aVfind
p8127
aVno
p8128
aVcasual
p8129
aVword
p8130
aVwith
p8131
aVwhich
p8132
aVto
p8133
aVprofane
p8134
aVthe
p8135
aVhour
p8136
aV.
aa(lp8137
Vat
p8138
aVa
aVconvenient
p8139
aVturning
p8140
aVhe
p8141
aVbegan
p8142
aVto
p8143
aVzigzag
p8144
aVback
p8145
aVtoward
p8146
aVthe
p8147
aVuniversity
p8148
aVclub
p8149
aV.
aa(lp8150
V``
p8151
aVhave
p8152
aVyou
p8153
aVmissed
p8154
aVme
p8155
aV?
aV''
p8156
aa(lp8157
Vshe
p8158
aVasked
p8159
aVsuddenly
p8160
aV.
aa(lp8161
V``
p8162
aVeverybody
p8163
aVmissed
p8164
aVyou
p8165
aV.
aV''
p8166
aa(lp8167
Vhe
p8168
aVwondered
p8169
aVif
p8170
aVshe
p8171
aVknew
p8172
aVof
p8173
aVirene
p8174
aVscheerer
p8175
aV.
aa(lp8176
Vshe
p8177
aVhad
p8178
aVbeen
p8179
aVback
p8180
aVonly
p8181
aVa
aVday
p8182
aV--
p8183
aVher
p8184
aVabsence
p8185
aVhad
p8186
aVbeen
p8187
aValmost
p8188
aVcontemporaneous
p8189
aVwith
p8190
aVhis
p8191
aVengagement
p8192
aV.
aa(lp8193
V``
p8194
aVwhat
p8195
aVa
aVremark
p8196
aV!
aV''
p8197
aa(lp8198
Vjudy
p8199
aVlaughed
p8200
aVsadly
p8201
aV--
p8202
aVwithout
p8203
aVsadness
p8204
aV.
aa(lp8205
Vshe
p8206
aVlooked
p8207
aVat
p8208
aVhim
p8209
aVsearchingly
p8210
aV.
aa(lp8211
Vhe
p8212
aVbecame
p8213
aVabsorbed
p8214
aVin
p8215
aVthe
p8216
aVdashboard
p8217
aV.
aa(lp8218
V``
p8219
aVyou
p8220
aV're
p8221
aVhandsomer
p8222
aVthan
p8223
aVyou
p8224
aVused
p8225
aVto
p8226
aVbe
p8227
aV,
aV''
p8228
aVshe
p8229
aVsaid
p8230
aVthoughtfully
p8231
aV.
aa(lp8232
V``
p8233
aVdexter
p8234
aV,
aVyou
p8235
aVhave
p8236
aVthe
p8237
aVmost
p8238
aVrememberable
p8239
aVeyes
p8240
aV.
aV''
p8241
aa(lp8242
Vhe
p8243
aVcould
p8244
aVhave
p8245
aVlaughed
p8246
aVat
p8247
aVthis
p8248
aV,
aVbut
p8249
aVhe
p8250
aVdid
p8251
aVnot
p8252
aVlaugh
p8253
aV.
aa(lp8254
Vit
p8255
aVwas
p8256
aVthe
p8257
aVsort
p8258
aVof
p8259
aVthing
p8260
aVthat
p8261
aVwas
p8262
aVsaid
p8263
aVto
p8264
aVsophomores
p8265
aV.
aa(lp8266
Vyet
p8267
aVit
p8268
aVstabbed
p8269
aVat
p8270
aVhim
p8271
aV.
aa(lp8272
V``
p8273
aVi
aV'm
p8274
aVawfully
p8275
aVtired
p8276
aVof
p8277
aVeverything
p8278
aV,
aVdarling
p8279
aV.
aV''
p8280
aa(lp8281
Vshe
p8282
aVcalled
p8283
aVevery
p8284
aVone
p8285
aVdarling
p8286
aV,
aVendowing
p8287
aVthe
p8288
aVendearment
p8289
aVwith
p8290
aVcareless
p8291
aV,
aVindividual
p8292
aVcomraderie
p8293
aV.
aa(lp8294
V``
p8295
aVi
aVwish
p8296
aVyou
p8297
aV'd
p8298
aVmarry
p8299
aVme
p8300
aV.
aV''
p8301
aa(lp8302
Vthe
p8303
aVdirectness
p8304
aVof
p8305
aVthis
p8306
aVconfused
p8307
aVhim
p8308
aV.
aa(lp8309
Vhe
p8310
aVshould
p8311
aVhave
p8312
aVtold
p8313
aVher
p8314
aVnow
p8315
aVthat
p8316
aVhe
p8317
aVwas
p8318
aVgoing
p8319
aVto
p8320
aVmarry
p8321
aVanother
p8322
aVgirl
p8323
aV,
aVbut
p8324
aVhe
p8325
aVcould
p8326
aVnot
p8327
aVtell
p8328
aVher
p8329
aV.
aa(lp8330
Vhe
p8331
aVcould
p8332
aVas
p8333
aVeasily
p8334
aVhave
p8335
aVsworn
p8336
aVthat
p8337
aVhe
p8338
aVhad
p8339
aVnever
p8340
aVloved
p8341
aVher
p8342
aV.
aa(lp8343
V``
p8344
aVi
aVthink
p8345
aVwe
p8346
aV'd
p8347
aVget
p8348
aValong
p8349
aV,
aV''
p8350
aVshe
p8351
aVcontinued
p8352
aV,
aVon
p8353
aVthe
p8354
aVsame
p8355
aVnote
p8356
aV,
aV``
p8357
aVunless
p8358
aVprobably
p8359
aVyou
p8360
aV've
p8361
aVforgotten
p8362
aVme
p8363
aVand
p8364
aVfallen
p8365
aVin
p8366
aVlove
p8367
aVwith
p8368
aVanother
p8369
aVgirl
p8370
aV.
aV''
p8371
aa(lp8372
Vher
p8373
aVconfidence
p8374
aVwas
p8375
aVobviously
p8376
aVenormous
p8377
aV.
aa(lp8378
Vshe
p8379
aVhad
p8380
aVsaid
p8381
aV,
aVin
p8382
aVeffect
p8383
aV,
aVthat
p8384
aVshe
p8385
aVfound
p8386
aVsuch
p8387
aVa
aVthing
p8388
aVimpossible
p8389
aVto
p8390
aVbelieve
p8391
aV,
aVthat
p8392
aVif
p8393
aVit
p8394
aVwere
p8395
aVtrue
p8396
aVhe
p8397
aVhad
p8398
aVmerely
p8399
aVcommitted
p8400
aVa
aVchildish
p8401
aVindiscretion
p8402
aV--
p8403
aVand
p8404
aVprobably
p8405
aVto
p8406
aVshow
p8407
aVoff
p8408
aV.
aa(lp8409
Vshe
p8410
aVwould
p8411
aVforgive
p8412
aVhim
p8413
aV,
aVbecause
p8414
aVit
p8415
aVwas
p8416
aVnot
p8417
aVa
aVmatter
p8418
aVof
p8419
aVany
p8420
aVmoment
p8421
aVbut
p8422
aVrather
p8423
aVsomething
p8424
aVto
p8425
aVbe
p8426
aVbrushed
p8427
aVaside
p8428
aVlightly
p8429
aV.
aa(lp8430
V``
p8431
aVof
p8432
aVcourse
p8433
aVyou
p8434
aVcould
p8435
aVnever
p8436
aVlove
p8437
aVanybody
p8438
aVbut
p8439
aVme
p8440
aV,
aV''
p8441
aVshe
p8442
aVcontinued
p8443
aV.
aa(lp8444
V``
p8445
aVi
aVlike
p8446
aVthe
p8447
aVway
p8448
aVyou
p8449
aVlove
p8450
aVme
p8451
aV.
aa(lp8452
Voh
p8453
aV,
aVdexter
p8454
aV,
aVhave
p8455
aVyou
p8456
aVforgotten
p8457
aVlast
p8458
aVyear
p8459
aV?
aV''
p8460
aa(lp8461
V``
p8462
aVno
p8463
aV,
aVi
aVhave
p8464
aVn't
p8465
aVforgotten
p8466
aV.
aV''
p8467
aa(lp8468
V``
p8469
aVneither
p8470
aVhave
p8471
aVi
aV!
aV''
p8472
aa(lp8473
Vwas
p8474
aVshe
p8475
aVsincerely
p8476
aVmoved
p8477
aV--
p8478
aVor
p8479
aVwas
p8480
aVshe
p8481
aVcarried
p8482
aValong
p8483
aVby
p8484
aVthe
p8485
aVwave
p8486
aVof
p8487
aVher
p8488
aVown
p8489
aVacting
p8490
aV?
aa(lp8491
V``
p8492
aVi
aVwish
p8493
aVwe
p8494
aVcould
p8495
aVbe
p8496
aVlike
p8497
aVthat
p8498
aVagain
p8499
aV,
aV''
p8500
aVshe
p8501
aVsaid
p8502
aV,
aVand
p8503
aVhe
p8504
aVforced
p8505
aVhimself
p8506
aVto
p8507
aVanswer
p8508
aV:
aV''
p8509
aVi
aVdo
p8510
aVn't
p8511
aVthink
p8512
aVwe
p8513
aVcan
p8514
aV.
aV''
p8515
aa(lp8516
V``
p8517
aVi
aVsuppose
p8518
aVnot
p8519
aV.
aa(lp8520
V.
aa(lp8521
V.
aa(lp8522
V.
aa(lp8523
Vi
aVhear
p8524
aVyou
p8525
aV're
p8526
aVgiving
p8527
aVirene
p8528
aVscheerer
p8529
aVa
aVviolent
p8530
aVrush
p8531
aV.
aV''
p8532
aa(lp8533
Vthere
p8534
aVwas
p8535
aVnot
p8536
aVthe
p8537
aVfaintest
p8538
aVemphasis
p8539
aVon
p8540
aVthe
p8541
aVname
p8542
aV,
aVyet
p8543
aVdexter
p8544
aVwas
p8545
aVsuddenly
p8546
aVashamed
p8547
aV.
aa(lp8548
V``
p8549
aVoh
p8550
aV,
aVtake
p8551
aVme
p8552
aVhome
p8553
aV,
aV''
p8554
aVcried
p8555
aVjudy
p8556
aVsuddenly
p8557
aV;
aV``
p8558
aVi
aVdo
p8559
aVn't
p8560
aVwant
p8561
aVto
p8562
aVgo
p8563
aVback
p8564
aVto
p8565
aVthat
p8566
aVidiotic
p8567
aVdance
p8568
aV--
p8569
aVwith
p8570
aVthose
p8571
aVchildren
p8572
aV.
aV''
p8573
aa(lp8574
Vthen
p8575
aV,
aVas
p8576
aVhe
p8577
aVturned
p8578
aVup
p8579
aVthe
p8580
aVstreet
p8581
aVthat
p8582
aVled
p8583
aVto
p8584
aVthe
p8585
aVresidence
p8586
aVdistrict
p8587
aV,
aVjudy
p8588
aVbegan
p8589
aVto
p8590
aVcry
p8591
aVquietly
p8592
aVto
p8593
aVherself
p8594
aV.
aa(lp8595
Vhe
p8596
aVhad
p8597
aVnever
p8598
aVseen
p8599
aVher
p8600
aVcry
p8601
aVbefore
p8602
aV.
aa(lp8603
Vthe
p8604
aVdark
p8605
aVstreet
p8606
aVlightened
p8607
aV,
aVthe
p8608
aVdwellings
p8609
aVof
p8610
aVthe
p8611
aVrich
p8612
aVloomed
p8613
aVup
p8614
aVaround
p8615
aVthem
p8616
aV,
aVhe
p8617
aVstopped
p8618
aVhis
p8619
aVcoup
p8620
aVin
p8621
aVfront
p8622
aVof
p8623
aVthe
p8624
aVgreat
p8625
aVwhite
p8626
aVbulk
p8627
aVof
p8628
aVthe
p8629
aVmortimer
p8630
aVjoneses
p8631
aVhouse
p8632
aV,
aVsomnolent
p8633
aV,
aVgorgeous
p8634
aV,
aVdrenched
p8635
aVwith
p8636
aVthe
p8637
aVsplendor
p8638
aVof
p8639
aVthe
p8640
aVdamp
p8641
aVmoonlight
p8642
aV.
aa(lp8643
Vits
p8644
aVsolidity
p8645
aVstartled
p8646
aVhim
p8647
aV.
aa(lp8648
Vthe
p8649
aVstrong
p8650
aVwalls
p8651
aV,
aVthe
p8652
aVsteel
p8653
aVof
p8654
aVthe
p8655
aVgirders
p8656
aV,
aVthe
p8657
aVbreadth
p8658
aVand
p8659
aVbeam
p8660
aVand
p8661
aVpomp
p8662
aVof
p8663
aVit
p8664
aVwere
p8665
aVthere
p8666
aVonly
p8667
aVto
p8668
aVbring
p8669
aVout
p8670
aVthe
p8671
aVcontrast
p8672
aVwith
p8673
aVthe
p8674
aVyoung
p8675
aVbeauty
p8676
aVbeside
p8677
aVhim
p8678
aV.
aa(lp8679
Vit
p8680
aVwas
p8681
aVsturdy
p8682
aVto
p8683
aVaccentuate
p8684
aVher
p8685
aVslightness
p8686
aV--
p8687
aVas
p8688
aVif
p8689
aVto
p8690
aVshow
p8691
aVwhat
p8692
aVa
aVbreeze
p8693
aVcould
p8694
aVbe
p8695
aVgenerated
p8696
aVby
p8697
aVa
aVbutterfly
p8698
aV's
p8699
aVwing
p8700
aV.
aa(lp8701
Vhe
p8702
aVsat
p8703
aVperfectly
p8704
aVquiet
p8705
aV,
aVhis
p8706
aVnerves
p8707
aVin
p8708
aVwild
p8709
aVclamor
p8710
aV,
aVafraid
p8711
aVthat
p8712
aVif
p8713
aVhe
p8714
aVmoved
p8715
aVhe
p8716
aVwould
p8717
aVfind
p8718
aVher
p8719
aVirresistibly
p8720
aVin
p8721
aVhis
p8722
aVarms
p8723
aV.
aa(lp8724
Vtwo
p8725
aVtears
p8726
aVhad
p8727
aVrolled
p8728
aVdown
p8729
aVher
p8730
aVwet
p8731
aVface
p8732
aVand
p8733
aVtrembled
p8734
aVon
p8735
aVher
p8736
aVupper
p8737
aVlip
p8738
aV.
aa(lp8739
V``
p8740
aVi
aV'm
p8741
aVmore
p8742
aVbeautiful
p8743
aVthan
p8744
aVanybody
p8745
aVelse
p8746
aV,
aV''
p8747
aVshe
p8748
aVsaid
p8749
aVbrokenly
p8750
aV,
aV``
p8751
aVwhy
p8752
aVca
p8753
aVn't
p8754
aVi
aVbe
p8755
aVhappy
p8756
aV?
aV''
p8757
aa(lp8758
Vher
p8759
aVmoist
p8760
aVeyes
p8761
aVtore
p8762
aVat
p8763
aVhis
p8764
aVstability
p8765
aV--
p8766
aVher
p8767
aVmouth
p8768
aVturned
p8769
aVslowly
p8770
aVdownward
p8771
aVwith
p8772
aVan
p8773
aVexquisite
p8774
aVsadness
p8775
aV:
aV``
p8776
aVi
aV'd
p8777
aVlike
p8778
aVto
p8779
aVmarry
p8780
aVyou
p8781
aVif
p8782
aVyou
p8783
aV'll
p8784
aVhave
p8785
aVme
p8786
aV,
aVdexter
p8787
aV.
aa(lp8788
Vi
aVsuppose
p8789
aVyou
p8790
aVthink
p8791
aVi
aV'm
p8792
aVnot
p8793
aVworth
p8794
aVhaving
p8795
aV,
aVbut
p8796
aVi
aV'll
p8797
aVbe
p8798
aVso
p8799
aVbeautiful
p8800
aVfor
p8801
aVyou
p8802
aV,
aVdexter
p8803
aV.
aV''
p8804
aa(lp8805
Va
aVmillion
p8806
aVphrases
p8807
aVof
p8808
aVanger
p8809
aV,
aVpride
p8810
aV,
aVpassion
p8811
aV,
aVhatred
p8812
aV,
aVtenderness
p8813
aVfought
p8814
aVon
p8815
aVhis
p8816
aVlips
p8817
aV.
aa(lp8818
Vthen
p8819
aVa
aVperfect
p8820
aVwave
p8821
aVof
p8822
aVemotion
p8823
aVwashed
p8824
aVover
p8825
aVhim
p8826
aV,
aVcarrying
p8827
aVoff
p8828
aVwith
p8829
aVit
p8830
aVa
aVsediment
p8831
aVof
p8832
aVwisdom
p8833
aV,
aVof
p8834
aVconvention
p8835
aV,
aVof
p8836
aVdoubt
p8837
aV,
aVof
p8838
aVhonor
p8839
aV.
aa(lp8840
Vthis
p8841
aVwas
p8842
aVhis
p8843
aVgirl
p8844
aVwho
p8845
aVwas
p8846
aVspeaking
p8847
aV,
aVhis
p8848
aVown
p8849
aV,
aVhis
p8850
aVbeautiful
p8851
aV,
aVhis
p8852
aVpride
p8853
aV.
aa(lp8854
V``
p8855
aVwo
p8856
aVn't
p8857
aVyou
p8858
aVcome
p8859
aVin
p8860
aV?
aV''
p8861
aa(lp8862
Vhe
p8863
aVheard
p8864
aVher
p8865
aVdraw
p8866
aVin
p8867
aVher
p8868
aVbreath
p8869
aVsharply
p8870
aV.
aa(lp8871
Vwaiting
p8872
aV.
aa(lp8873
V``
p8874
aVall
p8875
aVright
p8876
aV,
aV''
p8877
aVhis
p8878
aVvoice
p8879
aVwas
p8880
aVtrembling
p8881
aV,
aV``
p8882
aVi
aV'll
p8883
aVcome
p8884
aVin
p8885
aV.
aV''
p8886
aa(lp8887
Vv
aVit
p8888
aVwas
p8889
aVstrange
p8890
aVthat
p8891
aVneither
p8892
aVwhen
p8893
aVit
p8894
aVwas
p8895
aVover
p8896
aVnor
p8897
aVa
aVlong
p8898
aVtime
p8899
aVafterward
p8900
aVdid
p8901
aVhe
p8902
aVregret
p8903
aVthat
p8904
aVnight
p8905
aV.
aa(lp8906
Vlooking
p8907
aVat
p8908
aVit
p8909
aVfrom
p8910
aVthe
p8911
aVperspective
p8912
aVof
p8913
aVten
p8914
aVyears
p8915
aV,
aVthe
p8916
aVfact
p8917
aVthat
p8918
aVjudy
p8919
aV's
p8920
aVflare
p8921
aVfor
p8922
aVhim
p8923
aVendured
p8924
aVjust
p8925
aVone
p8926
aVmonth
p8927
aVseemed
p8928
aVof
p8929
aVlittle
p8930
aVimportance
p8931
aV.
aa(lp8932
Vnor
p8933
aVdid
p8934
aVit
p8935
aVmatter
p8936
aVthat
p8937
aVby
p8938
aVhis
p8939
aVyielding
p8940
aVhe
p8941
aVsubjected
p8942
aVhimself
p8943
aVto
p8944
aVa
aVdeeper
p8945
aVagony
p8946
aVin
p8947
aVthe
p8948
aVend
p8949
aVand
p8950
aVgave
p8951
aVserious
p8952
aVhurt
p8953
aVto
p8954
aVirene
p8955
aVscheerer
p8956
aVand
p8957
aVto
p8958
aVirene
p8959
aV's
p8960
aVparents
p8961
aV,
aVwho
p8962
aVhad
p8963
aVbefriended
p8964
aVhim
p8965
aV.
aa(lp8966
Vthere
p8967
aVwas
p8968
aVnothing
p8969
aVsufficiently
p8970
aVpictorial
p8971
aVabout
p8972
aVirene
p8973
aV's
p8974
aVgrief
p8975
aVto
p8976
aVstamp
p8977
aVitself
p8978
aVon
p8979
aVhis
p8980
aVmind
p8981
aV.
aa(lp8982
Vdexter
p8983
aVwas
p8984
aVat
p8985
aVbottom
p8986
aVhard-minded
p8987
aV.
aa(lp8988
Vthe
p8989
aVattitude
p8990
aVof
p8991
aVthe
p8992
aVcity
p8993
aVon
p8994
aVhis
p8995
aVaction
p8996
aVwas
p8997
aVof
p8998
aVno
p8999
aVimportance
p9000
aVto
p9001
aVhim
p9002
aV,
aVnot
p9003
aVbecause
p9004
aVhe
p9005
aVwas
p9006
aVgoing
p9007
aVto
p9008
aVleave
p9009
aVthe
p9010
aVcity
p9011
aV,
aVbut
p9012
aVbecause
p9013
aVany
p9014
aVoutside
p9015
aVattitude
p9016
aVon
p9017
aVthe
p9018
aVsituation
p9019
aVseemed
p9020
aVsuperficial
p9021
aV.
aa(lp9022
Vhe
p9023
aVwas
p9024
aVcompletely
p9025
aVindifferent
p9026
aVto
p9027
aVpopular
p9028
aVopinion
p9029
aV.
aa(lp9030
Vnor
p9031
aV,
aVwhen
p9032
aVhe
p9033
aVhad
p9034
aVseen
p9035
aVthat
p9036
aVit
p9037
aVwas
p9038
aVno
p9039
aVuse
p9040
aV,
aVthat
p9041
aVhe
p9042
aVdid
p9043
aVnot
p9044
aVpossess
p9045
aVin
p9046
aVhimself
p9047
aVthe
p9048
aVpower
p9049
aVto
p9050
aVmove
p9051
aVfundamentally
p9052
aVor
p9053
aVto
p9054
aVhold
p9055
aVjudy
p9056
aVjones
p9057
aV,
aVdid
p9058
aVhe
p9059
aVbear
p9060
aVany
p9061
aVmalice
p9062
aVtoward
p9063
aVher
p9064
aV.
aa(lp9065
Vhe
p9066
aVloved
p9067
aVher
p9068
aV,
aVand
p9069
aVhe
p9070
aVwould
p9071
aVlove
p9072
aVher
p9073
aVuntil
p9074
aVthe
p9075
aVday
p9076
aVhe
p9077
aVwas
p9078
aVtoo
p9079
aVold
p9080
aVfor
p9081
aVloving
p9082
aV--
p9083
aVbut
p9084
aVhe
p9085
aVcould
p9086
aVnot
p9087
aVhave
p9088
aVher
p9089
aV.
aa(lp9090
Vso
p9091
aVhe
p9092
aVtasted
p9093
aVthe
p9094
aVdeep
p9095
aVpain
p9096
aVthat
p9097
aVis
p9098
aVreserved
p9099
aVonly
p9100
aVfor
p9101
aVthe
p9102
aVstrong
p9103
aV,
aVjust
p9104
aVas
p9105
aVhe
p9106
aVhad
p9107
aVtasted
p9108
aVfor
p9109
aVa
aVlittle
p9110
aVwhile
p9111
aVthe
p9112
aVdeep
p9113
aVhappiness
p9114
aV.
aa(lp9115
Veven
p9116
aVthe
p9117
aVultimate
p9118
aVfalsity
p9119
aVof
p9120
aVthe
p9121
aVgrounds
p9122
aVupon
p9123
aVwhich
p9124
aVjudy
p9125
aVterminated
p9126
aVthe
p9127
aVengagement
p9128
aVthat
p9129
aVshe
p9130
aVdid
p9131
aVnot
p9132
aVwant
p9133
aVto
p9134
aV``
p9135
aVtake
p9136
aVhim
p9137
aVaway
p9138
aV''
p9139
aVfrom
p9140
aVirene
p9141
aV--
p9142
aVjudy
p9143
aV,
aVwho
p9144
aVhad
p9145
aVwanted
p9146
aVnothing
p9147
aVelse
p9148
aV--
p9149
aVdid
p9150
aVnot
p9151
aVrevolt
p9152
aVhim
p9153
aV.
aa(lp9154
Vhe
p9155
aVwas
p9156
aVbeyond
p9157
aVany
p9158
aVrevulsion
p9159
aVor
p9160
aVany
p9161
aVamusement
p9162
aV.
aa(lp9163
Vhe
p9164
aVwent
p9165
aVeast
p9166
aVin
p9167
aVfebruary
p9168
aVwith
p9169
aVthe
p9170
aVintention
p9171
aVof
p9172
aVselling
p9173
aVout
p9174
aVhis
p9175
aVlaundries
p9176
aVand
p9177
aVsettling
p9178
aVin
p9179
aVnew
p9180
aVyork
p9181
aV--
p9182
aVbut
p9183
aVthe
p9184
aVwar
p9185
aVcame
p9186
aVto
p9187
aVamerica
p9188
aVin
p9189
aVmarch
p9190
aVand
p9191
aVchanged
p9192
aVhis
p9193
aVplans
p9194
aV.
aa(lp9195
Vhe
p9196
aVreturned
p9197
aVto
p9198
aVthe
p9199
aVwest
p9200
aV,
aVhanded
p9201
aVover
p9202
aVthe
p9203
aVmanagement
p9204
aVof
p9205
aVthe
p9206
aVbusiness
p9207
aVto
p9208
aVhis
p9209
aVpartner
p9210
aV,
aVand
p9211
aVwent
p9212
aVinto
p9213
aVthe
p9214
aVfirst
p9215
aVofficers
p9216
aV'
aVtraining-camp
p9217
aVin
p9218
aVlate
p9219
aVapril
p9220
aV.
aa(lp9221
Vhe
p9222
aVwas
p9223
aVone
p9224
aVof
p9225
aVthose
p9226
aVyoung
p9227
aVthousands
p9228
aVwho
p9229
aVgreeted
p9230
aVthe
p9231
aVwar
p9232
aVwith
p9233
aVa
aVcertain
p9234
aVamount
p9235
aVof
p9236
aVrelief
p9237
aV,
aVwelcoming
p9238
aVthe
p9239
aVliberation
p9240
aVfrom
p9241
aVwebs
p9242
aVof
p9243
aVtangled
p9244
aVemotion
p9245
aV.
aa(lp9246
Vvi
p9247
aVthis
p9248
aVstory
p9249
aVis
p9250
aVnot
p9251
aVhis
p9252
aVbiography
p9253
aV,
aVremember
p9254
aV,
aValthough
p9255
aVthings
p9256
aVcreep
p9257
aVinto
p9258
aVit
p9259
aVwhich
p9260
aVhave
p9261
aVnothing
p9262
aVto
p9263
aVdo
p9264
aVwith
p9265
aVthose
p9266
aVdreams
p9267
aVhe
p9268
aVhad
p9269
aVwhen
p9270
aVhe
p9271
aVwas
p9272
aVyoung
p9273
aV.
aa(lp9274
Vwe
p9275
aVare
p9276
aValmost
p9277
aVdone
p9278
aVwith
p9279
aVthem
p9280
aVand
p9281
aVwith
p9282
aVhim
p9283
aVnow
p9284
aV.
aa(lp9285
Vthere
p9286
aVis
p9287
aVonly
p9288
aVone
p9289
aVmore
p9290
aVincident
p9291
aVto
p9292
aVbe
p9293
aVrelated
p9294
aVhere
p9295
aV,
aVand
p9296
aVit
p9297
aVhappens
p9298
aVseven
p9299
aVyears
p9300
aVfarther
p9301
aVon
p9302
aV.
aa(lp9303
Vit
p9304
aVtook
p9305
aVplace
p9306
aVin
p9307
aVnew
p9308
aVyork
p9309
aV,
aVwhere
p9310
aVhe
p9311
aVhad
p9312
aVdone
p9313
aVwell
p9314
aV--
p9315
aVso
p9316
aVwell
p9317
aVthat
p9318
aVthere
p9319
aVwere
p9320
aVno
p9321
aVbarriers
p9322
aVtoo
p9323
aVhigh
p9324
aVfor
p9325
aVhim
p9326
aV.
aa(lp9327
Vhe
p9328
aVwas
p9329
aVthirty-two
p9330
aVyears
p9331
aVold
p9332
aV,
aVand
p9333
aV,
aVexcept
p9334
aVfor
p9335
aVone
p9336
aVflying
p9337
aVtrip
p9338
aVimmediately
p9339
aVafter
p9340
aVthe
p9341
aVwar
p9342
aV,
aVhe
p9343
aVhad
p9344
aVnot
p9345
aVbeen
p9346
aVwest
p9347
aVin
p9348
aVseven
p9349
aVyears
p9350
aV.
aa(lp9351
Va
aVman
p9352
aVnamed
p9353
aVdevlin
p9354
aVfrom
p9355
aVdetroit
p9356
aVcame
p9357
aVinto
p9358
aVhis
p9359
aVoffice
p9360
aVto
p9361
aVsee
p9362
aVhim
p9363
aVin
p9364
aVa
aVbusiness
p9365
aVway
p9366
aV,
aVand
p9367
aVthen
p9368
aVand
p9369
aVthere
p9370
aVthis
p9371
aVincident
p9372
aVoccurred
p9373
aV,
aVand
p9374
aVclosed
p9375
aVout
p9376
aV,
aVso
p9377
aVto
p9378
aVspeak
p9379
aV,
aVthis
p9380
aVparticular
p9381
aVside
p9382
aVof
p9383
aVhis
p9384
aVlife
p9385
aV.
aa(lp9386
V``
p9387
aVso
p9388
aVyou
p9389
aV're
p9390
aVfrom
p9391
aVthe
p9392
aVmiddle
p9393
aVwest
p9394
aV,
aV''
p9395
aVsaid
p9396
aVthe
p9397
aVman
p9398
aVdevlin
p9399
aVwith
p9400
aVcareless
p9401
aVcuriosity
p9402
aV.
aa(lp9403
V``
p9404
aVthat
p9405
aV's
p9406
aVfunny
p9407
aV--
p9408
aVi
aVthought
p9409
aVmen
p9410
aVlike
p9411
aVyou
p9412
aVwere
p9413
aVprobably
p9414
aVborn
p9415
aVand
p9416
aVraised
p9417
aVon
p9418
aVwall
p9419
aVstreet
p9420
aV.
aa(lp9421
Vyou
p9422
aVknow
p9423
aV--
p9424
aVwife
p9425
aVof
p9426
aVone
p9427
aVof
p9428
aVmy
p9429
aVbest
p9430
aVfriends
p9431
aVin
p9432
aVdetroit
p9433
aVcame
p9434
aVfrom
p9435
aVyour
p9436
aVcity
p9437
aV.
aa(lp9438
Vi
aVwas
p9439
aVan
p9440
aVusher
p9441
aVat
p9442
aVthe
p9443
aVwedding
p9444
aV.
aV''
p9445
aa(lp9446
Vdexter
p9447
aVwaited
p9448
aVwith
p9449
aVno
p9450
aVapprehension
p9451
aVof
p9452
aVwhat
p9453
aVwas
p9454
aVcoming
p9455
aV.
aa(lp9456
V``
p9457
aVjudy
p9458
aVsimms
p9459
aV,
aV''
p9460
aVsaid
p9461
aVdevlin
p9462
aVwith
p9463
aVno
p9464
aVparticular
p9465
aVinterest
p9466
aV;
aV``
p9467
aVjudy
p9468
aVjones
p9469
aVshe
p9470
aVwas
p9471
aVonce
p9472
aV.
aV''
p9473
aa(lp9474
V``
p9475
aVyes
p9476
aV,
aVi
aVknew
p9477
aVher
p9478
aV.
aV''
p9479
aa(lp9480
Va
aVdull
p9481
aVimpatience
p9482
aVspread
p9483
aVover
p9484
aVhim
p9485
aV.
aa(lp9486
Vhe
p9487
aVhad
p9488
aVheard
p9489
aV,
aVof
p9490
aVcourse
p9491
aV,
aVthat
p9492
aVshe
p9493
aVwas
p9494
aVmarried
p9495
aV--
p9496
aVperhaps
p9497
aVdeliberately
p9498
aVhe
p9499
aVhad
p9500
aVheard
p9501
aVno
p9502
aVmore
p9503
aV.
aa(lp9504
V``
p9505
aVawfully
p9506
aVnice
p9507
aVgirl
p9508
aV,
aV''
p9509
aVbrooded
p9510
aVdevlin
p9511
aVmeaninglessly
p9512
aV,
aV``
p9513
aVi
aV'm
p9514
aVsort
p9515
aVof
p9516
aVsorry
p9517
aVfor
p9518
aVher
p9519
aV.
aV''
p9520
aa(lp9521
V``
p9522
aVwhy
p9523
aV?
aV''
p9524
aa(lp9525
Vsomething
p9526
aVin
p9527
aVdexter
p9528
aVwas
p9529
aValert
p9530
aV,
aVreceptive
p9531
aV,
aVat
p9532
aVonce
p9533
aV.
aa(lp9534
V``
p9535
aVoh
p9536
aV,
aVlud
p9537
aVsimms
p9538
aVhas
p9539
aVgone
p9540
aVto
p9541
aVpieces
p9542
aVin
p9543
aVa
aVway
p9544
aV.
aa(lp9545
Vi
aVdo
p9546
aVn't
p9547
aVmean
p9548
aVhe
p9549
aVill-uses
p9550
aVher
p9551
aV,
aVbut
p9552
aVhe
p9553
aVdrinks
p9554
aVand
p9555
aVruns
p9556
aVaround
p9557
aV--
p9558
aV''
p9559
aV''
p9560
aVdoes
p9561
aVn't
p9562
aVshe
p9563
aVrun
p9564
aVaround
p9565
aV?
aV''
p9566
aa(lp9567
V``
p9568
aVno
p9569
aV.
aa(lp9570
Vstays
p9571
aVat
p9572
aVhome
p9573
aVwith
p9574
aVher
p9575
aVkids
p9576
aV.
aV''
p9577
aa(lp9578
V``
p9579
aVoh
p9580
aV.
aV''
p9581
aa(lp9582
V``
p9583
aVshe
p9584
aV's
p9585
aVa
aVlittle
p9586
aVtoo
p9587
aVold
p9588
aVfor
p9589
aVhim
p9590
aV,
aV''
p9591
aVsaid
p9592
aVdevlin
p9593
aV.
aa(lp9594
V``
p9595
aVtoo
p9596
aVold
p9597
aV!
aV''
p9598
aa(lp9599
Vcried
p9600
aVdexter
p9601
aV.
aa(lp9602
V``
p9603
aVwhy
p9604
aV,
aVman
p9605
aV,
aVshe
p9606
aV's
p9607
aVonly
p9608
aVtwenty-seven
p9609
aV.
aV''
p9610
aa(lp9611
Vhe
p9612
aVwas
p9613
aVpossessed
p9614
aVwith
p9615
aVa
aVwild
p9616
aVnotion
p9617
aVof
p9618
aVrushing
p9619
aVout
p9620
aVinto
p9621
aVthe
p9622
aVstreets
p9623
aVand
p9624
aVtaking
p9625
aVa
aVtrain
p9626
aVto
p9627
aVdetroit
p9628
aV.
aa(lp9629
Vhe
p9630
aVrose
p9631
aVto
p9632
aVhis
p9633
aVfeet
p9634
aVspasmodically
p9635
aV.
aa(lp9636
V``
p9637
aVi
aVguess
p9638
aVyou
p9639
aV're
p9640
aVbusy
p9641
aV,
aV''
p9642
aVdevlin
p9643
aVapologized
p9644
aVquickly
p9645
aV.
aa(lp9646
V``
p9647
aVi
aVdid
p9648
aVn't
p9649
aVrealize
p9650
aV--
p9651
aV''
p9652
aV''
p9653
aVno
p9654
aV,
aVi
aV'm
p9655
aVnot
p9656
aVbusy
p9657
aV,
aV''
p9658
aVsaid
p9659
aVdexter
p9660
aV,
aVsteadying
p9661
aVhis
p9662
aVvoice
p9663
aV.
aa(lp9664
V``
p9665
aVi
aV'm
p9666
aVnot
p9667
aVbusy
p9668
aVat
p9669
aVall
p9670
aV.
aa(lp9671
Vnot
p9672
aVbusy
p9673
aVat
p9674
aVall
p9675
aV.
aa(lp9676
Vdid
p9677
aVyou
p9678
aVsay
p9679
aVshe
p9680
aVwas
p9681
aV--
p9682
aVtwenty-seven
p9683
aV?
aa(lp9684
Vno
p9685
aV,
aVi
aVsaid
p9686
aVshe
p9687
aVwas
p9688
aVtwenty-seven
p9689
aV.
aV''
p9690
aa(lp9691
V``
p9692
aVyes
p9693
aV,
aVyou
p9694
aVdid
p9695
aV,
aV''
p9696
aVagreed
p9697
aVdevlin
p9698
aVdryly
p9699
aV.
aa(lp9700
V``
p9701
aVgo
p9702
aVon
p9703
aV,
aVthen
p9704
aV.
aa(lp9705
Vgo
p9706
aVon
p9707
aV.
aV''
p9708
aa(lp9709
V``
p9710
aVwhat
p9711
aVdo
p9712
aVyou
p9713
aVmean
p9714
aV?
aV''
p9715
aa(lp9716
V``
p9717
aVabout
p9718
aVjudy
p9719
aVjones
p9720
aV.
aV''
p9721
aa(lp9722
Vdevlin
p9723
aVlooked
p9724
aVat
p9725
aVhim
p9726
aVhelplessly
p9727
aV.
aa(lp9728
V``
p9729
aVwell
p9730
aV,
aVthat
p9731
aV's
p9732
aV--
p9733
aVi
aVtold
p9734
aVyou
p9735
aVall
p9736
aVthere
p9737
aVis
p9738
aVto
p9739
aVit
p9740
aV.
aa(lp9741
Vhe
p9742
aVtreats
p9743
aVher
p9744
aVlike
p9745
aVthe
p9746
aVdevil
p9747
aV.
aa(lp9748
Voh
p9749
aV,
aVthey
p9750
aV're
p9751
aVnot
p9752
aVgoing
p9753
aVto
p9754
aVget
p9755
aVdivorced
p9756
aVor
p9757
aVanything
p9758
aV.
aa(lp9759
Vwhen
p9760
aVhe
p9761
aV's
p9762
aVparticularly
p9763
aVoutrageous
p9764
aVshe
p9765
aVforgives
p9766
aVhim
p9767
aV.
aa(lp9768
Vin
p9769
aVfact
p9770
aV,
aVi
aV'm
p9771
aVinclined
p9772
aVto
p9773
aVthink
p9774
aVshe
p9775
aVloves
p9776
aVhim
p9777
aV.
aa(lp9778
Vshe
p9779
aVwas
p9780
aVa
aVpretty
p9781
aVgirl
p9782
aVwhen
p9783
aVshe
p9784
aVfirst
p9785
aVcame
p9786
aVto
p9787
aVdetroit
p9788
aV.
aV''
p9789
aa(lp9790
Va
aVpretty
p9791
aVgirl
p9792
aV!
aa(lp9793
Vthe
p9794
aVphrase
p9795
aVstruck
p9796
aVdexter
p9797
aVas
p9798
aVludicrous
p9799
aV.
aa(lp9800
V``
p9801
aVis
p9802
aVn't
p9803
aVshe
p9804
aV--
p9805
aVa
aVpretty
p9806
aVgirl
p9807
aV,
aVany
p9808
aVmore
p9809
aV?
aV''
p9810
aa(lp9811
V``
p9812
aVoh
p9813
aV,
aVshe
p9814
aV's
p9815
aVall
p9816
aVright
p9817
aV.
aV''
p9818
aa(lp9819
V``
p9820
aVlook
p9821
aVhere
p9822
aV,
aV''
p9823
aVsaid
p9824
aVdexter
p9825
aV,
aVsitting
p9826
aVdown
p9827
aVsuddenly
p9828
aV,
aV``
p9829
aVi
aVdo
p9830
aVn't
p9831
aVunderstand
p9832
aV.
aa(lp9833
Vyou
p9834
aVsay
p9835
aVshe
p9836
aVwas
p9837
aVa
aV'pretty
p9838
aVgirl
p9839
aV'
aVand
p9840
aVnow
p9841
aVyou
p9842
aVsay
p9843
aVshe
p9844
aV's
p9845
aV'all
p9846
aVright
p9847
aV.
aV'
aa(lp9848
Vi
aVdo
p9849
aVn't
p9850
aVunderstand
p9851
aVwhat
p9852
aVyou
p9853
aVmean
p9854
aV--
p9855
aVjudy
p9856
aVjones
p9857
aVwas
p9858
aVn't
p9859
aVa
aVpretty
p9860
aVgirl
p9861
aV,
aVat
p9862
aVall
p9863
aV.
aa(lp9864
Vshe
p9865
aVwas
p9866
aVa
aVgreat
p9867
aVbeauty
p9868
aV.
aa(lp9869
Vwhy
p9870
aV,
aVi
aVknew
p9871
aVher
p9872
aV,
aVi
aVknew
p9873
aVher
p9874
aV.
aa(lp9875
Vshe
p9876
aVwas
p9877
aV--
p9878
aV''
p9879
aVdevlin
p9880
aVlaughed
p9881
aVpleasantly
p9882
aV.
aa(lp9883
V``
p9884
aVi
aV'm
p9885
aVnot
p9886
aVtrying
p9887
aVto
p9888
aVstart
p9889
aVa
aVrow
p9890
aV,
aV''
p9891
aVhe
p9892
aVsaid
p9893
aV.
aa(lp9894
V``
p9895
aVi
aVthink
p9896
aVjudy
p9897
aV's
p9898
aVa
aVnice
p9899
aVgirl
p9900
aVand
p9901
aVi
aVlike
p9902
aVher
p9903
aV.
aa(lp9904
Vi
aVca
p9905
aVn't
p9906
aVunderstand
p9907
aVhow
p9908
aVa
aVman
p9909
aVlike
p9910
aVlud
p9911
aVsimms
p9912
aVcould
p9913
aVfall
p9914
aVmadly
p9915
aVin
p9916
aVlove
p9917
aVwith
p9918
aVher
p9919
aV,
aVbut
p9920
aVhe
p9921
aVdid
p9922
aV.
aV''
p9923
aa(lp9924
Vthen
p9925
aVhe
p9926
aVadded
p9927
aV:
aV``
p9928
aVmost
p9929
aVof
p9930
aVthe
p9931
aVwomen
p9932
aVlike
p9933
aVher
p9934
aV.
aV''
p9935
aa(lp9936
Vdexter
p9937
aVlooked
p9938
aVclosely
p9939
aVat
p9940
aVdevlin
p9941
aV,
aVthinking
p9942
aVwildly
p9943
aVthat
p9944
aVthere
p9945
aVmust
p9946
aVbe
p9947
aVa
aVreason
p9948
aVfor
p9949
aVthis
p9950
aV,
aVsome
p9951
aVinsensitivity
p9952
aVin
p9953
aVthe
p9954
aVman
p9955
aVor
p9956
aVsome
p9957
aVprivate
p9958
aVmalice
p9959
aV.
aa(lp9960
V``
p9961
aVlots
p9962
aVof
p9963
aVwomen
p9964
aVfade
p9965
aVjust
p9966
aVlike
p9967
aVthat
p9968
aV,
aV''
p9969
aVdevlin
p9970
aVsnapped
p9971
aVhis
p9972
aVfingers
p9973
aV.
aa(lp9974
V``
p9975
aVyou
p9976
aVmust
p9977
aVhave
p9978
aVseen
p9979
aVit
p9980
aVhappen
p9981
aV.
aa(lp9982
Vperhaps
p9983
aVi
aV've
p9984
aVforgotten
p9985
aVhow
p9986
aVpretty
p9987
aVshe
p9988
aVwas
p9989
aVat
p9990
aVher
p9991
aVwedding
p9992
aV.
aa(lp9993
Vi
aV've
p9994
aVseen
p9995
aVher
p9996
aVso
p9997
aVmuch
p9998
aVsince
p9999
aVthen
p10000
aV,
aVyou
p10001
aVsee
p10002
aV.
aa(lp10003
Vshe
p10004
aVhas
p10005
aVnice
p10006
aVeyes
p10007
aV.
aV''
p10008
aa(lp10009
Va
aVsort
p10010
aVof
p10011
aVdulness
p10012
aVsettled
p10013
aVdown
p10014
aVupon
p10015
aVdexter
p10016
aV.
aa(lp10017
Vfor
p10018
aVthe
p10019
aVfirst
p10020
aVtime
p10021
aVin
p10022
aVhis
p10023
aVlife
p10024
aVhe
p10025
aVfelt
p10026
aVlike
p10027
aVgetting
p10028
aVvery
p10029
aVdrunk
p10030
aV.
aa(lp10031
Vhe
p10032
aVknew
p10033
aVthat
p10034
aVhe
p10035
aVwas
p10036
aVlaughing
p10037
aVloudly
p10038
aVat
p10039
aVsomething
p10040
aVdevlin
p10041
aVhad
p10042
aVsaid
p10043
aV,
aVbut
p10044
aVhe
p10045
aVdid
p10046
aVnot
p10047
aVknow
p10048
aVwhat
p10049
aVit
p10050
aVwas
p10051
aVor
p10052
aVwhy
p10053
aVit
p10054
aVwas
p10055
aVfunny
p10056
aV.
aa(lp10057
Vwhen
p10058
aV,
aVin
p10059
aVa
aVfew
p10060
aVminutes
p10061
aV,
aVdevlin
p10062
aVwent
p10063
aVhe
p10064
aVlay
p10065
aVdown
p10066
aVon
p10067
aVhis
p10068
aVlounge
p10069
aVand
p10070
aVlooked
p10071
aVout
p10072
aVthe
p10073
aVwindow
p10074
aVat
p10075
aVthe
p10076
aVnew
p10077
aVyork
p10078
aVsky-line
p10079
aVinto
p10080
aVwhich
p10081
aVthe
p10082
aVsun
p10083
aVwas
p10084
aVsinking
p10085
aVin
p10086
aVdull
p10087
aVlovely
p10088
aVshades
p10089
aVof
p10090
aVpink
p10091
aVand
p10092
aVgold
p10093
aV.
aa(lp10094
Vhe
p10095
aVhad
p10096
aVthought
p10097
aVthat
p10098
aVhaving
p10099
aVnothing
p10100
aVelse
p10101
aVto
p10102
aVlose
p10103
aVhe
p10104
aVwas
p10105
aVinvulnerable
p10106
aVat
p10107
aVlast
p10108
aV--
p10109
aVbut
p10110
aVhe
p10111
aVknew
p10112
aVthat
p10113
aVhe
p10114
aVhad
p10115
aVjust
p10116
aVlost
p10117
aVsomething
p10118
aVmore
p10119
aV,
aVas
p10120
aVsurely
p10121
aVas
p10122
aVif
p10123
aVhe
p10124
aVhad
p10125
aVmarried
p10126
aVjudy
p10127
aVjones
p10128
aVand
p10129
aVseen
p10130
aVher
p10131
aVfade
p10132
aVaway
p10133
aVbefore
p10134
aVhis
p10135
aVeyes
p10136
aV.
aa(lp10137
Vthe
p10138
aVdream
p10139
aVwas
p10140
aVgone
p10141
aV.
aa(lp10142
Vsomething
p10143
aVhad
p10144
aVbeen
p10145
aVtaken
p10146
aVfrom
p10147
aVhim
p10148
aV.
aa(lp10149
Vin
p10150
aVa
aVsort
p10151
aVof
p10152
aVpanic
p10153
aVhe
p10154
aVpushed
p10155
aVthe
p10156
aVpalms
p10157
aVof
p10158
aVhis
p10159
aVhands
p10160
aVinto
p10161
aVhis
p10162
aVeyes
p10163
aVand
p10164
aVtried
p10165
aVto
p10166
aVbring
p10167
aVup
p10168
aVa
aVpicture
p10169
aVof
p10170
aVthe
p10171
aVwaters
p10172
aVlapping
p10173
aVon
p10174
aVsherry
p10175
aVisland
p10176
aVand
p10177
aVthe
p10178
aVmoonlit
p10179
aVveranda
p10180
aV,
aVand
p10181
aVgingham
p10182
aVon
p10183
aVthe
p10184
aVgolf-links
p10185
aVand
p10186
aVthe
p10187
aVdry
p10188
aVsun
p10189
aVand
p10190
aVthe
p10191
aVgold
p10192
aVcolor
p10193
aVof
p10194
aVher
p10195
aVneck
p10196
aV's
p10197
aVsoft
p10198
aVdown
p10199
aV.
aa(lp10200
Vand
p10201
aVher
p10202
aVmouth
p10203
aVdamp
p10204
aVto
p10205
aVhis
p10206
aVkisses
p10207
aVand
p10208
aVher
p10209
aVeyes
p10210
aVplaintive
p10211
aVwith
p10212
aVmelancholy
p10213
aVand
p10214
aVher
p10215
aVfreshness
p10216
aVlike
p10217
aVnew
p10218
aVfine
p10219
aVlinen
p10220
aVin
p10221
aVthe
p10222
aVmorning
p10223
aV.
aa(lp10224
Vwhy
p10225
aV,
aVthese
p10226
aVthings
p10227
aVwere
p10228
aVno
p10229
aVlonger
p10230
aVin
p10231
aVthe
p10232
aVworld
p10233
aV!
aa(lp10234
Vthey
p10235
aVhad
p10236
aVexisted
p10237
aVand
p10238
aVthey
p10239
aVexisted
p10240
aVno
p10241
aVlonger
p10242
aV.
aa(lp10243
Vfor
p10244
aVthe
p10245
aVfirst
p10246
aVtime
p10247
aVin
p10248
aVyears
p10249
aVthe
p10250
aVtears
p10251
aVwere
p10252
aVstreaming
p10253
aVdown
p10254
aVhis
p10255
aVface
p10256
aV.
aa(lp10257
Vbut
p10258
aVthey
p10259
aVwere
p10260
aVfor
p10261
aVhimself
p10262
aVnow
p10263
aV.
aa(lp10264
Vhe
p10265
aVdid
p10266
aVnot
p10267
aVcare
p10268
aVabout
p10269
aVmouth
p10270
aVand
p10271
aVeyes
p10272
aVand
p10273
aVmoving
p10274
aVhands
p10275
aV.
aa(lp10276
Vhe
p10277
aVwanted
p10278
aVto
p10279
aVcare
p10280
aV,
aVand
p10281
aVhe
p10282
aVcould
p10283
aVnot
p10284
aVcare
p10285
aV.
aa(lp10286
Vfor
p10287
aVhe
p10288
aVhad
p10289
aVgone
p10290
aVaway
p10291
aVand
p10292
aVhe
p10293
aVcould
p10294
aVnever
p10295
aVgo
p10296
aVback
p10297
aVany
p10298
aVmore
p10299
aV.
aa(lp10300
Vthe
p10301
aVgates
p10302
aVwere
p10303
aVclosed
p10304
aV,
aVthe
p10305
aVsun
p10306
aVwas
p10307
aVgone
p10308
aVdown
p10309
aV,
aVand
p10310
aVthere
p10311
aVwas
p10312
aVno
p10313
aVbeauty
p10314
aVbut
p10315
aVthe
p10316
aVgray
p10317
aVbeauty
p10318
aVof
p10319
aVsteel
p10320
aVthat
p10321
aVwithstands
p10322
aVall
p10323
aVtime
p10324
aV.
aa(lp10325
Veven
p10326
aVthe
p10327
aVgrief
p10328
aVhe
p10329
aVcould
p10330
aVhave
p10331
aVborne
p10332
aVwas
p10333
aVleft
p10334
aVbehind
p10335
aVin
p10336
aVthe
p10337
aVcountry
p10338
aVof
p10339
aVillusion
p10340
aV,
aVof
p10341
aVyouth
p10342
aV,
aVof
p10343
aVthe
p10344
aVrichness
p10345
aVof
p10346
aVlife
p10347
aV,
aVwhere
p10348
aVhis
p10349
aVwinter
p10350
aVdreams
p10351
aVhad
p10352
aVflourished
p10353
aV.
aa(lp10354
V``
p10355
aVlong
p10356
aVago
p10357
aV,
aV''
p10358
aVhe
p10359
aVsaid
p10360
aV,
aV``
p10361
aVlong
p10362
aVago
p10363
aV,
aVthere
p10364
aVwas
p10365
aVsomething
p10366
aVin
p10367
aVme
p10368
aV,
aVbut
p10369
aVnow
p10370
aVthat
p10371
aVthing
p10372
aVis
p10373
aVgone
p10374
aV.
aa(lp10375
Vnow
p10376
aVthat
p10377
aVthing
p10378
aVis
p10379
aVgone
p10380
aV,
aVthat
p10381
aVthing
p10382
aVis
p10383
aVgone
p10384
aV.
aa(lp10385
Vi
aVcan
p10386
aVnot
p10387
aVcry
p10388
aV.
aa(lp10389
Vi
aVcan
p10390
aVnot
p10391
aVcare
p10392
aV.
aa(lp10393
Vthat
p10394
aVthing
p10395
aVwill
p10396
aVcome
p10397
aVback
p10398
aVno
p10399
aVmore
p10400
aV.
aV''
p10401
aasb.