ccopy_reg
_reconstructor
p1
(cData.Book
Book
p2
c__builtin__
object
p3
NtRp4
(dp5
S'stored_object'
p6
S'Books/Young_Goodman_Brown/Book_object.p'
p7
sS'title'
p8
S'Young Goodman Brown'
p9
sS'main_text_path'
p10
S'Books/Young_Goodman_Brown/main_cleaned.txt'
p11
sS'metadata_path'
p12
S'Books/Young_Goodman_Brown/meta_data.csv'
p13
sS'book_path'
p14
S'Books/Young_Goodman_Brown/'
p15
sS'characters'
p16
(dp17
S'faith'
p18
(dp19
S'list'
p20
(lp21
(lp22
V[
aVCHARACTER
p23
aV]
aV-
aVgoodman
p24
aVbrown
p25
aV's
p26
aVwife
p27
aV.
aa(lp28
V[
aVCHARACTER
p29
aV]
aVis
p30
aVyoung
p31
aV,
aVbeautiful
p32
aV,
aVand
p33
aVtrusting
p34
aV,
aVand
p35
aVgoodman
p36
aVbrown
p37
aVsees
p38
aVher
p39
aVas
p40
aVthe
p41
aVembodiment
p42
aVof
p43
aVvirtue
p44
aV.
aa(lp45
Valthough
p46
aVgoodman
p47
aVbrown
p48
aVinitially
p49
aVignores
p50
aV[
aVCHARACTER
p51
aV]
aV's
p52
aVclaims
p53
aVto
p54
aVhave
p55
aVhad
p56
aVdisturbing
p57
aVnightmares
p58
aV,
aVseeing
p59
aVher
p60
aVat
p61
aVthe
p62
aVevil
p63
aVceremony
p64
aVin
p65
aVthe
p66
aVforest
p67
aVprompts
p68
aVhim
p69
aVto
p70
aVquestion
p71
aVhis
p72
aVwife
p73
aV's
p74
aVrighteousness
p75
aV.
aasS'analysis'
p76
(lp77
(lp78
V[
aVCHARACTER
p79
aV]
aV[
aVCHARACTER
p80
aV]
aVrepresents
p81
aVthe
p82
aVstability
p83
aVof
p84
aVthe
p85
aVhome
p86
aVand
p87
aVthe
p88
aVdomestic
p89
aVsphere
p90
aVin
p91
aVthe
p92
aVpuritan
p93
aVworldview
p94
aV.
aa(lp95
V[
aVCHARACTER
p96
aV]
aV,
aVas
p97
aVher
p98
aVname
p99
aVsuggests
p100
aV,
aVappears
p101
aVto
p102
aVbe
p103
aVthe
p104
aVmost
p105
aVpure-hearted
p106
aVperson
p107
aVin
p108
aVthe
p109
aVstory
p110
aVand
p111
aVserves
p112
aVas
p113
aVa
aVstand-in
p114
aVof
p115
aVsorts
p116
aVfor
p117
aVall
p118
aVreligious
p119
aVfeeling
p120
aV.
aa(lp121
Vgoodman
p122
aVbrown
p123
aVclings
p124
aVto
p125
aVher
p126
aVwhen
p127
aVhe
p128
aVquestions
p129
aVthe
p130
aVgoodness
p131
aVof
p132
aVthe
p133
aVpeople
p134
aVaround
p135
aVhim
p136
aV,
aVassuring
p137
aVhimself
p138
aVthat
p139
aVif
p140
aV[
aVCHARACTER
p141
aV]
aVremains
p142
aVgodly
p143
aV,
aVthen
p144
aVhis
p145
aVown
p146
aV[
aVCHARACTER
p147
aV]
aVis
p148
aVworth
p149
aVfighting
p150
aVtemptation
p151
aVto
p152
aVmaintain
p153
aV.
aa(lp154
Vwhen
p155
aVhe
p156
aVsees
p157
aVthat
p158
aV[
aVCHARACTER
p159
aV]
aVhas
p160
aVbeen
p161
aVcorrupted
p162
aV,
aVhe
p163
aVbelieves
p164
aVin
p165
aVthe
p166
aVabsolute
p167
aVevil
p168
aVat
p169
aVthe
p170
aVheart
p171
aVof
p172
aVman
p173
aV.
aa(lp174
Vhis
p175
aVestrangement
p176
aVfrom
p177
aV[
aVCHARACTER
p178
aV]
aVat
p179
aVthe
p180
aVend
p181
aVof
p182
aVthe
p183
aVstory
p184
aVis
p185
aVthe
p186
aVworst
p187
aVconsequence
p188
aVof
p189
aVhis
p190
aVchange
p191
aVof
p192
aVheart
p193
aV.
aa(lp194
Vif
p195
aVhe
p196
aVis
p197
aVable
p198
aVto
p199
aVbe
p200
aVsuspicious
p201
aVof
p202
aV[
aVCHARACTER
p203
aV]
aV,
aVhawthorne
p204
aVsuggests
p205
aV,
aVthen
p206
aVhe
p207
aVhas
p208
aVtruly
p209
aVbecome
p210
aVestranged
p211
aVfrom
p212
aVthe
p213
aVgoodness
p214
aVof
p215
aVgod
p216
aV.
aassS'the minister'
p217
(dp218
g20
(lp219
(lp220
Vthe
p221
aV[
aVCHARACTER
p222
aV]
aV-
aVthe
p223
aV[
aVCHARACTER
p224
aV]
aVof
p225
aVsalem
p226
aV.
aa(lp227
Vthe
p228
aV[
aVCHARACTER
p229
aV]
aV,
aVa
aVrespectable
p230
aVpillar
p231
aVof
p232
aVthe
p233
aVcommunity
p234
aV,
aVappears
p235
aVto
p236
aVbe
p237
aVa
aVfollower
p238
aVof
p239
aVthe
p240
aVdevil
p241
aV.
aasg76
NssS'goody cloyse'
p242
(dp243
g20
(lp244
(lp245
V[
aVCHARACTER
p246
aV]
aV-
aVa
aVcitizen
p247
aVof
p248
aVsalem
p249
aVvillage
p250
aVwho
p251
aVreveals
p252
aVherself
p253
aVto
p254
aVbe
p255
aVa
aVwitch
p256
aV.
aa(lp257
V[
aVCHARACTER
p258
aV]
aVis
p259
aVa
aVchristian
p260
aVwoman
p261
aVwho
p262
aVhelps
p263
aVyoung
p264
aVpeople
p265
aVlearn
p266
aVthe
p267
aVbible
p268
aV,
aVbut
p269
aVin
p270
aVsecret
p271
aVshe
p272
aVperforms
p273
aVmagic
p274
aVceremonies
p275
aVand
p276
aVattends
p277
aVwitch
p278
aVmeetings
p279
aVin
p280
aVthe
p281
aVforest
p282
aV.
aa(lp283
V[
aVCHARACTER
p284
aV]
aVwas
p285
aVthe
p286
aVname
p287
aVof
p288
aVan
p289
aVactual
p290
aVwoman
p291
aVwho
p292
aVwas
p293
aVtried
p294
aVand
p295
aVconvicted
p296
aVof
p297
aVwitchcraft
p298
aVduring
p299
aVthe
p300
aVhistorical
p301
aVsalem
p302
aVwitch
p303
aVtrials
p304
aVof
p305
aV1692
p306
aV;
aVhawthorne
p307
aVborrows
p308
aVher
p309
aVname
p310
aVfor
p311
aVthis
p312
aVcharacter
p313
aV.
aasg76
NssS'deacon gookin'
p314
(dp315
g20
(lp316
(lp317
V[
aVCHARACTER
p318
aV]
aV-
aVa
aVmember
p319
aVof
p320
aVthe
p321
aVclergy
p322
aVin
p323
aVsalem
p324
aVwho
p325
aVappears
p326
aVto
p327
aVbe
p328
aVa
aVfollower
p329
aVof
p330
aVthe
p331
aVdevil
p332
aV.
aa(lp333
Vthe
p334
aVdeacon
p335
aVis
p336
aVan
p337
aVimportant
p338
aVman
p339
aVin
p340
aVthe
p341
aVchurch
p342
aVof
p343
aVsalem
p344
aV,
aVand
p345
aVgoodman
p346
aVbrown
p347
aVthinks
p348
aVof
p349
aVhim
p350
aVas
p351
aVvery
p352
aVreligious
p353
aV.
aasg76
NssS'the old man/devil'
p354
(dp355
g20
(lp356
(lp357
Vthe
p358
aV[
aVCHARACTER
p359
aV]
aV-
aVthe
p360
aVman
p361
aV,
aVpossibly
p362
aVthe
p363
aVdevil
p364
aV,
aVwho
p365
aVtempts
p366
aVgoodman
p367
aVbrown
p368
aVinto
p369
aVattending
p370
aVthe
p371
aVceremony
p372
aVin
p373
aVthe
p374
aVforest
p375
aV.
aa(lp376
Vthe
p377
aVman
p378
aVintercepts
p379
aVgoodman
p380
aVbrown
p381
aVin
p382
aVthe
p383
aVmiddle
p384
aVof
p385
aVthe
p386
aVdark
p387
aVroad
p388
aV,
aVthen
p389
aVpresides
p390
aVover
p391
aVthe
p392
aVceremony
p393
aV.
aa(lp394
Vhe
p395
aVsees
p396
aVthrough
p397
aVthe
p398
aVsalem
p399
aVvillagers
p400
aV'
aVcharade
p401
aVof
p402
aVchristian
p403
aVpiety
p404
aVand
p405
aVprides
p406
aVhimself
p407
aVon
p408
aVthe
p409
aVgodly
p410
aVmen
p411
aVhe
p412
aVhas
p413
aVbeen
p414
aVable
p415
aVto
p416
aVturn
p417
aVto
p418
aVevil
p419
aV.
aasg76
(lp420
(lp421
Vthe
p422
aV[
aVCHARACTER
p423
aV]
aVin
p424
aV``
p425
aVyoung
p426
aVgoodman
p427
aVbrown
p428
aV,
aV''
p429
aVthe
p430
aVdevil
p431
aVappears
p432
aVto
p433
aVbe
p434
aVan
p435
aVordinary
p436
aVman
p437
aV,
aVwhich
p438
aVsuggests
p439
aVthat
p440
aVevery
p441
aVperson
p442
aV,
aVincluding
p443
aVgoodman
p444
aVbrown
p445
aV,
aVhas
p446
aVthe
p447
aVcapacity
p448
aVfor
p449
aVevil
p450
aV.
aa(lp451
Vwhen
p452
aVthe
p453
aVdevil
p454
aVappears
p455
aVto
p456
aVgoodman
p457
aVbrown
p458
aVin
p459
aVthe
p460
aVforest
p461
aV,
aVhe
p462
aVwears
p463
aVdecent
p464
aVclothes
p465
aVand
p466
aVappears
p467
aVto
p468
aVbe
p469
aVlike
p470
aVany
p471
aVother
p472
aVman
p473
aVin
p474
aVsalem
p475
aVvillage
p476
aV,
aVbut
p477
aVgoodman
p478
aVbrown
p479
aVlearns
p480
aVthat
p481
aVthe
p482
aVdevil
p483
aVcan
p484
aVappear
p485
aVin
p486
aVany
p487
aVcontext
p488
aVand
p489
aVnot
p490
aVappear
p491
aVout
p492
aVof
p493
aVplace
p494
aV.
aa(lp495
Vby
p496
aVemphasizing
p497
aVthe
p498
aVdevil
p499
aV's
p500
aVchameleon
p501
aVnature
p502
aV,
aVhawthorne
p503
aVsuggests
p504
aVthat
p505
aVthe
p506
aVdevil
p507
aVis
p508
aVsimply
p509
aVan
p510
aVembodiment
p511
aVof
p512
aVall
p513
aVof
p514
aVthe
p515
aVworst
p516
aVparts
p517
aVof
p518
aVman
p519
aV.
aa(lp520
Vby
p521
aVsaying
p522
aVthat
p523
aVthe
p524
aVdevil
p525
aVlooks
p526
aVas
p527
aVthough
p528
aVhe
p529
aVcould
p530
aVbe
p531
aVgoodman
p532
aVbrown
p533
aV's
p534
aVfather
p535
aV,
aVhawthorne
p536
aVcreates
p537
aVa
aVlink
p538
aVbetween
p539
aVthem
p540
aV,
aVraising
p541
aVthe
p542
aVquestions
p543
aVof
p544
aVwhether
p545
aVthe
p546
aVdevil
p547
aVand
p548
aVgoodman
p549
aVbrown
p550
aVmight
p551
aVbe
p552
aVrelated
p553
aVor
p554
aVthe
p555
aVdevil
p556
aVmight
p557
aVbe
p558
aVan
p559
aVembodiment
p560
aVof
p561
aVgoodman
p562
aVbrown
p563
aV's
p564
aVdark
p565
aVside
p566
aV.
aa(lp567
Vlater
p568
aVin
p569
aVthe
p570
aVstory
p571
aV,
aVgoodman
p572
aVbrown
p573
aV,
aVflying
p574
aValong
p575
aVwith
p576
aVthe
p577
aVdevil
p578
aV's
p579
aVstaff
p580
aVon
p581
aVhis
p582
aVway
p583
aVto
p584
aVthe
p585
aVceremony
p586
aV,
aVappears
p587
aVto
p588
aVbe
p589
aVa
aVmuch
p590
aVmore
p591
aVfrightening
p592
aVapparition
p593
aVthan
p594
aVany
p595
aVdevil
p596
aVcould
p597
aVbe
p598
aVby
p599
aVhimself
p600
aV.
aa(lp601
Valthough
p602
aVit
p603
aVis
p604
aVnever
p605
aVfully
p606
aVclear
p607
aVwhether
p608
aVthe
p609
aVold
p610
aVman
p611
aVand
p612
aVgoodman
p613
aVbrown
p614
aV's
p615
aVexperiences
p616
aVin
p617
aVthe
p618
aVforest
p619
aVwere
p620
aVa
aVdream
p621
aVor
p622
aVreality
p623
aV,
aVthe
p624
aVconsequences
p625
aVof
p626
aVgoodman
p627
aVbrown
p628
aV's
p629
aVinteraction
p630
aVwith
p631
aVthe
p632
aVold
p633
aVman
p634
aVstay
p635
aVwith
p636
aVhim
p637
aVfor
p638
aVthe
p639
aVrest
p640
aVof
p641
aVhis
p642
aVlife
p643
aV.
aassS'goodman brown'
p644
(dp645
g20
(lp646
(lp647
V[
aVCHARACTER
p648
aV]
aV-
aVa
aVyoung
p649
aVresident
p650
aVof
p651
aVsalem
p652
aVand
p653
aVthe
p654
aVstory
p655
aV's
p656
aVprotagonist
p657
aV.
aa(lp658
V[
aVCHARACTER
p659
aV]
aVis
p660
aVa
aVgood
p661
aVchristian
p662
aVwho
p663
aVhas
p664
aVrecently
p665
aVmarried
p666
aVfaith
p667
aV.
aa(lp668
Vhe
p669
aVtakes
p670
aVpride
p671
aVin
p672
aVhis
p673
aVfamily
p674
aV's
p675
aVhistory
p676
aVof
p677
aVpiety
p678
aVand
p679
aVtheir
p680
aVreputation
p681
aVin
p682
aVthe
p683
aVcommunity
p684
aVas
p685
aVgodly
p686
aVmen
p687
aV.
aa(lp688
Vhis
p689
aVcuriosity
p690
aV,
aVhowever
p691
aV,
aVleads
p692
aVhim
p693
aVto
p694
aVaccept
p695
aVan
p696
aVinvitation
p697
aVfrom
p698
aVa
aVmysterious
p699
aVtraveler
p700
aVto
p701
aVobserve
p702
aVan
p703
aVevil
p704
aVceremony
p705
aVin
p706
aVmiddle
p707
aVof
p708
aVthe
p709
aVforest
p710
aV,
aVone
p711
aVthat
p712
aVshocks
p713
aVand
p714
aVdisillusions
p715
aVhim
p716
aV.
aasg76
(lp717
(lp718
V[
aVCHARACTER
p719
aV]
aV[
aVCHARACTER
p720
aV]
aVshows
p721
aVboth
p722
aVinnocence
p723
aVand
p724
aVcorruptibility
p725
aVas
p726
aVhe
p727
aVvacillates
p728
aVbetween
p729
aVbelieving
p730
aVin
p731
aVthe
p732
aVinherent
p733
aVgoodness
p734
aVof
p735
aVthe
p736
aVpeople
p737
aVaround
p738
aVhim
p739
aVand
p740
aVbelieving
p741
aVthat
p742
aVthe
p743
aVdevil
p744
aVhas
p745
aVtaken
p746
aVover
p747
aVthe
p748
aVminds
p749
aVof
p750
aVall
p751
aVthe
p752
aVpeople
p753
aVhe
p754
aVloves
p755
aV.
aa(lp756
Vat
p757
aVthe
p758
aVbeginning
p759
aVof
p760
aVthe
p761
aVstory
p762
aV,
aV[
aVCHARACTER
p763
aV]
aVbelieves
p764
aVin
p765
aVthe
p766
aVgoodness
p767
aVof
p768
aVhis
p769
aVfather
p770
aVand
p771
aVgrandfather
p772
aV,
aVuntil
p773
aVthe
p774
aVold
p775
aVman
p776
aV,
aVlikely
p777
aVthe
p778
aVdevil
p779
aV,
aVtells
p780
aVhim
p781
aVthat
p782
aVhe
p783
aVknew
p784
aVthem
p785
aVboth
p786
aV.
aa(lp787
V[
aVCHARACTER
p788
aV]
aVbelieves
p789
aVin
p790
aVthe
p791
aVchristian
p792
aVnature
p793
aVof
p794
aVgoody
p795
aVcloyse
p796
aV,
aVthe
p797
aVminister
p798
aV,
aVand
p799
aVdeacon
p800
aVgookin
p801
aV,
aVuntil
p802
aVthe
p803
aVdevil
p804
aVshows
p805
aVhim
p806
aVthat
p807
aVgoody
p808
aVcloyse
p809
aVis
p810
aVa
aVwitch
p811
aVand
p812
aVthe
p813
aVother
p814
aVtwo
p815
aVare
p816
aVhis
p817
aVfollowers
p818
aV.
aa(lp819
Vfinally
p820
aV,
aVhe
p821
aVbelieves
p822
aVthat
p823
aVfaith
p824
aVis
p825
aVpure
p826
aVand
p827
aVgood
p828
aV,
aVuntil
p829
aVthe
p830
aVdevil
p831
aVreveals
p832
aVat
p833
aVthe
p834
aVceremony
p835
aVthat
p836
aVfaith
p837
aV,
aVtoo
p838
aV,
aVis
p839
aVcorruptible
p840
aV.
aa(lp841
Vthis
p842
aVvacillation
p843
aVreveals
p844
aV[
aVCHARACTER
p845
aV]
aV's
p846
aVlack
p847
aVof
p848
aVtrue
p849
aVreligion
p850
aV--
p851
aVhis
p852
aVbelief
p853
aVis
p854
aVeasy
p855
aVto
p856
aVshake
p857
aV--
p858
aVas
p859
aVwell
p860
aVas
p861
aVof
p862
aVthe
p863
aVgood
p864
aVand
p865
aVevil
p866
aVsides
p867
aVof
p868
aVhuman
p869
aVnature
p870
aV.
aa(lp871
Vthrough
p872
aV[
aVCHARACTER
p873
aV]
aV's
p874
aVawakening
p875
aVto
p876
aVthe
p877
aVevil
p878
aVnature
p879
aVof
p880
aVthose
p881
aVaround
p882
aVhim
p883
aV,
aVhawthorne
p884
aVcomments
p885
aVon
p886
aVwhat
p887
aVhe
p888
aVsees
p889
aVas
p890
aVthe
p891
aVhidden
p892
aVcorruption
p893
aVof
p894
aVpuritan
p895
aVsociety
p896
aV.
aa(lp897
V[
aVCHARACTER
p898
aV]
aVbelieves
p899
aVin
p900
aVthe
p901
aVpublic
p902
aVprofessions
p903
aVof
p904
aVfaith
p905
aVmade
p906
aVby
p907
aVhis
p908
aVfather
p909
aVand
p910
aVthe
p911
aVelders
p912
aVof
p913
aVhis
p914
aVchurch
p915
aVand
p916
aVin
p917
aVthe
p918
aVsocietal
p919
aVstructures
p920
aVthat
p921
aVare
p922
aVbuilt
p923
aVupon
p924
aVthat
p925
aVfaith
p926
aV.
aa(lp927
Vhawthorne
p928
aVsuggests
p929
aV,
aVhowever
p930
aV,
aVthat
p931
aVbehind
p932
aVthe
p933
aVpublic
p934
aVface
p935
aVof
p936
aVgodliness
p937
aV,
aVthe
p938
aVpuritans
p939
aV'
aVactions
p940
aVwere
p941
aVnot
p942
aValways
p943
aVchristian
p944
aV.
aa(lp945
Vthe
p946
aVdevil
p947
aVin
p948
aVthe
p949
aVstory
p950
aVsays
p951
aVthat
p952
aVhe
p953
aVwas
p954
aVpresent
p955
aVwhen
p956
aVbrown
p957
aV's
p958
aVfather
p959
aVand
p960
aVgrandfather
p961
aVwhipped
p962
aVquakers
p963
aVand
p964
aVset
p965
aVfire
p966
aVto
p967
aVindian
p968
aVvillages
p969
aV,
aVmaking
p970
aVit
p971
aVclear
p972
aVthat
p973
aVthe
p974
aVstory
p975
aVof
p976
aVthe
p977
aVfounding
p978
aVof
p979
aVnew
p980
aVengland
p981
aVhas
p982
aVa
aVdark
p983
aVside
p984
aVthat
p985
aVreligion
p986
aVfails
p987
aVto
p988
aVexplain
p989
aV.
aa(lp990
Vthe
p991
aVvery
p992
aVfact
p993
aVthat
p994
aV[
aVCHARACTER
p995
aV]
aVis
p996
aVwilling
p997
aVto
p998
aVvisit
p999
aVthe
p1000
aVforest
p1001
aVwhen
p1002
aVhe
p1003
aVhas
p1004
aVan
p1005
aVidea
p1006
aVof
p1007
aVwhat
p1008
aVwill
p1009
aVhappen
p1010
aVthere
p1011
aVis
p1012
aVan
p1013
aVindication
p1014
aVof
p1015
aVthe
p1016
aVcorruptibility
p1017
aVand
p1018
aVevil
p1019
aVat
p1020
aVthe
p1021
aVheart
p1022
aVof
p1023
aVeven
p1024
aVthe
p1025
aVmost
p1026
aVfaithful
p1027
aVpuritan
p1028
aV.
aasssS'mainText'
p1029
(lp1030
(lp1031
Vyoung
p1032
aVgoodman
p1033
aVbrown
p1034
aVyoung
p1035
aVgoodman
p1036
aVbrown
p1037
aVcame
p1038
aVforth
p1039
aVat
p1040
aVsunset
p1041
aVinto
p1042
aVthe
p1043
aVstreet
p1044
aVat
p1045
aVsalem
p1046
aVvillage
p1047
aV;
aVbut
p1048
aVput
p1049
aVhis
p1050
aVhead
p1051
aVback
p1052
aV,
aVafter
p1053
aVcrossing
p1054
aVthe
p1055
aVthreshold
p1056
aV,
aVto
p1057
aVexchange
p1058
aVa
aVparting
p1059
aVkiss
p1060
aVwith
p1061
aVhis
p1062
aVyoung
p1063
aVwife
p1064
aV.
aa(lp1065
Vand
p1066
aVfaith
p1067
aV,
aVas
p1068
aVthe
p1069
aVwife
p1070
aVwas
p1071
aVaptly
p1072
aVnamed
p1073
aV,
aVthrust
p1074
aVher
p1075
aVown
p1076
aVpretty
p1077
aVhead
p1078
aVinto
p1079
aVthe
p1080
aVstreet
p1081
aV,
aVletting
p1082
aVthe
p1083
aVwind
p1084
aVplay
p1085
aVwith
p1086
aVthe
p1087
aVpink
p1088
aVribbons
p1089
aVof
p1090
aVher
p1091
aVcap
p1092
aVwhile
p1093
aVshe
p1094
aVcalled
p1095
aVto
p1096
aVgoodman
p1097
aVbrown
p1098
aV.
aa(lp1099
V``
p1100
aVdearest
p1101
aVheart
p1102
aV,
aV''
p1103
aVwhispered
p1104
aVshe
p1105
aV,
aVsoftly
p1106
aVand
p1107
aVrather
p1108
aVsadly
p1109
aV,
aVwhen
p1110
aVher
p1111
aVlips
p1112
aVwere
p1113
aVclose
p1114
aVto
p1115
aVhis
p1116
aVear
p1117
aV,
aV``
p1118
aVprithee
p1119
aVput
p1120
aVoff
p1121
aVyour
p1122
aVjourney
p1123
aVuntil
p1124
aVsunrise
p1125
aVand
p1126
aVsleep
p1127
aVin
p1128
aVyour
p1129
aVown
p1130
aVbed
p1131
aVto-night
p1132
aV.
aa(lp1133
Va
aVlone
p1134
aVwoman
p1135
aVis
p1136
aVtroubled
p1137
aVwith
p1138
aVsuch
p1139
aVdreams
p1140
aVand
p1141
aVsuch
p1142
aVthoughts
p1143
aVthat
p1144
aVshe
p1145
aV's
p1146
aVafeard
p1147
aVof
p1148
aVherself
p1149
aVsometimes
p1150
aV.
aa(lp1151
Vpray
p1152
aVtarry
p1153
aVwith
p1154
aVme
p1155
aVthis
p1156
aVnight
p1157
aV,
aVdear
p1158
aVhusband
p1159
aV,
aVof
p1160
aVall
p1161
aVnights
p1162
aVin
p1163
aVthe
p1164
aVyear
p1165
aV.
aV''
p1166
aa(lp1167
V``
p1168
aVmy
p1169
aVlove
p1170
aVand
p1171
aVmy
p1172
aVfaith
p1173
aV,
aV''
p1174
aVreplied
p1175
aVyoung
p1176
aVgoodman
p1177
aVbrown
p1178
aV,
aV``
p1179
aVof
p1180
aVall
p1181
aVnights
p1182
aVin
p1183
aVthe
p1184
aVyear
p1185
aV,
aVthis
p1186
aVone
p1187
aVnight
p1188
aVmust
p1189
aVi
aVtarry
p1190
aVaway
p1191
aVfrom
p1192
aVthee
p1193
aV.
aa(lp1194
Vmy
p1195
aVjourney
p1196
aV,
aVas
p1197
aVthou
p1198
aVcallest
p1199
aVit
p1200
aV,
aVforth
p1201
aVand
p1202
aVback
p1203
aVagain
p1204
aV,
aVmust
p1205
aVneeds
p1206
aVbe
p1207
aVdone
p1208
aV'twixt
p1209
aVnow
p1210
aVand
p1211
aVsunrise
p1212
aV.
aa(lp1213
Vwhat
p1214
aV,
aVmy
p1215
aVsweet
p1216
aV,
aVpretty
p1217
aVwife
p1218
aV,
aVdost
p1219
aVthou
p1220
aVdoubt
p1221
aVme
p1222
aValready
p1223
aV,
aVand
p1224
aVwe
p1225
aVbut
p1226
aVthree
p1227
aVmonths
p1228
aVmarried
p1229
aV?
aV''
p1230
aa(lp1231
V``
p1232
aVthen
p1233
aVgod
p1234
aVbless
p1235
aVyou
p1236
aV!
aV''
p1237
aa(lp1238
Vsaid
p1239
aVfaith
p1240
aV,
aVwith
p1241
aVthe
p1242
aVpink
p1243
aVribbons
p1244
aV;
aV``
p1245
aVand
p1246
aVmay
p1247
aVyou
p1248
aVfind
p1249
aVall
p1250
aVwell
p1251
aVwhen
p1252
aVyou
p1253
aVcome
p1254
aVback
p1255
aV.
aV''
p1256
aa(lp1257
V``
p1258
aVamen
p1259
aV!
aV''
p1260
aa(lp1261
Vcried
p1262
aVgoodman
p1263
aVbrown
p1264
aV.
aa(lp1265
V``
p1266
aVsay
p1267
aVthy
p1268
aVprayers
p1269
aV,
aVdear
p1270
aVfaith
p1271
aV,
aVand
p1272
aVgo
p1273
aVto
p1274
aVbed
p1275
aVat
p1276
aVdusk
p1277
aV,
aVand
p1278
aVno
p1279
aVharm
p1280
aVwill
p1281
aVcome
p1282
aVto
p1283
aVthee
p1284
aV.
aV''
p1285
aa(lp1286
Vso
p1287
aVthey
p1288
aVparted
p1289
aV;
aVand
p1290
aVthe
p1291
aVyoung
p1292
aVman
p1293
aVpursued
p1294
aVhis
p1295
aVway
p1296
aVuntil
p1297
aV,
aVbeing
p1298
aVabout
p1299
aVto
p1300
aVturn
p1301
aVthe
p1302
aVcorner
p1303
aVby
p1304
aVthe
p1305
aVmeeting-house
p1306
aV,
aVhe
p1307
aVlooked
p1308
aVback
p1309
aVand
p1310
aVsaw
p1311
aVthe
p1312
aVhead
p1313
aVof
p1314
aVfaith
p1315
aVstill
p1316
aVpeeping
p1317
aVafter
p1318
aVhim
p1319
aVwith
p1320
aVa
aVmelancholy
p1321
aVair
p1322
aV,
aVin
p1323
aVspite
p1324
aVof
p1325
aVher
p1326
aVpink
p1327
aVribbons
p1328
aV.
aa(lp1329
V``
p1330
aVpoor
p1331
aVlittle
p1332
aVfaith
p1333
aV!
aV''
p1334
aa(lp1335
Vthought
p1336
aVhe
p1337
aV,
aVfor
p1338
aVhis
p1339
aVheart
p1340
aVsmote
p1341
aVhim
p1342
aV.
aa(lp1343
V``
p1344
aVwhat
p1345
aVa
aVwretch
p1346
aVam
p1347
aVi
aVto
p1348
aVleave
p1349
aVher
p1350
aVon
p1351
aVsuch
p1352
aVan
p1353
aVerrand
p1354
aV!
aa(lp1355
Vshe
p1356
aVtalks
p1357
aVof
p1358
aVdreams
p1359
aV,
aVtoo
p1360
aV.
aa(lp1361
Vmethought
p1362
aVas
p1363
aVshe
p1364
aVspoke
p1365
aVthere
p1366
aVwas
p1367
aVtrouble
p1368
aVin
p1369
aVher
p1370
aVface
p1371
aV,
aVas
p1372
aVif
p1373
aVa
aVdream
p1374
aVhad
p1375
aVwarned
p1376
aVher
p1377
aVwhat
p1378
aVwork
p1379
aVis
p1380
aVto
p1381
aVbe
p1382
aVdone
p1383
aVtonight
p1384
aV.
aa(lp1385
Vbut
p1386
aVno
p1387
aV,
aVno
p1388
aV;
aV't
p1389
aVwould
p1390
aVkill
p1391
aVher
p1392
aVto
p1393
aVthink
p1394
aVit
p1395
aV.
aa(lp1396
Vwell
p1397
aV,
aVshe
p1398
aV's
p1399
aVa
aVblessed
p1400
aVangel
p1401
aVon
p1402
aVearth
p1403
aV;
aVand
p1404
aVafter
p1405
aVthis
p1406
aVone
p1407
aVnight
p1408
aVi
aV'll
p1409
aVcling
p1410
aVto
p1411
aVher
p1412
aVskirts
p1413
aVand
p1414
aVfollow
p1415
aVher
p1416
aVto
p1417
aVheaven
p1418
aV.
aV''
p1419
aa(lp1420
Vwith
p1421
aVthis
p1422
aVexcellent
p1423
aVresolve
p1424
aVfor
p1425
aVthe
p1426
aVfuture
p1427
aV,
aVgoodman
p1428
aVbrown
p1429
aVfelt
p1430
aVhimself
p1431
aVjustified
p1432
aVin
p1433
aVmaking
p1434
aVmore
p1435
aVhaste
p1436
aVon
p1437
aVhis
p1438
aVpresent
p1439
aVevil
p1440
aVpurpose
p1441
aV.
aa(lp1442
Vhe
p1443
aVhad
p1444
aVtaken
p1445
aVa
aVdreary
p1446
aVroad
p1447
aV,
aVdarkened
p1448
aVby
p1449
aVall
p1450
aVthe
p1451
aVgloomiest
p1452
aVtrees
p1453
aVof
p1454
aVthe
p1455
aVforest
p1456
aV,
aVwhich
p1457
aVbarely
p1458
aVstood
p1459
aVaside
p1460
aVto
p1461
aVlet
p1462
aVthe
p1463
aVnarrow
p1464
aVpath
p1465
aVcreep
p1466
aVthrough
p1467
aV,
aVand
p1468
aVclosed
p1469
aVimmediately
p1470
aVbehind
p1471
aV.
aa(lp1472
Vit
p1473
aVwas
p1474
aVall
p1475
aVas
p1476
aVlonely
p1477
aVas
p1478
aVcould
p1479
aVbe
p1480
aV;
aVand
p1481
aVthere
p1482
aVis
p1483
aVthis
p1484
aVpeculiarity
p1485
aVin
p1486
aVsuch
p1487
aVa
aVsolitude
p1488
aV,
aVthat
p1489
aVthe
p1490
aVtraveller
p1491
aVknows
p1492
aVnot
p1493
aVwho
p1494
aVmay
p1495
aVbe
p1496
aVconcealed
p1497
aVby
p1498
aVthe
p1499
aVinnumerable
p1500
aVtrunks
p1501
aVand
p1502
aVthe
p1503
aVthick
p1504
aVboughs
p1505
aVoverhead
p1506
aV;
aVso
p1507
aVthat
p1508
aVwith
p1509
aVlonely
p1510
aVfootsteps
p1511
aVhe
p1512
aVmay
p1513
aVyet
p1514
aVbe
p1515
aVpassing
p1516
aVthrough
p1517
aVan
p1518
aVunseen
p1519
aVmultitude
p1520
aV.
aa(lp1521
V``
p1522
aVthere
p1523
aVmay
p1524
aVbe
p1525
aVa
aVdevilish
p1526
aVindian
p1527
aVbehind
p1528
aVevery
p1529
aVtree
p1530
aV,
aV''
p1531
aVsaid
p1532
aVgoodman
p1533
aVbrown
p1534
aVto
p1535
aVhimself
p1536
aV;
aVand
p1537
aVhe
p1538
aVglanced
p1539
aVfearfully
p1540
aVbehind
p1541
aVhim
p1542
aVas
p1543
aVhe
p1544
aVadded
p1545
aV,
aV``
p1546
aVwhat
p1547
aVif
p1548
aVthe
p1549
aVdevil
p1550
aVhimself
p1551
aVshould
p1552
aVbe
p1553
aVat
p1554
aVmy
p1555
aVvery
p1556
aVelbow
p1557
aV!
aV''
p1558
aa(lp1559
Vhis
p1560
aVhead
p1561
aVbeing
p1562
aVturned
p1563
aVback
p1564
aV,
aVhe
p1565
aVpassed
p1566
aVa
aVcrook
p1567
aVof
p1568
aVthe
p1569
aVroad
p1570
aV,
aVand
p1571
aV,
aVlooking
p1572
aVforward
p1573
aVagain
p1574
aV,
aVbeheld
p1575
aVthe
p1576
aVfigure
p1577
aVof
p1578
aVa
aVman
p1579
aV,
aVin
p1580
aVgrave
p1581
aVand
p1582
aVdecent
p1583
aVattire
p1584
aV,
aVseated
p1585
aVat
p1586
aVthe
p1587
aVfoot
p1588
aVof
p1589
aVan
p1590
aVold
p1591
aVtree
p1592
aV.
aa(lp1593
Vhe
p1594
aVarose
p1595
aVat
p1596
aVgoodman
p1597
aVbrown
p1598
aV's
p1599
aVapproach
p1600
aVand
p1601
aVwalked
p1602
aVonward
p1603
aVside
p1604
aVby
p1605
aVside
p1606
aVwith
p1607
aVhim
p1608
aV.
aa(lp1609
V``
p1610
aVyou
p1611
aVare
p1612
aVlate
p1613
aV,
aVgoodman
p1614
aVbrown
p1615
aV,
aV''
p1616
aVsaid
p1617
aVhe
p1618
aV.
aa(lp1619
V``
p1620
aVthe
p1621
aVclock
p1622
aVof
p1623
aVthe
p1624
aVold
p1625
aVsouth
p1626
aVwas
p1627
aVstriking
p1628
aVas
p1629
aVi
aVcame
p1630
aVthrough
p1631
aVboston
p1632
aV,
aVand
p1633
aVthat
p1634
aVis
p1635
aVfull
p1636
aVfifteen
p1637
aVminutes
p1638
aVagone
p1639
aV.
aV''
p1640
aa(lp1641
V``
p1642
aVfaith
p1643
aVkept
p1644
aVme
p1645
aVback
p1646
aVa
aVwhile
p1647
aV,
aV''
p1648
aVreplied
p1649
aVthe
p1650
aVyoung
p1651
aVman
p1652
aV,
aVwith
p1653
aVa
aVtremor
p1654
aVin
p1655
aVhis
p1656
aVvoice
p1657
aV,
aVcaused
p1658
aVby
p1659
aVthe
p1660
aVsudden
p1661
aVappearance
p1662
aVof
p1663
aVhis
p1664
aVcompanion
p1665
aV,
aVthough
p1666
aVnot
p1667
aVwholly
p1668
aVunexpected
p1669
aV.
aa(lp1670
Vit
p1671
aVwas
p1672
aVnow
p1673
aVdeep
p1674
aVdusk
p1675
aVin
p1676
aVthe
p1677
aVforest
p1678
aV,
aVand
p1679
aVdeepest
p1680
aVin
p1681
aVthat
p1682
aVpart
p1683
aVof
p1684
aVit
p1685
aVwhere
p1686
aVthese
p1687
aVtwo
p1688
aVwere
p1689
aVjourneying
p1690
aV.
aa(lp1691
Vas
p1692
aVnearly
p1693
aVas
p1694
aVcould
p1695
aVbe
p1696
aVdiscerned
p1697
aV,
aVthe
p1698
aVsecond
p1699
aVtraveller
p1700
aVwas
p1701
aVabout
p1702
aVfifty
p1703
aVyears
p1704
aVold
p1705
aV,
aVapparently
p1706
aVin
p1707
aVthe
p1708
aVsame
p1709
aVrank
p1710
aVof
p1711
aVlife
p1712
aVas
p1713
aVgoodman
p1714
aVbrown
p1715
aV,
aVand
p1716
aVbearing
p1717
aVa
aVconsiderable
p1718
aVresemblance
p1719
aVto
p1720
aVhim
p1721
aV,
aVthough
p1722
aVperhaps
p1723
aVmore
p1724
aVin
p1725
aVexpression
p1726
aVthan
p1727
aVfeatures
p1728
aV.
aa(lp1729
Vstill
p1730
aVthey
p1731
aVmight
p1732
aVhave
p1733
aVbeen
p1734
aVtaken
p1735
aVfor
p1736
aVfather
p1737
aVand
p1738
aVson
p1739
aV.
aa(lp1740
Vand
p1741
aVyet
p1742
aV,
aVthough
p1743
aVthe
p1744
aVelder
p1745
aVperson
p1746
aVwas
p1747
aVas
p1748
aVsimply
p1749
aVclad
p1750
aVas
p1751
aVthe
p1752
aVyounger
p1753
aV,
aVand
p1754
aVas
p1755
aVsimple
p1756
aVin
p1757
aVmanner
p1758
aVtoo
p1759
aV,
aVhe
p1760
aVhad
p1761
aVan
p1762
aVindescribable
p1763
aVair
p1764
aVof
p1765
aVone
p1766
aVwho
p1767
aVknew
p1768
aVthe
p1769
aVworld
p1770
aV,
aVand
p1771
aVwho
p1772
aVwould
p1773
aVnot
p1774
aVhave
p1775
aVfelt
p1776
aVabashed
p1777
aVat
p1778
aVthe
p1779
aVgovernor
p1780
aV's
p1781
aVdinner
p1782
aVtable
p1783
aVor
p1784
aVin
p1785
aVking
p1786
aVwilliam
p1787
aV's
p1788
aVcourt
p1789
aV,
aVwere
p1790
aVit
p1791
aVpossible
p1792
aVthat
p1793
aVhis
p1794
aVaffairs
p1795
aVshould
p1796
aVcall
p1797
aVhim
p1798
aVthither
p1799
aV.
aa(lp1800
Vbut
p1801
aVthe
p1802
aVonly
p1803
aVthing
p1804
aVabout
p1805
aVhim
p1806
aVthat
p1807
aVcould
p1808
aVbe
p1809
aVfixed
p1810
aVupon
p1811
aVas
p1812
aVremarkable
p1813
aVwas
p1814
aVhis
p1815
aVstaff
p1816
aV,
aVwhich
p1817
aVbore
p1818
aVthe
p1819
aVlikeness
p1820
aVof
p1821
aVa
aVgreat
p1822
aVblack
p1823
aVsnake
p1824
aV,
aVso
p1825
aVcuriously
p1826
aVwrought
p1827
aVthat
p1828
aVit
p1829
aVmight
p1830
aValmost
p1831
aVbe
p1832
aVseen
p1833
aVto
p1834
aVtwist
p1835
aVand
p1836
aVwriggle
p1837
aVitself
p1838
aVlike
p1839
aVa
aVliving
p1840
aVserpent
p1841
aV.
aa(lp1842
Vthis
p1843
aV,
aVof
p1844
aVcourse
p1845
aV,
aVmust
p1846
aVhave
p1847
aVbeen
p1848
aVan
p1849
aVocular
p1850
aVdeception
p1851
aV,
aVassisted
p1852
aVby
p1853
aVthe
p1854
aVuncertain
p1855
aVlight
p1856
aV.
aa(lp1857
V``
p1858
aVcome
p1859
aV,
aVgoodman
p1860
aVbrown
p1861
aV,
aV''
p1862
aVcried
p1863
aVhis
p1864
aVfellow-traveller
p1865
aV,
aV``
p1866
aVthis
p1867
aVis
p1868
aVa
aVdull
p1869
aVpace
p1870
aVfor
p1871
aVthe
p1872
aVbeginning
p1873
aVof
p1874
aVa
aVjourney
p1875
aV.
aa(lp1876
Vtake
p1877
aVmy
p1878
aVstaff
p1879
aV,
aVif
p1880
aVyou
p1881
aVare
p1882
aVso
p1883
aVsoon
p1884
aVweary
p1885
aV.
aV''
p1886
aa(lp1887
V``
p1888
aVfriend
p1889
aV,
aV''
p1890
aVsaid
p1891
aVthe
p1892
aVother
p1893
aV,
aVexchanging
p1894
aVhis
p1895
aVslow
p1896
aVpace
p1897
aVfor
p1898
aVa
aVfull
p1899
aVstop
p1900
aV,
aV''
p1901
aVhaving
p1902
aVkept
p1903
aVcovenant
p1904
aVby
p1905
aVmeeting
p1906
aVthee
p1907
aVhere
p1908
aV,
aVit
p1909
aVis
p1910
aVmy
p1911
aVpurpose
p1912
aVnow
p1913
aVto
p1914
aVreturn
p1915
aVwhence
p1916
aVi
aVcame
p1917
aV.
aa(lp1918
Vi
aVhave
p1919
aVscruples
p1920
aVtouching
p1921
aVthe
p1922
aVmatter
p1923
aVthou
p1924
aVwot'st
p1925
aVof
p1926
aV.
aV''
p1927
aa(lp1928
V``
p1929
aVsayest
p1930
aVthou
p1931
aVso
p1932
aV?
aV''
p1933
aa(lp1934
Vreplied
p1935
aVhe
p1936
aVof
p1937
aVthe
p1938
aVserpent
p1939
aV,
aVsmiling
p1940
aVapart
p1941
aV.
aa(lp1942
V``
p1943
aVlet
p1944
aVus
p1945
aVwalk
p1946
aVon
p1947
aV,
aVnevertheless
p1948
aV,
aVreasoning
p1949
aVas
p1950
aVwe
p1951
aVgo
p1952
aV;
aVand
p1953
aVif
p1954
aVi
aVconvince
p1955
aVthee
p1956
aVnot
p1957
aVthou
p1958
aVshalt
p1959
aVturn
p1960
aVback
p1961
aV.
aa(lp1962
Vwe
p1963
aVare
p1964
aVbut
p1965
aVa
aVlittle
p1966
aVway
p1967
aVin
p1968
aVthe
p1969
aVforest
p1970
aVyet
p1971
aV.
aV''
p1972
aa(lp1973
V``
p1974
aVtoo
p1975
aVfar
p1976
aV!
aa(lp1977
Vtoo
p1978
aVfar
p1979
aV!
aV''
p1980
aa(lp1981
Vexclaimed
p1982
aVthe
p1983
aVgoodman
p1984
aV,
aVunconsciously
p1985
aVresuming
p1986
aVhis
p1987
aVwalk
p1988
aV.
aa(lp1989
V``
p1990
aVmy
p1991
aVfather
p1992
aVnever
p1993
aVwent
p1994
aVinto
p1995
aVthe
p1996
aVwoods
p1997
aVon
p1998
aVsuch
p1999
aVan
p2000
aVerrand
p2001
aV,
aVnor
p2002
aVhis
p2003
aVfather
p2004
aVbefore
p2005
aVhim
p2006
aV.
aa(lp2007
Vwe
p2008
aVhave
p2009
aVbeen
p2010
aVa
aVrace
p2011
aVof
p2012
aVhonest
p2013
aVmen
p2014
aVand
p2015
aVgood
p2016
aVchristians
p2017
aVsince
p2018
aVthe
p2019
aVdays
p2020
aVof
p2021
aVthe
p2022
aVmartyrs
p2023
aV;
aVand
p2024
aVshall
p2025
aVi
aVbe
p2026
aVthe
p2027
aVfirst
p2028
aVof
p2029
aVthe
p2030
aVname
p2031
aVof
p2032
aVbrown
p2033
aVthat
p2034
aVever
p2035
aVtook
p2036
aVthis
p2037
aVpath
p2038
aVand
p2039
aVkept
p2040
aV--
p2041
aV''
p2042
aV''
p2043
aVsuch
p2044
aVcompany
p2045
aV,
aVthou
p2046
aVwouldst
p2047
aVsay
p2048
aV,
aV''
p2049
aVobserved
p2050
aVthe
p2051
aVelder
p2052
aVperson
p2053
aV,
aVinterpreting
p2054
aVhis
p2055
aVpause
p2056
aV.
aa(lp2057
V``
p2058
aVwell
p2059
aVsaid
p2060
aV,
aVgoodman
p2061
aVbrown
p2062
aV!
aa(lp2063
Vi
aVhave
p2064
aVbeen
p2065
aVas
p2066
aVwell
p2067
aVacquainted
p2068
aVwith
p2069
aVyour
p2070
aVfamily
p2071
aVas
p2072
aVwith
p2073
aVever
p2074
aVa
aVone
p2075
aVamong
p2076
aVthe
p2077
aVpuritans
p2078
aV;
aVand
p2079
aVthat
p2080
aV's
p2081
aVno
p2082
aVtrifle
p2083
aVto
p2084
aVsay
p2085
aV.
aa(lp2086
Vi
aVhelped
p2087
aVyour
p2088
aVgrandfather
p2089
aV,
aVthe
p2090
aVconstable
p2091
aV,
aVwhen
p2092
aVhe
p2093
aVlashed
p2094
aVthe
p2095
aVquaker
p2096
aVwoman
p2097
aVso
p2098
aVsmartly
p2099
aVthrough
p2100
aVthe
p2101
aVstreets
p2102
aVof
p2103
aVsalem
p2104
aV;
aVand
p2105
aVit
p2106
aVwas
p2107
aVi
aVthat
p2108
aVbrought
p2109
aVyour
p2110
aVfather
p2111
aVa
aVpitch-pine
p2112
aVknot
p2113
aV,
aVkindled
p2114
aVat
p2115
aVmy
p2116
aVown
p2117
aVhearth
p2118
aV,
aVto
p2119
aVset
p2120
aVfire
p2121
aVto
p2122
aVan
p2123
aVindian
p2124
aVvillage
p2125
aV,
aVin
p2126
aVking
p2127
aVphilip
p2128
aV's
p2129
aVwar
p2130
aV.
aa(lp2131
Vthey
p2132
aVwere
p2133
aVmy
p2134
aVgood
p2135
aVfriends
p2136
aV,
aVboth
p2137
aV;
aVand
p2138
aVmany
p2139
aVa
aVpleasant
p2140
aVwalk
p2141
aVhave
p2142
aVwe
p2143
aVhad
p2144
aValong
p2145
aVthis
p2146
aVpath
p2147
aV,
aVand
p2148
aVreturned
p2149
aVmerrily
p2150
aVafter
p2151
aVmidnight
p2152
aV.
aa(lp2153
Vi
aVwould
p2154
aVfain
p2155
aVbe
p2156
aVfriends
p2157
aVwith
p2158
aVyou
p2159
aVfor
p2160
aVtheir
p2161
aVsake
p2162
aV.
aV''
p2163
aa(lp2164
V``
p2165
aVif
p2166
aVit
p2167
aVbe
p2168
aVas
p2169
aVthou
p2170
aVsayest
p2171
aV,
aV''
p2172
aVreplied
p2173
aVgoodman
p2174
aVbrown
p2175
aV,
aV``
p2176
aVi
aVmarvel
p2177
aVthey
p2178
aVnever
p2179
aVspoke
p2180
aVof
p2181
aVthese
p2182
aVmatters
p2183
aV;
aVor
p2184
aV,
aVverily
p2185
aV,
aVi
aVmarvel
p2186
aVnot
p2187
aV,
aVseeing
p2188
aVthat
p2189
aVthe
p2190
aVleast
p2191
aVrumor
p2192
aVof
p2193
aVthe
p2194
aVsort
p2195
aVwould
p2196
aVhave
p2197
aVdriven
p2198
aVthem
p2199
aVfrom
p2200
aVnew
p2201
aVengland
p2202
aV.
aa(lp2203
Vwe
p2204
aVare
p2205
aVa
aVpeople
p2206
aVof
p2207
aVprayer
p2208
aV,
aVand
p2209
aVgood
p2210
aVworks
p2211
aVto
p2212
aVboot
p2213
aV,
aVand
p2214
aVabide
p2215
aVno
p2216
aVsuch
p2217
aVwickedness
p2218
aV.
aV''
p2219
aa(lp2220
V``
p2221
aVwickedness
p2222
aVor
p2223
aVnot
p2224
aV,
aV''
p2225
aVsaid
p2226
aVthe
p2227
aVtraveller
p2228
aVwith
p2229
aVthe
p2230
aVtwisted
p2231
aVstaff
p2232
aV,
aV``
p2233
aVi
aVhave
p2234
aVa
aVvery
p2235
aVgeneral
p2236
aVacquaintance
p2237
aVhere
p2238
aVin
p2239
aVnew
p2240
aVengland
p2241
aV.
aa(lp2242
Vthe
p2243
aVdeacons
p2244
aVof
p2245
aVmany
p2246
aVa
aVchurch
p2247
aVhave
p2248
aVdrunk
p2249
aVthe
p2250
aVcommunion
p2251
aVwine
p2252
aVwith
p2253
aVme
p2254
aV;
aVthe
p2255
aVselectmen
p2256
aVof
p2257
aVdivers
p2258
aVtowns
p2259
aVmake
p2260
aVme
p2261
aVtheir
p2262
aVchairman
p2263
aV;
aVand
p2264
aVa
aVmajority
p2265
aVof
p2266
aVthe
p2267
aVgreat
p2268
aVand
p2269
aVgeneral
p2270
aVcourt
p2271
aVare
p2272
aVfirm
p2273
aVsupporters
p2274
aVof
p2275
aVmy
p2276
aVinterest
p2277
aV.
aa(lp2278
Vthe
p2279
aVgovernor
p2280
aVand
p2281
aVi
aV,
aVtoo
p2282
aV--
p2283
aVbut
p2284
aVthese
p2285
aVare
p2286
aVstate
p2287
aVsecrets
p2288
aV.
aV''
p2289
aa(lp2290
V``
p2291
aVcan
p2292
aVthis
p2293
aVbe
p2294
aVso
p2295
aV?
aV''
p2296
aa(lp2297
Vcried
p2298
aVgoodman
p2299
aVbrown
p2300
aV,
aVwith
p2301
aVa
aVstare
p2302
aVof
p2303
aVamazement
p2304
aVat
p2305
aVhis
p2306
aVundisturbed
p2307
aVcompanion
p2308
aV.
aa(lp2309
V``
p2310
aVhowbeit
p2311
aV,
aVi
aVhave
p2312
aVnothing
p2313
aVto
p2314
aVdo
p2315
aVwith
p2316
aVthe
p2317
aVgovernor
p2318
aVand
p2319
aVcouncil
p2320
aV;
aVthey
p2321
aVhave
p2322
aVtheir
p2323
aVown
p2324
aVways
p2325
aV,
aVand
p2326
aVare
p2327
aVno
p2328
aVrule
p2329
aVfor
p2330
aVa
aVsimple
p2331
aVhusbandman
p2332
aVlike
p2333
aVme
p2334
aV.
aa(lp2335
Vbut
p2336
aV,
aVwere
p2337
aVi
aVto
p2338
aVgo
p2339
aVon
p2340
aVwith
p2341
aVthee
p2342
aV,
aVhow
p2343
aVshould
p2344
aVi
aVmeet
p2345
aVthe
p2346
aVeye
p2347
aVof
p2348
aVthat
p2349
aVgood
p2350
aVold
p2351
aVman
p2352
aV,
aVour
p2353
aVminister
p2354
aV,
aVat
p2355
aVsalem
p2356
aVvillage
p2357
aV?
aa(lp2358
Voh
p2359
aV,
aVhis
p2360
aVvoice
p2361
aVwould
p2362
aVmake
p2363
aVme
p2364
aVtremble
p2365
aVboth
p2366
aVsabbath
p2367
aVday
p2368
aVand
p2369
aVlecture
p2370
aVday
p2371
aV.
aV''
p2372
aa(lp2373
Vthus
p2374
aVfar
p2375
aVthe
p2376
aVelder
p2377
aVtraveller
p2378
aVhad
p2379
aVlistened
p2380
aVwith
p2381
aVdue
p2382
aVgravity
p2383
aV;
aVbut
p2384
aVnow
p2385
aVburst
p2386
aVinto
p2387
aVa
aVfit
p2388
aVof
p2389
aVirrepressible
p2390
aVmirth
p2391
aV,
aVshaking
p2392
aVhimself
p2393
aVso
p2394
aVviolently
p2395
aVthat
p2396
aVhis
p2397
aVsnake-like
p2398
aVstaff
p2399
aVactually
p2400
aVseemed
p2401
aVto
p2402
aVwriggle
p2403
aVin
p2404
aVsympathy
p2405
aV.
aa(lp2406
V``
p2407
aVha
p2408
aV!
aa(lp2409
Vha
p2410
aV!
aa(lp2411
Vha
p2412
aV!
aV''
p2413
aa(lp2414
Vshouted
p2415
aVhe
p2416
aVagain
p2417
aVand
p2418
aVagain
p2419
aV;
aVthen
p2420
aVcomposing
p2421
aVhimself
p2422
aV,
aV''
p2423
aVwell
p2424
aV,
aVgo
p2425
aVon
p2426
aV,
aVgoodman
p2427
aVbrown
p2428
aV,
aVgo
p2429
aVon
p2430
aV;
aVbut
p2431
aV,
aVprithee
p2432
aV,
aVdo
p2433
aVn't
p2434
aVkill
p2435
aVme
p2436
aVwith
p2437
aVlaughing
p2438
aV.
aV''
p2439
aa(lp2440
V``
p2441
aVwell
p2442
aV,
aVthen
p2443
aV,
aVto
p2444
aVend
p2445
aVthe
p2446
aVmatter
p2447
aVat
p2448
aVonce
p2449
aV,
aV''
p2450
aVsaid
p2451
aVgoodman
p2452
aVbrown
p2453
aV,
aVconsiderably
p2454
aVnettled
p2455
aV,
aV``
p2456
aVthere
p2457
aVis
p2458
aVmy
p2459
aVwife
p2460
aV,
aVfaith
p2461
aV.
aa(lp2462
Vit
p2463
aVwould
p2464
aVbreak
p2465
aVher
p2466
aVdear
p2467
aVlittle
p2468
aVheart
p2469
aV;
aVand
p2470
aVi
aV'd
p2471
aVrather
p2472
aVbreak
p2473
aVmy
p2474
aVown
p2475
aV.
aV''
p2476
aa(lp2477
V``
p2478
aVnay
p2479
aV,
aVif
p2480
aVthat
p2481
aVbe
p2482
aVthe
p2483
aVcase
p2484
aV,
aV''
p2485
aVanswered
p2486
aVthe
p2487
aVother
p2488
aV,
aV``
p2489
aVe'en
p2490
aVgo
p2491
aVthy
p2492
aVways
p2493
aV,
aVgoodman
p2494
aVbrown
p2495
aV.
aa(lp2496
Vi
aVwould
p2497
aVnot
p2498
aVfor
p2499
aVtwenty
p2500
aVold
p2501
aVwomen
p2502
aVlike
p2503
aVthe
p2504
aVone
p2505
aVhobbling
p2506
aVbefore
p2507
aVus
p2508
aVthat
p2509
aVfaith
p2510
aVshould
p2511
aVcome
p2512
aVto
p2513
aVany
p2514
aVharm
p2515
aV.
aV''
p2516
aa(lp2517
Vas
p2518
aVhe
p2519
aVspoke
p2520
aVhe
p2521
aVpointed
p2522
aVhis
p2523
aVstaff
p2524
aVat
p2525
aVa
aVfemale
p2526
aVfigure
p2527
aVon
p2528
aVthe
p2529
aVpath
p2530
aV,
aVin
p2531
aVwhom
p2532
aVgoodman
p2533
aVbrown
p2534
aVrecognized
p2535
aVa
aVvery
p2536
aVpious
p2537
aVand
p2538
aVexemplary
p2539
aVdame
p2540
aV,
aVwho
p2541
aVhad
p2542
aVtaught
p2543
aVhim
p2544
aVhis
p2545
aVcatechism
p2546
aVin
p2547
aVyouth
p2548
aV,
aVand
p2549
aVwas
p2550
aVstill
p2551
aVhis
p2552
aVmoral
p2553
aVand
p2554
aVspiritual
p2555
aVadviser
p2556
aV,
aVjointly
p2557
aVwith
p2558
aVthe
p2559
aVminister
p2560
aVand
p2561
aVdeacon
p2562
aVgookin
p2563
aV.
aa(lp2564
V``
p2565
aVa
aVmarvel
p2566
aV,
aVtruly
p2567
aV,
aVthat
p2568
aVgoody
p2569
aVcloyse
p2570
aVshould
p2571
aVbe
p2572
aVso
p2573
aVfar
p2574
aVin
p2575
aVthe
p2576
aVwilderness
p2577
aVat
p2578
aVnightfall
p2579
aV,
aV''
p2580
aVsaid
p2581
aVhe
p2582
aV.
aa(lp2583
V``
p2584
aVbut
p2585
aVwith
p2586
aVyour
p2587
aVleave
p2588
aV,
aVfriend
p2589
aV,
aVi
aVshall
p2590
aVtake
p2591
aVa
aVcut
p2592
aVthrough
p2593
aVthe
p2594
aVwoods
p2595
aVuntil
p2596
aVwe
p2597
aVhave
p2598
aVleft
p2599
aVthis
p2600
aVchristian
p2601
aVwoman
p2602
aVbehind
p2603
aV.
aa(lp2604
Vbeing
p2605
aVa
aVstranger
p2606
aVto
p2607
aVyou
p2608
aV,
aVshe
p2609
aVmight
p2610
aVask
p2611
aVwhom
p2612
aVi
aVwas
p2613
aVconsorting
p2614
aVwith
p2615
aVand
p2616
aVwhither
p2617
aVi
aVwas
p2618
aVgoing
p2619
aV.
aV''
p2620
aa(lp2621
V``
p2622
aVbe
p2623
aVit
p2624
aVso
p2625
aV,
aV''
p2626
aVsaid
p2627
aVhis
p2628
aVfellow-traveller
p2629
aV.
aa(lp2630
V``
p2631
aVbetake
p2632
aVyou
p2633
aVto
p2634
aVthe
p2635
aVwoods
p2636
aV,
aVand
p2637
aVlet
p2638
aVme
p2639
aVkeep
p2640
aVthe
p2641
aVpath
p2642
aV.
aV''
p2643
aa(lp2644
Vaccordingly
p2645
aVthe
p2646
aVyoung
p2647
aVman
p2648
aVturned
p2649
aVaside
p2650
aV,
aVbut
p2651
aVtook
p2652
aVcare
p2653
aVto
p2654
aVwatch
p2655
aVhis
p2656
aVcompanion
p2657
aV,
aVwho
p2658
aVadvanced
p2659
aVsoftly
p2660
aValong
p2661
aVthe
p2662
aVroad
p2663
aVuntil
p2664
aVhe
p2665
aVhad
p2666
aVcome
p2667
aVwithin
p2668
aVa
aVstaff
p2669
aV's
p2670
aVlength
p2671
aVof
p2672
aVthe
p2673
aVold
p2674
aVdame
p2675
aV.
aa(lp2676
Vshe
p2677
aV,
aVmeanwhile
p2678
aV,
aVwas
p2679
aVmaking
p2680
aVthe
p2681
aVbest
p2682
aVof
p2683
aVher
p2684
aVway
p2685
aV,
aVwith
p2686
aVsingular
p2687
aVspeed
p2688
aVfor
p2689
aVso
p2690
aVaged
p2691
aVa
aVwoman
p2692
aV,
aVand
p2693
aVmumbling
p2694
aVsome
p2695
aVindistinct
p2696
aVwords
p2697
aV--
p2698
aVa
aVprayer
p2699
aV,
aVdoubtless
p2700
aV--
p2701
aVas
p2702
aVshe
p2703
aVwent
p2704
aV.
aa(lp2705
Vthe
p2706
aVtraveller
p2707
aVput
p2708
aVforth
p2709
aVhis
p2710
aVstaff
p2711
aVand
p2712
aVtouched
p2713
aVher
p2714
aVwithered
p2715
aVneck
p2716
aVwith
p2717
aVwhat
p2718
aVseemed
p2719
aVthe
p2720
aVserpent
p2721
aV's
p2722
aVtail
p2723
aV.
aa(lp2724
V``
p2725
aVthe
p2726
aVdevil
p2727
aV!
aV''
p2728
aa(lp2729
Vscreamed
p2730
aVthe
p2731
aVpious
p2732
aVold
p2733
aVlady
p2734
aV.
aa(lp2735
V``
p2736
aVthen
p2737
aVgoody
p2738
aVcloyse
p2739
aVknows
p2740
aVher
p2741
aVold
p2742
aVfriend
p2743
aV?
aV''
p2744
aa(lp2745
Vobserved
p2746
aVthe
p2747
aVtraveller
p2748
aV,
aVconfronting
p2749
aVher
p2750
aVand
p2751
aVleaning
p2752
aVon
p2753
aVhis
p2754
aVwrithing
p2755
aVstick
p2756
aV.
aa(lp2757
V``
p2758
aVah
p2759
aV,
aVforsooth
p2760
aV,
aVand
p2761
aVis
p2762
aVit
p2763
aVyour
p2764
aVworship
p2765
aVindeed
p2766
aV?
aV''
p2767
aa(lp2768
Vcried
p2769
aVthe
p2770
aVgood
p2771
aVdame
p2772
aV.
aa(lp2773
V``
p2774
aVyea
p2775
aV,
aVtruly
p2776
aVis
p2777
aVit
p2778
aV,
aVand
p2779
aVin
p2780
aVthe
p2781
aVvery
p2782
aVimage
p2783
aVof
p2784
aVmy
p2785
aVold
p2786
aVgossip
p2787
aV,
aVgoodman
p2788
aVbrown
p2789
aV,
aVthe
p2790
aVgrandfather
p2791
aVof
p2792
aVthe
p2793
aVsilly
p2794
aVfellow
p2795
aVthat
p2796
aVnow
p2797
aVis
p2798
aV.
aa(lp2799
Vbut
p2800
aV--
p2801
aVwould
p2802
aVyour
p2803
aVworship
p2804
aVbelieve
p2805
aVit
p2806
aV?
aV--
p2807
aVmy
p2808
aVbroomstick
p2809
aVhath
p2810
aVstrangely
p2811
aVdisappeared
p2812
aV,
aVstolen
p2813
aV,
aVas
p2814
aVi
aVsuspect
p2815
aV,
aVby
p2816
aVthat
p2817
aVunhanged
p2818
aVwitch
p2819
aV,
aVgoody
p2820
aVcory
p2821
aV,
aVand
p2822
aVthat
p2823
aV,
aVtoo
p2824
aV,
aVwhen
p2825
aVi
aVwas
p2826
aVall
p2827
aVanointed
p2828
aVwith
p2829
aVthe
p2830
aVjuice
p2831
aVof
p2832
aVsmallage
p2833
aV,
aVand
p2834
aVcinquefoil
p2835
aV,
aVand
p2836
aVwolf's
p2837
aVbane
p2838
aV.
aV''
p2839
aa(lp2840
V``
p2841
aVmingled
p2842
aVwith
p2843
aVfine
p2844
aVwheat
p2845
aVand
p2846
aVthe
p2847
aVfat
p2848
aVof
p2849
aVa
aVnew-born
p2850
aVbabe
p2851
aV,
aV''
p2852
aVsaid
p2853
aVthe
p2854
aVshape
p2855
aVof
p2856
aVold
p2857
aVgoodman
p2858
aVbrown
p2859
aV.
aa(lp2860
V``
p2861
aVah
p2862
aV,
aVyour
p2863
aVworship
p2864
aVknows
p2865
aVthe
p2866
aVrecipe
p2867
aV,
aV''
p2868
aVcried
p2869
aVthe
p2870
aVold
p2871
aVlady
p2872
aV,
aVcackling
p2873
aValoud
p2874
aV.
aa(lp2875
V``
p2876
aVso
p2877
aV,
aVas
p2878
aVi
aVwas
p2879
aVsaying
p2880
aV,
aVbeing
p2881
aVall
p2882
aVready
p2883
aVfor
p2884
aVthe
p2885
aVmeeting
p2886
aV,
aVand
p2887
aVno
p2888
aVhorse
p2889
aVto
p2890
aVride
p2891
aVon
p2892
aV,
aVi
aVmade
p2893
aVup
p2894
aVmy
p2895
aVmind
p2896
aVto
p2897
aVfoot
p2898
aVit
p2899
aV;
aVfor
p2900
aVthey
p2901
aVtell
p2902
aVme
p2903
aVthere
p2904
aVis
p2905
aVa
aVnice
p2906
aVyoung
p2907
aVman
p2908
aVto
p2909
aVbe
p2910
aVtaken
p2911
aVinto
p2912
aVcommunion
p2913
aVto-night
p2914
aV.
aa(lp2915
Vbut
p2916
aVnow
p2917
aVyour
p2918
aVgood
p2919
aVworship
p2920
aVwill
p2921
aVlend
p2922
aVme
p2923
aVyour
p2924
aVarm
p2925
aV,
aVand
p2926
aVwe
p2927
aVshall
p2928
aVbe
p2929
aVthere
p2930
aVin
p2931
aVa
aVtwinkling
p2932
aV.
aV''
p2933
aa(lp2934
V``
p2935
aVthat
p2936
aVcan
p2937
aVhardly
p2938
aVbe
p2939
aV,
aV''
p2940
aVanswered
p2941
aVher
p2942
aVfriend
p2943
aV.
aa(lp2944
V``
p2945
aVi
aVmay
p2946
aVnot
p2947
aVspare
p2948
aVyou
p2949
aVmy
p2950
aVarm
p2951
aV,
aVgoody
p2952
aVcloyse
p2953
aV;
aVbut
p2954
aVhere
p2955
aVis
p2956
aVmy
p2957
aVstaff
p2958
aV,
aVif
p2959
aVyou
p2960
aVwill
p2961
aV.
aV''
p2962
aa(lp2963
Vso
p2964
aVsaying
p2965
aV,
aVhe
p2966
aVthrew
p2967
aVit
p2968
aVdown
p2969
aVat
p2970
aVher
p2971
aVfeet
p2972
aV,
aVwhere
p2973
aV,
aVperhaps
p2974
aV,
aVit
p2975
aVassumed
p2976
aVlife
p2977
aV,
aVbeing
p2978
aVone
p2979
aVof
p2980
aVthe
p2981
aVrods
p2982
aVwhich
p2983
aVits
p2984
aVowner
p2985
aVhad
p2986
aVformerly
p2987
aVlent
p2988
aVto
p2989
aVthe
p2990
aVegyptian
p2991
aVmagi
p2992
aV.
aa(lp2993
Vof
p2994
aVthis
p2995
aVfact
p2996
aV,
aVhowever
p2997
aV,
aVgoodman
p2998
aVbrown
p2999
aVcould
p3000
aVnot
p3001
aVtake
p3002
aVcognizance
p3003
aV.
aa(lp3004
Vhe
p3005
aVhad
p3006
aVcast
p3007
aVup
p3008
aVhis
p3009
aVeyes
p3010
aVin
p3011
aVastonishment
p3012
aV,
aVand
p3013
aV,
aVlooking
p3014
aVdown
p3015
aVagain
p3016
aV,
aVbeheld
p3017
aVneither
p3018
aVgoody
p3019
aVcloyse
p3020
aVnor
p3021
aVthe
p3022
aVserpentine
p3023
aVstaff
p3024
aV,
aVbut
p3025
aVhis
p3026
aVfellow-traveller
p3027
aValone
p3028
aV,
aVwho
p3029
aVwaited
p3030
aVfor
p3031
aVhim
p3032
aVas
p3033
aVcalmly
p3034
aVas
p3035
aVif
p3036
aVnothing
p3037
aVhad
p3038
aVhappened
p3039
aV.
aa(lp3040
V``
p3041
aVthat
p3042
aVold
p3043
aVwoman
p3044
aVtaught
p3045
aVme
p3046
aVmy
p3047
aVcatechism
p3048
aV,
aV''
p3049
aVsaid
p3050
aVthe
p3051
aVyoung
p3052
aVman
p3053
aV;
aVand
p3054
aVthere
p3055
aVwas
p3056
aVa
aVworld
p3057
aVof
p3058
aVmeaning
p3059
aVin
p3060
aVthis
p3061
aVsimple
p3062
aVcomment
p3063
aV.
aa(lp3064
Vthey
p3065
aVcontinued
p3066
aVto
p3067
aVwalk
p3068
aVonward
p3069
aV,
aVwhile
p3070
aVthe
p3071
aVelder
p3072
aVtraveller
p3073
aVexhorted
p3074
aVhis
p3075
aVcompanion
p3076
aVto
p3077
aVmake
p3078
aVgood
p3079
aVspeed
p3080
aVand
p3081
aVpersevere
p3082
aVin
p3083
aVthe
p3084
aVpath
p3085
aV,
aVdiscoursing
p3086
aVso
p3087
aVaptly
p3088
aVthat
p3089
aVhis
p3090
aVarguments
p3091
aVseemed
p3092
aVrather
p3093
aVto
p3094
aVspring
p3095
aVup
p3096
aVin
p3097
aVthe
p3098
aVbosom
p3099
aVof
p3100
aVhis
p3101
aVauditor
p3102
aVthan
p3103
aVto
p3104
aVbe
p3105
aVsuggested
p3106
aVby
p3107
aVhimself
p3108
aV.
aa(lp3109
Vas
p3110
aVthey
p3111
aVwent
p3112
aV,
aVhe
p3113
aVplucked
p3114
aVa
aVbranch
p3115
aVof
p3116
aVmaple
p3117
aVto
p3118
aVserve
p3119
aVfor
p3120
aVa
aVwalking
p3121
aVstick
p3122
aV,
aVand
p3123
aVbegan
p3124
aVto
p3125
aVstrip
p3126
aVit
p3127
aVof
p3128
aVthe
p3129
aVtwigs
p3130
aVand
p3131
aVlittle
p3132
aVboughs
p3133
aV,
aVwhich
p3134
aVwere
p3135
aVwet
p3136
aVwith
p3137
aVevening
p3138
aVdew
p3139
aV.
aa(lp3140
Vthe
p3141
aVmoment
p3142
aVhis
p3143
aVfingers
p3144
aVtouched
p3145
aVthem
p3146
aVthey
p3147
aVbecame
p3148
aVstrangely
p3149
aVwithered
p3150
aVand
p3151
aVdried
p3152
aVup
p3153
aVas
p3154
aVwith
p3155
aVa
aVweek
p3156
aV's
p3157
aVsunshine
p3158
aV.
aa(lp3159
Vthus
p3160
aVthe
p3161
aVpair
p3162
aVproceeded
p3163
aV,
aVat
p3164
aVa
aVgood
p3165
aVfree
p3166
aVpace
p3167
aV,
aVuntil
p3168
aVsuddenly
p3169
aV,
aVin
p3170
aVa
aVgloomy
p3171
aVhollow
p3172
aVof
p3173
aVthe
p3174
aVroad
p3175
aV,
aVgoodman
p3176
aVbrown
p3177
aVsat
p3178
aVhimself
p3179
aVdown
p3180
aVon
p3181
aVthe
p3182
aVstump
p3183
aVof
p3184
aVa
aVtree
p3185
aVand
p3186
aVrefused
p3187
aVto
p3188
aVgo
p3189
aVany
p3190
aVfarther
p3191
aV.
aa(lp3192
V``
p3193
aVfriend
p3194
aV,
aV''
p3195
aVsaid
p3196
aVhe
p3197
aV,
aVstubbornly
p3198
aV,
aV``
p3199
aVmy
p3200
aVmind
p3201
aVis
p3202
aVmade
p3203
aVup
p3204
aV.
aa(lp3205
Vnot
p3206
aVanother
p3207
aVstep
p3208
aVwill
p3209
aVi
aVbudge
p3210
aVon
p3211
aVthis
p3212
aVerrand
p3213
aV.
aa(lp3214
Vwhat
p3215
aVif
p3216
aVa
aVwretched
p3217
aVold
p3218
aVwoman
p3219
aVdo
p3220
aVchoose
p3221
aVto
p3222
aVgo
p3223
aVto
p3224
aVthe
p3225
aVdevil
p3226
aVwhen
p3227
aVi
aVthought
p3228
aVshe
p3229
aVwas
p3230
aVgoing
p3231
aVto
p3232
aVheaven
p3233
aV:
aVis
p3234
aVthat
p3235
aVany
p3236
aVreason
p3237
aVwhy
p3238
aVi
aVshould
p3239
aVquit
p3240
aVmy
p3241
aVdear
p3242
aVfaith
p3243
aVand
p3244
aVgo
p3245
aVafter
p3246
aVher
p3247
aV?
aV''
p3248
aa(lp3249
V``
p3250
aVyou
p3251
aVwill
p3252
aVthink
p3253
aVbetter
p3254
aVof
p3255
aVthis
p3256
aVby
p3257
aVand
p3258
aVby
p3259
aV,
aV''
p3260
aVsaid
p3261
aVhis
p3262
aVacquaintance
p3263
aV,
aVcomposedly
p3264
aV.
aa(lp3265
V``
p3266
aVsit
p3267
aVhere
p3268
aVand
p3269
aVrest
p3270
aVyourself
p3271
aVa
aVwhile
p3272
aV;
aVand
p3273
aVwhen
p3274
aVyou
p3275
aVfeel
p3276
aVlike
p3277
aVmoving
p3278
aVagain
p3279
aV,
aVthere
p3280
aVis
p3281
aVmy
p3282
aVstaff
p3283
aVto
p3284
aVhelp
p3285
aVyou
p3286
aValong
p3287
aV.
aV''
p3288
aa(lp3289
Vwithout
p3290
aVmore
p3291
aVwords
p3292
aV,
aVhe
p3293
aVthrew
p3294
aVhis
p3295
aVcompanion
p3296
aVthe
p3297
aVmaple
p3298
aVstick
p3299
aV,
aVand
p3300
aVwas
p3301
aVas
p3302
aVspeedily
p3303
aVout
p3304
aVof
p3305
aVsight
p3306
aVas
p3307
aVif
p3308
aVhe
p3309
aVhad
p3310
aVvanished
p3311
aVinto
p3312
aVthe
p3313
aVdeepening
p3314
aVgloom
p3315
aV.
aa(lp3316
Vthe
p3317
aVyoung
p3318
aVman
p3319
aVsat
p3320
aVa
aVfew
p3321
aVmoments
p3322
aVby
p3323
aVthe
p3324
aVroadside
p3325
aV,
aVapplauding
p3326
aVhimself
p3327
aVgreatly
p3328
aV,
aVand
p3329
aVthinking
p3330
aVwith
p3331
aVhow
p3332
aVclear
p3333
aVa
aVconscience
p3334
aVhe
p3335
aVshould
p3336
aVmeet
p3337
aVthe
p3338
aVminister
p3339
aVin
p3340
aVhis
p3341
aVmorning
p3342
aVwalk
p3343
aV,
aVnor
p3344
aVshrink
p3345
aVfrom
p3346
aVthe
p3347
aVeye
p3348
aVof
p3349
aVgood
p3350
aVold
p3351
aVdeacon
p3352
aVgookin
p3353
aV.
aa(lp3354
Vand
p3355
aVwhat
p3356
aVcalm
p3357
aVsleep
p3358
aVwould
p3359
aVbe
p3360
aVhis
p3361
aVthat
p3362
aVvery
p3363
aVnight
p3364
aV,
aVwhich
p3365
aVwas
p3366
aVto
p3367
aVhave
p3368
aVbeen
p3369
aVspent
p3370
aVso
p3371
aVwickedly
p3372
aV,
aVbut
p3373
aVso
p3374
aVpurely
p3375
aVand
p3376
aVsweetly
p3377
aVnow
p3378
aV,
aVin
p3379
aVthe
p3380
aVarms
p3381
aVof
p3382
aVfaith
p3383
aV!
aa(lp3384
Vamidst
p3385
aVthese
p3386
aVpleasant
p3387
aVand
p3388
aVpraiseworthy
p3389
aVmeditations
p3390
aV,
aVgoodman
p3391
aVbrown
p3392
aVheard
p3393
aVthe
p3394
aVtramp
p3395
aVof
p3396
aVhorses
p3397
aValong
p3398
aVthe
p3399
aVroad
p3400
aV,
aVand
p3401
aVdeemed
p3402
aVit
p3403
aVadvisable
p3404
aVto
p3405
aVconceal
p3406
aVhimself
p3407
aVwithin
p3408
aVthe
p3409
aVverge
p3410
aVof
p3411
aVthe
p3412
aVforest
p3413
aV,
aVconscious
p3414
aVof
p3415
aVthe
p3416
aVguilty
p3417
aVpurpose
p3418
aVthat
p3419
aVhad
p3420
aVbrought
p3421
aVhim
p3422
aVthither
p3423
aV,
aVthough
p3424
aVnow
p3425
aVso
p3426
aVhappily
p3427
aVturned
p3428
aVfrom
p3429
aVit
p3430
aV.
aa(lp3431
Von
p3432
aVcame
p3433
aVthe
p3434
aVhoof
p3435
aVtramps
p3436
aVand
p3437
aVthe
p3438
aVvoices
p3439
aVof
p3440
aVthe
p3441
aVriders
p3442
aV,
aVtwo
p3443
aVgrave
p3444
aVold
p3445
aVvoices
p3446
aV,
aVconversing
p3447
aVsoberly
p3448
aVas
p3449
aVthey
p3450
aVdrew
p3451
aVnear
p3452
aV.
aa(lp3453
Vthese
p3454
aVmingled
p3455
aVsounds
p3456
aVappeared
p3457
aVto
p3458
aVpass
p3459
aValong
p3460
aVthe
p3461
aVroad
p3462
aV,
aVwithin
p3463
aVa
aVfew
p3464
aVyards
p3465
aVof
p3466
aVthe
p3467
aVyoung
p3468
aVman's
p3469
aVhiding-place
p3470
aV;
aVbut
p3471
aV,
aVowing
p3472
aVdoubtless
p3473
aVto
p3474
aVthe
p3475
aVdepth
p3476
aVof
p3477
aVthe
p3478
aVgloom
p3479
aVat
p3480
aVthat
p3481
aVparticular
p3482
aVspot
p3483
aV,
aVneither
p3484
aVthe
p3485
aVtravellers
p3486
aVnor
p3487
aVtheir
p3488
aVsteeds
p3489
aVwere
p3490
aVvisible
p3491
aV.
aa(lp3492
Vthough
p3493
aVtheir
p3494
aVfigures
p3495
aVbrushed
p3496
aVthe
p3497
aVsmall
p3498
aVboughs
p3499
aVby
p3500
aVthe
p3501
aVwayside
p3502
aV,
aVit
p3503
aVcould
p3504
aVnot
p3505
aVbe
p3506
aVseen
p3507
aVthat
p3508
aVthey
p3509
aVintercepted
p3510
aV,
aVeven
p3511
aVfor
p3512
aVa
aVmoment
p3513
aV,
aVthe
p3514
aVfaint
p3515
aVgleam
p3516
aVfrom
p3517
aVthe
p3518
aVstrip
p3519
aVof
p3520
aVbright
p3521
aVsky
p3522
aVathwart
p3523
aVwhich
p3524
aVthey
p3525
aVmust
p3526
aVhave
p3527
aVpassed
p3528
aV.
aa(lp3529
Vgoodman
p3530
aVbrown
p3531
aValternately
p3532
aVcrouched
p3533
aVand
p3534
aVstood
p3535
aVon
p3536
aVtiptoe
p3537
aV,
aVpulling
p3538
aVaside
p3539
aVthe
p3540
aVbranches
p3541
aVand
p3542
aVthrusting
p3543
aVforth
p3544
aVhis
p3545
aVhead
p3546
aVas
p3547
aVfar
p3548
aVas
p3549
aVhe
p3550
aVdurst
p3551
aVwithout
p3552
aVdiscerning
p3553
aVso
p3554
aVmuch
p3555
aVas
p3556
aVa
aVshadow
p3557
aV.
aa(lp3558
Vit
p3559
aVvexed
p3560
aVhim
p3561
aVthe
p3562
aVmore
p3563
aV,
aVbecause
p3564
aVhe
p3565
aVcould
p3566
aVhave
p3567
aVsworn
p3568
aV,
aVwere
p3569
aVsuch
p3570
aVa
aVthing
p3571
aVpossible
p3572
aV,
aVthat
p3573
aVhe
p3574
aVrecognized
p3575
aVthe
p3576
aVvoices
p3577
aVof
p3578
aVthe
p3579
aVminister
p3580
aVand
p3581
aVdeacon
p3582
aVgookin
p3583
aV,
aVjogging
p3584
aValong
p3585
aVquietly
p3586
aV,
aVas
p3587
aVthey
p3588
aVwere
p3589
aVwont
p3590
aVto
p3591
aVdo
p3592
aV,
aVwhen
p3593
aVbound
p3594
aVto
p3595
aVsome
p3596
aVordination
p3597
aVor
p3598
aVecclesiastical
p3599
aVcouncil
p3600
aV.
aa(lp3601
Vwhile
p3602
aVyet
p3603
aVwithin
p3604
aVhearing
p3605
aV,
aVone
p3606
aVof
p3607
aVthe
p3608
aVriders
p3609
aVstopped
p3610
aVto
p3611
aVpluck
p3612
aVa
aVswitch
p3613
aV.
aa(lp3614
V``
p3615
aVof
p3616
aVthe
p3617
aVtwo
p3618
aV,
aVreverend
p3619
aVsir
p3620
aV,
aV''
p3621
aVsaid
p3622
aVthe
p3623
aVvoice
p3624
aVlike
p3625
aVthe
p3626
aVdeacon
p3627
aV's
p3628
aV,
aV``
p3629
aVi
aVhad
p3630
aVrather
p3631
aVmiss
p3632
aVan
p3633
aVordination
p3634
aVdinner
p3635
aVthan
p3636
aVto-night
p3637
aV's
p3638
aVmeeting
p3639
aV.
aa(lp3640
Vthey
p3641
aVtell
p3642
aVme
p3643
aVthat
p3644
aVsome
p3645
aVof
p3646
aVour
p3647
aVcommunity
p3648
aVare
p3649
aVto
p3650
aVbe
p3651
aVhere
p3652
aVfrom
p3653
aVfalmouth
p3654
aVand
p3655
aVbeyond
p3656
aV,
aVand
p3657
aVothers
p3658
aVfrom
p3659
aVconnecticut
p3660
aVand
p3661
aVrhode
p3662
aVisland
p3663
aV,
aVbesides
p3664
aVseveral
p3665
aVof
p3666
aVthe
p3667
aVindian
p3668
aVpowwows
p3669
aV,
aVwho
p3670
aV,
aVafter
p3671
aVtheir
p3672
aVfashion
p3673
aV,
aVknow
p3674
aValmost
p3675
aVas
p3676
aVmuch
p3677
aVdeviltry
p3678
aVas
p3679
aVthe
p3680
aVbest
p3681
aVof
p3682
aVus
p3683
aV.
aa(lp3684
Vmoreover
p3685
aV,
aVthere
p3686
aVis
p3687
aVa
aVgoodly
p3688
aVyoung
p3689
aVwoman
p3690
aVto
p3691
aVbe
p3692
aVtaken
p3693
aVinto
p3694
aVcommunion
p3695
aV.
aV''
p3696
aa(lp3697
V``
p3698
aVmighty
p3699
aVwell
p3700
aV,
aVdeacon
p3701
aVgookin
p3702
aV!
aV''
p3703
aa(lp3704
Vreplied
p3705
aVthe
p3706
aVsolemn
p3707
aVold
p3708
aVtones
p3709
aVof
p3710
aVthe
p3711
aVminister
p3712
aV.
aa(lp3713
V``
p3714
aVspur
p3715
aVup
p3716
aV,
aVor
p3717
aVwe
p3718
aVshall
p3719
aVbe
p3720
aVlate
p3721
aV.
aa(lp3722
Vnothing
p3723
aVcan
p3724
aVbe
p3725
aVdone
p3726
aV,
aVyou
p3727
aVknow
p3728
aV,
aVuntil
p3729
aVi
aVget
p3730
aVon
p3731
aVthe
p3732
aVground
p3733
aV.
aV''
p3734
aa(lp3735
Vthe
p3736
aVhoofs
p3737
aVclattered
p3738
aVagain
p3739
aV;
aVand
p3740
aVthe
p3741
aVvoices
p3742
aV,
aVtalking
p3743
aVso
p3744
aVstrangely
p3745
aVin
p3746
aVthe
p3747
aVempty
p3748
aVair
p3749
aV,
aVpassed
p3750
aVon
p3751
aVthrough
p3752
aVthe
p3753
aVforest
p3754
aV,
aVwhere
p3755
aVno
p3756
aVchurch
p3757
aVhad
p3758
aVever
p3759
aVbeen
p3760
aVgathered
p3761
aVor
p3762
aVsolitary
p3763
aVchristian
p3764
aVprayed
p3765
aV.
aa(lp3766
Vwhither
p3767
aV,
aVthen
p3768
aV,
aVcould
p3769
aVthese
p3770
aVholy
p3771
aVmen
p3772
aVbe
p3773
aVjourneying
p3774
aVso
p3775
aVdeep
p3776
aVinto
p3777
aVthe
p3778
aVheathen
p3779
aVwilderness
p3780
aV?
aa(lp3781
Vyoung
p3782
aVgoodman
p3783
aVbrown
p3784
aVcaught
p3785
aVhold
p3786
aVof
p3787
aVa
aVtree
p3788
aVfor
p3789
aVsupport
p3790
aV,
aVbeing
p3791
aVready
p3792
aVto
p3793
aVsink
p3794
aVdown
p3795
aVon
p3796
aVthe
p3797
aVground
p3798
aV,
aVfaint
p3799
aVand
p3800
aVoverburdened
p3801
aVwith
p3802
aVthe
p3803
aVheavy
p3804
aVsickness
p3805
aVof
p3806
aVhis
p3807
aVheart
p3808
aV.
aa(lp3809
Vhe
p3810
aVlooked
p3811
aVup
p3812
aVto
p3813
aVthe
p3814
aVsky
p3815
aV,
aVdoubting
p3816
aVwhether
p3817
aVthere
p3818
aVreally
p3819
aVwas
p3820
aVa
aVheaven
p3821
aVabove
p3822
aVhim
p3823
aV.
aa(lp3824
Vyet
p3825
aVthere
p3826
aVwas
p3827
aVthe
p3828
aVblue
p3829
aVarch
p3830
aV,
aVand
p3831
aVthe
p3832
aVstars
p3833
aVbrightening
p3834
aVin
p3835
aVit
p3836
aV.
aa(lp3837
V``
p3838
aVwith
p3839
aVheaven
p3840
aVabove
p3841
aVand
p3842
aVfaith
p3843
aVbelow
p3844
aV,
aVi
aVwill
p3845
aVyet
p3846
aVstand
p3847
aVfirm
p3848
aVagainst
p3849
aVthe
p3850
aVdevil
p3851
aV!
aV''
p3852
aa(lp3853
Vcried
p3854
aVgoodman
p3855
aVbrown
p3856
aV.
aa(lp3857
Vwhile
p3858
aVhe
p3859
aVstill
p3860
aVgazed
p3861
aVupward
p3862
aVinto
p3863
aVthe
p3864
aVdeep
p3865
aVarch
p3866
aVof
p3867
aVthe
p3868
aVfirmament
p3869
aVand
p3870
aVhad
p3871
aVlifted
p3872
aVhis
p3873
aVhands
p3874
aVto
p3875
aVpray
p3876
aV,
aVa
aVcloud
p3877
aV,
aVthough
p3878
aVno
p3879
aVwind
p3880
aVwas
p3881
aVstirring
p3882
aV,
aVhurried
p3883
aVacross
p3884
aVthe
p3885
aVzenith
p3886
aVand
p3887
aVhid
p3888
aVthe
p3889
aVbrightening
p3890
aVstars
p3891
aV.
aa(lp3892
Vthe
p3893
aVblue
p3894
aVsky
p3895
aVwas
p3896
aVstill
p3897
aVvisible
p3898
aV,
aVexcept
p3899
aVdirectly
p3900
aVoverhead
p3901
aV,
aVwhere
p3902
aVthis
p3903
aVblack
p3904
aVmass
p3905
aVof
p3906
aVcloud
p3907
aVwas
p3908
aVsweeping
p3909
aVswiftly
p3910
aVnorthward
p3911
aV.
aa(lp3912
Valoft
p3913
aVin
p3914
aVthe
p3915
aVair
p3916
aV,
aVas
p3917
aVif
p3918
aVfrom
p3919
aVthe
p3920
aVdepths
p3921
aVof
p3922
aVthe
p3923
aVcloud
p3924
aV,
aVcame
p3925
aVa
aVconfused
p3926
aVand
p3927
aVdoubtful
p3928
aVsound
p3929
aVof
p3930
aVvoices
p3931
aV.
aa(lp3932
Vonce
p3933
aVthe
p3934
aVlistener
p3935
aVfancied
p3936
aVthat
p3937
aVhe
p3938
aVcould
p3939
aVdistinguish
p3940
aVthe
p3941
aVaccents
p3942
aVof
p3943
aVtowns-people
p3944
aVof
p3945
aVhis
p3946
aVown
p3947
aV,
aVmen
p3948
aVand
p3949
aVwomen
p3950
aV,
aVboth
p3951
aVpious
p3952
aVand
p3953
aVungodly
p3954
aV,
aVmany
p3955
aVof
p3956
aVwhom
p3957
aVhe
p3958
aVhad
p3959
aVmet
p3960
aVat
p3961
aVthe
p3962
aVcommunion
p3963
aVtable
p3964
aV,
aVand
p3965
aVhad
p3966
aVseen
p3967
aVothers
p3968
aVrioting
p3969
aVat
p3970
aVthe
p3971
aVtavern
p3972
aV.
aa(lp3973
Vthe
p3974
aVnext
p3975
aVmoment
p3976
aV,
aVso
p3977
aVindistinct
p3978
aVwere
p3979
aVthe
p3980
aVsounds
p3981
aV,
aVhe
p3982
aVdoubted
p3983
aVwhether
p3984
aVhe
p3985
aVhad
p3986
aVheard
p3987
aVaught
p3988
aVbut
p3989
aVthe
p3990
aVmurmur
p3991
aVof
p3992
aVthe
p3993
aVold
p3994
aVforest
p3995
aV,
aVwhispering
p3996
aVwithout
p3997
aVa
aVwind
p3998
aV.
aa(lp3999
Vthen
p4000
aVcame
p4001
aVa
aVstronger
p4002
aVswell
p4003
aVof
p4004
aVthose
p4005
aVfamiliar
p4006
aVtones
p4007
aV,
aVheard
p4008
aVdaily
p4009
aVin
p4010
aVthe
p4011
aVsunshine
p4012
aVat
p4013
aVsalem
p4014
aVvillage
p4015
aV,
aVbut
p4016
aVnever
p4017
aVuntil
p4018
aVnow
p4019
aVfrom
p4020
aVa
aVcloud
p4021
aVof
p4022
aVnight
p4023
aVthere
p4024
aVwas
p4025
aVone
p4026
aVvoice
p4027
aVof
p4028
aVa
aVyoung
p4029
aVwoman
p4030
aV,
aVuttering
p4031
aVlamentations
p4032
aV,
aVyet
p4033
aVwith
p4034
aVan
p4035
aVuncertain
p4036
aVsorrow
p4037
aV,
aVand
p4038
aVentreating
p4039
aVfor
p4040
aVsome
p4041
aVfavor
p4042
aV,
aVwhich
p4043
aV,
aVperhaps
p4044
aV,
aVit
p4045
aVwould
p4046
aVgrieve
p4047
aVher
p4048
aVto
p4049
aVobtain
p4050
aV;
aVand
p4051
aVall
p4052
aVthe
p4053
aVunseen
p4054
aVmultitude
p4055
aV,
aVboth
p4056
aVsaints
p4057
aVand
p4058
aVsinners
p4059
aV,
aVseemed
p4060
aVto
p4061
aVencourage
p4062
aVher
p4063
aVonward
p4064
aV.
aa(lp4065
V``
p4066
aVfaith
p4067
aV!
aV''
p4068
aa(lp4069
Vshouted
p4070
aVgoodman
p4071
aVbrown
p4072
aV,
aVin
p4073
aVa
aVvoice
p4074
aVof
p4075
aVagony
p4076
aVand
p4077
aVdesperation
p4078
aV;
aVand
p4079
aVthe
p4080
aVechoes
p4081
aVof
p4082
aVthe
p4083
aVforest
p4084
aVmocked
p4085
aVhim
p4086
aV,
aVcrying
p4087
aV,
aV``
p4088
aVfaith
p4089
aV!
aa(lp4090
Vfaith
p4091
aV!
aV''
p4092
aa(lp4093
Vas
p4094
aVif
p4095
aVbewildered
p4096
aVwretches
p4097
aVwere
p4098
aVseeking
p4099
aVher
p4100
aVall
p4101
aVthrough
p4102
aVthe
p4103
aVwilderness
p4104
aV.
aa(lp4105
Vthe
p4106
aVcry
p4107
aVof
p4108
aVgrief
p4109
aV,
aVrage
p4110
aV,
aVand
p4111
aVterror
p4112
aVwas
p4113
aVyet
p4114
aVpiercing
p4115
aVthe
p4116
aVnight
p4117
aV,
aVwhen
p4118
aVthe
p4119
aVunhappy
p4120
aVhusband
p4121
aVheld
p4122
aVhis
p4123
aVbreath
p4124
aVfor
p4125
aVa
aVresponse
p4126
aV.
aa(lp4127
Vthere
p4128
aVwas
p4129
aVa
aVscream
p4130
aV,
aVdrowned
p4131
aVimmediately
p4132
aVin
p4133
aVa
aVlouder
p4134
aVmurmur
p4135
aVof
p4136
aVvoices
p4137
aV,
aVfading
p4138
aVinto
p4139
aVfar-off
p4140
aVlaughter
p4141
aV,
aVas
p4142
aVthe
p4143
aVdark
p4144
aVcloud
p4145
aVswept
p4146
aVaway
p4147
aV,
aVleaving
p4148
aVthe
p4149
aVclear
p4150
aVand
p4151
aVsilent
p4152
aVsky
p4153
aVabove
p4154
aVgoodman
p4155
aVbrown
p4156
aV.
aa(lp4157
Vbut
p4158
aVsomething
p4159
aVfluttered
p4160
aVlightly
p4161
aVdown
p4162
aVthrough
p4163
aVthe
p4164
aVair
p4165
aVand
p4166
aVcaught
p4167
aVon
p4168
aVthe
p4169
aVbranch
p4170
aVof
p4171
aVa
aVtree
p4172
aV.
aa(lp4173
Vthe
p4174
aVyoung
p4175
aVman
p4176
aVseized
p4177
aVit
p4178
aV,
aVand
p4179
aVbeheld
p4180
aVa
aVpink
p4181
aVribbon
p4182
aV.
aa(lp4183
V``
p4184
aVmy
p4185
aVfaith
p4186
aVis
p4187
aVgone
p4188
aV!
aV''
p4189
aa(lp4190
Vcried
p4191
aVhe
p4192
aV,
aVafter
p4193
aVone
p4194
aVstupefied
p4195
aVmoment
p4196
aV.
aa(lp4197
V``
p4198
aVthere
p4199
aVis
p4200
aVno
p4201
aVgood
p4202
aVon
p4203
aVearth
p4204
aV;
aVand
p4205
aVsin
p4206
aVis
p4207
aVbut
p4208
aVa
aVname
p4209
aV.
aa(lp4210
Vcome
p4211
aV,
aVdevil
p4212
aV;
aVfor
p4213
aVto
p4214
aVthee
p4215
aVis
p4216
aVthis
p4217
aVworld
p4218
aVgiven
p4219
aV.
aV''
p4220
aa(lp4221
Vand
p4222
aV,
aVmaddened
p4223
aVwith
p4224
aVdespair
p4225
aV,
aVso
p4226
aVthat
p4227
aVhe
p4228
aVlaughed
p4229
aVloud
p4230
aVand
p4231
aVlong
p4232
aV,
aVdid
p4233
aVgoodman
p4234
aVbrown
p4235
aVgrasp
p4236
aVhis
p4237
aVstaff
p4238
aVand
p4239
aVset
p4240
aVforth
p4241
aVagain
p4242
aV,
aVat
p4243
aVsuch
p4244
aVa
aVrate
p4245
aVthat
p4246
aVhe
p4247
aVseemed
p4248
aVto
p4249
aVfly
p4250
aValong
p4251
aVthe
p4252
aVforest
p4253
aVpath
p4254
aVrather
p4255
aVthan
p4256
aVto
p4257
aVwalk
p4258
aVor
p4259
aVrun
p4260
aV.
aa(lp4261
Vthe
p4262
aVroad
p4263
aVgrew
p4264
aVwilder
p4265
aVand
p4266
aVdrearier
p4267
aVand
p4268
aVmore
p4269
aVfaintly
p4270
aVtraced
p4271
aV,
aVand
p4272
aVvanished
p4273
aVat
p4274
aVlength
p4275
aV,
aVleaving
p4276
aVhim
p4277
aVin
p4278
aVthe
p4279
aVheart
p4280
aVof
p4281
aVthe
p4282
aVdark
p4283
aVwilderness
p4284
aV,
aVstill
p4285
aVrushing
p4286
aVonward
p4287
aVwith
p4288
aVthe
p4289
aVinstinct
p4290
aVthat
p4291
aVguides
p4292
aVmortal
p4293
aVman
p4294
aVto
p4295
aVevil
p4296
aV.
aa(lp4297
Vthe
p4298
aVwhole
p4299
aVforest
p4300
aVwas
p4301
aVpeopled
p4302
aVwith
p4303
aVfrightful
p4304
aVsounds
p4305
aV--
p4306
aVthe
p4307
aVcreaking
p4308
aVof
p4309
aVthe
p4310
aVtrees
p4311
aV,
aVthe
p4312
aVhowling
p4313
aVof
p4314
aVwild
p4315
aVbeasts
p4316
aV,
aVand
p4317
aVthe
p4318
aVyell
p4319
aVof
p4320
aVindians
p4321
aV;
aVwhile
p4322
aVsometimes
p4323
aVthe
p4324
aVwind
p4325
aVtolled
p4326
aVlike
p4327
aVa
aVdistant
p4328
aVchurch
p4329
aVbell
p4330
aV,
aVand
p4331
aVsometimes
p4332
aVgave
p4333
aVa
aVbroad
p4334
aVroar
p4335
aVaround
p4336
aVthe
p4337
aVtraveller
p4338
aV,
aVas
p4339
aVif
p4340
aVall
p4341
aVnature
p4342
aVwere
p4343
aVlaughing
p4344
aVhim
p4345
aVto
p4346
aVscorn
p4347
aV.
aa(lp4348
Vbut
p4349
aVhe
p4350
aVwas
p4351
aVhimself
p4352
aVthe
p4353
aVchief
p4354
aVhorror
p4355
aVof
p4356
aVthe
p4357
aVscene
p4358
aV,
aVand
p4359
aVshrank
p4360
aVnot
p4361
aVfrom
p4362
aVits
p4363
aVother
p4364
aVhorrors
p4365
aV.
aa(lp4366
V``
p4367
aVha
p4368
aV!
aa(lp4369
Vha
p4370
aV!
aa(lp4371
Vha
p4372
aV!
aV''
p4373
aa(lp4374
Vroared
p4375
aVgoodman
p4376
aVbrown
p4377
aVwhen
p4378
aVthe
p4379
aVwind
p4380
aVlaughed
p4381
aVat
p4382
aVhim
p4383
aV.
aa(lp4384
V``
p4385
aVlet
p4386
aVus
p4387
aVhear
p4388
aVwhich
p4389
aVwill
p4390
aVlaugh
p4391
aVloudest
p4392
aV.
aa(lp4393
Vthink
p4394
aVnot
p4395
aVto
p4396
aVfrighten
p4397
aVme
p4398
aVwith
p4399
aVyour
p4400
aVdeviltry
p4401
aV.
aa(lp4402
Vcome
p4403
aVwitch
p4404
aV,
aVcome
p4405
aVwizard
p4406
aV,
aVcome
p4407
aVindian
p4408
aVpowwow
p4409
aV,
aVcome
p4410
aVdevil
p4411
aVhimself
p4412
aV,
aVand
p4413
aVhere
p4414
aVcomes
p4415
aVgoodman
p4416
aVbrown
p4417
aV.
aa(lp4418
Vyou
p4419
aVmay
p4420
aVas
p4421
aVwell
p4422
aVfear
p4423
aVhim
p4424
aVas
p4425
aVhe
p4426
aVfear
p4427
aVyou
p4428
aV.
aV''
p4429
aa(lp4430
Vin
p4431
aVtruth
p4432
aV,
aVall
p4433
aVthrough
p4434
aVthe
p4435
aVhaunted
p4436
aVforest
p4437
aVthere
p4438
aVcould
p4439
aVbe
p4440
aVnothing
p4441
aVmore
p4442
aVfrightful
p4443
aVthan
p4444
aVthe
p4445
aVfigure
p4446
aVof
p4447
aVgoodman
p4448
aVbrown
p4449
aV.
aa(lp4450
Von
p4451
aVhe
p4452
aVflew
p4453
aVamong
p4454
aVthe
p4455
aVblack
p4456
aVpines
p4457
aV,
aVbrandishing
p4458
aVhis
p4459
aVstaff
p4460
aVwith
p4461
aVfrenzied
p4462
aVgestures
p4463
aV,
aVnow
p4464
aVgiving
p4465
aVvent
p4466
aVto
p4467
aVan
p4468
aVinspiration
p4469
aVof
p4470
aVhorrid
p4471
aVblasphemy
p4472
aV,
aVand
p4473
aVnow
p4474
aVshouting
p4475
aVforth
p4476
aVsuch
p4477
aVlaughter
p4478
aVas
p4479
aVset
p4480
aVall
p4481
aVthe
p4482
aVechoes
p4483
aVof
p4484
aVthe
p4485
aVforest
p4486
aVlaughing
p4487
aVlike
p4488
aVdemons
p4489
aVaround
p4490
aVhim
p4491
aV.
aa(lp4492
Vthe
p4493
aVfiend
p4494
aVin
p4495
aVhis
p4496
aVown
p4497
aVshape
p4498
aVis
p4499
aVless
p4500
aVhideous
p4501
aVthan
p4502
aVwhen
p4503
aVhe
p4504
aVrages
p4505
aVin
p4506
aVthe
p4507
aVbreast
p4508
aVof
p4509
aVman
p4510
aV.
aa(lp4511
Vthus
p4512
aVsped
p4513
aVthe
p4514
aVdemoniac
p4515
aVon
p4516
aVhis
p4517
aVcourse
p4518
aV,
aVuntil
p4519
aV,
aVquivering
p4520
aVamong
p4521
aVthe
p4522
aVtrees
p4523
aV,
aVhe
p4524
aVsaw
p4525
aVa
aVred
p4526
aVlight
p4527
aVbefore
p4528
aVhim
p4529
aV,
aVas
p4530
aVwhen
p4531
aVthe
p4532
aVfelled
p4533
aVtrunks
p4534
aVand
p4535
aVbranches
p4536
aVof
p4537
aVa
aVclearing
p4538
aVhave
p4539
aVbeen
p4540
aVset
p4541
aVon
p4542
aVfire
p4543
aV,
aVand
p4544
aVthrow
p4545
aVup
p4546
aVtheir
p4547
aVlurid
p4548
aVblaze
p4549
aVagainst
p4550
aVthe
p4551
aVsky
p4552
aV,
aVat
p4553
aVthe
p4554
aVhour
p4555
aVof
p4556
aVmidnight
p4557
aV.
aa(lp4558
Vhe
p4559
aVpaused
p4560
aV,
aVin
p4561
aVa
aVlull
p4562
aVof
p4563
aVthe
p4564
aVtempest
p4565
aVthat
p4566
aVhad
p4567
aVdriven
p4568
aVhim
p4569
aVonward
p4570
aV,
aVand
p4571
aVheard
p4572
aVthe
p4573
aVswell
p4574
aVof
p4575
aVwhat
p4576
aVseemed
p4577
aVa
aVhymn
p4578
aV,
aVrolling
p4579
aVsolemnly
p4580
aVfrom
p4581
aVa
aVdistance
p4582
aVwith
p4583
aVthe
p4584
aVweight
p4585
aVof
p4586
aVmany
p4587
aVvoices
p4588
aV.
aa(lp4589
Vhe
p4590
aVknew
p4591
aVthe
p4592
aVtune
p4593
aV;
aVit
p4594
aVwas
p4595
aVa
aVfamiliar
p4596
aVone
p4597
aVin
p4598
aVthe
p4599
aVchoir
p4600
aVof
p4601
aVthe
p4602
aVvillage
p4603
aVmeeting-house
p4604
aV.
aa(lp4605
Vthe
p4606
aVverse
p4607
aVdied
p4608
aVheavily
p4609
aVaway
p4610
aV,
aVand
p4611
aVwas
p4612
aVlengthened
p4613
aVby
p4614
aVa
aVchorus
p4615
aV,
aVnot
p4616
aVof
p4617
aVhuman
p4618
aVvoices
p4619
aV,
aVbut
p4620
aVof
p4621
aVall
p4622
aVthe
p4623
aVsounds
p4624
aVof
p4625
aVthe
p4626
aVbenighted
p4627
aVwilderness
p4628
aVpealing
p4629
aVin
p4630
aVawful
p4631
aVharmony
p4632
aVtogether
p4633
aV.
aa(lp4634
Vgoodman
p4635
aVbrown
p4636
aVcried
p4637
aVout
p4638
aV,
aVand
p4639
aVhis
p4640
aVcry
p4641
aVwas
p4642
aVlost
p4643
aVto
p4644
aVhis
p4645
aVown
p4646
aVear
p4647
aVby
p4648
aVits
p4649
aVunison
p4650
aVwith
p4651
aVthe
p4652
aVcry
p4653
aVof
p4654
aVthe
p4655
aVdesert
p4656
aV.
aa(lp4657
Vin
p4658
aVthe
p4659
aVinterval
p4660
aVof
p4661
aVsilence
p4662
aVhe
p4663
aVstole
p4664
aVforward
p4665
aVuntil
p4666
aVthe
p4667
aVlight
p4668
aVglared
p4669
aVfull
p4670
aVupon
p4671
aVhis
p4672
aVeyes
p4673
aV.
aa(lp4674
Vat
p4675
aVone
p4676
aVextremity
p4677
aVof
p4678
aVan
p4679
aVopen
p4680
aVspace
p4681
aV,
aVhemmed
p4682
aVin
p4683
aVby
p4684
aVthe
p4685
aVdark
p4686
aVwall
p4687
aVof
p4688
aVthe
p4689
aVforest
p4690
aV,
aVarose
p4691
aVa
aVrock
p4692
aV,
aVbearing
p4693
aVsome
p4694
aVrude
p4695
aV,
aVnatural
p4696
aVresemblance
p4697
aVeither
p4698
aVto
p4699
aVan
p4700
aValtar
p4701
aVor
p4702
aVa
aVpulpit
p4703
aV,
aVand
p4704
aVsurrounded
p4705
aVby
p4706
aVfour
p4707
aVblazing
p4708
aVpines
p4709
aV,
aVtheir
p4710
aVtops
p4711
aVaflame
p4712
aV,
aVtheir
p4713
aVstems
p4714
aVuntouched
p4715
aV,
aVlike
p4716
aVcandles
p4717
aVat
p4718
aVan
p4719
aVevening
p4720
aVmeeting
p4721
aV.
aa(lp4722
Vthe
p4723
aVmass
p4724
aVof
p4725
aVfoliage
p4726
aVthat
p4727
aVhad
p4728
aVovergrown
p4729
aVthe
p4730
aVsummit
p4731
aVof
p4732
aVthe
p4733
aVrock
p4734
aVwas
p4735
aVall
p4736
aVon
p4737
aVfire
p4738
aV,
aVblazing
p4739
aVhigh
p4740
aVinto
p4741
aVthe
p4742
aVnight
p4743
aVand
p4744
aVfitfully
p4745
aVilluminating
p4746
aVthe
p4747
aVwhole
p4748
aVfield
p4749
aV.
aa(lp4750
Veach
p4751
aVpendent
p4752
aVtwig
p4753
aVand
p4754
aVleafy
p4755
aVfestoon
p4756
aVwas
p4757
aVin
p4758
aVa
aVblaze
p4759
aV.
aa(lp4760
Vas
p4761
aVthe
p4762
aVred
p4763
aVlight
p4764
aVarose
p4765
aVand
p4766
aVfell
p4767
aV,
aVa
aVnumerous
p4768
aVcongregation
p4769
aValternately
p4770
aVshone
p4771
aVforth
p4772
aV,
aVthen
p4773
aVdisappeared
p4774
aVin
p4775
aVshadow
p4776
aV,
aVand
p4777
aVagain
p4778
aVgrew
p4779
aV,
aVas
p4780
aVit
p4781
aVwere
p4782
aV,
aVout
p4783
aVof
p4784
aVthe
p4785
aVdarkness
p4786
aV,
aVpeopling
p4787
aVthe
p4788
aVheart
p4789
aVof
p4790
aVthe
p4791
aVsolitary
p4792
aVwoods
p4793
aVat
p4794
aVonce
p4795
aV.
aa(lp4796
V``
p4797
aVa
aVgrave
p4798
aVand
p4799
aVdark-clad
p4800
aVcompany
p4801
aV,
aV''
p4802
aVquoth
p4803
aVgoodman
p4804
aVbrown
p4805
aV.
aa(lp4806
Vin
p4807
aVtruth
p4808
aVthey
p4809
aVwere
p4810
aVsuch
p4811
aV.
aa(lp4812
Vamong
p4813
aVthem
p4814
aV,
aVquivering
p4815
aVto
p4816
aVand
p4817
aVfro
p4818
aVbetween
p4819
aVgloom
p4820
aVand
p4821
aVsplendor
p4822
aV,
aVappeared
p4823
aVfaces
p4824
aVthat
p4825
aVwould
p4826
aVbe
p4827
aVseen
p4828
aVnext
p4829
aVday
p4830
aVat
p4831
aVthe
p4832
aVcouncil
p4833
aVboard
p4834
aVof
p4835
aVthe
p4836
aVprovince
p4837
aV,
aVand
p4838
aVothers
p4839
aVwhich
p4840
aV,
aVsabbath
p4841
aVafter
p4842
aVsabbath
p4843
aV,
aVlooked
p4844
aVdevoutly
p4845
aVheavenward
p4846
aV,
aVand
p4847
aVbenignantly
p4848
aVover
p4849
aVthe
p4850
aVcrowded
p4851
aVpews
p4852
aV,
aVfrom
p4853
aVthe
p4854
aVholiest
p4855
aVpulpits
p4856
aVin
p4857
aVthe
p4858
aVland
p4859
aV.
aa(lp4860
Vsome
p4861
aVaffirm
p4862
aVthat
p4863
aVthe
p4864
aVlady
p4865
aVof
p4866
aVthe
p4867
aVgovernor
p4868
aVwas
p4869
aVthere
p4870
aV.
aa(lp4871
Vat
p4872
aVleast
p4873
aVthere
p4874
aVwere
p4875
aVhigh
p4876
aVdames
p4877
aVwell
p4878
aVknown
p4879
aVto
p4880
aVher
p4881
aV,
aVand
p4882
aVwives
p4883
aVof
p4884
aVhonored
p4885
aVhusbands
p4886
aV,
aVand
p4887
aVwidows
p4888
aV,
aVa
aVgreat
p4889
aVmultitude
p4890
aV,
aVand
p4891
aVancient
p4892
aVmaidens
p4893
aV,
aVall
p4894
aVof
p4895
aVexcellent
p4896
aVrepute
p4897
aV,
aVand
p4898
aVfair
p4899
aVyoung
p4900
aVgirls
p4901
aV,
aVwho
p4902
aVtrembled
p4903
aVlest
p4904
aVtheir
p4905
aVmothers
p4906
aVshould
p4907
aVespy
p4908
aVthem
p4909
aV.
aa(lp4910
Veither
p4911
aVthe
p4912
aVsudden
p4913
aVgleams
p4914
aVof
p4915
aVlight
p4916
aVflashing
p4917
aVover
p4918
aVthe
p4919
aVobscure
p4920
aVfield
p4921
aVbedazzled
p4922
aVgoodman
p4923
aVbrown
p4924
aV,
aVor
p4925
aVhe
p4926
aVrecognized
p4927
aVa
aVscore
p4928
aVof
p4929
aVthe
p4930
aVchurch
p4931
aVmembers
p4932
aVof
p4933
aVsalem
p4934
aVvillage
p4935
aVfamous
p4936
aVfor
p4937
aVtheir
p4938
aVespecial
p4939
aVsanctity
p4940
aV.
aa(lp4941
Vgood
p4942
aVold
p4943
aVdeacon
p4944
aVgookin
p4945
aVhad
p4946
aVarrived
p4947
aV,
aVand
p4948
aVwaited
p4949
aVat
p4950
aVthe
p4951
aVskirts
p4952
aVof
p4953
aVthat
p4954
aVvenerable
p4955
aVsaint
p4956
aV,
aVhis
p4957
aVrevered
p4958
aVpastor
p4959
aV.
aa(lp4960
Vbut
p4961
aV,
aVirreverently
p4962
aVconsorting
p4963
aVwith
p4964
aVthese
p4965
aVgrave
p4966
aV,
aVreputable
p4967
aV,
aVand
p4968
aVpious
p4969
aVpeople
p4970
aV,
aVthese
p4971
aVelders
p4972
aVof
p4973
aVthe
p4974
aVchurch
p4975
aV,
aVthese
p4976
aVchaste
p4977
aVdames
p4978
aVand
p4979
aVdewy
p4980
aVvirgins
p4981
aV,
aVthere
p4982
aVwere
p4983
aVmen
p4984
aVof
p4985
aVdissolute
p4986
aVlives
p4987
aVand
p4988
aVwomen
p4989
aVof
p4990
aVspotted
p4991
aVfame
p4992
aV,
aVwretches
p4993
aVgiven
p4994
aVover
p4995
aVto
p4996
aVall
p4997
aVmean
p4998
aVand
p4999
aVfilthy
p5000
aVvice
p5001
aV,
aVand
p5002
aVsuspected
p5003
aVeven
p5004
aVof
p5005
aVhorrid
p5006
aVcrimes
p5007
aV.
aa(lp5008
Vit
p5009
aVwas
p5010
aVstrange
p5011
aVto
p5012
aVsee
p5013
aVthat
p5014
aVthe
p5015
aVgood
p5016
aVshrank
p5017
aVnot
p5018
aVfrom
p5019
aVthe
p5020
aVwicked
p5021
aV,
aVnor
p5022
aVwere
p5023
aVthe
p5024
aVsinners
p5025
aVabashed
p5026
aVby
p5027
aVthe
p5028
aVsaints
p5029
aV.
aa(lp5030
Vscattered
p5031
aValso
p5032
aVamong
p5033
aVtheir
p5034
aVpale-faced
p5035
aVenemies
p5036
aVwere
p5037
aVthe
p5038
aVindian
p5039
aVpriests
p5040
aV,
aVor
p5041
aVpowwows
p5042
aV,
aVwho
p5043
aVhad
p5044
aVoften
p5045
aVscared
p5046
aVtheir
p5047
aVnative
p5048
aVforest
p5049
aVwith
p5050
aVmore
p5051
aVhideous
p5052
aVincantations
p5053
aVthan
p5054
aVany
p5055
aVknown
p5056
aVto
p5057
aVenglish
p5058
aVwitchcraft
p5059
aV.
aa(lp5060
V``
p5061
aVbut
p5062
aVwhere
p5063
aVis
p5064
aVfaith
p5065
aV?
aV''
p5066
aa(lp5067
Vthought
p5068
aVgoodman
p5069
aVbrown
p5070
aV;
aVand
p5071
aV,
aVas
p5072
aVhope
p5073
aVcame
p5074
aVinto
p5075
aVhis
p5076
aVheart
p5077
aV,
aVhe
p5078
aVtrembled
p5079
aV.
aa(lp5080
Vanother
p5081
aVverse
p5082
aVof
p5083
aVthe
p5084
aVhymn
p5085
aVarose
p5086
aV,
aVa
aVslow
p5087
aVand
p5088
aVmournful
p5089
aVstrain
p5090
aV,
aVsuch
p5091
aVas
p5092
aVthe
p5093
aVpious
p5094
aVlove
p5095
aV,
aVbut
p5096
aVjoined
p5097
aVto
p5098
aVwords
p5099
aVwhich
p5100
aVexpressed
p5101
aVall
p5102
aVthat
p5103
aVour
p5104
aVnature
p5105
aVcan
p5106
aVconceive
p5107
aVof
p5108
aVsin
p5109
aV,
aVand
p5110
aVdarkly
p5111
aVhinted
p5112
aVat
p5113
aVfar
p5114
aVmore
p5115
aV.
aa(lp5116
Vunfathomable
p5117
aVto
p5118
aVmere
p5119
aVmortals
p5120
aVis
p5121
aVthe
p5122
aVlore
p5123
aVof
p5124
aVfiends
p5125
aV.
aa(lp5126
Vverse
p5127
aVafter
p5128
aVverse
p5129
aVwas
p5130
aVsung
p5131
aV;
aVand
p5132
aVstill
p5133
aVthe
p5134
aVchorus
p5135
aVof
p5136
aVthe
p5137
aVdesert
p5138
aVswelled
p5139
aVbetween
p5140
aVlike
p5141
aVthe
p5142
aVdeepest
p5143
aVtone
p5144
aVof
p5145
aVa
aVmighty
p5146
aVorgan
p5147
aV;
aVand
p5148
aVwith
p5149
aVthe
p5150
aVfinal
p5151
aVpeal
p5152
aVof
p5153
aVthat
p5154
aVdreadful
p5155
aVanthem
p5156
aVthere
p5157
aVcame
p5158
aVa
aVsound
p5159
aV,
aVas
p5160
aVif
p5161
aVthe
p5162
aVroaring
p5163
aVwind
p5164
aV,
aVthe
p5165
aVrushing
p5166
aVstreams
p5167
aV,
aVthe
p5168
aVhowling
p5169
aVbeasts
p5170
aV,
aVand
p5171
aVevery
p5172
aVother
p5173
aVvoice
p5174
aVof
p5175
aVthe
p5176
aVunconcerted
p5177
aVwilderness
p5178
aVwere
p5179
aVmingling
p5180
aVand
p5181
aVaccording
p5182
aVwith
p5183
aVthe
p5184
aVvoice
p5185
aVof
p5186
aVguilty
p5187
aVman
p5188
aVin
p5189
aVhomage
p5190
aVto
p5191
aVthe
p5192
aVprince
p5193
aVof
p5194
aVall
p5195
aV.
aa(lp5196
Vthe
p5197
aVfour
p5198
aVblazing
p5199
aVpines
p5200
aVthrew
p5201
aVup
p5202
aVa
aVloftier
p5203
aVflame
p5204
aV,
aVand
p5205
aVobscurely
p5206
aVdiscovered
p5207
aVshapes
p5208
aVand
p5209
aVvisages
p5210
aVof
p5211
aVhorror
p5212
aVon
p5213
aVthe
p5214
aVsmoke
p5215
aVwreaths
p5216
aVabove
p5217
aVthe
p5218
aVimpious
p5219
aVassembly
p5220
aV.
aa(lp5221
Vat
p5222
aVthe
p5223
aVsame
p5224
aVmoment
p5225
aVthe
p5226
aVfire
p5227
aVon
p5228
aVthe
p5229
aVrock
p5230
aVshot
p5231
aVredly
p5232
aVforth
p5233
aVand
p5234
aVformed
p5235
aVa
aVglowing
p5236
aVarch
p5237
aVabove
p5238
aVits
p5239
aVbase
p5240
aV,
aVwhere
p5241
aVnow
p5242
aVappeared
p5243
aVa
aVfigure
p5244
aV.
aa(lp5245
Vwith
p5246
aVreverence
p5247
aVbe
p5248
aVit
p5249
aVspoken
p5250
aV,
aVthe
p5251
aVfigure
p5252
aVbore
p5253
aVno
p5254
aVslight
p5255
aVsimilitude
p5256
aV,
aVboth
p5257
aVin
p5258
aVgarb
p5259
aVand
p5260
aVmanner
p5261
aV,
aVto
p5262
aVsome
p5263
aVgrave
p5264
aVdivine
p5265
aVof
p5266
aVthe
p5267
aVnew
p5268
aVengland
p5269
aVchurches
p5270
aV.
aa(lp5271
V``
p5272
aVbring
p5273
aVforth
p5274
aVthe
p5275
aVconverts
p5276
aV!
aV''
p5277
aa(lp5278
Vcried
p5279
aVa
aVvoice
p5280
aVthat
p5281
aVechoed
p5282
aVthrough
p5283
aVthe
p5284
aVfield
p5285
aVand
p5286
aVrolled
p5287
aVinto
p5288
aVthe
p5289
aVforest
p5290
aV.
aa(lp5291
Vat
p5292
aVthe
p5293
aVword
p5294
aV,
aVgoodman
p5295
aVbrown
p5296
aVstepped
p5297
aVforth
p5298
aVfrom
p5299
aVthe
p5300
aVshadow
p5301
aVof
p5302
aVthe
p5303
aVtrees
p5304
aVand
p5305
aVapproached
p5306
aVthe
p5307
aVcongregation
p5308
aV,
aVwith
p5309
aVwhom
p5310
aVhe
p5311
aVfelt
p5312
aVa
aVloathful
p5313
aVbrotherhood
p5314
aVby
p5315
aVthe
p5316
aVsympathy
p5317
aVof
p5318
aVall
p5319
aVthat
p5320
aVwas
p5321
aVwicked
p5322
aVin
p5323
aVhis
p5324
aVheart
p5325
aV.
aa(lp5326
Vhe
p5327
aVcould
p5328
aVhave
p5329
aVwell-nigh
p5330
aVsworn
p5331
aVthat
p5332
aVthe
p5333
aVshape
p5334
aVof
p5335
aVhis
p5336
aVown
p5337
aVdead
p5338
aVfather
p5339
aVbeckoned
p5340
aVhim
p5341
aVto
p5342
aVadvance
p5343
aV,
aVlooking
p5344
aVdownward
p5345
aVfrom
p5346
aVa
aVsmoke
p5347
aVwreath
p5348
aV,
aVwhile
p5349
aVa
aVwoman
p5350
aV,
aVwith
p5351
aVdim
p5352
aVfeatures
p5353
aVof
p5354
aVdespair
p5355
aV,
aVthrew
p5356
aVout
p5357
aVher
p5358
aVhand
p5359
aVto
p5360
aVwarn
p5361
aVhim
p5362
aVback
p5363
aV.
aa(lp5364
Vwas
p5365
aVit
p5366
aVhis
p5367
aVmother
p5368
aV?
aa(lp5369
Vbut
p5370
aVhe
p5371
aVhad
p5372
aVno
p5373
aVpower
p5374
aVto
p5375
aVretreat
p5376
aVone
p5377
aVstep
p5378
aV,
aVnor
p5379
aVto
p5380
aVresist
p5381
aV,
aVeven
p5382
aVin
p5383
aVthought
p5384
aV,
aVwhen
p5385
aVthe
p5386
aVminister
p5387
aVand
p5388
aVgood
p5389
aVold
p5390
aVdeacon
p5391
aVgookin
p5392
aVseized
p5393
aVhis
p5394
aVarms
p5395
aVand
p5396
aVled
p5397
aVhim
p5398
aVto
p5399
aVthe
p5400
aVblazing
p5401
aVrock
p5402
aV.
aa(lp5403
Vthither
p5404
aVcame
p5405
aValso
p5406
aVthe
p5407
aVslender
p5408
aVform
p5409
aVof
p5410
aVa
aVveiled
p5411
aVfemale
p5412
aV,
aVled
p5413
aVbetween
p5414
aVgoody
p5415
aVcloyse
p5416
aV,
aVthat
p5417
aVpious
p5418
aVteacher
p5419
aVof
p5420
aVthe
p5421
aVcatechism
p5422
aV,
aVand
p5423
aVmartha
p5424
aVcarrier
p5425
aV,
aVwho
p5426
aVhad
p5427
aVreceived
p5428
aVthe
p5429
aVdevil
p5430
aV's
p5431
aVpromise
p5432
aVto
p5433
aVbe
p5434
aVqueen
p5435
aVof
p5436
aVhell
p5437
aV.
aa(lp5438
Va
aVrampant
p5439
aVhag
p5440
aVwas
p5441
aVshe
p5442
aV.
aa(lp5443
Vand
p5444
aVthere
p5445
aVstood
p5446
aVthe
p5447
aVproselytes
p5448
aVbeneath
p5449
aVthe
p5450
aVcanopy
p5451
aVof
p5452
aVfire
p5453
aV.
aa(lp5454
V``
p5455
aVwelcome
p5456
aV,
aVmy
p5457
aVchildren
p5458
aV,
aV''
p5459
aVsaid
p5460
aVthe
p5461
aVdark
p5462
aVfigure
p5463
aV,
aV``
p5464
aVto
p5465
aVthe
p5466
aVcommunion
p5467
aVof
p5468
aVyour
p5469
aVrace
p5470
aV.
aa(lp5471
Vye
p5472
aVhave
p5473
aVfound
p5474
aVthus
p5475
aVyoung
p5476
aVyour
p5477
aVnature
p5478
aVand
p5479
aVyour
p5480
aVdestiny
p5481
aV.
aa(lp5482
Vmy
p5483
aVchildren
p5484
aV,
aVlook
p5485
aVbehind
p5486
aVyou
p5487
aV!
aV''
p5488
aa(lp5489
Vthey
p5490
aVturned
p5491
aV;
aVand
p5492
aVflashing
p5493
aVforth
p5494
aV,
aVas
p5495
aVit
p5496
aVwere
p5497
aV,
aVin
p5498
aVa
aVsheet
p5499
aVof
p5500
aVflame
p5501
aV,
aVthe
p5502
aVfiend
p5503
aVworshippers
p5504
aVwere
p5505
aVseen
p5506
aV;
aVthe
p5507
aVsmile
p5508
aVof
p5509
aVwelcome
p5510
aVgleamed
p5511
aVdarkly
p5512
aVon
p5513
aVevery
p5514
aVvisage
p5515
aV.
aa(lp5516
V``
p5517
aVthere
p5518
aV,
aV''
p5519
aVresumed
p5520
aVthe
p5521
aVsable
p5522
aVform
p5523
aV,
aV``
p5524
aVare
p5525
aVall
p5526
aVwhom
p5527
aVye
p5528
aVhave
p5529
aVreverenced
p5530
aVfrom
p5531
aVyouth
p5532
aV.
aa(lp5533
Vye
p5534
aVdeemed
p5535
aVthem
p5536
aVholier
p5537
aVthan
p5538
aVyourselves
p5539
aV,
aVand
p5540
aVshrank
p5541
aVfrom
p5542
aVyour
p5543
aVown
p5544
aVsin
p5545
aV,
aVcontrasting
p5546
aVit
p5547
aVwith
p5548
aVtheir
p5549
aVlives
p5550
aVof
p5551
aVrighteousness
p5552
aVand
p5553
aVprayerful
p5554
aVaspirations
p5555
aVheavenward
p5556
aV.
aa(lp5557
Vyet
p5558
aVhere
p5559
aVare
p5560
aVthey
p5561
aVall
p5562
aVin
p5563
aVmy
p5564
aVworshipping
p5565
aVassembly
p5566
aV.
aa(lp5567
Vthis
p5568
aVnight
p5569
aVit
p5570
aVshall
p5571
aVbe
p5572
aVgranted
p5573
aVyou
p5574
aVto
p5575
aVknow
p5576
aVtheir
p5577
aVsecret
p5578
aVdeeds
p5579
aV:
aVhow
p5580
aVhoary-bearded
p5581
aVelders
p5582
aVof
p5583
aVthe
p5584
aVchurch
p5585
aVhave
p5586
aVwhispered
p5587
aVwanton
p5588
aVwords
p5589
aVto
p5590
aVthe
p5591
aVyoung
p5592
aVmaids
p5593
aVof
p5594
aVtheir
p5595
aVhouseholds
p5596
aV;
aVhow
p5597
aVmany
p5598
aVa
aVwoman
p5599
aV,
aVeager
p5600
aVfor
p5601
aVwidows
p5602
aV'
aVweeds
p5603
aV,
aVhas
p5604
aVgiven
p5605
aVher
p5606
aVhusband
p5607
aVa
aVdrink
p5608
aVat
p5609
aVbedtime
p5610
aVand
p5611
aVlet
p5612
aVhim
p5613
aVsleep
p5614
aVhis
p5615
aVlast
p5616
aVsleep
p5617
aVin
p5618
aVher
p5619
aVbosom
p5620
aV;
aVhow
p5621
aVbeardless
p5622
aVyouths
p5623
aVhave
p5624
aVmade
p5625
aVhaste
p5626
aVto
p5627
aVinherit
p5628
aVtheir
p5629
aVfathers
p5630
aV'
aVwealth
p5631
aV;
aVand
p5632
aVhow
p5633
aVfair
p5634
aVdamsels
p5635
aV--
p5636
aVblush
p5637
aVnot
p5638
aV,
aVsweet
p5639
aVones
p5640
aV--
p5641
aVhave
p5642
aVdug
p5643
aVlittle
p5644
aVgraves
p5645
aVin
p5646
aVthe
p5647
aVgarden
p5648
aV,
aVand
p5649
aVbidden
p5650
aVme
p5651
aV,
aVthe
p5652
aVsole
p5653
aVguest
p5654
aVto
p5655
aVan
p5656
aVinfant
p5657
aV's
p5658
aVfuneral
p5659
aV.
aa(lp5660
Vby
p5661
aVthe
p5662
aVsympathy
p5663
aVof
p5664
aVyour
p5665
aVhuman
p5666
aVhearts
p5667
aVfor
p5668
aVsin
p5669
aVye
p5670
aVshall
p5671
aVscent
p5672
aVout
p5673
aVall
p5674
aVthe
p5675
aVplaces
p5676
aV--
p5677
aVwhether
p5678
aVin
p5679
aVchurch
p5680
aV,
aVbedchamber
p5681
aV,
aVstreet
p5682
aV,
aVfield
p5683
aV,
aVor
p5684
aVforest
p5685
aV--
p5686
aVwhere
p5687
aVcrime
p5688
aVhas
p5689
aVbeen
p5690
aVcommitted
p5691
aV,
aVand
p5692
aVshall
p5693
aVexult
p5694
aVto
p5695
aVbehold
p5696
aVthe
p5697
aVwhole
p5698
aVearth
p5699
aVone
p5700
aVstain
p5701
aVof
p5702
aVguilt
p5703
aV,
aVone
p5704
aVmighty
p5705
aVblood
p5706
aVspot
p5707
aV.
aa(lp5708
Vfar
p5709
aVmore
p5710
aVthan
p5711
aVthis
p5712
aV.
aa(lp5713
Vit
p5714
aVshall
p5715
aVbe
p5716
aVyours
p5717
aVto
p5718
aVpenetrate
p5719
aV,
aVin
p5720
aVevery
p5721
aVbosom
p5722
aV,
aVthe
p5723
aVdeep
p5724
aVmystery
p5725
aVof
p5726
aVsin
p5727
aV,
aVthe
p5728
aVfountain
p5729
aVof
p5730
aVall
p5731
aVwicked
p5732
aVarts
p5733
aV,
aVand
p5734
aVwhich
p5735
aVinexhaustibly
p5736
aVsupplies
p5737
aVmore
p5738
aVevil
p5739
aVimpulses
p5740
aVthan
p5741
aVhuman
p5742
aVpower
p5743
aV--
p5744
aVthan
p5745
aVmy
p5746
aVpower
p5747
aVat
p5748
aVits
p5749
aVutmost
p5750
aV--
p5751
aVcan
p5752
aVmake
p5753
aVmanifest
p5754
aVin
p5755
aVdeeds
p5756
aV.
aa(lp5757
Vand
p5758
aVnow
p5759
aV,
aVmy
p5760
aVchildren
p5761
aV,
aVlook
p5762
aVupon
p5763
aVeach
p5764
aVother
p5765
aV.
aV''
p5766
aa(lp5767
Vthey
p5768
aVdid
p5769
aVso
p5770
aV;
aVand
p5771
aV,
aVby
p5772
aVthe
p5773
aVblaze
p5774
aVof
p5775
aVthe
p5776
aVhell-kindled
p5777
aVtorches
p5778
aV,
aVthe
p5779
aVwretched
p5780
aVman
p5781
aVbeheld
p5782
aVhis
p5783
aVfaith
p5784
aV,
aVand
p5785
aVthe
p5786
aVwife
p5787
aVher
p5788
aVhusband
p5789
aV,
aVtrembling
p5790
aVbefore
p5791
aVthat
p5792
aVunhallowed
p5793
aValtar
p5794
aV.
aa(lp5795
V``
p5796
aVlo
p5797
aV,
aVthere
p5798
aVye
p5799
aVstand
p5800
aV,
aVmy
p5801
aVchildren
p5802
aV,
aV''
p5803
aVsaid
p5804
aVthe
p5805
aVfigure
p5806
aV,
aVin
p5807
aVa
aVdeep
p5808
aVand
p5809
aVsolemn
p5810
aVtone
p5811
aV,
aValmost
p5812
aVsad
p5813
aVwith
p5814
aVits
p5815
aVdespairing
p5816
aVawfulness
p5817
aV,
aVas
p5818
aVif
p5819
aVhis
p5820
aVonce
p5821
aVangelic
p5822
aVnature
p5823
aVcould
p5824
aVyet
p5825
aVmourn
p5826
aVfor
p5827
aVour
p5828
aVmiserable
p5829
aVrace
p5830
aV.
aa(lp5831
V``
p5832
aVdepending
p5833
aVupon
p5834
aVone
p5835
aVanother
p5836
aV's
p5837
aVhearts
p5838
aV,
aVye
p5839
aVhad
p5840
aVstill
p5841
aVhoped
p5842
aVthat
p5843
aVvirtue
p5844
aVwere
p5845
aVnot
p5846
aVall
p5847
aVa
aVdream
p5848
aV.
aa(lp5849
Vnow
p5850
aVare
p5851
aVye
p5852
aVundeceived
p5853
aV.
aa(lp5854
Vevil
p5855
aVis
p5856
aVthe
p5857
aVnature
p5858
aVof
p5859
aVmankind
p5860
aV.
aa(lp5861
Vevil
p5862
aVmust
p5863
aVbe
p5864
aVyour
p5865
aVonly
p5866
aVhappiness
p5867
aV.
aa(lp5868
Vwelcome
p5869
aVagain
p5870
aV,
aVmy
p5871
aVchildren
p5872
aV,
aVto
p5873
aVthe
p5874
aVcommunion
p5875
aVof
p5876
aVyour
p5877
aVrace
p5878
aV.
aV''
p5879
aa(lp5880
V``
p5881
aVwelcome
p5882
aV,
aV''
p5883
aVrepeated
p5884
aVthe
p5885
aVfiend
p5886
aVworshippers
p5887
aV,
aVin
p5888
aVone
p5889
aVcry
p5890
aVof
p5891
aVdespair
p5892
aVand
p5893
aVtriumph
p5894
aV.
aa(lp5895
Vand
p5896
aVthere
p5897
aVthey
p5898
aVstood
p5899
aV,
aVthe
p5900
aVonly
p5901
aVpair
p5902
aV,
aVas
p5903
aVit
p5904
aVseemed
p5905
aV,
aVwho
p5906
aVwere
p5907
aVyet
p5908
aVhesitating
p5909
aVon
p5910
aVthe
p5911
aVverge
p5912
aVof
p5913
aVwickedness
p5914
aVin
p5915
aVthis
p5916
aVdark
p5917
aVworld
p5918
aV.
aa(lp5919
Va
aVbasin
p5920
aVwas
p5921
aVhollowed
p5922
aV,
aVnaturally
p5923
aV,
aVin
p5924
aVthe
p5925
aVrock
p5926
aV.
aa(lp5927
Vdid
p5928
aVit
p5929
aVcontain
p5930
aVwater
p5931
aV,
aVreddened
p5932
aVby
p5933
aVthe
p5934
aVlurid
p5935
aVlight
p5936
aV?
aa(lp5937
Vor
p5938
aVwas
p5939
aVit
p5940
aVblood
p5941
aV?
aa(lp5942
Vor
p5943
aV,
aVperchance
p5944
aV,
aVa
aVliquid
p5945
aVflame
p5946
aV?
aa(lp5947
Vherein
p5948
aVdid
p5949
aVthe
p5950
aVshape
p5951
aVof
p5952
aVevil
p5953
aVdip
p5954
aVhis
p5955
aVhand
p5956
aVand
p5957
aVprepare
p5958
aVto
p5959
aVlay
p5960
aVthe
p5961
aVmark
p5962
aVof
p5963
aVbaptism
p5964
aVupon
p5965
aVtheir
p5966
aVforeheads
p5967
aV,
aVthat
p5968
aVthey
p5969
aVmight
p5970
aVbe
p5971
aVpartakers
p5972
aVof
p5973
aVthe
p5974
aVmystery
p5975
aVof
p5976
aVsin
p5977
aV,
aVmore
p5978
aVconscious
p5979
aVof
p5980
aVthe
p5981
aVsecret
p5982
aVguilt
p5983
aVof
p5984
aVothers
p5985
aV,
aVboth
p5986
aVin
p5987
aVdeed
p5988
aVand
p5989
aVthought
p5990
aV,
aVthan
p5991
aVthey
p5992
aVcould
p5993
aVnow
p5994
aVbe
p5995
aVof
p5996
aVtheir
p5997
aVown
p5998
aV.
aa(lp5999
Vthe
p6000
aVhusband
p6001
aVcast
p6002
aVone
p6003
aVlook
p6004
aVat
p6005
aVhis
p6006
aVpale
p6007
aVwife
p6008
aV,
aVand
p6009
aVfaith
p6010
aVat
p6011
aVhim
p6012
aV.
aa(lp6013
Vwhat
p6014
aVpolluted
p6015
aVwretches
p6016
aVwould
p6017
aVthe
p6018
aVnext
p6019
aVglance
p6020
aVshow
p6021
aVthem
p6022
aVto
p6023
aVeach
p6024
aVother
p6025
aV,
aVshuddering
p6026
aValike
p6027
aVat
p6028
aVwhat
p6029
aVthey
p6030
aVdisclosed
p6031
aVand
p6032
aVwhat
p6033
aVthey
p6034
aVsaw
p6035
aV!
aa(lp6036
V``
p6037
aVfaith
p6038
aV!
aa(lp6039
Vfaith
p6040
aV!
aV''
p6041
aa(lp6042
Vcried
p6043
aVthe
p6044
aVhusband
p6045
aV,
aV``
p6046
aVlook
p6047
aVup
p6048
aVto
p6049
aVheaven
p6050
aV,
aVand
p6051
aVresist
p6052
aVthe
p6053
aVwicked
p6054
aVone
p6055
aV.
aV''
p6056
aa(lp6057
Vwhether
p6058
aVfaith
p6059
aVobeyed
p6060
aVhe
p6061
aVknew
p6062
aVnot
p6063
aV.
aa(lp6064
Vhardly
p6065
aVhad
p6066
aVhe
p6067
aVspoken
p6068
aVwhen
p6069
aVhe
p6070
aVfound
p6071
aVhimself
p6072
aVamid
p6073
aVcalm
p6074
aVnight
p6075
aVand
p6076
aVsolitude
p6077
aV,
aVlistening
p6078
aVto
p6079
aVa
aVroar
p6080
aVof
p6081
aVthe
p6082
aVwind
p6083
aVwhich
p6084
aVdied
p6085
aVheavily
p6086
aVaway
p6087
aVthrough
p6088
aVthe
p6089
aVforest
p6090
aV.
aa(lp6091
Vhe
p6092
aVstaggered
p6093
aVagainst
p6094
aVthe
p6095
aVrock
p6096
aV,
aVand
p6097
aVfelt
p6098
aVit
p6099
aVchill
p6100
aVand
p6101
aVdamp
p6102
aV;
aVwhile
p6103
aVa
aVhanging
p6104
aVtwig
p6105
aV,
aVthat
p6106
aVhad
p6107
aVbeen
p6108
aVall
p6109
aVon
p6110
aVfire
p6111
aV,
aVbesprinkled
p6112
aVhis
p6113
aVcheek
p6114
aVwith
p6115
aVthe
p6116
aVcoldest
p6117
aVdew
p6118
aV.
aa(lp6119
Vthe
p6120
aVnext
p6121
aVmorning
p6122
aVyoung
p6123
aVgoodman
p6124
aVbrown
p6125
aVcame
p6126
aVslowly
p6127
aVinto
p6128
aVthe
p6129
aVstreet
p6130
aVof
p6131
aVsalem
p6132
aVvillage
p6133
aV,
aVstaring
p6134
aVaround
p6135
aVhim
p6136
aVlike
p6137
aVa
aVbewildered
p6138
aVman
p6139
aV.
aa(lp6140
Vthe
p6141
aVgood
p6142
aVold
p6143
aVminister
p6144
aVwas
p6145
aVtaking
p6146
aVa
aVwalk
p6147
aValong
p6148
aVthe
p6149
aVgraveyard
p6150
aVto
p6151
aVget
p6152
aVan
p6153
aVappetite
p6154
aVfor
p6155
aVbreakfast
p6156
aVand
p6157
aVmeditate
p6158
aVhis
p6159
aVsermon
p6160
aV,
aVand
p6161
aVbestowed
p6162
aVa
aVblessing
p6163
aV,
aVas
p6164
aVhe
p6165
aVpassed
p6166
aV,
aVon
p6167
aVgoodman
p6168
aVbrown
p6169
aV.
aa(lp6170
Vhe
p6171
aVshrank
p6172
aVfrom
p6173
aVthe
p6174
aVvenerable
p6175
aVsaint
p6176
aVas
p6177
aVif
p6178
aVto
p6179
aVavoid
p6180
aVan
p6181
aVanathema
p6182
aV.
aa(lp6183
Vold
p6184
aVdeacon
p6185
aVgookin
p6186
aVwas
p6187
aVat
p6188
aVdomestic
p6189
aVworship
p6190
aV,
aVand
p6191
aVthe
p6192
aVholy
p6193
aVwords
p6194
aVof
p6195
aVhis
p6196
aVprayer
p6197
aVwere
p6198
aVheard
p6199
aVthrough
p6200
aVthe
p6201
aVopen
p6202
aVwindow
p6203
aV.
aa(lp6204
V``
p6205
aVwhat
p6206
aVgod
p6207
aVdoth
p6208
aVthe
p6209
aVwizard
p6210
aVpray
p6211
aVto
p6212
aV?
aV''
p6213
aa(lp6214
Vquoth
p6215
aVgoodman
p6216
aVbrown
p6217
aV.
aa(lp6218
Vgoody
p6219
aVcloyse
p6220
aV,
aVthat
p6221
aVexcellent
p6222
aVold
p6223
aVchristian
p6224
aV,
aVstood
p6225
aVin
p6226
aVthe
p6227
aVearly
p6228
aVsunshine
p6229
aVat
p6230
aVher
p6231
aVown
p6232
aVlattice
p6233
aV,
aVcatechizing
p6234
aVa
aVlittle
p6235
aVgirl
p6236
aVwho
p6237
aVhad
p6238
aVbrought
p6239
aVher
p6240
aVa
aVpint
p6241
aVof
p6242
aVmorning
p6243
aV's
p6244
aVmilk
p6245
aV.
aa(lp6246
Vgoodman
p6247
aVbrown
p6248
aVsnatched
p6249
aVaway
p6250
aVthe
p6251
aVchild
p6252
aVas
p6253
aVfrom
p6254
aVthe
p6255
aVgrasp
p6256
aVof
p6257
aVthe
p6258
aVfiend
p6259
aVhimself
p6260
aV.
aa(lp6261
Vturning
p6262
aVthe
p6263
aVcorner
p6264
aVby
p6265
aVthe
p6266
aVmeeting-house
p6267
aV,
aVhe
p6268
aVspied
p6269
aVthe
p6270
aVhead
p6271
aVof
p6272
aVfaith
p6273
aV,
aVwith
p6274
aVthe
p6275
aVpink
p6276
aVribbons
p6277
aV,
aVgazing
p6278
aVanxiously
p6279
aVforth
p6280
aV,
aVand
p6281
aVbursting
p6282
aVinto
p6283
aVsuch
p6284
aVjoy
p6285
aVat
p6286
aVsight
p6287
aVof
p6288
aVhim
p6289
aVthat
p6290
aVshe
p6291
aVskipped
p6292
aValong
p6293
aVthe
p6294
aVstreet
p6295
aVand
p6296
aValmost
p6297
aVkissed
p6298
aVher
p6299
aVhusband
p6300
aVbefore
p6301
aVthe
p6302
aVwhole
p6303
aVvillage
p6304
aV.
aa(lp6305
Vbut
p6306
aVgoodman
p6307
aVbrown
p6308
aVlooked
p6309
aVsternly
p6310
aVand
p6311
aVsadly
p6312
aVinto
p6313
aVher
p6314
aVface
p6315
aV,
aVand
p6316
aVpassed
p6317
aVon
p6318
aVwithout
p6319
aVa
aVgreeting
p6320
aV.
aa(lp6321
Vhad
p6322
aVgoodman
p6323
aVbrown
p6324
aVfallen
p6325
aVasleep
p6326
aVin
p6327
aVthe
p6328
aVforest
p6329
aVand
p6330
aVonly
p6331
aVdreamed
p6332
aVa
aVwild
p6333
aVdream
p6334
aVof
p6335
aVa
aVwitch-meeting
p6336
aV?
aa(lp6337
Vbe
p6338
aVit
p6339
aVso
p6340
aVif
p6341
aVyou
p6342
aVwill
p6343
aV;
aVbut
p6344
aV,
aValas
p6345
aV!
aa(lp6346
Vit
p6347
aVwas
p6348
aVa
aVdream
p6349
aVof
p6350
aVevil
p6351
aVomen
p6352
aVfor
p6353
aVyoung
p6354
aVgoodman
p6355
aVbrown
p6356
aV.
aa(lp6357
Va
aVstern
p6358
aV,
aVa
aVsad
p6359
aV,
aVa
aVdarkly
p6360
aVmeditative
p6361
aV,
aVa
aVdistrustful
p6362
aV,
aVif
p6363
aVnot
p6364
aVa
aVdesperate
p6365
aVman
p6366
aVdid
p6367
aVhe
p6368
aVbecome
p6369
aVfrom
p6370
aVthe
p6371
aVnight
p6372
aVof
p6373
aVthat
p6374
aVfearful
p6375
aVdream
p6376
aV.
aa(lp6377
Von
p6378
aVthe
p6379
aVsabbath
p6380
aVday
p6381
aV,
aVwhen
p6382
aVthe
p6383
aVcongregation
p6384
aVwere
p6385
aVsinging
p6386
aVa
aVholy
p6387
aVpsalm
p6388
aV,
aVhe
p6389
aVcould
p6390
aVnot
p6391
aVlisten
p6392
aVbecause
p6393
aVan
p6394
aVanthem
p6395
aVof
p6396
aVsin
p6397
aVrushed
p6398
aVloudly
p6399
aVupon
p6400
aVhis
p6401
aVear
p6402
aVand
p6403
aVdrowned
p6404
aVall
p6405
aVthe
p6406
aVblessed
p6407
aVstrain
p6408
aV.
aa(lp6409
Vwhen
p6410
aVthe
p6411
aVminister
p6412
aVspoke
p6413
aVfrom
p6414
aVthe
p6415
aVpulpit
p6416
aVwith
p6417
aVpower
p6418
aVand
p6419
aVfervid
p6420
aVeloquence
p6421
aV,
aVand
p6422
aV,
aVwith
p6423
aVhis
p6424
aVhand
p6425
aVon
p6426
aVthe
p6427
aVopen
p6428
aVbible
p6429
aV,
aVof
p6430
aVthe
p6431
aVsacred
p6432
aVtruths
p6433
aVof
p6434
aVour
p6435
aVreligion
p6436
aV,
aVand
p6437
aVof
p6438
aVsaint-like
p6439
aVlives
p6440
aVand
p6441
aVtriumphant
p6442
aVdeaths
p6443
aV,
aVand
p6444
aVof
p6445
aVfuture
p6446
aVbliss
p6447
aVor
p6448
aVmisery
p6449
aVunutterable
p6450
aV,
aVthen
p6451
aVdid
p6452
aVgoodman
p6453
aVbrown
p6454
aVturn
p6455
aVpale
p6456
aV,
aVdreading
p6457
aVlest
p6458
aVthe
p6459
aVroof
p6460
aVshould
p6461
aVthunder
p6462
aVdown
p6463
aVupon
p6464
aVthe
p6465
aVgray
p6466
aVblasphemer
p6467
aVand
p6468
aVhis
p6469
aVhearers
p6470
aV.
aa(lp6471
Voften
p6472
aV,
aVwaking
p6473
aVsuddenly
p6474
aVat
p6475
aVmidnight
p6476
aV,
aVhe
p6477
aVshrank
p6478
aVfrom
p6479
aVthe
p6480
aVbosom
p6481
aVof
p6482
aVfaith
p6483
aV;
aVand
p6484
aVat
p6485
aVmorning
p6486
aVor
p6487
aVeventide
p6488
aV,
aVwhen
p6489
aVthe
p6490
aVfamily
p6491
aVknelt
p6492
aVdown
p6493
aVat
p6494
aVprayer
p6495
aV,
aVhe
p6496
aVscowled
p6497
aVand
p6498
aVmuttered
p6499
aVto
p6500
aVhimself
p6501
aV,
aVand
p6502
aVgazed
p6503
aVsternly
p6504
aVat
p6505
aVhis
p6506
aVwife
p6507
aV,
aVand
p6508
aVturned
p6509
aVaway
p6510
aV.
aa(lp6511
Vand
p6512
aVwhen
p6513
aVhe
p6514
aVhad
p6515
aVlived
p6516
aVlong
p6517
aV,
aVand
p6518
aVwas
p6519
aVborne
p6520
aVto
p6521
aVhis
p6522
aVgrave
p6523
aVa
aVhoary
p6524
aVcorpse
p6525
aV,
aVfollowed
p6526
aVby
p6527
aVfaith
p6528
aV,
aVan
p6529
aVaged
p6530
aVwoman
p6531
aV,
aVand
p6532
aVchildren
p6533
aVand
p6534
aVgrandchildren
p6535
aV,
aVa
aVgoodly
p6536
aVprocession
p6537
aV,
aVbesides
p6538
aVneighbors
p6539
aVnot
p6540
aVa
aVfew
p6541
aV,
aVthey
p6542
aVcarved
p6543
aVno
p6544
aVhopeful
p6545
aVverse
p6546
aVupon
p6547
aVhis
p6548
aVtombstone
p6549
aV,
aVfor
p6550
aVhis
p6551
aVdying
p6552
aVhour
p6553
aVwas
p6554
aVgloom
p6555
aV.
aasb.