ccopy_reg
_reconstructor
p1
(cData.Book
Book
p2
c__builtin__
object
p3
NtRp4
(dp5
S'stored_object'
p6
S'Books/A_Very_Old_Man_with_Enormous_Wings/Book_object.p'
p7
sS'title'
p8
S'A Very Old Man with Enormous Wings'
p9
sS'main_text_path'
p10
S'Books/A_Very_Old_Man_with_Enormous_Wings/main_cleaned.txt'
p11
sS'metadata_path'
p12
S'Books/A_Very_Old_Man_with_Enormous_Wings/meta_data.csv'
p13
sS'book_path'
p14
S'Books/A_Very_Old_Man_with_Enormous_Wings/'
p15
sS'characters'
p16
(dp17
S'the spider woman'
p18
(dp19
S'list'
p20
(lp21
(lp22
Vthe
p23
aV[
aVCHARACTER
p24
aV]
aV-
aVa
aVfreak-show
p25
aVattraction
p26
aVwho
p27
aVvisits
p28
aVthe
p29
aVvillage
p30
aV.
aa(lp31
Vpunished
p32
aVfor
p33
aVthe
p34
aVsin
p35
aVof
p36
aVdisobeying
p37
aVher
p38
aVparents
p39
aV,
aVthe
p40
aV[
aVCHARACTER
p41
aV]
aVnow
p42
aVhas
p43
aVthe
p44
aVbody
p45
aVof
p46
aVan
p47
aVenormous
p48
aVspider
p49
aVand
p50
aVthe
p51
aVhead
p52
aVof
p53
aVa
aVsad
p54
aVyoung
p55
aVwoman
p56
aV.
aa(lp57
Vthe
p58
aVclear
p59
aVmoral
p60
aVof
p61
aVthe
p62
aVwoman
p63
aV's
p64
aVstory
p65
aVdraws
p66
aVgawking
p67
aVvillagers
p68
aVaway
p69
aVfrom
p70
aVthe
p71
aVold
p72
aVman
p73
aV,
aVwho
p74
aVis
p75
aVunable
p76
aVto
p77
aVoffer
p78
aVthe
p79
aVcrowds
p80
aVsuch
p81
aVa
aVcompelling
p82
aVnarrative
p83
aV.
aasS'relevant_text'
p84
(lp85
(lp86
asS'analysis'
p87
NssS'the old man'
p88
(dp89
g20
(lp90
(lp91
Vthe
p92
aV[
aVCHARACTER
p93
aV]
aV-
aVan
p94
aV[
aVCHARACTER
p95
aV]
aVwith
p96
aVwings
p97
aVwho
p98
aVappears
p99
aVin
p100
aVpelayo
p101
aVand
p102
aVelisenda
p103
aV's
p104
aVyard
p105
aVone
p106
aVday
p107
aV.
aa(lp108
Vfilthy
p109
aVand
p110
aVbedraggled
p111
aV,
aVthe
p112
aV[
aVCHARACTER
p113
aV]
aVspeaks
p114
aVa
aVforeign
p115
aVlanguage
p116
aVthat
p117
aVno
p118
aVone
p119
aVcan
p120
aVunderstand
p121
aV.
aa(lp122
Vhis
p123
aVwings
p124
aVand
p125
aVunintelligible
p126
aVlanguage
p127
aVprompts
p128
aVsome
p129
aVpeople
p130
aVto
p131
aVbelieve
p132
aVthat
p133
aVhe
p134
aV's
p135
aVa
aVfallen
p136
aVangel
p137
aVand
p138
aVthe
p139
aVchurch
p140
aVto
p141
aVbelieve
p142
aVhe
p143
aV's
p144
aVa
aVnorwegian
p145
aV,
aVeven
p146
aVthough
p147
aVhe
p148
aVseems
p149
aVoblivious
p150
aVto
p151
aVnearly
p152
aVeverything
p153
aVthat
p154
aVhappens
p155
aVaround
p156
aVhim
p157
aV.
aa(lp158
Vby
p159
aVthe
p160
aVend
p161
aVof
p162
aVthe
p163
aVstory
p164
aV,
aVthe
p165
aV[
aVCHARACTER
p166
aV]
aVhas
p167
aVrecovered
p168
aVenough
p169
aVto
p170
aVfly
p171
aVaway
p172
aV,
aVexiting
p173
aVpelayo
p174
aV's
p175
aVand
p176
aVelisenda
p177
aV's
p178
aVlives
p179
aVas
p180
aVsuddenly
p181
aVas
p182
aVhe
p183
aV'd
p184
aVentered
p185
aV.
aasg84
(lp186
(lp187
(lp188
Vnd
p189
aVthey
p190
aVthought
p191
aVit
p192
aVwas
p193
aVdue
p194
aVto
p195
aVthe
p196
aVstench
p197
aV.
aa(lp198
Vthe
p199
aVworld
p200
aVhad
p201
aVbeen
p202
aVsad
p203
aVsince
p204
aVtuesday
p205
aV.
aa(lp206
Vsea
p207
aVand
p208
aVsky
p209
aVwere
p210
aVa
aVsingle
p211
aVash-gray
p212
aVthing
p213
aVand
p214
aVthe
p215
aVsands
p216
aVof
p217
aVthe
p218
aVbeach
p219
aV,
aVwhich
p220
aVon
p221
aVmarch
p222
aVnights
p223
aVglimmered
p224
aVlike
p225
aVpowdered
p226
aVlight
p227
aV,
aVhad
p228
aVbecome
p229
aVa
aVstew
p230
aVof
p231
aVmud
p232
aVand
p233
aVrotten
p234
aVshellfish
p235
aV.
aa(lp236
Vthe
p237
aVlight
p238
aVwas
p239
aVso
p240
aVweak
p241
aVat
p242
aVnoon
p243
aVthat
p244
aVwhen
p245
aVpelayo
p246
aVwas
p247
aVcoming
p248
aVback
p249
aVto
p250
aVthe
p251
aVhouse
p252
aVafter
p253
aVthrowing
p254
aVaway
p255
aVthe
p256
aVcrabs
p257
aV,
aVit
p258
aVwas
p259
aVhard
p260
aVfor
p261
aVhim
p262
aVto
p263
aVsee
p264
aVwhat
p265
aVit
p266
aVwas
p267
aVthat
p268
aVwas
p269
aVmoving
p270
aVand
p271
aVgroaning
p272
aVin
p273
aVthe
p274
aVrear
p275
aVof
p276
aVthe
p277
aVcourtyard
p278
aV.
aa(lp279
Vhe
p280
aVhad
p281
aVto
p282
aVgo
p283
aVvery
p284
aVclose
p285
aVto
p286
aVsee
p287
aVthat
p288
aVit
p289
aVwas
p290
aVan
p291
aVold
p292
aVman
p293
aV,
aVa
aVvery
p294
aVold
p295
aVman
p296
aV,
aVlying
p297
aVface
p298
aVdown
p299
aVin
p300
aVthe
p301
aVmud
p302
aV,
aVwho
p303
aV,
aVin
p304
aVspite
p305
aVof
p306
aVhis
p307
aVtremendous
p308
aVefforts
p309
aV,
aVcouldn\u2019t
p310
aVget
p311
aVup
p312
aV,
aVimpeded
p313
aVby
p314
aVhis
p315
aVenormous
p316
aVwings
p317
aV.
aa(lp318
Vfrightened
p319
aVby
p320
aVthat
p321
aVnightmare
p322
aV,
aVpelayo
p323
aVran
p324
aVto
p325
aVget
p326
aVelisenda
p327
aV,
aVhis
p328
aVwife
p329
aV,
aVwho
p330
aVwas
p331
aVputting
p332
aVcompresses
p333
aVon
p334
aVthe
p335
aVsick
p336
aVchild
p337
aV,
aVand
p338
aVhe
p339
aVtook
p340
aVher
p341
aVto
p342
aVthe
p343
aVrear
p344
aVof
p345
aVthe
p346
aVcourtyard
p347
aV.
aa(lp348
Vthey
p349
aVboth
p350
aVlooked
p351
aVat
p352
aVthe
p353
aVfallen
p354
aVbody
p355
aVwith
p356
aVa
aVmute
p357
aVstupor
p358
aV.
aa(lp359
Vhe
p360
aVwas
p361
aVdressed
p362
aVlike
p363
aVa
aVragpicker
p364
aV.
aa(lp365
Vthere
p366
aVwere
p367
aVonly
p368
aVa
aVfew
p369
aVfaded
p370
aVhairs
p371
aVleft
p372
aVon
p373
aVhis
p374
aVbald
p375
aVskull
p376
aVand
p377
aVvery
p378
aVfew
p379
aVteeth
p380
aVin
p381
aVhis
p382
aVmouth
p383
aV,
aVand
p384
aVhis
p385
aVpitiful
p386
aVconditi
p387
aaa(lp388
(lp389
Vnt
p390
aVhis
p391
aVtime
p392
aVtrying
p393
aVto
p394
aVget
p395
aVcomfortable
p396
aVin
p397
aVhis
p398
aVborrowed
p399
aVnest
p400
aV,
aVbefuddled
p401
aVby
p402
aVthe
p403
aVhellish
p404
aVheat
p405
aVof
p406
aVthe
p407
aVoil
p408
aVlamps
p409
aVand
p410
aVsacramental
p411
aVcandles
p412
aVthat
p413
aVhad
p414
aVbeen
p415
aVplaced
p416
aValong
p417
aVthe
p418
aVwire
p419
aV.
aa(lp420
Vat
p421
aVfirst
p422
aVthey
p423
aVtried
p424
aVto
p425
aVmake
p426
aVhim
p427
aVeat
p428
aVsome
p429
aVmothballs
p430
aV,
aVwhich
p431
aV,
aVaccording
p432
aVto
p433
aVthe
p434
aVwisdom
p435
aVof
p436
aVthe
p437
aVwise
p438
aVneighbor
p439
aVwoman
p440
aV,
aVwere
p441
aVthe
p442
aVfood
p443
aVprescribed
p444
aVfor
p445
aVangels
p446
aV.
aa(lp447
Vbut
p448
aVhe
p449
aVturned
p450
aVthem
p451
aVdown
p452
aV,
aVjust
p453
aVas
p454
aVhe
p455
aVturned
p456
aVdown
p457
aVthe
p458
aVpapal
p459
aVlunches
p460
aVthat
p461
aVthe
p462
aVpentinents
p463
aVbrought
p464
aVhim
p465
aV,
aVand
p466
aVthey
p467
aVnever
p468
aVfound
p469
aVout
p470
aVwhether
p471
aVit
p472
aVwas
p473
aVbecause
p474
aVhe
p475
aVwas
p476
aVan
p477
aVangel
p478
aVor
p479
aVbecause
p480
aVhe
p481
aVwas
p482
aVan
p483
aVold
p484
aVman
p485
aVthat
p486
aVin
p487
aVthe
p488
aVend
p489
aVate
p490
aVnothing
p491
aVbut
p492
aVeggplant
p493
aVmush
p494
aV.
aa(lp495
Vhis
p496
aVonly
p497
aVsupernatural
p498
aVvirtue
p499
aVseemed
p500
aVto
p501
aVbe
p502
aVpatience
p503
aV.
aa(lp504
Vespecially
p505
aVduring
p506
aVthe
p507
aVfirst
p508
aVdays
p509
aV,
aVwhen
p510
aVthe
p511
aVhens
p512
aVpecked
p513
aVat
p514
aVhim
p515
aV,
aVsearching
p516
aVfor
p517
aVthe
p518
aVstellar
p519
aVparasites
p520
aVthat
p521
aVproliferated
p522
aVin
p523
aVhis
p524
aVwings
p525
aV,
aVand
p526
aVthe
p527
aVcripples
p528
aVpulled
p529
aVout
p530
aVfeathers
p531
aVto
p532
aVtouch
p533
aVtheir
p534
aVdefective
p535
aVparts
p536
aVwith
p537
aV,
aVand
p538
aVeven
p539
aVthe
p540
aVmost
p541
aVmerciful
p542
aVthrew
p543
aVstones
p544
aVat
p545
aVhim
p546
aV,
aVtrying
p547
aVto
p548
aVget
p549
aVhim
p550
aVto
p551
aVrise
p552
aVso
p553
aVthey
p554
aVcould
p555
aVsee
p556
aVhim
p557
aVstanding
p558
aV.
aa(lp559
Vthe
p560
aVonly
p561
aVtime
p562
aVthey
p563
aVsucceeded
p564
aVin
p565
aVarousing
p566
aVhim
p567
aVwas
p568
aVwhen
p569
aVthey
p570
aVburned
p571
aVhis
p572
aVside
p573
aVwith
p574
aVan
p575
aViron
p576
aVf
aaasg87
(lp577
(lp578
Vthe
p579
aV[
aVCHARACTER
p580
aV]
aVthe
p581
aV[
aVCHARACTER
p582
aV]
aV,
aVwith
p583
aVhis
p584
aVhuman
p585
aVbody
p586
aVand
p587
aVunexpected
p588
aVwings
p589
aV,
aVappears
p590
aVto
p591
aVbe
p592
aVneither
p593
aVfully
p594
aVhuman
p595
aVnor
p596
aVfully
p597
aVsurreal
p598
aV.
aa(lp599
Von
p600
aVthe
p601
aVone
p602
aVhand
p603
aV,
aVthe
p604
aVman
p605
aVseems
p606
aVhuman
p607
aVenough
p608
aV,
aVsurrounded
p609
aVas
p610
aVhe
p611
aVis
p612
aVby
p613
aVfilth
p614
aV,
aVdisease
p615
aV,
aVinfirmity
p616
aV,
aVand
p617
aVsqualor
p618
aV.
aa(lp619
Vhe
p620
aVhas
p621
aVa
aVhuman
p622
aVreaction
p623
aVto
p624
aVthe
p625
aVpeople
p626
aVwho
p627
aVcrowd
p628
aVaround
p629
aVhim
p630
aVand
p631
aVseek
p632
aVhealing
p633
aV,
aVremaining
p634
aVindifferent
p635
aVto
p636
aVtheir
p637
aVpleas
p638
aVand
p639
aVsometimes
p640
aVnot
p641
aVeven
p642
aVacknowledging
p643
aVtheir
p644
aVexistence
p645
aV.
aa(lp646
Vwhen
p647
aVthe
p648
aVdoctor
p649
aVexamines
p650
aVhim
p651
aV,
aVhe
p652
aVis
p653
aVamazed
p654
aVthat
p655
aVsuch
p656
aVan
p657
aVunhealthy
p658
aVman
p659
aVis
p660
aVstill
p661
aValive
p662
aVand
p663
aVis
p664
aVequally
p665
aVstruck
p666
aVby
p667
aVhow
p668
aVnatural
p669
aVthe
p670
aV[
aVCHARACTER
p671
aV]
aV's
p672
aVwings
p673
aVseem
p674
aVto
p675
aVbe
p676
aV.
aa(lp677
Vsuch
p678
aVan
p679
aVunsurprised
p680
aVreaction
p681
aVessentially
p682
aVbrings
p683
aVthe
p684
aV``
p685
aVangel
p686
aV''
p687
aVdown
p688
aVto
p689
aVearth
p690
aV,
aVso
p691
aVany
p692
aVheavenly
p693
aVqualities
p694
aVthe
p695
aV[
aVCHARACTER
p696
aV]
aVmay
p697
aVhave
p698
aVare
p699
aVcompletely
p700
aVobscured
p701
aV.
aa(lp702
Vhowever
p703
aV,
aVthe
p704
aVnarrator
p705
aVseems
p706
aVto
p707
aVtake
p708
aVthe
p709
aV[
aVCHARACTER
p710
aV]
aV's
p711
aVangelhood
p712
aVfor
p713
aVgranted
p714
aV,
aVspeaking
p715
aVof
p716
aVthe
p717
aV``
p718
aVlunar
p719
aVdust
p720
aV''
p721
aVand
p722
aV``
p723
aVstellar
p724
aVparasites
p725
aV''
p726
aVon
p727
aVhis
p728
aVwings
p729
aV,
aVand
p730
aVthe
p731
aV[
aVCHARACTER
p732
aV]
aV's
p733
aV``
p734
aVconsolation
p735
aVmiracles
p736
aV,
aV''
p737
aVsuch
p738
aVas
p739
aVcausing
p740
aVsunflowers
p741
aVto
p742
aVsprout
p743
aVfrom
p744
aVa
aVleper
p745
aV's
p746
aVsores
p747
aV,
aVseem
p748
aVgenuinely
p749
aVsupernatural
p750
aV.
aa(lp751
Vin
p752
aVthe
p753
aVend
p754
aV,
aVthe
p755
aV[
aVCHARACTER
p756
aV]
aV's
p757
aVtrue
p758
aVnature
p759
aVremains
p760
aVa
aVmystery
p761
aV.
aassS'father gonzaga'
p762
(dp763
g20
(lp764
(lp765
V[
aVCHARACTER
p766
aV]
aV-
aVthe
p767
aVvillage
p768
aVpriest
p769
aV.
aa(lp770
Vas
p771
aVan
p772
aVauthority
p773
aVfigure
p774
aVin
p775
aVthe
p776
aVcommunity
p777
aV,
aV[
aVCHARACTER
p778
aV]
aVtakes
p779
aVit
p780
aVupon
p781
aVhimself
p782
aVto
p783
aVdiscern
p784
aVwhether
p785
aVthe
p786
aVold
p787
aVman
p788
aVis
p789
aVan
p790
aVangel
p791
aVas
p792
aVthe
p793
aVtownsfolk
p794
aVbelieve
p795
aVor
p796
aVjust
p797
aVa
aVmortal
p798
aVwho
p799
aVjust
p800
aVhappens
p801
aVto
p802
aVhave
p803
aVwings
p804
aV.
aa(lp805
V[
aVCHARACTER
p806
aV]
aVis
p807
aVskeptical
p808
aVthat
p809
aVthe
p810
aVdirty
p811
aVold
p812
aVman
p813
aVcould
p814
aVreally
p815
aVbe
p816
aVa
aVmessenger
p817
aVfrom
p818
aVheaven
p819
aV,
aVbut
p820
aVhe
p821
aVdutifully
p822
aVreports
p823
aVthe
p824
aVevent
p825
aVto
p826
aVhis
p827
aVsuperiors
p828
aVin
p829
aVthe
p830
aVchurch
p831
aV.
aa(lp832
Vas
p833
aVhe
p834
aVwaits
p835
aVfor
p836
aVthe
p837
aVvatican
p838
aV's
p839
aVreply
p840
aV,
aVhe
p841
aVdoes
p842
aVhis
p843
aVbest
p844
aVto
p845
aVrestrain
p846
aVthe
p847
aVenthusiasm
p848
aVand
p849
aVcredulousness
p850
aVof
p851
aVthe
p852
aVcrowd
p853
aVof
p854
aVonlookers
p855
aV.
aasg84
(lp856
(lp857
(lp858
Vd
aVwith
p859
aVa
aVdesire
p860
aVto
p861
aVeat
p862
aV.
aa(lp863
Vthen
p864
aVthey
p865
aVfelt
p866
aVmagnanimous
p867
aVand
p868
aVdecided
p869
aVto
p870
aVput
p871
aVthe
p872
aVangel
p873
aVon
p874
aVa
aVraft
p875
aVwith
p876
aVfresh
p877
aVwater
p878
aVand
p879
aVprovisions
p880
aVfor
p881
aVthree
p882
aVdays
p883
aVand
p884
aVleave
p885
aVhim
p886
aVto
p887
aVhis
p888
aVfate
p889
aVon
p890
aVthe
p891
aVhigh
p892
aVseas
p893
aV.
aa(lp894
Vbut
p895
aVwhen
p896
aVthey
p897
aVwent
p898
aVout
p899
aVinto
p900
aVthe
p901
aVcourtyard
p902
aVwith
p903
aVthe
p904
aVfirst
p905
aVlight
p906
aVof
p907
aVdawn
p908
aV,
aVthey
p909
aVfound
p910
aVthe
p911
aVwhole
p912
aVneighborhood
p913
aVin
p914
aVfront
p915
aVof
p916
aVthe
p917
aVchicken
p918
aVcoop
p919
aVhaving
p920
aVfun
p921
aVwith
p922
aVthe
p923
aVangel
p924
aV,
aVwithout
p925
aVthe
p926
aVslightest
p927
aVreverence
p928
aV,
aVtossing
p929
aVhim
p930
aVthings
p931
aVto
p932
aVeat
p933
aVthrough
p934
aVthe
p935
aVopenings
p936
aVin
p937
aVthe
p938
aVwire
p939
aVas
p940
aVif
p941
aVhe
p942
aVweren\u2019t
p943
aVa
aVsupernatural
p944
aVcreature
p945
aVbut
p946
aVa
aVcircus
p947
aVanimal
p948
aV.
aa(lp949
Vfather
p950
aVgonzaga
p951
aVarrived
p952
aVbefore
p953
aVseven
p954
aVo\u2019clock
p955
aV,
aValarmed
p956
aVat
p957
aVthe
p958
aVstrange
p959
aVnews
p960
aV.
aa(lp961
Vby
p962
aVthat
p963
aVtime
p964
aVonlookers
p965
aVless
p966
aVfrivolous
p967
aVthan
p968
aVthose
p969
aVat
p970
aVdawn
p971
aVhad
p972
aValready
p973
aVarrived
p974
aVand
p975
aVthey
p976
aVwere
p977
aVmaking
p978
aVall
p979
aVkinds
p980
aVof
p981
aVconjectures
p982
aVconcerning
p983
aVthe
p984
aVcaptive\u2019s
p985
aVfuture
p986
aV.
aa(lp987
Vthe
p988
aVsimplest
p989
aVamong
p990
aVthem
p991
aVthought
p992
aVthat
p993
aVhe
p994
aVshould
p995
aVbe
p996
aVnamed
p997
aVmayor
p998
aVof
p999
aVthe
p1000
aVworld
p1001
aV.
aa(lp1002
Vothers
p1003
aVof
p1004
aVsterner
p1005
aVmind
p1006
aVfelt
p1007
aVthat
p1008
aVhe
p1009
aVshould
p1010
aVbe
p1011
aVpromoted
p1012
aVto
p1013
aVthe
p1014
aVrank
p1015
aVof
p1016
aVfive-star
p1017
aVgeneral
p1018
aVin
p1019
aVorder
p1020
aVto
p1021
aVwin
p1022
aVall
p1023
aVwars
p1024
aV.
aa(lp1025
Vsome
p1026
aVvisionaries
p1027
aVhoped
p1028
aVthat
p1029
aVhe
p1030
aVcould
p1031
aVbe
p1032
aVput
p1033
aVto
p1034
aVstud
p1035
aVin
p1036
aVorder
p1037
aVto
p1038
aVimplant
p1039
aVthe
p1040
aVearth
p1041
aVa
aVrace
p1042
aVo
aaa(lp1043
(lp1044
Vf
aVwinged
p1045
aVwise
p1046
aVmen
p1047
aVwho
p1048
aVcould
p1049
aVtake
p1050
aVcharge
p1051
aVof
p1052
aVthe
p1053
aVuniverse
p1054
aV.
aa(lp1055
Vbut
p1056
aVfather
p1057
aVgonzaga
p1058
aV,
aVbefore
p1059
aVbecoming
p1060
aVa
aVpriest
p1061
aV,
aVhad
p1062
aVbeen
p1063
aVa
aVrobust
p1064
aVwoodcutter
p1065
aV.
aa(lp1066
Vstanding
p1067
aVby
p1068
aVthe
p1069
aVwire
p1070
aV,
aVhe
p1071
aVreviewed
p1072
aVhis
p1073
aVcatechism
p1074
aVin
p1075
aVan
p1076
aVinstant
p1077
aVand
p1078
aVasked
p1079
aVthem
p1080
aVto
p1081
aVopen
p1082
aVthe
p1083
aVdoor
p1084
aVso
p1085
aVthat
p1086
aVhe
p1087
aVcould
p1088
aVtake
p1089
aVa
aVclose
p1090
aVlook
p1091
aVat
p1092
aVthat
p1093
aVpitiful
p1094
aVman
p1095
aVwho
p1096
aVlooked
p1097
aVmore
p1098
aVlike
p1099
aVa
aVhuge
p1100
aVdecrepit
p1101
aVhen
p1102
aVamong
p1103
aVthe
p1104
aVfascinated
p1105
aVchickens
p1106
aV.
aa(lp1107
Vhe
p1108
aVwas
p1109
aVlying
p1110
aVin
p1111
aVthe
p1112
aVcorner
p1113
aVdrying
p1114
aVhis
p1115
aVopen
p1116
aVwings
p1117
aVin
p1118
aVthe
p1119
aVsunlight
p1120
aVamong
p1121
aVthe
p1122
aVfruit
p1123
aVpeels
p1124
aVand
p1125
aVbreakfast
p1126
aVleftovers
p1127
aVthat
p1128
aVthe
p1129
aVearly
p1130
aVrisers
p1131
aVhad
p1132
aVthrown
p1133
aVhim
p1134
aV.
aa(lp1135
Valien
p1136
aVto
p1137
aVthe
p1138
aVimpertinences
p1139
aVof
p1140
aVthe
p1141
aVworld
p1142
aV,
aVhe
p1143
aVonly
p1144
aVlifted
p1145
aVhis
p1146
aVantiquarian
p1147
aaa(lp1148
(lp1149
Veyes
p1150
aVand
p1151
aVmurmured
p1152
aVsomething
p1153
aVin
p1154
aVhis
p1155
aVdialect
p1156
aVwhen
p1157
aVfather
p1158
aVgonzaga
p1159
aVwent
p1160
aVinto
p1161
aVthe
p1162
aVchicken
p1163
aVcoop
p1164
aVand
p1165
aVsaid
p1166
aVgood
p1167
aVmorning
p1168
aVto
p1169
aVhim
p1170
aVin
p1171
aVlatin
p1172
aV.
aa(lp1173
Vthe
p1174
aVparish
p1175
aVpriest
p1176
aVhad
p1177
aVhis
p1178
aVfirst
p1179
aVsuspicion
p1180
aVof
p1181
aVan
p1182
aVimposter
p1183
aVwhen
p1184
aVhe
p1185
aVsaw
p1186
aVthat
p1187
aVhe
p1188
aVdid
p1189
aVnot
p1190
aVunderstand
p1191
aVthe
p1192
aVlanguage
p1193
aVof
p1194
aVgod
p1195
aVor
p1196
aVknow
p1197
aVhow
p1198
aVto
p1199
aVgreet
p1200
aVhis
p1201
aVministers
p1202
aV.
aa(lp1203
Vthen
p1204
aVhe
p1205
aVnoticed
p1206
aVthat
p1207
aVseen
p1208
aVclose
p1209
aVup
p1210
aVhe
p1211
aVwas
p1212
aVmuch
p1213
aVtoo
p1214
aVhuman
p1215
aV:
aVhe
p1216
aVhad
p1217
aVan
p1218
aVunbearable
p1219
aVsmell
p1220
aVof
p1221
aVthe
p1222
aVoutdoors
p1223
aV,
aVthe
p1224
aVback
p1225
aVside
p1226
aVof
p1227
aVhis
p1228
aVwings
p1229
aVwas
p1230
aVstrewn
p1231
aVwith
p1232
aVparasites
p1233
aVand
p1234
aVhis
p1235
aVmain
p1236
aVfeathers
p1237
aVhad
p1238
aVbeen
p1239
aVmistreated
p1240
aVby
p1241
aVterrestrial
p1242
aVwinds
p1243
aV,
aVand
p1244
aVnothing
p1245
aVabout
p1246
aVhim
p1247
aVmeasured
p1248
aVup
p1249
aVto
p1250
aVthe
p1251
aVproud
p1252
aVdignity
p1253
aVof
p1254
aVange
p1255
aaa(lp1256
(lp1257
Vhe
p1258
aVawoke
p1259
aVwith
p1260
aVa
aVstart
p1261
aV,
aVranting
p1262
aVin
p1263
aVhis
p1264
aVhermetic
p1265
aVlanguage
p1266
aVand
p1267
aVwith
p1268
aVtears
p1269
aVin
p1270
aVhis
p1271
aVeyes
p1272
aV,
aVand
p1273
aVhe
p1274
aVflapped
p1275
aVhis
p1276
aVwings
p1277
aVa
aVcouple
p1278
aVof
p1279
aVtimes
p1280
aV,
aVwhich
p1281
aVbrought
p1282
aVon
p1283
aVa
aVwhirlwind
p1284
aVof
p1285
aVchicken
p1286
aVdung
p1287
aVand
p1288
aVlunar
p1289
aVdust
p1290
aVand
p1291
aVa
aVgale
p1292
aVof
p1293
aVpanic
p1294
aVthat
p1295
aVdid
p1296
aVnot
p1297
aVseem
p1298
aVto
p1299
aVbe
p1300
aVof
p1301
aVthis
p1302
aVworld
p1303
aV.
aa(lp1304
Valthough
p1305
aVmany
p1306
aVthought
p1307
aVthat
p1308
aVhis
p1309
aVreaction
p1310
aVhad
p1311
aVnot
p1312
aVbeen
p1313
aVone
p1314
aVof
p1315
aVrage
p1316
aVbut
p1317
aVof
p1318
aVpain
p1319
aV,
aVfrom
p1320
aVthen
p1321
aVon
p1322
aVthey
p1323
aVwere
p1324
aVcareful
p1325
aVnot
p1326
aVto
p1327
aVannoy
p1328
aVhim
p1329
aV,
aVbecause
p1330
aVthe
p1331
aVmajority
p1332
aVunderstood
p1333
aVthat
p1334
aVhis
p1335
aVpassivity
p1336
aVwas
p1337
aVnot
p1338
aVthat
p1339
aVof
p1340
aVa
aVhero
p1341
aVtaking
p1342
aVhis
p1343
aVease
p1344
aVbut
p1345
aVthat
p1346
aVof
p1347
aVa
aVcataclysm
p1348
aVin
p1349
aVrepose
p1350
aV.
aa(lp1351
Vfather
p1352
aVgonzaga
p1353
aVheld
p1354
aVback
p1355
aVthe
p1356
aVcrowd\u2019s
p1357
aVfrivolity
p1358
aVwith
p1359
aVformulas
p1360
aVof
p1361
aVmaidservant
p1362
aVinspiration
p1363
aVwhile
p1364
aVawaiting
p1365
aVthe
p1366
aVarrival
p1367
aVof
p1368
aVa
aVfinal
p1369
aVjudgment
p1370
aVon
p1371
aVthe
p1372
aVnature
p1373
aVof
p1374
aVthe
p1375
aVcaptive
p1376
aV.
aa(lp1377
Vbut
p1378
aVthe
p1379
aVmail
p1380
aVfrom
p1381
aVrome
p1382
aVshowed
p1383
aVno
p1384
aVsense
p1385
aVof
p1386
aVurgency
p1387
aV.
aa(lp1388
Vthey
p1389
aVspent
p1390
aVtheir
p1391
aVtime
p1392
aVfinding
p1393
aVout
p1394
aVif
p1395
aVthe
p1396
aVprisoner
p1397
aVhad
p1398
aVa
aVnavel
p1399
aV,
aVif
p1400
aVhis
p1401
aVdialect
p1402
aVhad
p1403
aVany
p1404
aVconnection
p1405
aVwith
p1406
aVaramaic
p1407
aV,
aVhow
p1408
aVmany
p1409
aVtimes
p1410
aVhe
p1411
aVcould
p1412
aVfit
p1413
aVon
p1414
aVthe
p1415
aVhead
p1416
aVof
p1417
aVa
aVpin
p1418
aV,
aVor
p1419
aVwhether
p1420
aVhe
p1421
aVwasn\u2019t
p1422
aVjust
p1423
aVa
aVnorwegian
p1424
aVwith
p1425
aVwings
p1426
aV.
aa(lp1427
Vthose
p1428
aVmeager
p1429
aVletters
p1430
aVmight
p1431
aVhave
p1432
aVcome
p1433
aVand
p1434
aVgone
p1435
aVuntil
p1436
aVthe
p1437
aVend
p1438
aVof
p1439
aVtime
p1440
aVif
p1441
aVa
aVprovidenti
p1442
aaa(lp1443
(lp1444
Vd
aVto
p1445
aVlook
p1446
aVat
p1447
aVmortals
p1448
aV.
aa(lp1449
Vbesides
p1450
aV,
aVthe
p1451
aVfew
p1452
aVmiracles
p1453
aVattributed
p1454
aVto
p1455
aVthe
p1456
aVangel
p1457
aVshowed
p1458
aVa
aVcertain
p1459
aVmental
p1460
aVdisorder
p1461
aV,
aVlike
p1462
aVthe
p1463
aVblind
p1464
aVman
p1465
aVwho
p1466
aVdidn\u2019t
p1467
aVrecover
p1468
aVhis
p1469
aVsight
p1470
aVbut
p1471
aVgrew
p1472
aVthree
p1473
aVnew
p1474
aVteeth
p1475
aV,
aVor
p1476
aVthe
p1477
aVparalytic
p1478
aVwho
p1479
aVdidn\u2019t
p1480
aVget
p1481
aVto
p1482
aVwalk
p1483
aVbut
p1484
aValmost
p1485
aVwon
p1486
aVthe
p1487
aVlottery
p1488
aV,
aVand
p1489
aVthe
p1490
aVleper
p1491
aVwhose
p1492
aVsores
p1493
aVsprouted
p1494
aVsunflowers
p1495
aV.
aa(lp1496
Vthose
p1497
aVconsolation
p1498
aVmiracles
p1499
aV,
aVwhich
p1500
aVwere
p1501
aVmore
p1502
aVlike
p1503
aVmocking
p1504
aVfun
p1505
aV,
aVhad
p1506
aValready
p1507
aVruined
p1508
aVthe
p1509
aVangel\u2019s
p1510
aVreputation
p1511
aVwhen
p1512
aVthe
p1513
aVwoman
p1514
aVwho
p1515
aVhad
p1516
aVbeen
p1517
aVchanged
p1518
aVinto
p1519
aVa
aVspider
p1520
aVfinally
p1521
aVcrushed
p1522
aVhim
p1523
aVcompletely
p1524
aV.
aa(lp1525
Vthat
p1526
aVwas
p1527
aVhow
p1528
aVfather
p1529
aVgonzaga
p1530
aVwas
p1531
aVcured
p1532
aVforever
p1533
aVof
p1534
aVhis
p1535
aVinsomnia
p1536
aVand
p1537
aVpelayo\u2019s
p1538
aVcourtyard
p1539
aVwent
p1540
aVback
p1541
aVto
p1542
aVbeing
p1543
aVas
p1544
aVempty
p1545
aVas
p1546
aVduring
p1547
aVthe
p1548
aVtime
p1549
aVit
p1550
aVhad
p1551
aVrained
p1552
aVfor
p1553
aVthree
p1554
aVdays
p1555
aVand
p1556
aVcrabs
p1557
aVwalked
p1558
aVthrough
p1559
aVthe
p1560
aVbedrooms
p1561
aV.
aa(lp1562
Vthe
p1563
aVowners
p1564
aVof
p1565
aVthe
p1566
aVhouse
p1567
aVhad
p1568
aVno
p1569
aVreason
p1570
aVto
p1571
aVlament
p1572
aV.
aa(lp1573
Vwith
p1574
aVthe
p1575
aVmoney
p1576
aVthey
p1577
aVsaved
p1578
aVthey
p1579
aVbuilt
p1580
aVa
aVtwo-story
p1581
aVmansion
p1582
aVwith
p1583
aVbalconies
p1584
aVand
p1585
aVgardens
p1586
aVand
p1587
aVhigh
p1588
aVnetting
p1589
aVso
p1590
aVthat
p1591
aVcrabs
p1592
aVwouldn\u2019t
p1593
aVget
p1594
aVin
p1595
aVduring
p1596
aVthe
p1597
aVwinter
p1598
aV,
aVand
p1599
aVwith
p1600
aViron
p1601
aVbars
p1602
aVon
p1603
aVthe
p1604
aVwindows
p1605
aVso
p1606
aVthat
p1607
aVangels
p1608
aVwouldn\u2019t
p1609
aVget
p1610
aVin
p1611
aV.
aa(lp1612
Vpelayo
p1613
aValso
p1614
aVset
p1615
aVup
p1616
aVa
aVrabbit
p1617
aVwarren
p1618
aVclose
p1619
aVto
p1620
aVtown
p1621
aVand
p1622
aVga
p1623
aaasg87
NssS'the neighbor woman'
p1624
(dp1625
g20
(lp1626
(lp1627
Vthe
p1628
aV[
aVCHARACTER
p1629
aV]
aV-
aVpelayo
p1630
aVand
p1631
aVelisenda
p1632
aV's
p1633
aVbossy
p1634
aVneighbor
p1635
aV.
aa(lp1636
Vthe
p1637
aVsupposedly
p1638
aVwise
p1639
aV[
aVCHARACTER
p1640
aV]
aVactually
p1641
aVseems
p1642
aVmore
p1643
aVlike
p1644
aVa
aVsilly
p1645
aVknow-it-all
p1646
aVthan
p1647
aVa
aVtrue
p1648
aVcounselor
p1649
aVand
p1650
aVis
p1651
aVthe
p1652
aVfirst
p1653
aVto
p1654
aVsuggest
p1655
aVthat
p1656
aVthe
p1657
aVold
p1658
aVman
p1659
aVis
p1660
aVa
aVcrippled
p1661
aVangel
p1662
aV.
aa(lp1663
Vshe
p1664
aVtells
p1665
aVpelayo
p1666
aVto
p1667
aVclub
p1668
aVthe
p1669
aVold
p1670
aVman
p1671
aVto
p1672
aVdeath
p1673
aVto
p1674
aVprevent
p1675
aVhim
p1676
aVfrom
p1677
aVtaking
p1678
aVpelayo
p1679
aVand
p1680
aVelisenda
p1681
aV's
p1682
aVsick
p1683
aVbaby
p1684
aVto
p1685
aVheaven
p1686
aV.
aasg84
(lp1687
(lp1688
(lp1689
Virty
p1690
aVand
p1691
aVhalf-plucked
p1692
aV,
aVwere
p1693
aVforever
p1694
aVentangled
p1695
aVin
p1696
aVthe
p1697
aVmud
p1698
aV.
aa(lp1699
Vthey
p1700
aVlooked
p1701
aVat
p1702
aVhim
p1703
aVso
p1704
aVlong
p1705
aVand
p1706
aVso
p1707
aVclosely
p1708
aVthat
p1709
aVpelayo
p1710
aVand
p1711
aVelisenda
p1712
aVvery
p1713
aVsoon
p1714
aVovercame
p1715
aVtheir
p1716
aVsurprise
p1717
aVand
p1718
aVin
p1719
aVthe
p1720
aVend
p1721
aVfound
p1722
aVhim
p1723
aVfamiliar
p1724
aV.
aa(lp1725
Vthen
p1726
aVthey
p1727
aVdared
p1728
aVspeak
p1729
aVto
p1730
aVhim
p1731
aV,
aVand
p1732
aVhe
p1733
aVanswered
p1734
aVin
p1735
aVan
p1736
aVincomprehensible
p1737
aVdialect
p1738
aVwith
p1739
aVa
aVstrong
p1740
aVsailor\u2019s
p1741
aVvoice
p1742
aV.
aa(lp1743
Vthat
p1744
aVwas
p1745
aVhow
p1746
aVthey
p1747
aVskipped
p1748
aVover
p1749
aVthe
p1750
aVinconvenience
p1751
aVof
p1752
aVthe
p1753
aVwings
p1754
aVand
p1755
aVquite
p1756
aVintelligently
p1757
aVconcluded
p1758
aVthat
p1759
aVhe
p1760
aVwas
p1761
aVa
aVlonely
p1762
aVcastaway
p1763
aVfrom
p1764
aVsome
p1765
aVforeign
p1766
aVship
p1767
aVwrecked
p1768
aVby
p1769
aVthe
p1770
aVstorm
p1771
aV.
aa(lp1772
Vand
p1773
aVyet
p1774
aV,
aVthey
p1775
aVcalled
p1776
aVin
p1777
aVa
aVneighbor
p1778
aVwoman
p1779
aVwho
p1780
aVknew
p1781
aVeverything
p1782
aVabout
p1783
aVlife
p1784
aVand
p1785
aVdeath
p1786
aVto
p1787
aVsee
p1788
aVhim
p1789
aV,
aVand
p1790
aVall
p1791
aVshe
p1792
aVneeded
p1793
aVwas
p1794
aVone
p1795
aVlook
p1796
aVto
p1797
aVshow
p1798
aVthem
p1799
aVtheir
p1800
aVmistake
p1801
aV.
aa(lp1802
V\u201che\u2019s
p1803
aVan
p1804
aVangel
p1805
aV,
aV\u201d
aVshe
p1806
aVtold
p1807
aVthem
p1808
aV.
aa(lp1809
V\u201che
p1810
aVmust
p1811
aVhave
p1812
aVbeen
p1813
aVcoming
p1814
aVfor
p1815
aVthe
p1816
aVchild
p1817
aV,
aVbut
p1818
aVthe
p1819
aVpoor
p1820
aVfellow
p1821
aVis
p1822
aVso
p1823
aVold
p1824
aVthat
p1825
aVthe
p1826
aVrain
p1827
aVknocked
p1828
aVhim
p1829
aVdown.\u201d
p1830
aVon
p1831
aVthe
p1832
aVfollowing
p1833
aVday
p1834
aVeveryone
p1835
aVknew
p1836
aVthat
p1837
aVa
aVflesh-and-blood
p1838
aVangel
p1839
aVwas
p1840
aVheld
p1841
aVcaptive
p1842
aVin
p1843
aVpelayo\u2019s
p1844
aVhouse
p1845
aV.
aa(lp1846
Vagainst
p1847
aVthe
p1848
aVjudgment
p1849
aVof
p1850
aVthe
p1851
aVwise
p1852
aVneighbor
p1853
aVwoman
p1854
aV,
aVfor
p1855
aVwhom
p1856
aVangels
p1857
aVin
p1858
aVthose
p1859
aVtimes
p1860
aVwere
p1861
aVthe
p1862
aVfugitive
p1863
aVsurvivors
p1864
aVof
p1865
aVa
aVcelestial
p1866
aVconspiracy
p1867
aV,
aVt
aaa(lp1868
(lp1869
Vappy
p1870
aVwith
p1871
aVfatigue
p1872
aV,
aVfor
p1873
aVin
p1874
aVless
p1875
aVthan
p1876
aVa
aVweek
p1877
aVthey
p1878
aVhad
p1879
aVcrammed
p1880
aVtheir
p1881
aVrooms
p1882
aVwith
p1883
aVmoney
p1884
aVand
p1885
aVthe
p1886
aVline
p1887
aVof
p1888
aVpilgrims
p1889
aVwaiting
p1890
aVtheir
p1891
aVturn
p1892
aVto
p1893
aVenter
p1894
aVstill
p1895
aVreached
p1896
aVbeyond
p1897
aVthe
p1898
aVhorizon
p1899
aV.
aa(lp1900
Vthe
p1901
aVangel
p1902
aVwas
p1903
aVthe
p1904
aVonly
p1905
aVone
p1906
aVwho
p1907
aVtook
p1908
aVno
p1909
aVpart
p1910
aVin
p1911
aVhis
p1912
aVown
p1913
aVact
p1914
aV.
aa(lp1915
Vhe
p1916
aVspent
p1917
aVhis
p1918
aVtime
p1919
aVtrying
p1920
aVto
p1921
aVget
p1922
aVcomfortable
p1923
aVin
p1924
aVhis
p1925
aVborrowed
p1926
aVnest
p1927
aV,
aVbefuddled
p1928
aVby
p1929
aVthe
p1930
aVhellish
p1931
aVheat
p1932
aVof
p1933
aVthe
p1934
aVoil
p1935
aVlamps
p1936
aVand
p1937
aVsacramental
p1938
aVcandles
p1939
aVthat
p1940
aVhad
p1941
aVbeen
p1942
aVplaced
p1943
aValong
p1944
aVthe
p1945
aVwire
p1946
aV.
aa(lp1947
Vat
p1948
aVfirst
p1949
aVthey
p1950
aVtried
p1951
aVto
p1952
aVmake
p1953
aVhim
p1954
aVeat
p1955
aVsome
p1956
aVmothballs
p1957
aV,
aVwhich
p1958
aV,
aVaccording
p1959
aVto
p1960
aVthe
p1961
aVwisdom
p1962
aVof
p1963
aVthe
p1964
aVwise
p1965
aVneighbor
p1966
aVwoman
p1967
aV,
aVwere
p1968
aVthe
p1969
aVfood
p1970
aVprescribed
p1971
aVfor
p1972
aVangels
p1973
aV.
aa(lp1974
Vbut
p1975
aVhe
p1976
aVturned
p1977
aVthem
p1978
aVdown
p1979
aV,
aVjust
p1980
aVas
p1981
aVhe
p1982
aVturned
p1983
aVdown
p1984
aVthe
p1985
aVpapal
p1986
aVlunches
p1987
aVthat
p1988
aVthe
p1989
aVpentinents
p1990
aVbrought
p1991
aVhim
p1992
aV,
aVand
p1993
aVthey
p1994
aVnever
p1995
aVfound
p1996
aVout
p1997
aVwhether
p1998
aVit
p1999
aVwas
p2000
aVbecause
p2001
aVhe
p2002
aVwas
p2003
aVan
p2004
aVangel
p2005
aVor
p2006
aVbecause
p2007
aVhe
p2008
aVwas
p2009
aVan
p2010
aVold
p2011
aVman
p2012
aVthat
p2013
aVin
p2014
aVthe
p2015
aVend
p2016
aVate
p2017
aVnothing
p2018
aVbut
p2019
aVeggplant
p2020
aVmush
p2021
aV.
aa(lp2022
Vhis
p2023
aVonly
p2024
aVsupernatural
p2025
aVvirtue
p2026
aVseemed
p2027
aVto
p2028
aVbe
p2029
aVpatience
p2030
aV.
aa(lp2031
Vespecially
p2032
aVduring
p2033
aVthe
p2034
aVfirst
p2035
aVdays
p2036
aV,
aVwhen
p2037
aVthe
p2038
aVhens
p2039
aVpecked
p2040
aVat
p2041
aVhim
p2042
aV,
aVsearching
p2043
aVfor
p2044
aVthe
p2045
aVstellar
p2046
aVparasites
p2047
aVthat
p2048
aVproliferated
p2049
aVin
p2050
aVhis
p2051
aVwings
p2052
aV,
aVand
p2053
aVthe
p2054
aVcripples
p2055
aVpulled
p2056
aVout
p2057
aVfeathers
p2058
aVto
p2059
aaa(lp2060
(lp2061
Vd
aVscarcely
p2062
aVeat
p2063
aVand
p2064
aVhis
p2065
aVantiquarian
p2066
aVeyes
p2067
aVhad
p2068
aValso
p2069
aVbecome
p2070
aVso
p2071
aVfoggy
p2072
aVthat
p2073
aVhe
p2074
aVwent
p2075
aVabout
p2076
aVbumping
p2077
aVinto
p2078
aVposts
p2079
aV.
aa(lp2080
Vall
p2081
aVhe
p2082
aVhad
p2083
aVleft
p2084
aVwere
p2085
aVthe
p2086
aVbare
p2087
aVcannulae
p2088
aVof
p2089
aVhis
p2090
aVlast
p2091
aVfeathers
p2092
aV.
aa(lp2093
Vpelayo
p2094
aVthrew
p2095
aVa
aVblanket
p2096
aVover
p2097
aVhim
p2098
aVand
p2099
aVextended
p2100
aVhim
p2101
aVthe
p2102
aVcharity
p2103
aVof
p2104
aVletting
p2105
aVhim
p2106
aVsleep
p2107
aVin
p2108
aVthe
p2109
aVshed
p2110
aV,
aVand
p2111
aVonly
p2112
aVthen
p2113
aVdid
p2114
aVthey
p2115
aVnotice
p2116
aVthat
p2117
aVhe
p2118
aVhad
p2119
aVa
aVtemperature
p2120
aVat
p2121
aVnight
p2122
aV,
aVand
p2123
aVwas
p2124
aVdelirious
p2125
aVwith
p2126
aVthe
p2127
aVtongue
p2128
aVtwisters
p2129
aVof
p2130
aVan
p2131
aVold
p2132
aVnorwegian
p2133
aV.
aa(lp2134
Vthat
p2135
aVwas
p2136
aVone
p2137
aVof
p2138
aVthe
p2139
aVfew
p2140
aVtimes
p2141
aVthey
p2142
aVbecame
p2143
aValarmed
p2144
aV,
aVfor
p2145
aVthey
p2146
aVthought
p2147
aVhe
p2148
aVwas
p2149
aVgoing
p2150
aVto
p2151
aVdie
p2152
aVand
p2153
aVnot
p2154
aVeven
p2155
aVthe
p2156
aVwise
p2157
aVneighbor
p2158
aVwoman
p2159
aVhad
p2160
aVbeen
p2161
aVable
p2162
aVto
p2163
aVtell
p2164
aVthem
p2165
aVwhat
p2166
aVto
p2167
aVdo
p2168
aVwith
p2169
aVdead
p2170
aVangels
p2171
aV.
aa(lp2172
Vand
p2173
aVyet
p2174
aVhe
p2175
aVnot
p2176
aVonly
p2177
aVsurvived
p2178
aVhis
p2179
aVworst
p2180
aVwinter
p2181
aV,
aVbut
p2182
aVseemed
p2183
aVimproved
p2184
aVwith
p2185
aVthe
p2186
aVfirst
p2187
aVsunny
p2188
aVdays
p2189
aV.
aa(lp2190
Vhe
p2191
aVremained
p2192
aVmotionless
p2193
aVfor
p2194
aVseveral
p2195
aVdays
p2196
aVin
p2197
aVthe
p2198
aVfarthest
p2199
aVcorner
p2200
aVof
p2201
aVthe
p2202
aVcourtyard
p2203
aV,
aVwhere
p2204
aVno
p2205
aVone
p2206
aVwould
p2207
aVsee
p2208
aVhim
p2209
aV,
aVand
p2210
aVat
p2211
aVthe
p2212
aVbeginning
p2213
aVof
p2214
aVdecember
p2215
aVsome
p2216
aVlarge
p2217
aV,
aVstiff
p2218
aVfeathers
p2219
aVbegan
p2220
aVto
p2221
aVgrow
p2222
aVon
p2223
aVhis
p2224
aVwings
p2225
aV,
aVthe
p2226
aVfeathers
p2227
aVof
p2228
aVa
aVscarecrow
p2229
aV,
aVwhich
p2230
aVlooked
p2231
aVmore
p2232
aVlike
p2233
aVanother
p2234
aVmisfortune
p2235
aVof
p2236
aVdecreptitude
p2237
aV.
aa(lp2238
Vbut
p2239
aVhe
p2240
aVmust
p2241
aVhave
p2242
aVknown
p2243
aVthe
p2244
aVreason
p2245
aVfor
p2246
aVthose
p2247
aVchanges
p2248
aV,
aVfor
p2249
aVhe
p2250
aVwas
p2251
aaasg87
NssS'elisenda'
p2252
(dp2253
g20
(lp2254
(lp2255
V[
aVCHARACTER
p2256
aV]
aV-
aVpelayo
p2257
aV's
p2258
aVwife
p2259
aV.
aa(lp2260
V[
aVCHARACTER
p2261
aV]
aVconvinces
p2262
aVpelayo
p2263
aVto
p2264
aVcharge
p2265
aVvillagers
p2266
aVto
p2267
aVsee
p2268
aVthe
p2269
aVold
p2270
aVman
p2271
aVbut
p2272
aVlater
p2273
aVconsiders
p2274
aVhim
p2275
aVto
p2276
aVbe
p2277
aVa
aVnuisance
p2278
aV.
aa(lp2279
Va
aVpractical
p2280
aVwoman
p2281
aV,
aVshe
p2282
aVprimarily
p2283
aVconcerns
p2284
aVherself
p2285
aVwith
p2286
aVthe
p2287
aVwelfare
p2288
aVof
p2289
aVpelayo
p2290
aVand
p2291
aVtheir
p2292
aVchild
p2293
aVand
p2294
aVis
p2295
aVtherefore
p2296
aVrelieved
p2297
aVwhen
p2298
aVthe
p2299
aVold
p2300
aVman
p2301
aVfinally
p2302
aVleaves
p2303
aV.
aasg84
(lp2304
(lp2305
(lp2306
Vd
aVlight
p2307
aV,
aVhad
p2308
aVbecome
p2309
aVa
aVstew
p2310
aVof
p2311
aVmud
p2312
aVand
p2313
aVrotten
p2314
aVshellfish
p2315
aV.
aa(lp2316
Vthe
p2317
aVlight
p2318
aVwas
p2319
aVso
p2320
aVweak
p2321
aVat
p2322
aVnoon
p2323
aVthat
p2324
aVwhen
p2325
aVpelayo
p2326
aVwas
p2327
aVcoming
p2328
aVback
p2329
aVto
p2330
aVthe
p2331
aVhouse
p2332
aVafter
p2333
aVthrowing
p2334
aVaway
p2335
aVthe
p2336
aVcrabs
p2337
aV,
aVit
p2338
aVwas
p2339
aVhard
p2340
aVfor
p2341
aVhim
p2342
aVto
p2343
aVsee
p2344
aVwhat
p2345
aVit
p2346
aVwas
p2347
aVthat
p2348
aVwas
p2349
aVmoving
p2350
aVand
p2351
aVgroaning
p2352
aVin
p2353
aVthe
p2354
aVrear
p2355
aVof
p2356
aVthe
p2357
aVcourtyard
p2358
aV.
aa(lp2359
Vhe
p2360
aVhad
p2361
aVto
p2362
aVgo
p2363
aVvery
p2364
aVclose
p2365
aVto
p2366
aVsee
p2367
aVthat
p2368
aVit
p2369
aVwas
p2370
aVan
p2371
aVold
p2372
aVman
p2373
aV,
aVa
aVvery
p2374
aVold
p2375
aVman
p2376
aV,
aVlying
p2377
aVface
p2378
aVdown
p2379
aVin
p2380
aVthe
p2381
aVmud
p2382
aV,
aVwho
p2383
aV,
aVin
p2384
aVspite
p2385
aVof
p2386
aVhis
p2387
aVtremendous
p2388
aVefforts
p2389
aV,
aVcouldn\u2019t
p2390
aVget
p2391
aVup
p2392
aV,
aVimpeded
p2393
aVby
p2394
aVhis
p2395
aVenormous
p2396
aVwings
p2397
aV.
aa(lp2398
Vfrightened
p2399
aVby
p2400
aVthat
p2401
aVnightmare
p2402
aV,
aVpelayo
p2403
aVran
p2404
aVto
p2405
aVget
p2406
aVelisenda
p2407
aV,
aVhis
p2408
aVwife
p2409
aV,
aVwho
p2410
aVwas
p2411
aVputting
p2412
aVcompresses
p2413
aVon
p2414
aVthe
p2415
aVsick
p2416
aVchild
p2417
aV,
aVand
p2418
aVhe
p2419
aVtook
p2420
aVher
p2421
aVto
p2422
aVthe
p2423
aVrear
p2424
aVof
p2425
aVthe
p2426
aVcourtyard
p2427
aV.
aa(lp2428
Vthey
p2429
aVboth
p2430
aVlooked
p2431
aVat
p2432
aVthe
p2433
aVfallen
p2434
aVbody
p2435
aVwith
p2436
aVa
aVmute
p2437
aVstupor
p2438
aV.
aa(lp2439
Vhe
p2440
aVwas
p2441
aVdressed
p2442
aVlike
p2443
aVa
aVragpicker
p2444
aV.
aa(lp2445
Vthere
p2446
aVwere
p2447
aVonly
p2448
aVa
aVfew
p2449
aVfaded
p2450
aVhairs
p2451
aVleft
p2452
aVon
p2453
aVhis
p2454
aVbald
p2455
aVskull
p2456
aVand
p2457
aVvery
p2458
aVfew
p2459
aVteeth
p2460
aVin
p2461
aVhis
p2462
aVmouth
p2463
aV,
aVand
p2464
aVhis
p2465
aVpitiful
p2466
aVcondition
p2467
aVof
p2468
aVa
aVdrenched
p2469
aVgreat-grandfather
p2470
aVtook
p2471
aVaway
p2472
aVany
p2473
aVsense
p2474
aVof
p2475
aVgrandeur
p2476
aVhe
p2477
aVmight
p2478
aVhave
p2479
aVhad
p2480
aV.
aa(lp2481
Vhis
p2482
aVhuge
p2483
aVbuzzard
p2484
aVwings
p2485
aV,
aVdirty
p2486
aVand
p2487
aVhalf-plucked
p2488
aV,
aVwere
p2489
aVforever
p2490
aVentangled
p2491
aVin
p2492
aVthe
p2493
aVmud
p2494
aV.
aa(lp2495
Vthey
p2496
aVlooked
p2497
aVat
p2498
aVhim
p2499
aVso
p2500
aVlon
p2501
aaa(lp2502
(lp2503
Vg
aVand
p2504
aVso
p2505
aVclosely
p2506
aVthat
p2507
aVpelayo
p2508
aVand
p2509
aVelisenda
p2510
aVvery
p2511
aVsoon
p2512
aVovercame
p2513
aVtheir
p2514
aVsurprise
p2515
aVand
p2516
aVin
p2517
aVthe
p2518
aVend
p2519
aVfound
p2520
aVhim
p2521
aVfamiliar
p2522
aV.
aa(lp2523
Vthen
p2524
aVthey
p2525
aVdared
p2526
aVspeak
p2527
aVto
p2528
aVhim
p2529
aV,
aVand
p2530
aVhe
p2531
aVanswered
p2532
aVin
p2533
aVan
p2534
aVincomprehensible
p2535
aVdialect
p2536
aVwith
p2537
aVa
aVstrong
p2538
aVsailor\u2019s
p2539
aVvoice
p2540
aV.
aa(lp2541
Vthat
p2542
aVwas
p2543
aVhow
p2544
aVthey
p2545
aVskipped
p2546
aVover
p2547
aVthe
p2548
aVinconvenience
p2549
aVof
p2550
aVthe
p2551
aVwings
p2552
aVand
p2553
aVquite
p2554
aVintelligently
p2555
aVconcluded
p2556
aVthat
p2557
aVhe
p2558
aVwas
p2559
aVa
aVlonely
p2560
aVcastaway
p2561
aVfrom
p2562
aVsome
p2563
aVforeign
p2564
aVship
p2565
aVwrecked
p2566
aVby
p2567
aVthe
p2568
aVstorm
p2569
aV.
aa(lp2570
Vand
p2571
aVyet
p2572
aV,
aVthey
p2573
aVcalled
p2574
aVin
p2575
aVa
aVneighbor
p2576
aVwoman
p2577
aVwho
p2578
aVknew
p2579
aVeverything
p2580
aVabout
p2581
aVlife
p2582
aVand
p2583
aVdeath
p2584
aVto
p2585
aVsee
p2586
aVhim
p2587
aV,
aVand
p2588
aVall
p2589
aVshe
p2590
aVneeded
p2591
aVwas
p2592
aVone
p2593
aVlook
p2594
aVto
p2595
aVshow
p2596
aVthem
p2597
aVtheir
p2598
aVmista
p2599
aaa(lp2600
(lp2601
Vd-blood
p2602
aVangel
p2603
aVwas
p2604
aVheld
p2605
aVcaptive
p2606
aVin
p2607
aVpelayo\u2019s
p2608
aVhouse
p2609
aV.
aa(lp2610
Vagainst
p2611
aVthe
p2612
aVjudgment
p2613
aVof
p2614
aVthe
p2615
aVwise
p2616
aVneighbor
p2617
aVwoman
p2618
aV,
aVfor
p2619
aVwhom
p2620
aVangels
p2621
aVin
p2622
aVthose
p2623
aVtimes
p2624
aVwere
p2625
aVthe
p2626
aVfugitive
p2627
aVsurvivors
p2628
aVof
p2629
aVa
aVcelestial
p2630
aVconspiracy
p2631
aV,
aVthey
p2632
aVdid
p2633
aVnot
p2634
aVhave
p2635
aVthe
p2636
aVheart
p2637
aVto
p2638
aVclub
p2639
aVhim
p2640
aVto
p2641
aVdeath
p2642
aV.
aa(lp2643
Vpelayo
p2644
aVwatched
p2645
aVover
p2646
aVhim
p2647
aVall
p2648
aVafternoon
p2649
aVfrom
p2650
aVthe
p2651
aVkitchen
p2652
aV,
aVarmed
p2653
aVwith
p2654
aVhis
p2655
aVbailiff\u2019s
p2656
aVclub
p2657
aV,
aVand
p2658
aVbefore
p2659
aVgoing
p2660
aVto
p2661
aVbed
p2662
aVhe
p2663
aVdragged
p2664
aVhim
p2665
aVout
p2666
aVof
p2667
aVthe
p2668
aVmud
p2669
aVand
p2670
aVlocked
p2671
aVhim
p2672
aVup
p2673
aVwith
p2674
aVthe
p2675
aVhens
p2676
aVin
p2677
aVthe
p2678
aVwire
p2679
aVchicken
p2680
aVcoop
p2681
aV.
aa(lp2682
Vin
p2683
aVthe
p2684
aVmiddle
p2685
aVof
p2686
aVthe
p2687
aVnight
p2688
aV,
aVwhen
p2689
aVthe
p2690
aVrain
p2691
aVstopped
p2692
aV,
aVpelayo
p2693
aVand
p2694
aVelisenda
p2695
aVwere
p2696
aVstill
p2697
aVkilling
p2698
aVcrabs
p2699
aV.
aa(lp2700
Va
aVshort
p2701
aVtime
p2702
aVafterward
p2703
aVthe
p2704
aVchild
p2705
aVwoke
p2706
aVup
p2707
aVwithout
p2708
aVa
aVfever
p2709
aVand
p2710
aVwith
p2711
aVa
aVdesire
p2712
aVto
p2713
aVeat
p2714
aV.
aa(lp2715
Vthen
p2716
aVthey
p2717
aVfelt
p2718
aVmagnanimous
p2719
aVand
p2720
aVdecided
p2721
aVto
p2722
aVput
p2723
aVthe
p2724
aVangel
p2725
aVon
p2726
aVa
aVraft
p2727
aVwith
p2728
aVfresh
p2729
aVwater
p2730
aVand
p2731
aVprovisions
p2732
aVfor
p2733
aVthree
p2734
aVdays
p2735
aVand
p2736
aVleave
p2737
aVhim
p2738
aVto
p2739
aVhis
p2740
aVfate
p2741
aVon
p2742
aVthe
p2743
aVhigh
p2744
aVseas
p2745
aV.
aa(lp2746
Vbut
p2747
aVwhen
p2748
aVthey
p2749
aVwent
p2750
aVout
p2751
aVinto
p2752
aVthe
p2753
aVcourtyard
p2754
aVwith
p2755
aVthe
p2756
aVfirst
p2757
aVlight
p2758
aVof
p2759
aVdawn
p2760
aV,
aVthey
p2761
aVfound
p2762
aVthe
p2763
aVwhole
p2764
aVneighborhood
p2765
aVin
p2766
aVfront
p2767
aVof
p2768
aVthe
p2769
aVchicken
p2770
aVcoop
p2771
aVhaving
p2772
aVfun
p2773
aVwith
p2774
aVthe
p2775
aVangel
p2776
aV,
aVwithout
p2777
aVthe
p2778
aVslightest
p2779
aVreverence
p2780
aV,
aVtossing
p2781
aVhim
p2782
aVthings
p2783
aVto
p2784
aVeat
p2785
aVthrough
p2786
aVthe
p2787
aaa(lp2788
(lp2789
Vof
p2790
aVangels
p2791
aV.
aa(lp2792
Vnevertheless
p2793
aV,
aVhe
p2794
aVpromised
p2795
aVto
p2796
aVwrite
p2797
aVa
aVletter
p2798
aVto
p2799
aVhis
p2800
aVbishop
p2801
aVso
p2802
aVthat
p2803
aVthe
p2804
aVlatter
p2805
aVwould
p2806
aVwrite
p2807
aVhis
p2808
aVprimate
p2809
aVso
p2810
aVthat
p2811
aVthe
p2812
aVlatter
p2813
aVwould
p2814
aVwrite
p2815
aVto
p2816
aVthe
p2817
aVsupreme
p2818
aVpontiff
p2819
aVin
p2820
aVorder
p2821
aVto
p2822
aVget
p2823
aVthe
p2824
aVfinal
p2825
aVverdict
p2826
aVfrom
p2827
aVthe
p2828
aVhighest
p2829
aVcourts
p2830
aV.
aa(lp2831
Vhis
p2832
aVprudence
p2833
aVfell
p2834
aVon
p2835
aVsterile
p2836
aVhearts
p2837
aV.
aa(lp2838
Vthe
p2839
aVnews
p2840
aVof
p2841
aVthe
p2842
aVcaptive
p2843
aVangel
p2844
aVspread
p2845
aVwith
p2846
aVsuch
p2847
aVrapidity
p2848
aVthat
p2849
aVafter
p2850
aVa
aVfew
p2851
aVhours
p2852
aVthe
p2853
aVcourtyard
p2854
aVhad
p2855
aVthe
p2856
aVbustle
p2857
aVof
p2858
aVa
aVmarketplace
p2859
aVand
p2860
aVthey
p2861
aVhad
p2862
aVto
p2863
aVcall
p2864
aVin
p2865
aVtroops
p2866
aVwith
p2867
aVfixed
p2868
aVbayonets
p2869
aVto
p2870
aVdisperse
p2871
aVthe
p2872
aVmob
p2873
aVthat
p2874
aVwas
p2875
aVabout
p2876
aVto
p2877
aVknock
p2878
aVthe
p2879
aVhouse
p2880
aVdown
p2881
aV.
aa(lp2882
Velisenda
p2883
aV,
aVher
p2884
aVspine
p2885
aVall
p2886
aVtwisted
p2887
aVfrom
p2888
aVsweeping
p2889
aVup
p2890
aVso
p2891
aVmuch
p2892
aVmarketplace
p2893
aVtrash
p2894
aV,
aVthen
p2895
aVgot
p2896
aVthe
p2897
aVidea
p2898
aVof
p2899
aVfencing
p2900
aVin
p2901
aVthe
p2902
aVyard
p2903
aVand
p2904
aVcharging
p2905
aVfive
p2906
aVcents
p2907
aVadmission
p2908
aVto
p2909
aVsee
p2910
aVthe
p2911
aVangel
p2912
aV.
aa(lp2913
Vthe
p2914
aVcurious
p2915
aVcame
p2916
aVfrom
p2917
aVfar
p2918
aVaway
p2919
aV.
aa(lp2920
Va
aVtraveling
p2921
aVcarnival
p2922
aVarrived
p2923
aVwith
p2924
aVa
aVflying
p2925
aVacrobat
p2926
aVwho
p2927
aVbuzzed
p2928
aVover
p2929
aVthe
p2930
aVcrowd
p2931
aVseveral
p2932
aVtimes
p2933
aV,
aVbut
p2934
aVno
p2935
aVone
p2936
aVpaid
p2937
aVany
p2938
aVattention
p2939
aVto
p2940
aVhim
p2941
aVbecause
p2942
aVhis
p2943
aVwings
p2944
aVwere
p2945
aVnot
p2946
aVthose
p2947
aVof
p2948
aVan
p2949
aVangel
p2950
aVbut
p2951
aV,
aVrather
p2952
aV,
aVthose
p2953
aVof
p2954
aVa
aVsidereal
p2955
aVbat
p2956
aV.
aa(lp2957
Vthe
p2958
aVmost
p2959
aVunfortunate
p2960
aVinvalids
p2961
aVon
p2962
aVearth
p2963
aVcame
p2964
aVin
p2965
aVsearch
p2966
aVof
p2967
aVhealth
p2968
aV:
aVa
aVpoor
p2969
aVwoman
p2970
aVwho
p2971
aVsince
p2972
aVchildh
p2973
aaa(lp2974
(lp2975
Vood
p2976
aVhas
p2977
aVbeen
p2978
aVcounting
p2979
aVher
p2980
aVheartbeats
p2981
aVand
p2982
aVhad
p2983
aVrun
p2984
aVout
p2985
aVof
p2986
aVnumbers
p2987
aV;
aVa
aVportuguese
p2988
aVman
p2989
aVwho
p2990
aVcouldn\u2019t
p2991
aVsleep
p2992
aVbecause
p2993
aVthe
p2994
aVnoise
p2995
aVof
p2996
aVthe
p2997
aVstars
p2998
aVdisturbed
p2999
aVhim
p3000
aV;
aVa
aVsleepwalker
p3001
aVwho
p3002
aVgot
p3003
aVup
p3004
aVat
p3005
aVnight
p3006
aVto
p3007
aVundo
p3008
aVthe
p3009
aVthings
p3010
aVhe
p3011
aVhad
p3012
aVdone
p3013
aVwhile
p3014
aVawake
p3015
aV;
aVand
p3016
aVmany
p3017
aVothers
p3018
aVwith
p3019
aVless
p3020
aVserious
p3021
aVailments
p3022
aV.
aa(lp3023
Vin
p3024
aVthe
p3025
aVmidst
p3026
aVof
p3027
aVthat
p3028
aVshipwreck
p3029
aVdisorder
p3030
aVthat
p3031
aVmade
p3032
aVthe
p3033
aVearth
p3034
aVtremble
p3035
aV,
aVpelayo
p3036
aVand
p3037
aVelisenda
p3038
aVwere
p3039
aVhappy
p3040
aVwith
p3041
aVfatigue
p3042
aV,
aVfor
p3043
aVin
p3044
aVless
p3045
aVthan
p3046
aVa
aVweek
p3047
aVthey
p3048
aVhad
p3049
aVcrammed
p3050
aVtheir
p3051
aVrooms
p3052
aVwith
p3053
aVmoney
p3054
aVand
p3055
aVthe
p3056
aVline
p3057
aVof
p3058
aVpilgrims
p3059
aVwaiting
p3060
aVtheir
p3061
aVturn
p3062
aVto
p3063
aVenter
p3064
aVstill
p3065
aVreached
p3066
aVbeyond
p3067
aVthe
p3068
aVhorizon
p3069
aV.
aa(lp3070
Vthe
p3071
aVangel
p3072
aVwas
p3073
aVthe
p3074
aVonly
p3075
aVone
p3076
aVwho
p3077
aVtook
p3078
aVno
p3079
aVpart
p3080
aVin
p3081
aVhis
p3082
aVown
p3083
aVact
p3084
aV.
aa(lp3085
Vhe
p3086
aVspent
p3087
aVhis
p3088
aVtime
p3089
aVtrying
p3090
aVto
p3091
aVget
p3092
aVcomfortable
p3093
aVin
p3094
aVhis
p3095
aVborrowed
p3096
aVnest
p3097
aV,
aVbefuddled
p3098
aVby
p3099
aVthe
p3100
aVhellish
p3101
aVheat
p3102
aVof
p3103
aVthe
p3104
aVoil
p3105
aVlamps
p3106
aVand
p3107
aVsacramental
p3108
aVcandles
p3109
aVthat
p3110
aVhad
p3111
aVbeen
p3112
aVplaced
p3113
aValong
p3114
aVthe
p3115
aVwire
p3116
aV.
aa(lp3117
Vat
p3118
aVfirst
p3119
aVthey
p3120
aVtried
p3121
aVto
p3122
aVmake
p3123
aVhim
p3124
aVeat
p3125
aVsome
p3126
aVmothballs
p3127
aV,
aVwhich
p3128
aV,
aVaccording
p3129
aVto
p3130
aVthe
p3131
aVwisdom
p3132
aVof
p3133
aVth
p3134
aaa(lp3135
(lp3136
Vlayo\u2019s
p3137
aVcourtyard
p3138
aVwent
p3139
aVback
p3140
aVto
p3141
aVbeing
p3142
aVas
p3143
aVempty
p3144
aVas
p3145
aVduring
p3146
aVthe
p3147
aVtime
p3148
aVit
p3149
aVhad
p3150
aVrained
p3151
aVfor
p3152
aVthree
p3153
aVdays
p3154
aVand
p3155
aVcrabs
p3156
aVwalked
p3157
aVthrough
p3158
aVthe
p3159
aVbedrooms
p3160
aV.
aa(lp3161
Vthe
p3162
aVowners
p3163
aVof
p3164
aVthe
p3165
aVhouse
p3166
aVhad
p3167
aVno
p3168
aVreason
p3169
aVto
p3170
aVlament
p3171
aV.
aa(lp3172
Vwith
p3173
aVthe
p3174
aVmoney
p3175
aVthey
p3176
aVsaved
p3177
aVthey
p3178
aVbuilt
p3179
aVa
aVtwo-story
p3180
aVmansion
p3181
aVwith
p3182
aVbalconies
p3183
aVand
p3184
aVgardens
p3185
aVand
p3186
aVhigh
p3187
aVnetting
p3188
aVso
p3189
aVthat
p3190
aVcrabs
p3191
aVwouldn\u2019t
p3192
aVget
p3193
aVin
p3194
aVduring
p3195
aVthe
p3196
aVwinter
p3197
aV,
aVand
p3198
aVwith
p3199
aViron
p3200
aVbars
p3201
aVon
p3202
aVthe
p3203
aVwindows
p3204
aVso
p3205
aVthat
p3206
aVangels
p3207
aVwouldn\u2019t
p3208
aVget
p3209
aVin
p3210
aV.
aa(lp3211
Vpelayo
p3212
aValso
p3213
aVset
p3214
aVup
p3215
aVa
aVrabbit
p3216
aVwarren
p3217
aVclose
p3218
aVto
p3219
aVtown
p3220
aVand
p3221
aVgave
p3222
aVup
p3223
aVhis
p3224
aVjob
p3225
aVas
p3226
aVa
aVbailiff
p3227
aVfor
p3228
aVgood
p3229
aV,
aVand
p3230
aVelisenda
p3231
aVbought
p3232
aVsome
p3233
aVsatin
p3234
aVpumps
p3235
aVwith
p3236
aVhigh
p3237
aVheels
p3238
aVand
p3239
aVmany
p3240
aVdresses
p3241
aVof
p3242
aViridescent
p3243
aVsilk
p3244
aV,
aVthe
p3245
aVkind
p3246
aVworn
p3247
aVon
p3248
aVsunday
p3249
aVby
p3250
aVthe
p3251
aVmost
p3252
aVdesirable
p3253
aVwomen
p3254
aVin
p3255
aVthose
p3256
aVtimes
p3257
aV.
aa(lp3258
Vthe
p3259
aVchicken
p3260
aVcoop
p3261
aVwas
p3262
aVthe
p3263
aVonly
p3264
aVthing
p3265
aVthat
p3266
aVdidn\u2019t
p3267
aVreceive
p3268
aVany
p3269
aVattention
p3270
aV.
aa(lp3271
Vif
p3272
aVthey
p3273
aVwashed
p3274
aVit
p3275
aVdown
p3276
aVwith
p3277
aVcreolin
p3278
aVand
p3279
aVburned
p3280
aVtears
p3281
aVof
p3282
aVmyrrh
p3283
aVinside
p3284
aVit
p3285
aVevery
p3286
aVso
p3287
aVoften
p3288
aV,
aVit
p3289
aVwas
p3290
aVnot
p3291
aVin
p3292
aVhomage
p3293
aVto
p3294
aVthe
p3295
aVangel
p3296
aVbut
p3297
aVto
p3298
aVdrive
p3299
aVaway
p3300
aVthe
p3301
aVdungheap
p3302
aVstench
p3303
aVthat
p3304
aVstill
p3305
aVhung
p3306
aVeverywhere
p3307
aVlike
p3308
aVa
aVghost
p3309
aVand
p3310
aVwas
p3311
aVturning
p3312
aVthe
p3313
aVnew
p3314
aVhouse
p3315
aVinto
p3316
aVan
p3317
aVold
p3318
aVone
p3319
aV.
aa(lp3320
Vat
p3321
aVfirst
p3322
aV,
aVwhen
p3323
aVthe
p3324
aVchild
p3325
aVlearned
p3326
aVt
aaa(lp3327
(lp3328
Vt
aVhave
p3329
aVthem
p3330
aVtoo
p3331
aV.
aa(lp3332
Vwhen
p3333
aVthe
p3334
aVchild
p3335
aVbegan
p3336
aVschool
p3337
aVit
p3338
aVhad
p3339
aVbeen
p3340
aVsome
p3341
aVtime
p3342
aVsince
p3343
aVthe
p3344
aVsun
p3345
aVand
p3346
aVrain
p3347
aVhad
p3348
aVcaused
p3349
aVthe
p3350
aVcollapse
p3351
aVof
p3352
aVthe
p3353
aVchicken
p3354
aVcoop
p3355
aV.
aa(lp3356
Vthe
p3357
aVangel
p3358
aVwent
p3359
aVdragging
p3360
aVhimself
p3361
aVabout
p3362
aVhere
p3363
aVand
p3364
aVthere
p3365
aVlike
p3366
aVa
aVstray
p3367
aVdying
p3368
aVman
p3369
aV.
aa(lp3370
Vthey
p3371
aVwould
p3372
aVdrive
p3373
aVhim
p3374
aVout
p3375
aVof
p3376
aVthe
p3377
aVbedroom
p3378
aVwith
p3379
aVa
aVbroom
p3380
aVand
p3381
aVa
aVmoment
p3382
aVlater
p3383
aVfind
p3384
aVhim
p3385
aVin
p3386
aVthe
p3387
aVkitchen
p3388
aV.
aa(lp3389
Vhe
p3390
aVseemed
p3391
aVto
p3392
aVbe
p3393
aVin
p3394
aVso
p3395
aVmany
p3396
aVplaces
p3397
aVat
p3398
aVthe
p3399
aVsame
p3400
aVtime
p3401
aVthat
p3402
aVthey
p3403
aVgrew
p3404
aVto
p3405
aVthink
p3406
aVthat
p3407
aVhe\u2019d
p3408
aVbe
p3409
aVduplicated
p3410
aV,
aVthat
p3411
aVhe
p3412
aVwas
p3413
aVreproducing
p3414
aVhimself
p3415
aVall
p3416
aVthrough
p3417
aVthe
p3418
aVhouse
p3419
aV,
aVand
p3420
aVthe
p3421
aVexasperated
p3422
aVand
p3423
aVunhinged
p3424
aVelisenda
p3425
aVshouted
p3426
aVthat
p3427
aVit
p3428
aVwas
p3429
aVawful
p3430
aVliving
p3431
aVin
p3432
aVthat
p3433
aVhell
p3434
aVfull
p3435
aVof
p3436
aVangels
p3437
aV.
aa(lp3438
Vhe
p3439
aVcould
p3440
aVscarcely
p3441
aVeat
p3442
aVand
p3443
aVhis
p3444
aVantiquarian
p3445
aVeyes
p3446
aVhad
p3447
aValso
p3448
aVbecome
p3449
aVso
p3450
aVfoggy
p3451
aVthat
p3452
aVhe
p3453
aVwent
p3454
aVabout
p3455
aVbumping
p3456
aVinto
p3457
aVposts
p3458
aV.
aa(lp3459
Vall
p3460
aVhe
p3461
aVhad
p3462
aVleft
p3463
aVwere
p3464
aVthe
p3465
aVbare
p3466
aVcannulae
p3467
aVof
p3468
aVhis
p3469
aVlast
p3470
aVfeathers
p3471
aV.
aa(lp3472
Vpelayo
p3473
aVthrew
p3474
aVa
aVblanket
p3475
aVover
p3476
aVhim
p3477
aVand
p3478
aVextended
p3479
aVhim
p3480
aVthe
p3481
aVcharity
p3482
aVof
p3483
aVletting
p3484
aVhim
p3485
aVsleep
p3486
aVin
p3487
aVthe
p3488
aVshed
p3489
aV,
aVand
p3490
aVonly
p3491
aVthen
p3492
aVdid
p3493
aVthey
p3494
aVnotice
p3495
aVthat
p3496
aVhe
p3497
aVhad
p3498
aVa
aVtemperature
p3499
aVat
p3500
aVnight
p3501
aV,
aVand
p3502
aVwas
p3503
aVdelirious
p3504
aVwith
p3505
aVthe
p3506
aVtongue
p3507
aVtwisters
p3508
aVof
p3509
aVan
p3510
aVold
p3511
aVnorwegian
p3512
aV.
aa(lp3513
Vthat
p3514
aVwas
p3515
aVone
p3516
aVof
p3517
aVthe
p3518
aVfew
p3519
aVtimes
p3520
aVthey
p3521
aVbecam
p3522
aaa(lp3523
(lp3524
Vsunny
p3525
aVdays
p3526
aV.
aa(lp3527
Vhe
p3528
aVremained
p3529
aVmotionless
p3530
aVfor
p3531
aVseveral
p3532
aVdays
p3533
aVin
p3534
aVthe
p3535
aVfarthest
p3536
aVcorner
p3537
aVof
p3538
aVthe
p3539
aVcourtyard
p3540
aV,
aVwhere
p3541
aVno
p3542
aVone
p3543
aVwould
p3544
aVsee
p3545
aVhim
p3546
aV,
aVand
p3547
aVat
p3548
aVthe
p3549
aVbeginning
p3550
aVof
p3551
aVdecember
p3552
aVsome
p3553
aVlarge
p3554
aV,
aVstiff
p3555
aVfeathers
p3556
aVbegan
p3557
aVto
p3558
aVgrow
p3559
aVon
p3560
aVhis
p3561
aVwings
p3562
aV,
aVthe
p3563
aVfeathers
p3564
aVof
p3565
aVa
aVscarecrow
p3566
aV,
aVwhich
p3567
aVlooked
p3568
aVmore
p3569
aVlike
p3570
aVanother
p3571
aVmisfortune
p3572
aVof
p3573
aVdecreptitude
p3574
aV.
aa(lp3575
Vbut
p3576
aVhe
p3577
aVmust
p3578
aVhave
p3579
aVknown
p3580
aVthe
p3581
aVreason
p3582
aVfor
p3583
aVthose
p3584
aVchanges
p3585
aV,
aVfor
p3586
aVhe
p3587
aVwas
p3588
aVquite
p3589
aVcareful
p3590
aVthat
p3591
aVno
p3592
aVone
p3593
aVshould
p3594
aVnotice
p3595
aVthem
p3596
aV,
aVthat
p3597
aVno
p3598
aVone
p3599
aVshould
p3600
aVhear
p3601
aVthe
p3602
aVsea
p3603
aVchanteys
p3604
aVthat
p3605
aVhe
p3606
aVsometimes
p3607
aVsang
p3608
aVunder
p3609
aVthe
p3610
aVstars
p3611
aV.
aa(lp3612
Vone
p3613
aVmorning
p3614
aVelisenda
p3615
aVwas
p3616
aVcutting
p3617
aVsome
p3618
aVbunches
p3619
aVof
p3620
aVonions
p3621
aVfor
p3622
aVlunch
p3623
aVwhen
p3624
aVa
aVwind
p3625
aVthat
p3626
aVseemed
p3627
aVto
p3628
aVcome
p3629
aVfrom
p3630
aVthe
p3631
aVhigh
p3632
aVseas
p3633
aVblew
p3634
aVinto
p3635
aVthe
p3636
aVkitchen
p3637
aV.
aa(lp3638
Vthen
p3639
aVshe
p3640
aVwent
p3641
aVto
p3642
aVthe
p3643
aVwindow
p3644
aVand
p3645
aVcaught
p3646
aVthe
p3647
aVangel
p3648
aVin
p3649
aVhis
p3650
aVfirst
p3651
aVattempts
p3652
aVat
p3653
aVflight
p3654
aV.
aa(lp3655
Vthey
p3656
aVwere
p3657
aVso
p3658
aVclumsy
p3659
aVthat
p3660
aVhis
p3661
aVfingernails
p3662
aVopened
p3663
aVa
aVfurrow
p3664
aVin
p3665
aVthe
p3666
aVvegetable
p3667
aVpatch
p3668
aVand
p3669
aVhe
p3670
aVwas
p3671
aVon
p3672
aVthe
p3673
aVpoint
p3674
aVof
p3675
aVknocking
p3676
aVthe
p3677
aVshed
p3678
aVdown
p3679
aVwith
p3680
aVthe
p3681
aVungainly
p3682
aVflapping
p3683
aVthat
p3684
aVslipped
p3685
aVon
p3686
aVthe
p3687
aVlight
p3688
aVand
p3689
aVcouldn\u2019t
p3690
aVget
p3691
aVa
aVgrip
p3692
aVon
p3693
aVthe
p3694
aVair
p3695
aV.
aa(lp3696
Vbut
p3697
aVhe
p3698
aVdid
p3699
aVmanage
p3700
aVto
p3701
aVgain
p3702
aValtitude
p3703
aV.
aa(lp3704
Velisenda
p3705
aVlet
p3706
aVout
p3707
aVa
aVsigh
p3708
aVof
p3709
aVrelief
p3710
aV,
aVfor
p3711
aVhe
p3712
aaasg87
(lp3713
(lp3714
V[
aVCHARACTER
p3715
aV]
aV[
aVCHARACTER
p3716
aV]
aVis
p3717
aVa
aVperfect
p3718
aVmatch
p3719
aVfor
p3720
aVher
p3721
aVhusband
p3722
aV,
aVpelayo
p3723
aV,
aVbeing
p3724
aVequally
p3725
aVordinary
p3726
aVand
p3727
aVconcerned
p3728
aVwith
p3729
aVpractical
p3730
aVmatters
p3731
aV.
aa(lp3732
Vif
p3733
aVanything
p3734
aV,
aV[
aVCHARACTER
p3735
aV]
aVis
p3736
aVthe
p3737
aVmore
p3738
aVpractical
p3739
aVof
p3740
aVthe
p3741
aVtwo
p3742
aVbecause
p3743
aVshe
p3744
aVsuggests
p3745
aVcharging
p3746
aVadmission
p3747
aVto
p3748
aVsee
p3749
aVthe
p3750
aV``
p3751
aVangel
p3752
aV.
aV''
p3753
aa(lp3754
Vdespite
p3755
aVthe
p3756
aVmany
p3757
aVmaterial
p3758
aVadvantages
p3759
aVthe
p3760
aVold
p3761
aVman
p3762
aVbrings
p3763
aV,
aV[
aVCHARACTER
p3764
aV]
aV's
p3765
aVattitude
p3766
aVtoward
p3767
aVhim
p3768
aVis
p3769
aVprimarily
p3770
aVone
p3771
aVof
p3772
aVannoyance
p3773
aVand
p3774
aVexasperation
p3775
aV.
aa(lp3776
Vonce
p3777
aVthe
p3778
aVold
p3779
aVman
p3780
aV's
p3781
aVusefulness
p3782
aVas
p3783
aVa
aVroadside
p3784
aVattraction
p3785
aVdwindles
p3786
aV,
aV[
aVCHARACTER
p3787
aV]
aVsees
p3788
aVhim
p3789
aVonly
p3790
aVas
p3791
aVa
aVnuisance
p3792
aV.
aa(lp3793
Vindeed
p3794
aV,
aVthe
p3795
aVold
p3796
aVman
p3797
aVbecomes
p3798
aVso
p3799
aVtroublesome
p3800
aVto
p3801
aVher
p3802
aVthat
p3803
aVshe
p3804
aVeven
p3805
aVrefers
p3806
aVto
p3807
aVher
p3808
aVnew
p3809
aVhome
p3810
aV--
p3811
aVpurchased
p3812
aVwith
p3813
aVproceeds
p3814
aVfrom
p3815
aVexhibiting
p3816
aVthe
p3817
aVold
p3818
aVman
p3819
aV--
p3820
aVas
p3821
aVa
aV``
p3822
aVhell
p3823
aVfull
p3824
aVof
p3825
aVangels
p3826
aV.
aV''
p3827
aa(lp3828
Vthe
p3829
aVold
p3830
aVman
p3831
aVbecomes
p3832
aVso
p3833
aVordinary
p3834
aVin
p3835
aV[
aVCHARACTER
p3836
aV]
aV's
p3837
aVeyes
p3838
aVthat
p3839
aVit
p3840
aVis
p3841
aVn't
p3842
aVuntil
p3843
aVhe
p3844
aVfinally
p3845
aVflies
p3846
aVaway
p3847
aVthat
p3848
aVshe
p3849
aVseems
p3850
aVto
p3851
aVsee
p3852
aVhim
p3853
aVfor
p3854
aVthe
p3855
aVwonder
p3856
aVhe
p3857
aVis
p3858
aV.
aa(lp3859
V[
aVCHARACTER
p3860
aV]
aVwatches
p3861
aVhim
p3862
aVfly
p3863
aVaway
p3864
aVwith
p3865
aVwistfulness
p3866
aV,
aVas
p3867
aVif
p3868
aVfinally
p3869
aVrealizing
p3870
aVthat
p3871
aVsomething
p3872
aVextraordinary
p3873
aVhas
p3874
aVleft
p3875
aVher
p3876
aVlife
p3877
aVforever
p3878
aV.
aassS'pelayo'
p3879
(dp3880
g20
(lp3881
(lp3882
V[
aVCHARACTER
p3883
aV]
aV-
aVelisenda
p3884
aV's
p3885
aVhusband
p3886
aVand
p3887
aVthe
p3888
aVdiscoverer
p3889
aVof
p3890
aVthe
p3891
aVold
p3892
aVman
p3893
aV.
aa(lp3894
V[
aVCHARACTER
p3895
aV]
aVis
p3896
aVan
p3897
aVordinary
p3898
aVvillager
p3899
aV,
aVpoor
p3900
aVbut
p3901
aVgrudgingly
p3902
aVwilling
p3903
aVto
p3904
aVshelter
p3905
aVthe
p3906
aVwinged
p3907
aVold
p3908
aVman
p3909
aVin
p3910
aVhis
p3911
aVchicken
p3912
aVcoop
p3913
aV.
aa(lp3914
V[
aVCHARACTER
p3915
aV]
aVguards
p3916
aVthe
p3917
aVold
p3918
aVman
p3919
aVfrom
p3920
aVharm
p3921
aV,
aVhumbly
p3922
aVconsults
p3923
aVthe
p3924
aVvillage
p3925
aVpriest
p3926
aV,
aVand
p3927
aVhas
p3928
aVthe
p3929
aVsense
p3930
aVto
p3931
aVresist
p3932
aVthe
p3933
aVmore
p3934
aVextravagant
p3935
aVadvice
p3936
aVhe
p3937
aVreceives
p3938
aVfrom
p3939
aVthe
p3940
aVother
p3941
aVvillagers
p3942
aV.
aa(lp3943
V[
aVCHARACTER
p3944
aV]
aV,
aVhowever
p3945
aV,
aVdoes
p3946
aVnot
p3947
aVwant
p3948
aVto
p3949
aVtake
p3950
aVcare
p3951
aVof
p3952
aVthe
p3953
aVman
p3954
aVindefinitely
p3955
aVand
p3956
aVdoes
p3957
aVn't
p3958
aVfeel
p3959
aVbad
p3960
aVusing
p3961
aVthe
p3962
aVold
p3963
aVman
p3964
aVto
p3965
aVget
p3966
aVrich
p3967
aV.
aasg84
(lp3968
(lp3969
(lp3970
Von
p3971
aVthe
p3972
aVthird
p3973
aVday
p3974
aVof
p3975
aVrain
p3976
aVthey
p3977
aVhad
p3978
aVkilled
p3979
aVso
p3980
aVmany
p3981
aVcrabs
p3982
aVinside
p3983
aVthe
p3984
aVhouse
p3985
aVthat
p3986
aVpelayo
p3987
aVhad
p3988
aVto
p3989
aVcross
p3990
aVhis
p3991
aVdrenched
p3992
aVcourtyard
p3993
aVand
p3994
aVthrow
p3995
aVthem
p3996
aVinto
p3997
aVthe
p3998
aVsea
p3999
aV,
aVbecause
p4000
aVthe
p4001
aVnewborn
p4002
aVchild
p4003
aVhad
p4004
aVa
aVtemperature
p4005
aVall
p4006
aVnight
p4007
aVand
p4008
aVthey
p4009
aVthought
p4010
aVit
p4011
aVwas
p4012
aVdue
p4013
aVto
p4014
aVthe
p4015
aVstench
p4016
aV.
aa(lp4017
Vthe
p4018
aVworld
p4019
aVhad
p4020
aVbeen
p4021
aVsad
p4022
aVsince
p4023
aVtuesday
p4024
aV.
aa(lp4025
Vsea
p4026
aVand
p4027
aVsky
p4028
aVwere
p4029
aVa
aVsingle
p4030
aVash-gray
p4031
aVthing
p4032
aVand
p4033
aVthe
p4034
aVsands
p4035
aVof
p4036
aVthe
p4037
aVbeach
p4038
aV,
aVwhich
p4039
aVon
p4040
aVmarch
p4041
aVnights
p4042
aVglimmered
p4043
aVlike
p4044
aVpowdered
p4045
aVlight
p4046
aV,
aVhad
p4047
aVbecome
p4048
aVa
aVstew
p4049
aVof
p4050
aVmud
p4051
aVand
p4052
aVrotten
p4053
aVshellfish
p4054
aV.
aa(lp4055
Vthe
p4056
aVlight
p4057
aVwas
p4058
aVso
p4059
aVweak
p4060
aVat
p4061
aVnoon
p4062
aVthat
p4063
aVwhen
p4064
aVpelayo
p4065
aVwas
p4066
aVcoming
p4067
aVback
p4068
aVto
p4069
aVthe
p4070
aVhouse
p4071
aVafter
p4072
aVthrowing
p4073
aVaway
p4074
aVthe
p4075
aVcrabs
p4076
aV,
aVit
p4077
aVwas
p4078
aVhard
p4079
aVfor
p4080
aVhim
p4081
aVto
p4082
aVsee
p4083
aVwhat
p4084
aVit
p4085
aVwas
p4086
aVthat
p4087
aVwas
p4088
aVmoving
p4089
aVand
p4090
aVgroaning
p4091
aVin
p4092
aVthe
p4093
aVrear
p4094
aVof
p4095
aVthe
p4096
aVcourtyard
p4097
aV.
aa(lp4098
Vhe
p4099
aVhad
p4100
aVto
p4101
aVgo
p4102
aVvery
p4103
aVclose
p4104
aVto
p4105
aVsee
p4106
aVthat
p4107
aVit
p4108
aVwas
p4109
aVan
p4110
aVold
p4111
aVman
p4112
aV,
aVa
aVvery
p4113
aVold
p4114
aVman
p4115
aV,
aVlying
p4116
aVface
p4117
aVdown
p4118
aVin
p4119
aVthe
p4120
aVmud
p4121
aV,
aVwho
p4122
aV,
aVin
p4123
aVspite
p4124
aVof
p4125
aVhis
p4126
aVtremendous
p4127
aVefforts
p4128
aV,
aVcouldn\u2019t
p4129
aVget
p4130
aVup
p4131
aV,
aVimpeded
p4132
aVby
p4133
aVhis
p4134
aVenormous
p4135
aVwings
p4136
aV.
aa(lp4137
Vfrightened
p4138
aVby
p4139
aVthat
p4140
aVnightmare
p4141
aV,
aVpelayo
p4142
aVran
p4143
aVto
p4144
aVget
p4145
aVelisenda
p4146
aV,
aVhis
p4147
aVwife
p4148
aV,
aVwho
p4149
aVwas
p4150
aVputting
p4151
aVcompresses
p4152
aVon
p4153
aVthe
p4154
aVsick
p4155
aVchild
p4156
aV,
aVand
p4157
aVhe
p4158
aVtook
p4159
aVher
p4160
aVto
p4161
aVthe
p4162
aVrear
p4163
aVof
p4164
aVthe
p4165
aVc
aaa(lp4166
(lp4167
Vourtyard
p4168
aV.
aa(lp4169
Vthey
p4170
aVboth
p4171
aVlooked
p4172
aVat
p4173
aVthe
p4174
aVfallen
p4175
aVbody
p4176
aVwith
p4177
aVa
aVmute
p4178
aVstupor
p4179
aV.
aa(lp4180
Vhe
p4181
aVwas
p4182
aVdressed
p4183
aVlike
p4184
aVa
aVragpicker
p4185
aV.
aa(lp4186
Vthere
p4187
aVwere
p4188
aVonly
p4189
aVa
aVfew
p4190
aVfaded
p4191
aVhairs
p4192
aVleft
p4193
aVon
p4194
aVhis
p4195
aVbald
p4196
aVskull
p4197
aVand
p4198
aVvery
p4199
aVfew
p4200
aVteeth
p4201
aVin
p4202
aVhis
p4203
aVmouth
p4204
aV,
aVand
p4205
aVhis
p4206
aVpitiful
p4207
aVcondition
p4208
aVof
p4209
aVa
aVdrenched
p4210
aVgreat-grandfather
p4211
aVtook
p4212
aVaway
p4213
aVany
p4214
aVsense
p4215
aVof
p4216
aVgrandeur
p4217
aVhe
p4218
aVmight
p4219
aVhave
p4220
aVhad
p4221
aV.
aa(lp4222
Vhis
p4223
aVhuge
p4224
aVbuzzard
p4225
aVwings
p4226
aV,
aVdirty
p4227
aVand
p4228
aVhalf-plucked
p4229
aV,
aVwere
p4230
aVforever
p4231
aVentangled
p4232
aVin
p4233
aVthe
p4234
aVmud
p4235
aV.
aa(lp4236
Vthey
p4237
aVlooked
p4238
aVat
p4239
aVhim
p4240
aVso
p4241
aVlong
p4242
aVand
p4243
aVso
p4244
aVclosely
p4245
aVthat
p4246
aVpelayo
p4247
aVand
p4248
aVelisenda
p4249
aVvery
p4250
aVsoon
p4251
aVovercame
p4252
aVtheir
p4253
aVsurprise
p4254
aVand
p4255
aVin
p4256
aVthe
p4257
aVend
p4258
aVfound
p4259
aVhim
p4260
aVfamiliar
p4261
aV.
aa(lp4262
Vthen
p4263
aVthey
p4264
aVdared
p4265
aVspeak
p4266
aVto
p4267
aVhim
p4268
aV,
aVand
p4269
aVhe
p4270
aVanswered
p4271
aVin
p4272
aVan
p4273
aVincomprehensible
p4274
aVdialect
p4275
aVwith
p4276
aVa
aVstrong
p4277
aVsailor\u2019s
p4278
aVvoice
p4279
aV.
aa(lp4280
Vthat
p4281
aVwas
p4282
aVhow
p4283
aVthey
p4284
aVskipped
p4285
aVover
p4286
aVthe
p4287
aVinconvenience
p4288
aVof
p4289
aVthe
p4290
aVwings
p4291
aVand
p4292
aVquite
p4293
aVintelligently
p4294
aVconcluded
p4295
aVthat
p4296
aVhe
p4297
aVwas
p4298
aVa
aVlonely
p4299
aVcastaway
p4300
aVfrom
p4301
aVsome
p4302
aVforeign
p4303
aVship
p4304
aVwrecked
p4305
aVby
p4306
aVthe
p4307
aVstorm
p4308
aV.
aa(lp4309
Vand
p4310
aVyet
p4311
aV,
aVthey
p4312
aVcalled
p4313
aVin
p4314
aVa
aVneighbor
p4315
aVwoman
p4316
aVwho
p4317
aVknew
p4318
aVeverything
p4319
aVabout
p4320
aVlife
p4321
aVand
p4322
aVdeath
p4323
aVto
p4324
aVsee
p4325
aVhim
p4326
aV,
aVand
p4327
aVall
p4328
aVshe
p4329
aVneeded
p4330
aVwas
p4331
aVone
p4332
aVlook
p4333
aVto
p4334
aVshow
p4335
aVthe
p4336
aaa(lp4337
(lp4338
Vm
aVtheir
p4339
aVmistake
p4340
aV.
aa(lp4341
V\u201che\u2019s
p4342
aVan
p4343
aVangel
p4344
aV,
aV\u201d
aVshe
p4345
aVtold
p4346
aVthem
p4347
aV.
aa(lp4348
V\u201che
p4349
aVmust
p4350
aVhave
p4351
aVbeen
p4352
aVcoming
p4353
aVfor
p4354
aVthe
p4355
aVchild
p4356
aV,
aVbut
p4357
aVthe
p4358
aVpoor
p4359
aVfellow
p4360
aVis
p4361
aVso
p4362
aVold
p4363
aVthat
p4364
aVthe
p4365
aVrain
p4366
aVknocked
p4367
aVhim
p4368
aVdown.\u201d
p4369
aVon
p4370
aVthe
p4371
aVfollowing
p4372
aVday
p4373
aVeveryone
p4374
aVknew
p4375
aVthat
p4376
aVa
aVflesh-and-blood
p4377
aVangel
p4378
aVwas
p4379
aVheld
p4380
aVcaptive
p4381
aVin
p4382
aVpelayo\u2019s
p4383
aVhouse
p4384
aV.
aa(lp4385
Vagainst
p4386
aVthe
p4387
aVjudgment
p4388
aVof
p4389
aVthe
p4390
aVwise
p4391
aVneighbor
p4392
aVwoman
p4393
aV,
aVfor
p4394
aVwhom
p4395
aVangels
p4396
aVin
p4397
aVthose
p4398
aVtimes
p4399
aVwere
p4400
aVthe
p4401
aVfugitive
p4402
aVsurvivors
p4403
aVof
p4404
aVa
aVcelestial
p4405
aVconspiracy
p4406
aV,
aVthey
p4407
aVdid
p4408
aVnot
p4409
aVhave
p4410
aVthe
p4411
aVheart
p4412
aVto
p4413
aVclub
p4414
aVhim
p4415
aVto
p4416
aVdeath
p4417
aV.
aa(lp4418
Vpelayo
p4419
aVwatched
p4420
aVover
p4421
aVhim
p4422
aVall
p4423
aVafternoon
p4424
aVfrom
p4425
aVthe
p4426
aVkitchen
p4427
aV,
aVarmed
p4428
aVwith
p4429
aVhis
p4430
aVbailiff\u2019s
p4431
aVclub
p4432
aV,
aVand
p4433
aVbefore
p4434
aVgoing
p4435
aVto
p4436
aVbed
p4437
aVhe
p4438
aVdragged
p4439
aVhim
p4440
aVout
p4441
aVof
p4442
aVthe
p4443
aVmud
p4444
aVand
p4445
aVlocked
p4446
aVhim
p4447
aVup
p4448
aVwith
p4449
aVthe
p4450
aVhens
p4451
aVin
p4452
aVthe
p4453
aVwire
p4454
aVchicken
p4455
aVcoop
p4456
aV.
aa(lp4457
Vin
p4458
aVthe
p4459
aVmiddle
p4460
aVof
p4461
aVthe
p4462
aVnight
p4463
aV,
aVwhen
p4464
aVthe
p4465
aVrain
p4466
aVstopped
p4467
aV,
aVpelayo
p4468
aVand
p4469
aVelisenda
p4470
aVwere
p4471
aVstill
p4472
aVkilling
p4473
aVcrabs
p4474
aV.
aa(lp4475
Va
aVshort
p4476
aVtime
p4477
aVafterward
p4478
aVthe
p4479
aVchild
p4480
aVwoke
p4481
aVup
p4482
aVwithout
p4483
aVa
aVfever
p4484
aVand
p4485
aVwith
p4486
aVa
aVdesire
p4487
aVto
p4488
aVeat
p4489
aV.
aa(lp4490
Vthen
p4491
aVthey
p4492
aVfelt
p4493
aVmagnanimous
p4494
aVand
p4495
aVdecided
p4496
aVto
p4497
aVput
p4498
aVthe
p4499
aVangel
p4500
aVon
p4501
aVa
aVraft
p4502
aVwith
p4503
aVfresh
p4504
aVwater
p4505
aVand
p4506
aVprovisions
p4507
aVfor
p4508
aVthree
p4509
aVdays
p4510
aVand
p4511
aVleave
p4512
aVhi
p4513
aaa(lp4514
(lp4515
Vwere
p4516
aVnot
p4517
aVthose
p4518
aVof
p4519
aVan
p4520
aVangel
p4521
aVbut
p4522
aV,
aVrather
p4523
aV,
aVthose
p4524
aVof
p4525
aVa
aVsidereal
p4526
aVbat
p4527
aV.
aa(lp4528
Vthe
p4529
aVmost
p4530
aVunfortunate
p4531
aVinvalids
p4532
aVon
p4533
aVearth
p4534
aVcame
p4535
aVin
p4536
aVsearch
p4537
aVof
p4538
aVhealth
p4539
aV:
aVa
aVpoor
p4540
aVwoman
p4541
aVwho
p4542
aVsince
p4543
aVchildhood
p4544
aVhas
p4545
aVbeen
p4546
aVcounting
p4547
aVher
p4548
aVheartbeats
p4549
aVand
p4550
aVhad
p4551
aVrun
p4552
aVout
p4553
aVof
p4554
aVnumbers
p4555
aV;
aVa
aVportuguese
p4556
aVman
p4557
aVwho
p4558
aVcouldn\u2019t
p4559
aVsleep
p4560
aVbecause
p4561
aVthe
p4562
aVnoise
p4563
aVof
p4564
aVthe
p4565
aVstars
p4566
aVdisturbed
p4567
aVhim
p4568
aV;
aVa
aVsleepwalker
p4569
aVwho
p4570
aVgot
p4571
aVup
p4572
aVat
p4573
aVnight
p4574
aVto
p4575
aVundo
p4576
aVthe
p4577
aVthings
p4578
aVhe
p4579
aVhad
p4580
aVdone
p4581
aVwhile
p4582
aVawake
p4583
aV;
aVand
p4584
aVmany
p4585
aVothers
p4586
aVwith
p4587
aVless
p4588
aVserious
p4589
aVailments
p4590
aV.
aa(lp4591
Vin
p4592
aVthe
p4593
aVmidst
p4594
aVof
p4595
aVthat
p4596
aVshipwreck
p4597
aVdisorder
p4598
aVthat
p4599
aVmade
p4600
aVthe
p4601
aVearth
p4602
aVtremble
p4603
aV,
aVpelayo
p4604
aVand
p4605
aVelisenda
p4606
aVwere
p4607
aVhappy
p4608
aVwith
p4609
aVfatigue
p4610
aV,
aVfor
p4611
aVin
p4612
aVless
p4613
aVthan
p4614
aVa
aVweek
p4615
aVthey
p4616
aVhad
p4617
aVcrammed
p4618
aVtheir
p4619
aVrooms
p4620
aVwith
p4621
aVmoney
p4622
aVand
p4623
aVthe
p4624
aVline
p4625
aVof
p4626
aVpilgrims
p4627
aVwaiting
p4628
aVtheir
p4629
aVturn
p4630
aVto
p4631
aVenter
p4632
aVstill
p4633
aVreached
p4634
aVbeyond
p4635
aVthe
p4636
aVhorizon
p4637
aV.
aa(lp4638
Vthe
p4639
aVangel
p4640
aVwas
p4641
aVthe
p4642
aVonly
p4643
aVone
p4644
aVwho
p4645
aVtook
p4646
aVno
p4647
aVpart
p4648
aVin
p4649
aVhis
p4650
aVown
p4651
aVact
p4652
aV.
aa(lp4653
Vhe
p4654
aVspent
p4655
aVhis
p4656
aVtime
p4657
aVtrying
p4658
aVto
p4659
aVget
p4660
aVcomfortable
p4661
aVin
p4662
aVhis
p4663
aVborrowed
p4664
aVnest
p4665
aV,
aVbefuddled
p4666
aVby
p4667
aVthe
p4668
aVhellish
p4669
aVheat
p4670
aVof
p4671
aVthe
p4672
aVoil
p4673
aVlamps
p4674
aVand
p4675
aVsacramental
p4676
aVcandles
p4677
aVthat
p4678
aVhad
p4679
aVbeen
p4680
aVplaced
p4681
aValong
p4682
aVthe
p4683
aVwire
p4684
aV.
aa(lp4685
Vat
p4686
aVfirst
p4687
aVthey
p4688
aVtried
p4689
aVto
p4690
aVmake
p4691
aVhim
p4692
aVeat
p4693
aVsome
p4694
aVmothballs
p4695
aV,
aVwhich
p4696
aV,
aVaccording
p4697
aVto
p4698
aVthe
p4699
aaa(lp4700
(lp4701
Vbuted
p4702
aVto
p4703
aVthe
p4704
aVangel
p4705
aVshowed
p4706
aVa
aVcertain
p4707
aVmental
p4708
aVdisorder
p4709
aV,
aVlike
p4710
aVthe
p4711
aVblind
p4712
aVman
p4713
aVwho
p4714
aVdidn\u2019t
p4715
aVrecover
p4716
aVhis
p4717
aVsight
p4718
aVbut
p4719
aVgrew
p4720
aVthree
p4721
aVnew
p4722
aVteeth
p4723
aV,
aVor
p4724
aVthe
p4725
aVparalytic
p4726
aVwho
p4727
aVdidn\u2019t
p4728
aVget
p4729
aVto
p4730
aVwalk
p4731
aVbut
p4732
aValmost
p4733
aVwon
p4734
aVthe
p4735
aVlottery
p4736
aV,
aVand
p4737
aVthe
p4738
aVleper
p4739
aVwhose
p4740
aVsores
p4741
aVsprouted
p4742
aVsunflowers
p4743
aV.
aa(lp4744
Vthose
p4745
aVconsolation
p4746
aVmiracles
p4747
aV,
aVwhich
p4748
aVwere
p4749
aVmore
p4750
aVlike
p4751
aVmocking
p4752
aVfun
p4753
aV,
aVhad
p4754
aValready
p4755
aVruined
p4756
aVthe
p4757
aVangel\u2019s
p4758
aVreputation
p4759
aVwhen
p4760
aVthe
p4761
aVwoman
p4762
aVwho
p4763
aVhad
p4764
aVbeen
p4765
aVchanged
p4766
aVinto
p4767
aVa
aVspider
p4768
aVfinally
p4769
aVcrushed
p4770
aVhim
p4771
aVcompletely
p4772
aV.
aa(lp4773
Vthat
p4774
aVwas
p4775
aVhow
p4776
aVfather
p4777
aVgonzaga
p4778
aVwas
p4779
aVcured
p4780
aVforever
p4781
aVof
p4782
aVhis
p4783
aVinsomnia
p4784
aVand
p4785
aVpelayo\u2019s
p4786
aVcourtyard
p4787
aVwent
p4788
aVback
p4789
aVto
p4790
aVbeing
p4791
aVas
p4792
aVempty
p4793
aVas
p4794
aVduring
p4795
aVthe
p4796
aVtime
p4797
aVit
p4798
aVhad
p4799
aVrained
p4800
aVfor
p4801
aVthree
p4802
aVdays
p4803
aVand
p4804
aVcrabs
p4805
aVwalked
p4806
aVthrough
p4807
aVthe
p4808
aVbedrooms
p4809
aV.
aa(lp4810
Vthe
p4811
aVowners
p4812
aVof
p4813
aVthe
p4814
aVhouse
p4815
aVhad
p4816
aVno
p4817
aVreason
p4818
aVto
p4819
aVlament
p4820
aV.
aa(lp4821
Vwith
p4822
aVthe
p4823
aVmoney
p4824
aVthey
p4825
aVsaved
p4826
aVthey
p4827
aVbuilt
p4828
aVa
aVtwo-story
p4829
aVmansion
p4830
aVwith
p4831
aVbalconies
p4832
aVand
p4833
aVgardens
p4834
aVand
p4835
aVhigh
p4836
aVnetting
p4837
aVso
p4838
aVthat
p4839
aVcrabs
p4840
aVwouldn\u2019t
p4841
aVget
p4842
aVin
p4843
aVduring
p4844
aVthe
p4845
aVwinter
p4846
aV,
aVand
p4847
aVwith
p4848
aViron
p4849
aVbars
p4850
aVon
p4851
aVthe
p4852
aVwindows
p4853
aVso
p4854
aVthat
p4855
aVangels
p4856
aVwouldn\u2019t
p4857
aVget
p4858
aVin
p4859
aV.
aa(lp4860
Vpelayo
p4861
aValso
p4862
aVset
p4863
aVup
p4864
aVa
aVrabbit
p4865
aVwarren
p4866
aVclose
p4867
aVto
p4868
aVtown
p4869
aVand
p4870
aVgave
p4871
aVup
p4872
aVhis
p4873
aVjob
p4874
aVas
p4875
aVa
aVbailiff
p4876
aVfor
p4877
aVgood
p4878
aV,
aVand
p4879
aVelis
p4880
aaa(lp4881
(lp4882
Ve
aVbedroom
p4883
aVwith
p4884
aVa
aVbroom
p4885
aVand
p4886
aVa
aVmoment
p4887
aVlater
p4888
aVfind
p4889
aVhim
p4890
aVin
p4891
aVthe
p4892
aVkitchen
p4893
aV.
aa(lp4894
Vhe
p4895
aVseemed
p4896
aVto
p4897
aVbe
p4898
aVin
p4899
aVso
p4900
aVmany
p4901
aVplaces
p4902
aVat
p4903
aVthe
p4904
aVsame
p4905
aVtime
p4906
aVthat
p4907
aVthey
p4908
aVgrew
p4909
aVto
p4910
aVthink
p4911
aVthat
p4912
aVhe\u2019d
p4913
aVbe
p4914
aVduplicated
p4915
aV,
aVthat
p4916
aVhe
p4917
aVwas
p4918
aVreproducing
p4919
aVhimself
p4920
aVall
p4921
aVthrough
p4922
aVthe
p4923
aVhouse
p4924
aV,
aVand
p4925
aVthe
p4926
aVexasperated
p4927
aVand
p4928
aVunhinged
p4929
aVelisenda
p4930
aVshouted
p4931
aVthat
p4932
aVit
p4933
aVwas
p4934
aVawful
p4935
aVliving
p4936
aVin
p4937
aVthat
p4938
aVhell
p4939
aVfull
p4940
aVof
p4941
aVangels
p4942
aV.
aa(lp4943
Vhe
p4944
aVcould
p4945
aVscarcely
p4946
aVeat
p4947
aVand
p4948
aVhis
p4949
aVantiquarian
p4950
aVeyes
p4951
aVhad
p4952
aValso
p4953
aVbecome
p4954
aVso
p4955
aVfoggy
p4956
aVthat
p4957
aVhe
p4958
aVwent
p4959
aVabout
p4960
aVbumping
p4961
aVinto
p4962
aVposts
p4963
aV.
aa(lp4964
Vall
p4965
aVhe
p4966
aVhad
p4967
aVleft
p4968
aVwere
p4969
aVthe
p4970
aVbare
p4971
aVcannulae
p4972
aVof
p4973
aVhis
p4974
aVlast
p4975
aVfeathers
p4976
aV.
aa(lp4977
Vpelayo
p4978
aVthrew
p4979
aVa
aVblanket
p4980
aVover
p4981
aVhim
p4982
aVand
p4983
aVextended
p4984
aVhim
p4985
aVthe
p4986
aVcharity
p4987
aVof
p4988
aVletting
p4989
aVhim
p4990
aVsleep
p4991
aVin
p4992
aVthe
p4993
aVshed
p4994
aV,
aVand
p4995
aVonly
p4996
aVthen
p4997
aVdid
p4998
aVthey
p4999
aVnotice
p5000
aVthat
p5001
aVhe
p5002
aVhad
p5003
aVa
aVtemperature
p5004
aVat
p5005
aVnight
p5006
aV,
aVand
p5007
aVwas
p5008
aVdelirious
p5009
aVwith
p5010
aVthe
p5011
aVtongue
p5012
aVtwisters
p5013
aVof
p5014
aVan
p5015
aVold
p5016
aVnorwegian
p5017
aV.
aa(lp5018
Vthat
p5019
aVwas
p5020
aVone
p5021
aVof
p5022
aVthe
p5023
aVfew
p5024
aVtimes
p5025
aVthey
p5026
aVbecame
p5027
aValarmed
p5028
aV,
aVfor
p5029
aVthey
p5030
aVthought
p5031
aVhe
p5032
aVwas
p5033
aVgoing
p5034
aVto
p5035
aVdie
p5036
aVand
p5037
aVnot
p5038
aVeven
p5039
aVthe
p5040
aVwise
p5041
aVneighbor
p5042
aVwoman
p5043
aVhad
p5044
aVbeen
p5045
aVable
p5046
aVto
p5047
aVtell
p5048
aVthem
p5049
aVwhat
p5050
aVto
p5051
aVdo
p5052
aVwith
p5053
aVdead
p5054
aVangels
p5055
aV.
aa(lp5056
Vand
p5057
aVyet
p5058
aVhe
p5059
aVnot
p5060
aVonly
p5061
aVsurvived
p5062
aVhis
p5063
aVworst
p5064
aVwinter
p5065
aV,
aVbut
p5066
aVseemed
p5067
aVimproved
p5068
aVwith
p5069
aVthe
p5070
aVfirst
p5071
aVsunny
p5072
aVdays
p5073
aV.
aa(lp5074
Vhe
p5075
aVre
p5076
aaasg87
(lp5077
(lp5078
V[
aVCHARACTER
p5079
aV]
aValthough
p5080
aV[
aVCHARACTER
p5081
aV]
aVis
p5082
aVkinder
p5083
aVto
p5084
aVthe
p5085
aVold
p5086
aVman
p5087
aVthan
p5088
aVthe
p5089
aVother
p5090
aVvillagers
p5091
aV,
aVhe
p5092
aVis
p5093
aVcertainly
p5094
aVno
p5095
aVparagon
p5096
aVof
p5097
aVcompassion
p5098
aVand
p5099
aVcharity
p5100
aV.
aa(lp5101
Vhe
p5102
aVdoes
p5103
aVn't
p5104
aVclub
p5105
aVthe
p5106
aVold
p5107
aVman
p5108
aVas
p5109
aVthe
p5110
aVneighbor
p5111
aVwoman
p5112
aVsuggests
p5113
aV,
aVbut
p5114
aVhe
p5115
aVdoes
p5116
aVpen
p5117
aVthe
p5118
aVsupposed
p5119
aVangel
p5120
aVin
p5121
aVhis
p5122
aVchicken
p5123
aVcoop
p5124
aVand
p5125
aVcharge
p5126
aVadmission
p5127
aVto
p5128
aVthe
p5129
aVcrowds
p5130
aVof
p5131
aVcurious
p5132
aVsightseers
p5133
aV.
aa(lp5134
V[
aVCHARACTER
p5135
aV]
aVis
p5136
aVprimarily
p5137
aVconcerned
p5138
aVwith
p5139
aVhis
p5140
aVfamily
p5141
aVand
p5142
aVsick
p5143
aVchild
p5144
aVand
p5145
aVis
p5146
aVcontent
p5147
aVto
p5148
aVleave
p5149
aVthe
p5150
aVtheoretical
p5151
aVand
p5152
aVtheological
p5153
aVspeculations
p5154
aVto
p5155
aVfather
p5156
aVgonzaga
p5157
aV.
aa(lp5158
Vhis
p5159
aVdecision
p5160
aVto
p5161
aVshelter
p5162
aVthe
p5163
aVold
p5164
aVman
p5165
aVand
p5166
aVtake
p5167
aVsome
p5168
aVresponsibility
p5169
aVfor
p5170
aVhim
p5171
aV,
aVhowever
p5172
aV,
aVsuggests
p5173
aVthat
p5174
aVhe
p5175
aVis
p5176
aVn't
p5177
aVas
p5178
aVcold
p5179
aVor
p5180
aVheartless
p5181
aVas
p5182
aVhe
p5183
aVmight
p5184
aVseem
p5185
aV.
aa(lp5186
Vby
p5187
aVallowing
p5188
aVthe
p5189
aVold
p5190
aVman
p5191
aVto
p5192
aVstay
p5193
aV,
aV[
aVCHARACTER
p5194
aV]
aValso
p5195
aVinvites
p5196
aVmystery
p5197
aV,
aVwonder
p5198
aV,
aVand
p5199
aVmagic
p5200
aVinto
p5201
aVhis
p5202
aVlife
p5203
aV.
aasssS'mainText'
p5204
(lp5205
(lp5206
Von
p5207
aVthe
p5208
aVthird
p5209
aVday
p5210
aVof
p5211
aVrain
p5212
aVthey
p5213
aVhad
p5214
aVkilled
p5215
aVso
p5216
aVmany
p5217
aVcrabs
p5218
aVinside
p5219
aVthe
p5220
aVhouse
p5221
aVthat
p5222
aVpelayo
p5223
aVhad
p5224
aVto
p5225
aVcross
p5226
aVhis
p5227
aVdrenched
p5228
aVcourtyard
p5229
aVand
p5230
aVthrow
p5231
aVthem
p5232
aVinto
p5233
aVthe
p5234
aVsea
p5235
aV,
aVbecause
p5236
aVthe
p5237
aVnewborn
p5238
aVchild
p5239
aVhad
p5240
aVa
aVtemperature
p5241
aVall
p5242
aVnight
p5243
aVand
p5244
aVthey
p5245
aVthought
p5246
aVit
p5247
aVwas
p5248
aVdue
p5249
aVto
p5250
aVthe
p5251
aVstench
p5252
aV.
aa(lp5253
Vthe
p5254
aVworld
p5255
aVhad
p5256
aVbeen
p5257
aVsad
p5258
aVsince
p5259
aVtuesday
p5260
aV.
aa(lp5261
Vsea
p5262
aVand
p5263
aVsky
p5264
aVwere
p5265
aVa
aVsingle
p5266
aVash-gray
p5267
aVthing
p5268
aVand
p5269
aVthe
p5270
aVsands
p5271
aVof
p5272
aVthe
p5273
aVbeach
p5274
aV,
aVwhich
p5275
aVon
p5276
aVmarch
p5277
aVnights
p5278
aVglimmered
p5279
aVlike
p5280
aVpowdered
p5281
aVlight
p5282
aV,
aVhad
p5283
aVbecome
p5284
aVa
aVstew
p5285
aVof
p5286
aVmud
p5287
aVand
p5288
aVrotten
p5289
aVshellfish
p5290
aV.
aa(lp5291
Vthe
p5292
aVlight
p5293
aVwas
p5294
aVso
p5295
aVweak
p5296
aVat
p5297
aVnoon
p5298
aVthat
p5299
aVwhen
p5300
aVpelayo
p5301
aVwas
p5302
aVcoming
p5303
aVback
p5304
aVto
p5305
aVthe
p5306
aVhouse
p5307
aVafter
p5308
aVthrowing
p5309
aVaway
p5310
aVthe
p5311
aVcrabs
p5312
aV,
aVit
p5313
aVwas
p5314
aVhard
p5315
aVfor
p5316
aVhim
p5317
aVto
p5318
aVsee
p5319
aVwhat
p5320
aVit
p5321
aVwas
p5322
aVthat
p5323
aVwas
p5324
aVmoving
p5325
aVand
p5326
aVgroaning
p5327
aVin
p5328
aVthe
p5329
aVrear
p5330
aVof
p5331
aVthe
p5332
aVcourtyard
p5333
aV.
aa(lp5334
Vhe
p5335
aVhad
p5336
aVto
p5337
aVgo
p5338
aVvery
p5339
aVclose
p5340
aVto
p5341
aVsee
p5342
aVthat
p5343
aVit
p5344
aVwas
p5345
aVan
p5346
aVold
p5347
aVman
p5348
aV,
aVa
aVvery
p5349
aVold
p5350
aVman
p5351
aV,
aVlying
p5352
aVface
p5353
aVdown
p5354
aVin
p5355
aVthe
p5356
aVmud
p5357
aV,
aVwho
p5358
aV,
aVin
p5359
aVspite
p5360
aVof
p5361
aVhis
p5362
aVtremendous
p5363
aVefforts
p5364
aV,
aVcouldn\u2019t
p5365
aVget
p5366
aVup
p5367
aV,
aVimpeded
p5368
aVby
p5369
aVhis
p5370
aVenormous
p5371
aVwings
p5372
aV.
aa(lp5373
Vfrightened
p5374
aVby
p5375
aVthat
p5376
aVnightmare
p5377
aV,
aVpelayo
p5378
aVran
p5379
aVto
p5380
aVget
p5381
aVelisenda
p5382
aV,
aVhis
p5383
aVwife
p5384
aV,
aVwho
p5385
aVwas
p5386
aVputting
p5387
aVcompresses
p5388
aVon
p5389
aVthe
p5390
aVsick
p5391
aVchild
p5392
aV,
aVand
p5393
aVhe
p5394
aVtook
p5395
aVher
p5396
aVto
p5397
aVthe
p5398
aVrear
p5399
aVof
p5400
aVthe
p5401
aVcourtyard
p5402
aV.
aa(lp5403
Vthey
p5404
aVboth
p5405
aVlooked
p5406
aVat
p5407
aVthe
p5408
aVfallen
p5409
aVbody
p5410
aVwith
p5411
aVa
aVmute
p5412
aVstupor
p5413
aV.
aa(lp5414
Vhe
p5415
aVwas
p5416
aVdressed
p5417
aVlike
p5418
aVa
aVragpicker
p5419
aV.
aa(lp5420
Vthere
p5421
aVwere
p5422
aVonly
p5423
aVa
aVfew
p5424
aVfaded
p5425
aVhairs
p5426
aVleft
p5427
aVon
p5428
aVhis
p5429
aVbald
p5430
aVskull
p5431
aVand
p5432
aVvery
p5433
aVfew
p5434
aVteeth
p5435
aVin
p5436
aVhis
p5437
aVmouth
p5438
aV,
aVand
p5439
aVhis
p5440
aVpitiful
p5441
aVcondition
p5442
aVof
p5443
aVa
aVdrenched
p5444
aVgreat-grandfather
p5445
aVtook
p5446
aVaway
p5447
aVany
p5448
aVsense
p5449
aVof
p5450
aVgrandeur
p5451
aVhe
p5452
aVmight
p5453
aVhave
p5454
aVhad
p5455
aV.
aa(lp5456
Vhis
p5457
aVhuge
p5458
aVbuzzard
p5459
aVwings
p5460
aV,
aVdirty
p5461
aVand
p5462
aVhalf-plucked
p5463
aV,
aVwere
p5464
aVforever
p5465
aVentangled
p5466
aVin
p5467
aVthe
p5468
aVmud
p5469
aV.
aa(lp5470
Vthey
p5471
aVlooked
p5472
aVat
p5473
aVhim
p5474
aVso
p5475
aVlong
p5476
aVand
p5477
aVso
p5478
aVclosely
p5479
aVthat
p5480
aVpelayo
p5481
aVand
p5482
aVelisenda
p5483
aVvery
p5484
aVsoon
p5485
aVovercame
p5486
aVtheir
p5487
aVsurprise
p5488
aVand
p5489
aVin
p5490
aVthe
p5491
aVend
p5492
aVfound
p5493
aVhim
p5494
aVfamiliar
p5495
aV.
aa(lp5496
Vthen
p5497
aVthey
p5498
aVdared
p5499
aVspeak
p5500
aVto
p5501
aVhim
p5502
aV,
aVand
p5503
aVhe
p5504
aVanswered
p5505
aVin
p5506
aVan
p5507
aVincomprehensible
p5508
aVdialect
p5509
aVwith
p5510
aVa
aVstrong
p5511
aVsailor\u2019s
p5512
aVvoice
p5513
aV.
aa(lp5514
Vthat
p5515
aVwas
p5516
aVhow
p5517
aVthey
p5518
aVskipped
p5519
aVover
p5520
aVthe
p5521
aVinconvenience
p5522
aVof
p5523
aVthe
p5524
aVwings
p5525
aVand
p5526
aVquite
p5527
aVintelligently
p5528
aVconcluded
p5529
aVthat
p5530
aVhe
p5531
aVwas
p5532
aVa
aVlonely
p5533
aVcastaway
p5534
aVfrom
p5535
aVsome
p5536
aVforeign
p5537
aVship
p5538
aVwrecked
p5539
aVby
p5540
aVthe
p5541
aVstorm
p5542
aV.
aa(lp5543
Vand
p5544
aVyet
p5545
aV,
aVthey
p5546
aVcalled
p5547
aVin
p5548
aVa
aVneighbor
p5549
aVwoman
p5550
aVwho
p5551
aVknew
p5552
aVeverything
p5553
aVabout
p5554
aVlife
p5555
aVand
p5556
aVdeath
p5557
aVto
p5558
aVsee
p5559
aVhim
p5560
aV,
aVand
p5561
aVall
p5562
aVshe
p5563
aVneeded
p5564
aVwas
p5565
aVone
p5566
aVlook
p5567
aVto
p5568
aVshow
p5569
aVthem
p5570
aVtheir
p5571
aVmistake
p5572
aV.
aa(lp5573
V\u201che\u2019s
p5574
aVan
p5575
aVangel
p5576
aV,
aV\u201d
aVshe
p5577
aVtold
p5578
aVthem
p5579
aV.
aa(lp5580
V\u201che
p5581
aVmust
p5582
aVhave
p5583
aVbeen
p5584
aVcoming
p5585
aVfor
p5586
aVthe
p5587
aVchild
p5588
aV,
aVbut
p5589
aVthe
p5590
aVpoor
p5591
aVfellow
p5592
aVis
p5593
aVso
p5594
aVold
p5595
aVthat
p5596
aVthe
p5597
aVrain
p5598
aVknocked
p5599
aVhim
p5600
aVdown.\u201d
p5601
aVon
p5602
aVthe
p5603
aVfollowing
p5604
aVday
p5605
aVeveryone
p5606
aVknew
p5607
aVthat
p5608
aVa
aVflesh-and-blood
p5609
aVangel
p5610
aVwas
p5611
aVheld
p5612
aVcaptive
p5613
aVin
p5614
aVpelayo\u2019s
p5615
aVhouse
p5616
aV.
aa(lp5617
Vagainst
p5618
aVthe
p5619
aVjudgment
p5620
aVof
p5621
aVthe
p5622
aVwise
p5623
aVneighbor
p5624
aVwoman
p5625
aV,
aVfor
p5626
aVwhom
p5627
aVangels
p5628
aVin
p5629
aVthose
p5630
aVtimes
p5631
aVwere
p5632
aVthe
p5633
aVfugitive
p5634
aVsurvivors
p5635
aVof
p5636
aVa
aVcelestial
p5637
aVconspiracy
p5638
aV,
aVthey
p5639
aVdid
p5640
aVnot
p5641
aVhave
p5642
aVthe
p5643
aVheart
p5644
aVto
p5645
aVclub
p5646
aVhim
p5647
aVto
p5648
aVdeath
p5649
aV.
aa(lp5650
Vpelayo
p5651
aVwatched
p5652
aVover
p5653
aVhim
p5654
aVall
p5655
aVafternoon
p5656
aVfrom
p5657
aVthe
p5658
aVkitchen
p5659
aV,
aVarmed
p5660
aVwith
p5661
aVhis
p5662
aVbailiff\u2019s
p5663
aVclub
p5664
aV,
aVand
p5665
aVbefore
p5666
aVgoing
p5667
aVto
p5668
aVbed
p5669
aVhe
p5670
aVdragged
p5671
aVhim
p5672
aVout
p5673
aVof
p5674
aVthe
p5675
aVmud
p5676
aVand
p5677
aVlocked
p5678
aVhim
p5679
aVup
p5680
aVwith
p5681
aVthe
p5682
aVhens
p5683
aVin
p5684
aVthe
p5685
aVwire
p5686
aVchicken
p5687
aVcoop
p5688
aV.
aa(lp5689
Vin
p5690
aVthe
p5691
aVmiddle
p5692
aVof
p5693
aVthe
p5694
aVnight
p5695
aV,
aVwhen
p5696
aVthe
p5697
aVrain
p5698
aVstopped
p5699
aV,
aVpelayo
p5700
aVand
p5701
aVelisenda
p5702
aVwere
p5703
aVstill
p5704
aVkilling
p5705
aVcrabs
p5706
aV.
aa(lp5707
Va
aVshort
p5708
aVtime
p5709
aVafterward
p5710
aVthe
p5711
aVchild
p5712
aVwoke
p5713
aVup
p5714
aVwithout
p5715
aVa
aVfever
p5716
aVand
p5717
aVwith
p5718
aVa
aVdesire
p5719
aVto
p5720
aVeat
p5721
aV.
aa(lp5722
Vthen
p5723
aVthey
p5724
aVfelt
p5725
aVmagnanimous
p5726
aVand
p5727
aVdecided
p5728
aVto
p5729
aVput
p5730
aVthe
p5731
aVangel
p5732
aVon
p5733
aVa
aVraft
p5734
aVwith
p5735
aVfresh
p5736
aVwater
p5737
aVand
p5738
aVprovisions
p5739
aVfor
p5740
aVthree
p5741
aVdays
p5742
aVand
p5743
aVleave
p5744
aVhim
p5745
aVto
p5746
aVhis
p5747
aVfate
p5748
aVon
p5749
aVthe
p5750
aVhigh
p5751
aVseas
p5752
aV.
aa(lp5753
Vbut
p5754
aVwhen
p5755
aVthey
p5756
aVwent
p5757
aVout
p5758
aVinto
p5759
aVthe
p5760
aVcourtyard
p5761
aVwith
p5762
aVthe
p5763
aVfirst
p5764
aVlight
p5765
aVof
p5766
aVdawn
p5767
aV,
aVthey
p5768
aVfound
p5769
aVthe
p5770
aVwhole
p5771
aVneighborhood
p5772
aVin
p5773
aVfront
p5774
aVof
p5775
aVthe
p5776
aVchicken
p5777
aVcoop
p5778
aVhaving
p5779
aVfun
p5780
aVwith
p5781
aVthe
p5782
aVangel
p5783
aV,
aVwithout
p5784
aVthe
p5785
aVslightest
p5786
aVreverence
p5787
aV,
aVtossing
p5788
aVhim
p5789
aVthings
p5790
aVto
p5791
aVeat
p5792
aVthrough
p5793
aVthe
p5794
aVopenings
p5795
aVin
p5796
aVthe
p5797
aVwire
p5798
aVas
p5799
aVif
p5800
aVhe
p5801
aVweren\u2019t
p5802
aVa
aVsupernatural
p5803
aVcreature
p5804
aVbut
p5805
aVa
aVcircus
p5806
aVanimal
p5807
aV.
aa(lp5808
Vfather
p5809
aVgonzaga
p5810
aVarrived
p5811
aVbefore
p5812
aVseven
p5813
aVo\u2019clock
p5814
aV,
aValarmed
p5815
aVat
p5816
aVthe
p5817
aVstrange
p5818
aVnews
p5819
aV.
aa(lp5820
Vby
p5821
aVthat
p5822
aVtime
p5823
aVonlookers
p5824
aVless
p5825
aVfrivolous
p5826
aVthan
p5827
aVthose
p5828
aVat
p5829
aVdawn
p5830
aVhad
p5831
aValready
p5832
aVarrived
p5833
aVand
p5834
aVthey
p5835
aVwere
p5836
aVmaking
p5837
aVall
p5838
aVkinds
p5839
aVof
p5840
aVconjectures
p5841
aVconcerning
p5842
aVthe
p5843
aVcaptive\u2019s
p5844
aVfuture
p5845
aV.
aa(lp5846
Vthe
p5847
aVsimplest
p5848
aVamong
p5849
aVthem
p5850
aVthought
p5851
aVthat
p5852
aVhe
p5853
aVshould
p5854
aVbe
p5855
aVnamed
p5856
aVmayor
p5857
aVof
p5858
aVthe
p5859
aVworld
p5860
aV.
aa(lp5861
Vothers
p5862
aVof
p5863
aVsterner
p5864
aVmind
p5865
aVfelt
p5866
aVthat
p5867
aVhe
p5868
aVshould
p5869
aVbe
p5870
aVpromoted
p5871
aVto
p5872
aVthe
p5873
aVrank
p5874
aVof
p5875
aVfive-star
p5876
aVgeneral
p5877
aVin
p5878
aVorder
p5879
aVto
p5880
aVwin
p5881
aVall
p5882
aVwars
p5883
aV.
aa(lp5884
Vsome
p5885
aVvisionaries
p5886
aVhoped
p5887
aVthat
p5888
aVhe
p5889
aVcould
p5890
aVbe
p5891
aVput
p5892
aVto
p5893
aVstud
p5894
aVin
p5895
aVorder
p5896
aVto
p5897
aVimplant
p5898
aVthe
p5899
aVearth
p5900
aVa
aVrace
p5901
aVof
p5902
aVwinged
p5903
aVwise
p5904
aVmen
p5905
aVwho
p5906
aVcould
p5907
aVtake
p5908
aVcharge
p5909
aVof
p5910
aVthe
p5911
aVuniverse
p5912
aV.
aa(lp5913
Vbut
p5914
aVfather
p5915
aVgonzaga
p5916
aV,
aVbefore
p5917
aVbecoming
p5918
aVa
aVpriest
p5919
aV,
aVhad
p5920
aVbeen
p5921
aVa
aVrobust
p5922
aVwoodcutter
p5923
aV.
aa(lp5924
Vstanding
p5925
aVby
p5926
aVthe
p5927
aVwire
p5928
aV,
aVhe
p5929
aVreviewed
p5930
aVhis
p5931
aVcatechism
p5932
aVin
p5933
aVan
p5934
aVinstant
p5935
aVand
p5936
aVasked
p5937
aVthem
p5938
aVto
p5939
aVopen
p5940
aVthe
p5941
aVdoor
p5942
aVso
p5943
aVthat
p5944
aVhe
p5945
aVcould
p5946
aVtake
p5947
aVa
aVclose
p5948
aVlook
p5949
aVat
p5950
aVthat
p5951
aVpitiful
p5952
aVman
p5953
aVwho
p5954
aVlooked
p5955
aVmore
p5956
aVlike
p5957
aVa
aVhuge
p5958
aVdecrepit
p5959
aVhen
p5960
aVamong
p5961
aVthe
p5962
aVfascinated
p5963
aVchickens
p5964
aV.
aa(lp5965
Vhe
p5966
aVwas
p5967
aVlying
p5968
aVin
p5969
aVthe
p5970
aVcorner
p5971
aVdrying
p5972
aVhis
p5973
aVopen
p5974
aVwings
p5975
aVin
p5976
aVthe
p5977
aVsunlight
p5978
aVamong
p5979
aVthe
p5980
aVfruit
p5981
aVpeels
p5982
aVand
p5983
aVbreakfast
p5984
aVleftovers
p5985
aVthat
p5986
aVthe
p5987
aVearly
p5988
aVrisers
p5989
aVhad
p5990
aVthrown
p5991
aVhim
p5992
aV.
aa(lp5993
Valien
p5994
aVto
p5995
aVthe
p5996
aVimpertinences
p5997
aVof
p5998
aVthe
p5999
aVworld
p6000
aV,
aVhe
p6001
aVonly
p6002
aVlifted
p6003
aVhis
p6004
aVantiquarian
p6005
aVeyes
p6006
aVand
p6007
aVmurmured
p6008
aVsomething
p6009
aVin
p6010
aVhis
p6011
aVdialect
p6012
aVwhen
p6013
aVfather
p6014
aVgonzaga
p6015
aVwent
p6016
aVinto
p6017
aVthe
p6018
aVchicken
p6019
aVcoop
p6020
aVand
p6021
aVsaid
p6022
aVgood
p6023
aVmorning
p6024
aVto
p6025
aVhim
p6026
aVin
p6027
aVlatin
p6028
aV.
aa(lp6029
Vthe
p6030
aVparish
p6031
aVpriest
p6032
aVhad
p6033
aVhis
p6034
aVfirst
p6035
aVsuspicion
p6036
aVof
p6037
aVan
p6038
aVimposter
p6039
aVwhen
p6040
aVhe
p6041
aVsaw
p6042
aVthat
p6043
aVhe
p6044
aVdid
p6045
aVnot
p6046
aVunderstand
p6047
aVthe
p6048
aVlanguage
p6049
aVof
p6050
aVgod
p6051
aVor
p6052
aVknow
p6053
aVhow
p6054
aVto
p6055
aVgreet
p6056
aVhis
p6057
aVministers
p6058
aV.
aa(lp6059
Vthen
p6060
aVhe
p6061
aVnoticed
p6062
aVthat
p6063
aVseen
p6064
aVclose
p6065
aVup
p6066
aVhe
p6067
aVwas
p6068
aVmuch
p6069
aVtoo
p6070
aVhuman
p6071
aV:
aVhe
p6072
aVhad
p6073
aVan
p6074
aVunbearable
p6075
aVsmell
p6076
aVof
p6077
aVthe
p6078
aVoutdoors
p6079
aV,
aVthe
p6080
aVback
p6081
aVside
p6082
aVof
p6083
aVhis
p6084
aVwings
p6085
aVwas
p6086
aVstrewn
p6087
aVwith
p6088
aVparasites
p6089
aVand
p6090
aVhis
p6091
aVmain
p6092
aVfeathers
p6093
aVhad
p6094
aVbeen
p6095
aVmistreated
p6096
aVby
p6097
aVterrestrial
p6098
aVwinds
p6099
aV,
aVand
p6100
aVnothing
p6101
aVabout
p6102
aVhim
p6103
aVmeasured
p6104
aVup
p6105
aVto
p6106
aVthe
p6107
aVproud
p6108
aVdignity
p6109
aVof
p6110
aVangels
p6111
aV.
aa(lp6112
Vthen
p6113
aVhe
p6114
aVcame
p6115
aVout
p6116
aVof
p6117
aVthe
p6118
aVchicken
p6119
aVcoop
p6120
aVand
p6121
aVin
p6122
aVa
aVbrief
p6123
aVsermon
p6124
aVwarned
p6125
aVthe
p6126
aVcurious
p6127
aVagainst
p6128
aVthe
p6129
aVrisks
p6130
aVof
p6131
aVbeing
p6132
aVingenuous
p6133
aV.
aa(lp6134
Vhe
p6135
aVreminded
p6136
aVthem
p6137
aVthat
p6138
aVthe
p6139
aVdevil
p6140
aVhad
p6141
aVthe
p6142
aVbad
p6143
aVhabit
p6144
aVof
p6145
aVmaking
p6146
aVuse
p6147
aVof
p6148
aVcarnival
p6149
aVtricks
p6150
aVin
p6151
aVorder
p6152
aVto
p6153
aVconfuse
p6154
aVthe
p6155
aVunwary
p6156
aV.
aa(lp6157
Vhe
p6158
aVargued
p6159
aVthat
p6160
aVif
p6161
aVwings
p6162
aVwere
p6163
aVnot
p6164
aVthe
p6165
aVessential
p6166
aVelement
p6167
aVin
p6168
aVdetermining
p6169
aVthe
p6170
aVdifferent
p6171
aVbetween
p6172
aVa
aVhawk
p6173
aVand
p6174
aVan
p6175
aVairplane
p6176
aV,
aVthey
p6177
aVwere
p6178
aVeven
p6179
aVless
p6180
aVso
p6181
aVin
p6182
aVthe
p6183
aVrecognition
p6184
aVof
p6185
aVangels
p6186
aV.
aa(lp6187
Vnevertheless
p6188
aV,
aVhe
p6189
aVpromised
p6190
aVto
p6191
aVwrite
p6192
aVa
aVletter
p6193
aVto
p6194
aVhis
p6195
aVbishop
p6196
aVso
p6197
aVthat
p6198
aVthe
p6199
aVlatter
p6200
aVwould
p6201
aVwrite
p6202
aVhis
p6203
aVprimate
p6204
aVso
p6205
aVthat
p6206
aVthe
p6207
aVlatter
p6208
aVwould
p6209
aVwrite
p6210
aVto
p6211
aVthe
p6212
aVsupreme
p6213
aVpontiff
p6214
aVin
p6215
aVorder
p6216
aVto
p6217
aVget
p6218
aVthe
p6219
aVfinal
p6220
aVverdict
p6221
aVfrom
p6222
aVthe
p6223
aVhighest
p6224
aVcourts
p6225
aV.
aa(lp6226
Vhis
p6227
aVprudence
p6228
aVfell
p6229
aVon
p6230
aVsterile
p6231
aVhearts
p6232
aV.
aa(lp6233
Vthe
p6234
aVnews
p6235
aVof
p6236
aVthe
p6237
aVcaptive
p6238
aVangel
p6239
aVspread
p6240
aVwith
p6241
aVsuch
p6242
aVrapidity
p6243
aVthat
p6244
aVafter
p6245
aVa
aVfew
p6246
aVhours
p6247
aVthe
p6248
aVcourtyard
p6249
aVhad
p6250
aVthe
p6251
aVbustle
p6252
aVof
p6253
aVa
aVmarketplace
p6254
aVand
p6255
aVthey
p6256
aVhad
p6257
aVto
p6258
aVcall
p6259
aVin
p6260
aVtroops
p6261
aVwith
p6262
aVfixed
p6263
aVbayonets
p6264
aVto
p6265
aVdisperse
p6266
aVthe
p6267
aVmob
p6268
aVthat
p6269
aVwas
p6270
aVabout
p6271
aVto
p6272
aVknock
p6273
aVthe
p6274
aVhouse
p6275
aVdown
p6276
aV.
aa(lp6277
Velisenda
p6278
aV,
aVher
p6279
aVspine
p6280
aVall
p6281
aVtwisted
p6282
aVfrom
p6283
aVsweeping
p6284
aVup
p6285
aVso
p6286
aVmuch
p6287
aVmarketplace
p6288
aVtrash
p6289
aV,
aVthen
p6290
aVgot
p6291
aVthe
p6292
aVidea
p6293
aVof
p6294
aVfencing
p6295
aVin
p6296
aVthe
p6297
aVyard
p6298
aVand
p6299
aVcharging
p6300
aVfive
p6301
aVcents
p6302
aVadmission
p6303
aVto
p6304
aVsee
p6305
aVthe
p6306
aVangel
p6307
aV.
aa(lp6308
Vthe
p6309
aVcurious
p6310
aVcame
p6311
aVfrom
p6312
aVfar
p6313
aVaway
p6314
aV.
aa(lp6315
Va
aVtraveling
p6316
aVcarnival
p6317
aVarrived
p6318
aVwith
p6319
aVa
aVflying
p6320
aVacrobat
p6321
aVwho
p6322
aVbuzzed
p6323
aVover
p6324
aVthe
p6325
aVcrowd
p6326
aVseveral
p6327
aVtimes
p6328
aV,
aVbut
p6329
aVno
p6330
aVone
p6331
aVpaid
p6332
aVany
p6333
aVattention
p6334
aVto
p6335
aVhim
p6336
aVbecause
p6337
aVhis
p6338
aVwings
p6339
aVwere
p6340
aVnot
p6341
aVthose
p6342
aVof
p6343
aVan
p6344
aVangel
p6345
aVbut
p6346
aV,
aVrather
p6347
aV,
aVthose
p6348
aVof
p6349
aVa
aVsidereal
p6350
aVbat
p6351
aV.
aa(lp6352
Vthe
p6353
aVmost
p6354
aVunfortunate
p6355
aVinvalids
p6356
aVon
p6357
aVearth
p6358
aVcame
p6359
aVin
p6360
aVsearch
p6361
aVof
p6362
aVhealth
p6363
aV:
aVa
aVpoor
p6364
aVwoman
p6365
aVwho
p6366
aVsince
p6367
aVchildhood
p6368
aVhas
p6369
aVbeen
p6370
aVcounting
p6371
aVher
p6372
aVheartbeats
p6373
aVand
p6374
aVhad
p6375
aVrun
p6376
aVout
p6377
aVof
p6378
aVnumbers
p6379
aV;
aVa
aVportuguese
p6380
aVman
p6381
aVwho
p6382
aVcouldn\u2019t
p6383
aVsleep
p6384
aVbecause
p6385
aVthe
p6386
aVnoise
p6387
aVof
p6388
aVthe
p6389
aVstars
p6390
aVdisturbed
p6391
aVhim
p6392
aV;
aVa
aVsleepwalker
p6393
aVwho
p6394
aVgot
p6395
aVup
p6396
aVat
p6397
aVnight
p6398
aVto
p6399
aVundo
p6400
aVthe
p6401
aVthings
p6402
aVhe
p6403
aVhad
p6404
aVdone
p6405
aVwhile
p6406
aVawake
p6407
aV;
aVand
p6408
aVmany
p6409
aVothers
p6410
aVwith
p6411
aVless
p6412
aVserious
p6413
aVailments
p6414
aV.
aa(lp6415
Vin
p6416
aVthe
p6417
aVmidst
p6418
aVof
p6419
aVthat
p6420
aVshipwreck
p6421
aVdisorder
p6422
aVthat
p6423
aVmade
p6424
aVthe
p6425
aVearth
p6426
aVtremble
p6427
aV,
aVpelayo
p6428
aVand
p6429
aVelisenda
p6430
aVwere
p6431
aVhappy
p6432
aVwith
p6433
aVfatigue
p6434
aV,
aVfor
p6435
aVin
p6436
aVless
p6437
aVthan
p6438
aVa
aVweek
p6439
aVthey
p6440
aVhad
p6441
aVcrammed
p6442
aVtheir
p6443
aVrooms
p6444
aVwith
p6445
aVmoney
p6446
aVand
p6447
aVthe
p6448
aVline
p6449
aVof
p6450
aVpilgrims
p6451
aVwaiting
p6452
aVtheir
p6453
aVturn
p6454
aVto
p6455
aVenter
p6456
aVstill
p6457
aVreached
p6458
aVbeyond
p6459
aVthe
p6460
aVhorizon
p6461
aV.
aa(lp6462
Vthe
p6463
aVangel
p6464
aVwas
p6465
aVthe
p6466
aVonly
p6467
aVone
p6468
aVwho
p6469
aVtook
p6470
aVno
p6471
aVpart
p6472
aVin
p6473
aVhis
p6474
aVown
p6475
aVact
p6476
aV.
aa(lp6477
Vhe
p6478
aVspent
p6479
aVhis
p6480
aVtime
p6481
aVtrying
p6482
aVto
p6483
aVget
p6484
aVcomfortable
p6485
aVin
p6486
aVhis
p6487
aVborrowed
p6488
aVnest
p6489
aV,
aVbefuddled
p6490
aVby
p6491
aVthe
p6492
aVhellish
p6493
aVheat
p6494
aVof
p6495
aVthe
p6496
aVoil
p6497
aVlamps
p6498
aVand
p6499
aVsacramental
p6500
aVcandles
p6501
aVthat
p6502
aVhad
p6503
aVbeen
p6504
aVplaced
p6505
aValong
p6506
aVthe
p6507
aVwire
p6508
aV.
aa(lp6509
Vat
p6510
aVfirst
p6511
aVthey
p6512
aVtried
p6513
aVto
p6514
aVmake
p6515
aVhim
p6516
aVeat
p6517
aVsome
p6518
aVmothballs
p6519
aV,
aVwhich
p6520
aV,
aVaccording
p6521
aVto
p6522
aVthe
p6523
aVwisdom
p6524
aVof
p6525
aVthe
p6526
aVwise
p6527
aVneighbor
p6528
aVwoman
p6529
aV,
aVwere
p6530
aVthe
p6531
aVfood
p6532
aVprescribed
p6533
aVfor
p6534
aVangels
p6535
aV.
aa(lp6536
Vbut
p6537
aVhe
p6538
aVturned
p6539
aVthem
p6540
aVdown
p6541
aV,
aVjust
p6542
aVas
p6543
aVhe
p6544
aVturned
p6545
aVdown
p6546
aVthe
p6547
aVpapal
p6548
aVlunches
p6549
aVthat
p6550
aVthe
p6551
aVpentinents
p6552
aVbrought
p6553
aVhim
p6554
aV,
aVand
p6555
aVthey
p6556
aVnever
p6557
aVfound
p6558
aVout
p6559
aVwhether
p6560
aVit
p6561
aVwas
p6562
aVbecause
p6563
aVhe
p6564
aVwas
p6565
aVan
p6566
aVangel
p6567
aVor
p6568
aVbecause
p6569
aVhe
p6570
aVwas
p6571
aVan
p6572
aVold
p6573
aVman
p6574
aVthat
p6575
aVin
p6576
aVthe
p6577
aVend
p6578
aVate
p6579
aVnothing
p6580
aVbut
p6581
aVeggplant
p6582
aVmush
p6583
aV.
aa(lp6584
Vhis
p6585
aVonly
p6586
aVsupernatural
p6587
aVvirtue
p6588
aVseemed
p6589
aVto
p6590
aVbe
p6591
aVpatience
p6592
aV.
aa(lp6593
Vespecially
p6594
aVduring
p6595
aVthe
p6596
aVfirst
p6597
aVdays
p6598
aV,
aVwhen
p6599
aVthe
p6600
aVhens
p6601
aVpecked
p6602
aVat
p6603
aVhim
p6604
aV,
aVsearching
p6605
aVfor
p6606
aVthe
p6607
aVstellar
p6608
aVparasites
p6609
aVthat
p6610
aVproliferated
p6611
aVin
p6612
aVhis
p6613
aVwings
p6614
aV,
aVand
p6615
aVthe
p6616
aVcripples
p6617
aVpulled
p6618
aVout
p6619
aVfeathers
p6620
aVto
p6621
aVtouch
p6622
aVtheir
p6623
aVdefective
p6624
aVparts
p6625
aVwith
p6626
aV,
aVand
p6627
aVeven
p6628
aVthe
p6629
aVmost
p6630
aVmerciful
p6631
aVthrew
p6632
aVstones
p6633
aVat
p6634
aVhim
p6635
aV,
aVtrying
p6636
aVto
p6637
aVget
p6638
aVhim
p6639
aVto
p6640
aVrise
p6641
aVso
p6642
aVthey
p6643
aVcould
p6644
aVsee
p6645
aVhim
p6646
aVstanding
p6647
aV.
aa(lp6648
Vthe
p6649
aVonly
p6650
aVtime
p6651
aVthey
p6652
aVsucceeded
p6653
aVin
p6654
aVarousing
p6655
aVhim
p6656
aVwas
p6657
aVwhen
p6658
aVthey
p6659
aVburned
p6660
aVhis
p6661
aVside
p6662
aVwith
p6663
aVan
p6664
aViron
p6665
aVfor
p6666
aVbranding
p6667
aVsteers
p6668
aV,
aVfor
p6669
aVhe
p6670
aVhad
p6671
aVbeen
p6672
aVmotionless
p6673
aVfor
p6674
aVso
p6675
aVmany
p6676
aVhours
p6677
aVthat
p6678
aVthey
p6679
aVthought
p6680
aVhe
p6681
aVwas
p6682
aVdead
p6683
aV.
aa(lp6684
Vhe
p6685
aVawoke
p6686
aVwith
p6687
aVa
aVstart
p6688
aV,
aVranting
p6689
aVin
p6690
aVhis
p6691
aVhermetic
p6692
aVlanguage
p6693
aVand
p6694
aVwith
p6695
aVtears
p6696
aVin
p6697
aVhis
p6698
aVeyes
p6699
aV,
aVand
p6700
aVhe
p6701
aVflapped
p6702
aVhis
p6703
aVwings
p6704
aVa
aVcouple
p6705
aVof
p6706
aVtimes
p6707
aV,
aVwhich
p6708
aVbrought
p6709
aVon
p6710
aVa
aVwhirlwind
p6711
aVof
p6712
aVchicken
p6713
aVdung
p6714
aVand
p6715
aVlunar
p6716
aVdust
p6717
aVand
p6718
aVa
aVgale
p6719
aVof
p6720
aVpanic
p6721
aVthat
p6722
aVdid
p6723
aVnot
p6724
aVseem
p6725
aVto
p6726
aVbe
p6727
aVof
p6728
aVthis
p6729
aVworld
p6730
aV.
aa(lp6731
Valthough
p6732
aVmany
p6733
aVthought
p6734
aVthat
p6735
aVhis
p6736
aVreaction
p6737
aVhad
p6738
aVnot
p6739
aVbeen
p6740
aVone
p6741
aVof
p6742
aVrage
p6743
aVbut
p6744
aVof
p6745
aVpain
p6746
aV,
aVfrom
p6747
aVthen
p6748
aVon
p6749
aVthey
p6750
aVwere
p6751
aVcareful
p6752
aVnot
p6753
aVto
p6754
aVannoy
p6755
aVhim
p6756
aV,
aVbecause
p6757
aVthe
p6758
aVmajority
p6759
aVunderstood
p6760
aVthat
p6761
aVhis
p6762
aVpassivity
p6763
aVwas
p6764
aVnot
p6765
aVthat
p6766
aVof
p6767
aVa
aVhero
p6768
aVtaking
p6769
aVhis
p6770
aVease
p6771
aVbut
p6772
aVthat
p6773
aVof
p6774
aVa
aVcataclysm
p6775
aVin
p6776
aVrepose
p6777
aV.
aa(lp6778
Vfather
p6779
aVgonzaga
p6780
aVheld
p6781
aVback
p6782
aVthe
p6783
aVcrowd\u2019s
p6784
aVfrivolity
p6785
aVwith
p6786
aVformulas
p6787
aVof
p6788
aVmaidservant
p6789
aVinspiration
p6790
aVwhile
p6791
aVawaiting
p6792
aVthe
p6793
aVarrival
p6794
aVof
p6795
aVa
aVfinal
p6796
aVjudgment
p6797
aVon
p6798
aVthe
p6799
aVnature
p6800
aVof
p6801
aVthe
p6802
aVcaptive
p6803
aV.
aa(lp6804
Vbut
p6805
aVthe
p6806
aVmail
p6807
aVfrom
p6808
aVrome
p6809
aVshowed
p6810
aVno
p6811
aVsense
p6812
aVof
p6813
aVurgency
p6814
aV.
aa(lp6815
Vthey
p6816
aVspent
p6817
aVtheir
p6818
aVtime
p6819
aVfinding
p6820
aVout
p6821
aVif
p6822
aVthe
p6823
aVprisoner
p6824
aVhad
p6825
aVa
aVnavel
p6826
aV,
aVif
p6827
aVhis
p6828
aVdialect
p6829
aVhad
p6830
aVany
p6831
aVconnection
p6832
aVwith
p6833
aVaramaic
p6834
aV,
aVhow
p6835
aVmany
p6836
aVtimes
p6837
aVhe
p6838
aVcould
p6839
aVfit
p6840
aVon
p6841
aVthe
p6842
aVhead
p6843
aVof
p6844
aVa
aVpin
p6845
aV,
aVor
p6846
aVwhether
p6847
aVhe
p6848
aVwasn\u2019t
p6849
aVjust
p6850
aVa
aVnorwegian
p6851
aVwith
p6852
aVwings
p6853
aV.
aa(lp6854
Vthose
p6855
aVmeager
p6856
aVletters
p6857
aVmight
p6858
aVhave
p6859
aVcome
p6860
aVand
p6861
aVgone
p6862
aVuntil
p6863
aVthe
p6864
aVend
p6865
aVof
p6866
aVtime
p6867
aVif
p6868
aVa
aVprovidential
p6869
aVevent
p6870
aVhad
p6871
aVnot
p6872
aVput
p6873
aVand
p6874
aVend
p6875
aVto
p6876
aVthe
p6877
aVpriest\u2019s
p6878
aVtribulations
p6879
aV.
aa(lp6880
Vit
p6881
aVso
p6882
aVhappened
p6883
aVthat
p6884
aVduring
p6885
aVthose
p6886
aVdays
p6887
aV,
aVamong
p6888
aVso
p6889
aVmany
p6890
aVother
p6891
aVcarnival
p6892
aVattractions
p6893
aV,
aVthere
p6894
aVarrived
p6895
aVin
p6896
aVthe
p6897
aVtown
p6898
aVthe
p6899
aVtraveling
p6900
aVshow
p6901
aVof
p6902
aVthe
p6903
aVwoman
p6904
aVwho
p6905
aVhad
p6906
aVbeen
p6907
aVchanged
p6908
aVinto
p6909
aVa
aVspider
p6910
aVfor
p6911
aVhaving
p6912
aVdisobeyed
p6913
aVher
p6914
aVparents
p6915
aV.
aa(lp6916
Vthe
p6917
aVadmission
p6918
aVto
p6919
aVsee
p6920
aVher
p6921
aVwas
p6922
aVnot
p6923
aVonly
p6924
aVless
p6925
aVthan
p6926
aVthe
p6927
aVadmission
p6928
aVto
p6929
aVsee
p6930
aVthe
p6931
aVangel
p6932
aV,
aVbut
p6933
aVpeople
p6934
aVwere
p6935
aVpermitted
p6936
aVto
p6937
aVask
p6938
aVher
p6939
aVall
p6940
aVmanner
p6941
aVof
p6942
aVquestions
p6943
aVabout
p6944
aVher
p6945
aVabsurd
p6946
aVstate
p6947
aVand
p6948
aVto
p6949
aVexamine
p6950
aVher
p6951
aVup
p6952
aVand
p6953
aVdown
p6954
aVso
p6955
aVthat
p6956
aVno
p6957
aVone
p6958
aVwould
p6959
aVever
p6960
aVdoubt
p6961
aVthe
p6962
aVtruth
p6963
aVof
p6964
aVher
p6965
aVhorror
p6966
aV.
aa(lp6967
Vshe
p6968
aVwas
p6969
aVa
aVfrightful
p6970
aVtarantula
p6971
aVthe
p6972
aVsize
p6973
aVof
p6974
aVa
aVram
p6975
aVand
p6976
aVwith
p6977
aVthe
p6978
aVhead
p6979
aVof
p6980
aVa
aVsad
p6981
aVmaiden
p6982
aV.
aa(lp6983
Vwhat
p6984
aVwas
p6985
aVmost
p6986
aVheartrending
p6987
aV,
aVhowever
p6988
aV,
aVwas
p6989
aVnot
p6990
aVher
p6991
aVoutlandish
p6992
aVshape
p6993
aVbut
p6994
aVthe
p6995
aVsincere
p6996
aVaffliction
p6997
aVwith
p6998
aVwhich
p6999
aVshe
p7000
aVrecounted
p7001
aVthe
p7002
aVdetails
p7003
aVof
p7004
aVher
p7005
aVmisfortune
p7006
aV.
aa(lp7007
Vwhile
p7008
aVstill
p7009
aVpractically
p7010
aVa
aVchild
p7011
aVshe
p7012
aVhad
p7013
aVsneaked
p7014
aVout
p7015
aVof
p7016
aVher
p7017
aVparents\u2019
p7018
aVhouse
p7019
aVto
p7020
aVgo
p7021
aVto
p7022
aVa
aVdance
p7023
aV,
aVand
p7024
aVwhile
p7025
aVshe
p7026
aVwas
p7027
aVcoming
p7028
aVback
p7029
aVthrough
p7030
aVthe
p7031
aVwoods
p7032
aVafter
p7033
aVhaving
p7034
aVdanced
p7035
aVall
p7036
aVnight
p7037
aVwithout
p7038
aVpermission
p7039
aV,
aVa
aVfearful
p7040
aVthunderclap
p7041
aVrent
p7042
aVthe
p7043
aVsky
p7044
aVin
p7045
aVtwo
p7046
aVand
p7047
aVthrough
p7048
aVthe
p7049
aVcrack
p7050
aVcame
p7051
aVthe
p7052
aVlightning
p7053
aVbolt
p7054
aVof
p7055
aVbrimstone
p7056
aVthat
p7057
aVchanged
p7058
aVher
p7059
aVinto
p7060
aVa
aVspider
p7061
aV.
aa(lp7062
Vher
p7063
aVonly
p7064
aVnourishment
p7065
aVcame
p7066
aVfrom
p7067
aVthe
p7068
aVmeatballs
p7069
aVthat
p7070
aVcharitable
p7071
aVsouls
p7072
aVchose
p7073
aVto
p7074
aVtoss
p7075
aVinto
p7076
aVher
p7077
aVmouth
p7078
aV.
aa(lp7079
Va
aVspectacle
p7080
aVlike
p7081
aVthat
p7082
aV,
aVfull
p7083
aVof
p7084
aVso
p7085
aVmuch
p7086
aVhuman
p7087
aVtruth
p7088
aVand
p7089
aVwith
p7090
aVsuch
p7091
aVa
aVfearful
p7092
aVlesson
p7093
aV,
aVwas
p7094
aVbound
p7095
aVto
p7096
aVdefeat
p7097
aVwithout
p7098
aVeven
p7099
aVtrying
p7100
aVthat
p7101
aVof
p7102
aVa
aVhaughty
p7103
aVangel
p7104
aVwho
p7105
aVscarcely
p7106
aVdeigned
p7107
aVto
p7108
aVlook
p7109
aVat
p7110
aVmortals
p7111
aV.
aa(lp7112
Vbesides
p7113
aV,
aVthe
p7114
aVfew
p7115
aVmiracles
p7116
aVattributed
p7117
aVto
p7118
aVthe
p7119
aVangel
p7120
aVshowed
p7121
aVa
aVcertain
p7122
aVmental
p7123
aVdisorder
p7124
aV,
aVlike
p7125
aVthe
p7126
aVblind
p7127
aVman
p7128
aVwho
p7129
aVdidn\u2019t
p7130
aVrecover
p7131
aVhis
p7132
aVsight
p7133
aVbut
p7134
aVgrew
p7135
aVthree
p7136
aVnew
p7137
aVteeth
p7138
aV,
aVor
p7139
aVthe
p7140
aVparalytic
p7141
aVwho
p7142
aVdidn\u2019t
p7143
aVget
p7144
aVto
p7145
aVwalk
p7146
aVbut
p7147
aValmost
p7148
aVwon
p7149
aVthe
p7150
aVlottery
p7151
aV,
aVand
p7152
aVthe
p7153
aVleper
p7154
aVwhose
p7155
aVsores
p7156
aVsprouted
p7157
aVsunflowers
p7158
aV.
aa(lp7159
Vthose
p7160
aVconsolation
p7161
aVmiracles
p7162
aV,
aVwhich
p7163
aVwere
p7164
aVmore
p7165
aVlike
p7166
aVmocking
p7167
aVfun
p7168
aV,
aVhad
p7169
aValready
p7170
aVruined
p7171
aVthe
p7172
aVangel\u2019s
p7173
aVreputation
p7174
aVwhen
p7175
aVthe
p7176
aVwoman
p7177
aVwho
p7178
aVhad
p7179
aVbeen
p7180
aVchanged
p7181
aVinto
p7182
aVa
aVspider
p7183
aVfinally
p7184
aVcrushed
p7185
aVhim
p7186
aVcompletely
p7187
aV.
aa(lp7188
Vthat
p7189
aVwas
p7190
aVhow
p7191
aVfather
p7192
aVgonzaga
p7193
aVwas
p7194
aVcured
p7195
aVforever
p7196
aVof
p7197
aVhis
p7198
aVinsomnia
p7199
aVand
p7200
aVpelayo\u2019s
p7201
aVcourtyard
p7202
aVwent
p7203
aVback
p7204
aVto
p7205
aVbeing
p7206
aVas
p7207
aVempty
p7208
aVas
p7209
aVduring
p7210
aVthe
p7211
aVtime
p7212
aVit
p7213
aVhad
p7214
aVrained
p7215
aVfor
p7216
aVthree
p7217
aVdays
p7218
aVand
p7219
aVcrabs
p7220
aVwalked
p7221
aVthrough
p7222
aVthe
p7223
aVbedrooms
p7224
aV.
aa(lp7225
Vthe
p7226
aVowners
p7227
aVof
p7228
aVthe
p7229
aVhouse
p7230
aVhad
p7231
aVno
p7232
aVreason
p7233
aVto
p7234
aVlament
p7235
aV.
aa(lp7236
Vwith
p7237
aVthe
p7238
aVmoney
p7239
aVthey
p7240
aVsaved
p7241
aVthey
p7242
aVbuilt
p7243
aVa
aVtwo-story
p7244
aVmansion
p7245
aVwith
p7246
aVbalconies
p7247
aVand
p7248
aVgardens
p7249
aVand
p7250
aVhigh
p7251
aVnetting
p7252
aVso
p7253
aVthat
p7254
aVcrabs
p7255
aVwouldn\u2019t
p7256
aVget
p7257
aVin
p7258
aVduring
p7259
aVthe
p7260
aVwinter
p7261
aV,
aVand
p7262
aVwith
p7263
aViron
p7264
aVbars
p7265
aVon
p7266
aVthe
p7267
aVwindows
p7268
aVso
p7269
aVthat
p7270
aVangels
p7271
aVwouldn\u2019t
p7272
aVget
p7273
aVin
p7274
aV.
aa(lp7275
Vpelayo
p7276
aValso
p7277
aVset
p7278
aVup
p7279
aVa
aVrabbit
p7280
aVwarren
p7281
aVclose
p7282
aVto
p7283
aVtown
p7284
aVand
p7285
aVgave
p7286
aVup
p7287
aVhis
p7288
aVjob
p7289
aVas
p7290
aVa
aVbailiff
p7291
aVfor
p7292
aVgood
p7293
aV,
aVand
p7294
aVelisenda
p7295
aVbought
p7296
aVsome
p7297
aVsatin
p7298
aVpumps
p7299
aVwith
p7300
aVhigh
p7301
aVheels
p7302
aVand
p7303
aVmany
p7304
aVdresses
p7305
aVof
p7306
aViridescent
p7307
aVsilk
p7308
aV,
aVthe
p7309
aVkind
p7310
aVworn
p7311
aVon
p7312
aVsunday
p7313
aVby
p7314
aVthe
p7315
aVmost
p7316
aVdesirable
p7317
aVwomen
p7318
aVin
p7319
aVthose
p7320
aVtimes
p7321
aV.
aa(lp7322
Vthe
p7323
aVchicken
p7324
aVcoop
p7325
aVwas
p7326
aVthe
p7327
aVonly
p7328
aVthing
p7329
aVthat
p7330
aVdidn\u2019t
p7331
aVreceive
p7332
aVany
p7333
aVattention
p7334
aV.
aa(lp7335
Vif
p7336
aVthey
p7337
aVwashed
p7338
aVit
p7339
aVdown
p7340
aVwith
p7341
aVcreolin
p7342
aVand
p7343
aVburned
p7344
aVtears
p7345
aVof
p7346
aVmyrrh
p7347
aVinside
p7348
aVit
p7349
aVevery
p7350
aVso
p7351
aVoften
p7352
aV,
aVit
p7353
aVwas
p7354
aVnot
p7355
aVin
p7356
aVhomage
p7357
aVto
p7358
aVthe
p7359
aVangel
p7360
aVbut
p7361
aVto
p7362
aVdrive
p7363
aVaway
p7364
aVthe
p7365
aVdungheap
p7366
aVstench
p7367
aVthat
p7368
aVstill
p7369
aVhung
p7370
aVeverywhere
p7371
aVlike
p7372
aVa
aVghost
p7373
aVand
p7374
aVwas
p7375
aVturning
p7376
aVthe
p7377
aVnew
p7378
aVhouse
p7379
aVinto
p7380
aVan
p7381
aVold
p7382
aVone
p7383
aV.
aa(lp7384
Vat
p7385
aVfirst
p7386
aV,
aVwhen
p7387
aVthe
p7388
aVchild
p7389
aVlearned
p7390
aVto
p7391
aVwalk
p7392
aV,
aVthey
p7393
aVwere
p7394
aVcareful
p7395
aVthat
p7396
aVhe
p7397
aVnot
p7398
aVget
p7399
aVtoo
p7400
aVclose
p7401
aVto
p7402
aVthe
p7403
aVchicken
p7404
aVcoop
p7405
aV.
aa(lp7406
Vbut
p7407
aVthen
p7408
aVthey
p7409
aVbegan
p7410
aVto
p7411
aVlose
p7412
aVtheir
p7413
aVfears
p7414
aVand
p7415
aVgot
p7416
aVused
p7417
aVto
p7418
aVthe
p7419
aVsmell
p7420
aV,
aVand
p7421
aVbefore
p7422
aVthey
p7423
aVchild
p7424
aVgot
p7425
aVhis
p7426
aVsecond
p7427
aVteeth
p7428
aVhe\u2019d
p7429
aVgone
p7430
aVinside
p7431
aVthe
p7432
aVchicken
p7433
aVcoop
p7434
aVto
p7435
aVplay
p7436
aV,
aVwhere
p7437
aVthe
p7438
aVwires
p7439
aVwere
p7440
aVfalling
p7441
aVapart
p7442
aV.
aa(lp7443
Vthe
p7444
aVangel
p7445
aVwas
p7446
aVno
p7447
aVless
p7448
aVstandoffish
p7449
aVwith
p7450
aVhim
p7451
aVthan
p7452
aVwith
p7453
aVthe
p7454
aVother
p7455
aVmortals
p7456
aV,
aVbut
p7457
aVhe
p7458
aVtolerated
p7459
aVthe
p7460
aVmost
p7461
aVingenious
p7462
aVinfamies
p7463
aVwith
p7464
aVthe
p7465
aVpatience
p7466
aVof
p7467
aVa
aVdog
p7468
aVwho
p7469
aVhad
p7470
aVno
p7471
aVillusions
p7472
aV.
aa(lp7473
Vthey
p7474
aVboth
p7475
aVcame
p7476
aVdown
p7477
aVwith
p7478
aVthe
p7479
aVchicken
p7480
aVpox
p7481
aVat
p7482
aVthe
p7483
aVsame
p7484
aVtime
p7485
aV.
aa(lp7486
Vthe
p7487
aVdoctor
p7488
aVwho
p7489
aVtook
p7490
aVcare
p7491
aVof
p7492
aVthe
p7493
aVchild
p7494
aVcouldn\u2019t
p7495
aVresist
p7496
aVthe
p7497
aVtemptation
p7498
aVto
p7499
aVlisten
p7500
aVto
p7501
aVthe
p7502
aVangel\u2019s
p7503
aVheart
p7504
aV,
aVand
p7505
aVhe
p7506
aVfound
p7507
aVso
p7508
aVmuch
p7509
aVwhistling
p7510
aVin
p7511
aVthe
p7512
aVheart
p7513
aVand
p7514
aVso
p7515
aVmany
p7516
aVsounds
p7517
aVin
p7518
aVhis
p7519
aVkidneys
p7520
aVthat
p7521
aVit
p7522
aVseemed
p7523
aVimpossible
p7524
aVfor
p7525
aVhim
p7526
aVto
p7527
aVbe
p7528
aValive
p7529
aV.
aa(lp7530
Vwhat
p7531
aVsurprised
p7532
aVhim
p7533
aVmost
p7534
aV,
aVhowever
p7535
aV,
aVwas
p7536
aVthe
p7537
aVlogic
p7538
aVof
p7539
aVhis
p7540
aVwings
p7541
aV.
aa(lp7542
Vthey
p7543
aVseemed
p7544
aVso
p7545
aVnatural
p7546
aVon
p7547
aVthat
p7548
aVcompletely
p7549
aVhuman
p7550
aVorganism
p7551
aVthat
p7552
aVhe
p7553
aVcouldn\u2019t
p7554
aVunderstand
p7555
aVwhy
p7556
aVother
p7557
aVmen
p7558
aVdidn\u2019t
p7559
aVhave
p7560
aVthem
p7561
aVtoo
p7562
aV.
aa(lp7563
Vwhen
p7564
aVthe
p7565
aVchild
p7566
aVbegan
p7567
aVschool
p7568
aVit
p7569
aVhad
p7570
aVbeen
p7571
aVsome
p7572
aVtime
p7573
aVsince
p7574
aVthe
p7575
aVsun
p7576
aVand
p7577
aVrain
p7578
aVhad
p7579
aVcaused
p7580
aVthe
p7581
aVcollapse
p7582
aVof
p7583
aVthe
p7584
aVchicken
p7585
aVcoop
p7586
aV.
aa(lp7587
Vthe
p7588
aVangel
p7589
aVwent
p7590
aVdragging
p7591
aVhimself
p7592
aVabout
p7593
aVhere
p7594
aVand
p7595
aVthere
p7596
aVlike
p7597
aVa
aVstray
p7598
aVdying
p7599
aVman
p7600
aV.
aa(lp7601
Vthey
p7602
aVwould
p7603
aVdrive
p7604
aVhim
p7605
aVout
p7606
aVof
p7607
aVthe
p7608
aVbedroom
p7609
aVwith
p7610
aVa
aVbroom
p7611
aVand
p7612
aVa
aVmoment
p7613
aVlater
p7614
aVfind
p7615
aVhim
p7616
aVin
p7617
aVthe
p7618
aVkitchen
p7619
aV.
aa(lp7620
Vhe
p7621
aVseemed
p7622
aVto
p7623
aVbe
p7624
aVin
p7625
aVso
p7626
aVmany
p7627
aVplaces
p7628
aVat
p7629
aVthe
p7630
aVsame
p7631
aVtime
p7632
aVthat
p7633
aVthey
p7634
aVgrew
p7635
aVto
p7636
aVthink
p7637
aVthat
p7638
aVhe\u2019d
p7639
aVbe
p7640
aVduplicated
p7641
aV,
aVthat
p7642
aVhe
p7643
aVwas
p7644
aVreproducing
p7645
aVhimself
p7646
aVall
p7647
aVthrough
p7648
aVthe
p7649
aVhouse
p7650
aV,
aVand
p7651
aVthe
p7652
aVexasperated
p7653
aVand
p7654
aVunhinged
p7655
aVelisenda
p7656
aVshouted
p7657
aVthat
p7658
aVit
p7659
aVwas
p7660
aVawful
p7661
aVliving
p7662
aVin
p7663
aVthat
p7664
aVhell
p7665
aVfull
p7666
aVof
p7667
aVangels
p7668
aV.
aa(lp7669
Vhe
p7670
aVcould
p7671
aVscarcely
p7672
aVeat
p7673
aVand
p7674
aVhis
p7675
aVantiquarian
p7676
aVeyes
p7677
aVhad
p7678
aValso
p7679
aVbecome
p7680
aVso
p7681
aVfoggy
p7682
aVthat
p7683
aVhe
p7684
aVwent
p7685
aVabout
p7686
aVbumping
p7687
aVinto
p7688
aVposts
p7689
aV.
aa(lp7690
Vall
p7691
aVhe
p7692
aVhad
p7693
aVleft
p7694
aVwere
p7695
aVthe
p7696
aVbare
p7697
aVcannulae
p7698
aVof
p7699
aVhis
p7700
aVlast
p7701
aVfeathers
p7702
aV.
aa(lp7703
Vpelayo
p7704
aVthrew
p7705
aVa
aVblanket
p7706
aVover
p7707
aVhim
p7708
aVand
p7709
aVextended
p7710
aVhim
p7711
aVthe
p7712
aVcharity
p7713
aVof
p7714
aVletting
p7715
aVhim
p7716
aVsleep
p7717
aVin
p7718
aVthe
p7719
aVshed
p7720
aV,
aVand
p7721
aVonly
p7722
aVthen
p7723
aVdid
p7724
aVthey
p7725
aVnotice
p7726
aVthat
p7727
aVhe
p7728
aVhad
p7729
aVa
aVtemperature
p7730
aVat
p7731
aVnight
p7732
aV,
aVand
p7733
aVwas
p7734
aVdelirious
p7735
aVwith
p7736
aVthe
p7737
aVtongue
p7738
aVtwisters
p7739
aVof
p7740
aVan
p7741
aVold
p7742
aVnorwegian
p7743
aV.
aa(lp7744
Vthat
p7745
aVwas
p7746
aVone
p7747
aVof
p7748
aVthe
p7749
aVfew
p7750
aVtimes
p7751
aVthey
p7752
aVbecame
p7753
aValarmed
p7754
aV,
aVfor
p7755
aVthey
p7756
aVthought
p7757
aVhe
p7758
aVwas
p7759
aVgoing
p7760
aVto
p7761
aVdie
p7762
aVand
p7763
aVnot
p7764
aVeven
p7765
aVthe
p7766
aVwise
p7767
aVneighbor
p7768
aVwoman
p7769
aVhad
p7770
aVbeen
p7771
aVable
p7772
aVto
p7773
aVtell
p7774
aVthem
p7775
aVwhat
p7776
aVto
p7777
aVdo
p7778
aVwith
p7779
aVdead
p7780
aVangels
p7781
aV.
aa(lp7782
Vand
p7783
aVyet
p7784
aVhe
p7785
aVnot
p7786
aVonly
p7787
aVsurvived
p7788
aVhis
p7789
aVworst
p7790
aVwinter
p7791
aV,
aVbut
p7792
aVseemed
p7793
aVimproved
p7794
aVwith
p7795
aVthe
p7796
aVfirst
p7797
aVsunny
p7798
aVdays
p7799
aV.
aa(lp7800
Vhe
p7801
aVremained
p7802
aVmotionless
p7803
aVfor
p7804
aVseveral
p7805
aVdays
p7806
aVin
p7807
aVthe
p7808
aVfarthest
p7809
aVcorner
p7810
aVof
p7811
aVthe
p7812
aVcourtyard
p7813
aV,
aVwhere
p7814
aVno
p7815
aVone
p7816
aVwould
p7817
aVsee
p7818
aVhim
p7819
aV,
aVand
p7820
aVat
p7821
aVthe
p7822
aVbeginning
p7823
aVof
p7824
aVdecember
p7825
aVsome
p7826
aVlarge
p7827
aV,
aVstiff
p7828
aVfeathers
p7829
aVbegan
p7830
aVto
p7831
aVgrow
p7832
aVon
p7833
aVhis
p7834
aVwings
p7835
aV,
aVthe
p7836
aVfeathers
p7837
aVof
p7838
aVa
aVscarecrow
p7839
aV,
aVwhich
p7840
aVlooked
p7841
aVmore
p7842
aVlike
p7843
aVanother
p7844
aVmisfortune
p7845
aVof
p7846
aVdecreptitude
p7847
aV.
aa(lp7848
Vbut
p7849
aVhe
p7850
aVmust
p7851
aVhave
p7852
aVknown
p7853
aVthe
p7854
aVreason
p7855
aVfor
p7856
aVthose
p7857
aVchanges
p7858
aV,
aVfor
p7859
aVhe
p7860
aVwas
p7861
aVquite
p7862
aVcareful
p7863
aVthat
p7864
aVno
p7865
aVone
p7866
aVshould
p7867
aVnotice
p7868
aVthem
p7869
aV,
aVthat
p7870
aVno
p7871
aVone
p7872
aVshould
p7873
aVhear
p7874
aVthe
p7875
aVsea
p7876
aVchanteys
p7877
aVthat
p7878
aVhe
p7879
aVsometimes
p7880
aVsang
p7881
aVunder
p7882
aVthe
p7883
aVstars
p7884
aV.
aa(lp7885
Vone
p7886
aVmorning
p7887
aVelisenda
p7888
aVwas
p7889
aVcutting
p7890
aVsome
p7891
aVbunches
p7892
aVof
p7893
aVonions
p7894
aVfor
p7895
aVlunch
p7896
aVwhen
p7897
aVa
aVwind
p7898
aVthat
p7899
aVseemed
p7900
aVto
p7901
aVcome
p7902
aVfrom
p7903
aVthe
p7904
aVhigh
p7905
aVseas
p7906
aVblew
p7907
aVinto
p7908
aVthe
p7909
aVkitchen
p7910
aV.
aa(lp7911
Vthen
p7912
aVshe
p7913
aVwent
p7914
aVto
p7915
aVthe
p7916
aVwindow
p7917
aVand
p7918
aVcaught
p7919
aVthe
p7920
aVangel
p7921
aVin
p7922
aVhis
p7923
aVfirst
p7924
aVattempts
p7925
aVat
p7926
aVflight
p7927
aV.
aa(lp7928
Vthey
p7929
aVwere
p7930
aVso
p7931
aVclumsy
p7932
aVthat
p7933
aVhis
p7934
aVfingernails
p7935
aVopened
p7936
aVa
aVfurrow
p7937
aVin
p7938
aVthe
p7939
aVvegetable
p7940
aVpatch
p7941
aVand
p7942
aVhe
p7943
aVwas
p7944
aVon
p7945
aVthe
p7946
aVpoint
p7947
aVof
p7948
aVknocking
p7949
aVthe
p7950
aVshed
p7951
aVdown
p7952
aVwith
p7953
aVthe
p7954
aVungainly
p7955
aVflapping
p7956
aVthat
p7957
aVslipped
p7958
aVon
p7959
aVthe
p7960
aVlight
p7961
aVand
p7962
aVcouldn\u2019t
p7963
aVget
p7964
aVa
aVgrip
p7965
aVon
p7966
aVthe
p7967
aVair
p7968
aV.
aa(lp7969
Vbut
p7970
aVhe
p7971
aVdid
p7972
aVmanage
p7973
aVto
p7974
aVgain
p7975
aValtitude
p7976
aV.
aa(lp7977
Velisenda
p7978
aVlet
p7979
aVout
p7980
aVa
aVsigh
p7981
aVof
p7982
aVrelief
p7983
aV,
aVfor
p7984
aVherself
p7985
aVand
p7986
aVfor
p7987
aVhim
p7988
aV,
aVwhen
p7989
aVshe
p7990
aVwatched
p7991
aVhim
p7992
aVpass
p7993
aVover
p7994
aVthe
p7995
aVlast
p7996
aVhouses
p7997
aV,
aVholding
p7998
aVhimself
p7999
aVup
p8000
aVin
p8001
aVsome
p8002
aVway
p8003
aVwith
p8004
aVthe
p8005
aVrisky
p8006
aVflapping
p8007
aVof
p8008
aVa
aVsenile
p8009
aVvulture
p8010
aV.
aa(lp8011
Vshe
p8012
aVkept
p8013
aVwatching
p8014
aVhim
p8015
aVeven
p8016
aVwhen
p8017
aVshe
p8018
aVwas
p8019
aVthrough
p8020
aVcutting
p8021
aVthe
p8022
aVonions
p8023
aVand
p8024
aVshe
p8025
aVkept
p8026
aVon
p8027
aVwatching
p8028
aVuntil
p8029
aVit
p8030
aVwas
p8031
aVno
p8032
aVlonger
p8033
aVpossible
p8034
aVfor
p8035
aVher
p8036
aVto
p8037
aVsee
p8038
aVhim
p8039
aV,
aVbecause
p8040
aVthen
p8041
aVhe
p8042
aVwas
p8043
aVno
p8044
aVlonger
p8045
aVan
p8046
aVannoyance
p8047
aVin
p8048
aVher
p8049
aVlife
p8050
aVbut
p8051
aVan
p8052
aVimaginary
p8053
aVdot
p8054
aVon
p8055
aVthe
p8056
aVhorizon
p8057
aVof
p8058
aVthe
p8059
aVsea
p8060
aV.
aasb.