ccopy_reg
_reconstructor
p1
(cData.Book
Book
p2
c__builtin__
object
p3
NtRp4
(dp5
S'stored_object'
p6
S'Books/A_Very_Old_Man_with_Enormous_Wings/Book_object.p'
p7
sS'title'
p8
S'A Very Old Man with Enormous Wings'
p9
sS'main_text_path'
p10
S'Books/A_Very_Old_Man_with_Enormous_Wings/main_cleaned.txt'
p11
sS'metadata_path'
p12
S'Books/A_Very_Old_Man_with_Enormous_Wings/meta_data.csv'
p13
sS'book_path'
p14
S'Books/A_Very_Old_Man_with_Enormous_Wings/'
p15
sS'characters'
p16
(dp17
S'the spider woman'
p18
(dp19
S'list'
p20
(lp21
(lp22
Vthe
p23
aV[
aVCHARACTER
p24
aV]
aV-
aVa
aVfreak-show
p25
aVattraction
p26
aVwho
p27
aVvisits
p28
aVthe
p29
aVvillage
p30
aV.
aa(lp31
Vpunished
p32
aVfor
p33
aVthe
p34
aVsin
p35
aVof
p36
aVdisobeying
p37
aVher
p38
aVparents
p39
aV,
aVthe
p40
aV[
aVCHARACTER
p41
aV]
aVnow
p42
aVhas
p43
aVthe
p44
aVbody
p45
aVof
p46
aVan
p47
aVenormous
p48
aVspider
p49
aVand
p50
aVthe
p51
aVhead
p52
aVof
p53
aVa
aVsad
p54
aVyoung
p55
aVwoman
p56
aV.
aa(lp57
Vthe
p58
aVclear
p59
aVmoral
p60
aVof
p61
aVthe
p62
aVwoman
p63
aV's
p64
aVstory
p65
aVdraws
p66
aVgawking
p67
aVvillagers
p68
aVaway
p69
aVfrom
p70
aVthe
p71
aVold
p72
aVman
p73
aV,
aVwho
p74
aVis
p75
aVunable
p76
aVto
p77
aVoffer
p78
aVthe
p79
aVcrowds
p80
aVsuch
p81
aVa
aVcompelling
p82
aVnarrative
p83
aV.
aasS'analysis'
p84
NssS'the old man'
p85
(dp86
g20
(lp87
(lp88
Vthe
p89
aV[
aVCHARACTER
p90
aV]
aV-
aVan
p91
aV[
aVCHARACTER
p92
aV]
aVwith
p93
aVwings
p94
aVwho
p95
aVappears
p96
aVin
p97
aVpelayo
p98
aVand
p99
aVelisenda
p100
aV's
p101
aVyard
p102
aVone
p103
aVday
p104
aV.
aa(lp105
Vfilthy
p106
aVand
p107
aVbedraggled
p108
aV,
aVthe
p109
aV[
aVCHARACTER
p110
aV]
aVspeaks
p111
aVa
aVforeign
p112
aVlanguage
p113
aVthat
p114
aVno
p115
aVone
p116
aVcan
p117
aVunderstand
p118
aV.
aa(lp119
Vhis
p120
aVwings
p121
aVand
p122
aVunintelligible
p123
aVlanguage
p124
aVprompts
p125
aVsome
p126
aVpeople
p127
aVto
p128
aVbelieve
p129
aVthat
p130
aVhe
p131
aV's
p132
aVa
aVfallen
p133
aVangel
p134
aVand
p135
aVthe
p136
aVchurch
p137
aVto
p138
aVbelieve
p139
aVhe
p140
aV's
p141
aVa
aVnorwegian
p142
aV,
aVeven
p143
aVthough
p144
aVhe
p145
aVseems
p146
aVoblivious
p147
aVto
p148
aVnearly
p149
aVeverything
p150
aVthat
p151
aVhappens
p152
aVaround
p153
aVhim
p154
aV.
aa(lp155
Vby
p156
aVthe
p157
aVend
p158
aVof
p159
aVthe
p160
aVstory
p161
aV,
aVthe
p162
aV[
aVCHARACTER
p163
aV]
aVhas
p164
aVrecovered
p165
aVenough
p166
aVto
p167
aVfly
p168
aVaway
p169
aV,
aVexiting
p170
aVpelayo
p171
aV's
p172
aVand
p173
aVelisenda
p174
aV's
p175
aVlives
p176
aVas
p177
aVsuddenly
p178
aVas
p179
aVhe
p180
aV'd
p181
aVentered
p182
aV.
aasg84
(lp183
(lp184
Vthe
p185
aV[
aVCHARACTER
p186
aV]
aVthe
p187
aV[
aVCHARACTER
p188
aV]
aV,
aVwith
p189
aVhis
p190
aVhuman
p191
aVbody
p192
aVand
p193
aVunexpected
p194
aVwings
p195
aV,
aVappears
p196
aVto
p197
aVbe
p198
aVneither
p199
aVfully
p200
aVhuman
p201
aVnor
p202
aVfully
p203
aVsurreal
p204
aV.
aa(lp205
Von
p206
aVthe
p207
aVone
p208
aVhand
p209
aV,
aVthe
p210
aVman
p211
aVseems
p212
aVhuman
p213
aVenough
p214
aV,
aVsurrounded
p215
aVas
p216
aVhe
p217
aVis
p218
aVby
p219
aVfilth
p220
aV,
aVdisease
p221
aV,
aVinfirmity
p222
aV,
aVand
p223
aVsqualor
p224
aV.
aa(lp225
Vhe
p226
aVhas
p227
aVa
aVhuman
p228
aVreaction
p229
aVto
p230
aVthe
p231
aVpeople
p232
aVwho
p233
aVcrowd
p234
aVaround
p235
aVhim
p236
aVand
p237
aVseek
p238
aVhealing
p239
aV,
aVremaining
p240
aVindifferent
p241
aVto
p242
aVtheir
p243
aVpleas
p244
aVand
p245
aVsometimes
p246
aVnot
p247
aVeven
p248
aVacknowledging
p249
aVtheir
p250
aVexistence
p251
aV.
aa(lp252
Vwhen
p253
aVthe
p254
aVdoctor
p255
aVexamines
p256
aVhim
p257
aV,
aVhe
p258
aVis
p259
aVamazed
p260
aVthat
p261
aVsuch
p262
aVan
p263
aVunhealthy
p264
aVman
p265
aVis
p266
aVstill
p267
aValive
p268
aVand
p269
aVis
p270
aVequally
p271
aVstruck
p272
aVby
p273
aVhow
p274
aVnatural
p275
aVthe
p276
aV[
aVCHARACTER
p277
aV]
aV's
p278
aVwings
p279
aVseem
p280
aVto
p281
aVbe
p282
aV.
aa(lp283
Vsuch
p284
aVan
p285
aVunsurprised
p286
aVreaction
p287
aVessentially
p288
aVbrings
p289
aVthe
p290
aV``
p291
aVangel
p292
aV''
p293
aVdown
p294
aVto
p295
aVearth
p296
aV,
aVso
p297
aVany
p298
aVheavenly
p299
aVqualities
p300
aVthe
p301
aV[
aVCHARACTER
p302
aV]
aVmay
p303
aVhave
p304
aVare
p305
aVcompletely
p306
aVobscured
p307
aV.
aa(lp308
Vhowever
p309
aV,
aVthe
p310
aVnarrator
p311
aVseems
p312
aVto
p313
aVtake
p314
aVthe
p315
aV[
aVCHARACTER
p316
aV]
aV's
p317
aVangelhood
p318
aVfor
p319
aVgranted
p320
aV,
aVspeaking
p321
aVof
p322
aVthe
p323
aV``
p324
aVlunar
p325
aVdust
p326
aV''
p327
aVand
p328
aV``
p329
aVstellar
p330
aVparasites
p331
aV''
p332
aVon
p333
aVhis
p334
aVwings
p335
aV,
aVand
p336
aVthe
p337
aV[
aVCHARACTER
p338
aV]
aV's
p339
aV``
p340
aVconsolation
p341
aVmiracles
p342
aV,
aV''
p343
aVsuch
p344
aVas
p345
aVcausing
p346
aVsunflowers
p347
aVto
p348
aVsprout
p349
aVfrom
p350
aVa
aVleper
p351
aV's
p352
aVsores
p353
aV,
aVseem
p354
aVgenuinely
p355
aVsupernatural
p356
aV.
aa(lp357
Vin
p358
aVthe
p359
aVend
p360
aV,
aVthe
p361
aV[
aVCHARACTER
p362
aV]
aV's
p363
aVtrue
p364
aVnature
p365
aVremains
p366
aVa
aVmystery
p367
aV.
aassS'father gonzaga'
p368
(dp369
g20
(lp370
(lp371
V[
aVCHARACTER
p372
aV]
aV-
aVthe
p373
aVvillage
p374
aVpriest
p375
aV.
aa(lp376
Vas
p377
aVan
p378
aVauthority
p379
aVfigure
p380
aVin
p381
aVthe
p382
aVcommunity
p383
aV,
aV[
aVCHARACTER
p384
aV]
aVtakes
p385
aVit
p386
aVupon
p387
aVhimself
p388
aVto
p389
aVdiscern
p390
aVwhether
p391
aVthe
p392
aVold
p393
aVman
p394
aVis
p395
aVan
p396
aVangel
p397
aVas
p398
aVthe
p399
aVtownsfolk
p400
aVbelieve
p401
aVor
p402
aVjust
p403
aVa
aVmortal
p404
aVwho
p405
aVjust
p406
aVhappens
p407
aVto
p408
aVhave
p409
aVwings
p410
aV.
aa(lp411
V[
aVCHARACTER
p412
aV]
aVis
p413
aVskeptical
p414
aVthat
p415
aVthe
p416
aVdirty
p417
aVold
p418
aVman
p419
aVcould
p420
aVreally
p421
aVbe
p422
aVa
aVmessenger
p423
aVfrom
p424
aVheaven
p425
aV,
aVbut
p426
aVhe
p427
aVdutifully
p428
aVreports
p429
aVthe
p430
aVevent
p431
aVto
p432
aVhis
p433
aVsuperiors
p434
aVin
p435
aVthe
p436
aVchurch
p437
aV.
aa(lp438
Vas
p439
aVhe
p440
aVwaits
p441
aVfor
p442
aVthe
p443
aVvatican
p444
aV's
p445
aVreply
p446
aV,
aVhe
p447
aVdoes
p448
aVhis
p449
aVbest
p450
aVto
p451
aVrestrain
p452
aVthe
p453
aVenthusiasm
p454
aVand
p455
aVcredulousness
p456
aVof
p457
aVthe
p458
aVcrowd
p459
aVof
p460
aVonlookers
p461
aV.
aasg84
NssS'the neighbor woman'
p462
(dp463
g20
(lp464
(lp465
Vthe
p466
aV[
aVCHARACTER
p467
aV]
aV-
aVpelayo
p468
aVand
p469
aVelisenda
p470
aV's
p471
aVbossy
p472
aVneighbor
p473
aV.
aa(lp474
Vthe
p475
aVsupposedly
p476
aVwise
p477
aV[
aVCHARACTER
p478
aV]
aVactually
p479
aVseems
p480
aVmore
p481
aVlike
p482
aVa
aVsilly
p483
aVknow-it-all
p484
aVthan
p485
aVa
aVtrue
p486
aVcounselor
p487
aVand
p488
aVis
p489
aVthe
p490
aVfirst
p491
aVto
p492
aVsuggest
p493
aVthat
p494
aVthe
p495
aVold
p496
aVman
p497
aVis
p498
aVa
aVcrippled
p499
aVangel
p500
aV.
aa(lp501
Vshe
p502
aVtells
p503
aVpelayo
p504
aVto
p505
aVclub
p506
aVthe
p507
aVold
p508
aVman
p509
aVto
p510
aVdeath
p511
aVto
p512
aVprevent
p513
aVhim
p514
aVfrom
p515
aVtaking
p516
aVpelayo
p517
aVand
p518
aVelisenda
p519
aV's
p520
aVsick
p521
aVbaby
p522
aVto
p523
aVheaven
p524
aV.
aasg84
NssS'elisenda'
p525
(dp526
g20
(lp527
(lp528
V[
aVCHARACTER
p529
aV]
aV-
aVpelayo
p530
aV's
p531
aVwife
p532
aV.
aa(lp533
V[
aVCHARACTER
p534
aV]
aVconvinces
p535
aVpelayo
p536
aVto
p537
aVcharge
p538
aVvillagers
p539
aVto
p540
aVsee
p541
aVthe
p542
aVold
p543
aVman
p544
aVbut
p545
aVlater
p546
aVconsiders
p547
aVhim
p548
aVto
p549
aVbe
p550
aVa
aVnuisance
p551
aV.
aa(lp552
Va
aVpractical
p553
aVwoman
p554
aV,
aVshe
p555
aVprimarily
p556
aVconcerns
p557
aVherself
p558
aVwith
p559
aVthe
p560
aVwelfare
p561
aVof
p562
aVpelayo
p563
aVand
p564
aVtheir
p565
aVchild
p566
aVand
p567
aVis
p568
aVtherefore
p569
aVrelieved
p570
aVwhen
p571
aVthe
p572
aVold
p573
aVman
p574
aVfinally
p575
aVleaves
p576
aV.
aasg84
(lp577
(lp578
V[
aVCHARACTER
p579
aV]
aV[
aVCHARACTER
p580
aV]
aVis
p581
aVa
aVperfect
p582
aVmatch
p583
aVfor
p584
aVher
p585
aVhusband
p586
aV,
aVpelayo
p587
aV,
aVbeing
p588
aVequally
p589
aVordinary
p590
aVand
p591
aVconcerned
p592
aVwith
p593
aVpractical
p594
aVmatters
p595
aV.
aa(lp596
Vif
p597
aVanything
p598
aV,
aV[
aVCHARACTER
p599
aV]
aVis
p600
aVthe
p601
aVmore
p602
aVpractical
p603
aVof
p604
aVthe
p605
aVtwo
p606
aVbecause
p607
aVshe
p608
aVsuggests
p609
aVcharging
p610
aVadmission
p611
aVto
p612
aVsee
p613
aVthe
p614
aV``
p615
aVangel
p616
aV.
aV''
p617
aa(lp618
Vdespite
p619
aVthe
p620
aVmany
p621
aVmaterial
p622
aVadvantages
p623
aVthe
p624
aVold
p625
aVman
p626
aVbrings
p627
aV,
aV[
aVCHARACTER
p628
aV]
aV's
p629
aVattitude
p630
aVtoward
p631
aVhim
p632
aVis
p633
aVprimarily
p634
aVone
p635
aVof
p636
aVannoyance
p637
aVand
p638
aVexasperation
p639
aV.
aa(lp640
Vonce
p641
aVthe
p642
aVold
p643
aVman
p644
aV's
p645
aVusefulness
p646
aVas
p647
aVa
aVroadside
p648
aVattraction
p649
aVdwindles
p650
aV,
aV[
aVCHARACTER
p651
aV]
aVsees
p652
aVhim
p653
aVonly
p654
aVas
p655
aVa
aVnuisance
p656
aV.
aa(lp657
Vindeed
p658
aV,
aVthe
p659
aVold
p660
aVman
p661
aVbecomes
p662
aVso
p663
aVtroublesome
p664
aVto
p665
aVher
p666
aVthat
p667
aVshe
p668
aVeven
p669
aVrefers
p670
aVto
p671
aVher
p672
aVnew
p673
aVhome
p674
aV--
p675
aVpurchased
p676
aVwith
p677
aVproceeds
p678
aVfrom
p679
aVexhibiting
p680
aVthe
p681
aVold
p682
aVman
p683
aV--
p684
aVas
p685
aVa
aV``
p686
aVhell
p687
aVfull
p688
aVof
p689
aVangels
p690
aV.
aV''
p691
aa(lp692
Vthe
p693
aVold
p694
aVman
p695
aVbecomes
p696
aVso
p697
aVordinary
p698
aVin
p699
aV[
aVCHARACTER
p700
aV]
aV's
p701
aVeyes
p702
aVthat
p703
aVit
p704
aVis
p705
aVn't
p706
aVuntil
p707
aVhe
p708
aVfinally
p709
aVflies
p710
aVaway
p711
aVthat
p712
aVshe
p713
aVseems
p714
aVto
p715
aVsee
p716
aVhim
p717
aVfor
p718
aVthe
p719
aVwonder
p720
aVhe
p721
aVis
p722
aV.
aa(lp723
V[
aVCHARACTER
p724
aV]
aVwatches
p725
aVhim
p726
aVfly
p727
aVaway
p728
aVwith
p729
aVwistfulness
p730
aV,
aVas
p731
aVif
p732
aVfinally
p733
aVrealizing
p734
aVthat
p735
aVsomething
p736
aVextraordinary
p737
aVhas
p738
aVleft
p739
aVher
p740
aVlife
p741
aVforever
p742
aV.
aassS'pelayo'
p743
(dp744
g20
(lp745
(lp746
V[
aVCHARACTER
p747
aV]
aV-
aVelisenda
p748
aV's
p749
aVhusband
p750
aVand
p751
aVthe
p752
aVdiscoverer
p753
aVof
p754
aVthe
p755
aVold
p756
aVman
p757
aV.
aa(lp758
V[
aVCHARACTER
p759
aV]
aVis
p760
aVan
p761
aVordinary
p762
aVvillager
p763
aV,
aVpoor
p764
aVbut
p765
aVgrudgingly
p766
aVwilling
p767
aVto
p768
aVshelter
p769
aVthe
p770
aVwinged
p771
aVold
p772
aVman
p773
aVin
p774
aVhis
p775
aVchicken
p776
aVcoop
p777
aV.
aa(lp778
V[
aVCHARACTER
p779
aV]
aVguards
p780
aVthe
p781
aVold
p782
aVman
p783
aVfrom
p784
aVharm
p785
aV,
aVhumbly
p786
aVconsults
p787
aVthe
p788
aVvillage
p789
aVpriest
p790
aV,
aVand
p791
aVhas
p792
aVthe
p793
aVsense
p794
aVto
p795
aVresist
p796
aVthe
p797
aVmore
p798
aVextravagant
p799
aVadvice
p800
aVhe
p801
aVreceives
p802
aVfrom
p803
aVthe
p804
aVother
p805
aVvillagers
p806
aV.
aa(lp807
V[
aVCHARACTER
p808
aV]
aV,
aVhowever
p809
aV,
aVdoes
p810
aVnot
p811
aVwant
p812
aVto
p813
aVtake
p814
aVcare
p815
aVof
p816
aVthe
p817
aVman
p818
aVindefinitely
p819
aVand
p820
aVdoes
p821
aVn't
p822
aVfeel
p823
aVbad
p824
aVusing
p825
aVthe
p826
aVold
p827
aVman
p828
aVto
p829
aVget
p830
aVrich
p831
aV.
aasg84
(lp832
(lp833
V[
aVCHARACTER
p834
aV]
aValthough
p835
aV[
aVCHARACTER
p836
aV]
aVis
p837
aVkinder
p838
aVto
p839
aVthe
p840
aVold
p841
aVman
p842
aVthan
p843
aVthe
p844
aVother
p845
aVvillagers
p846
aV,
aVhe
p847
aVis
p848
aVcertainly
p849
aVno
p850
aVparagon
p851
aVof
p852
aVcompassion
p853
aVand
p854
aVcharity
p855
aV.
aa(lp856
Vhe
p857
aVdoes
p858
aVn't
p859
aVclub
p860
aVthe
p861
aVold
p862
aVman
p863
aVas
p864
aVthe
p865
aVneighbor
p866
aVwoman
p867
aVsuggests
p868
aV,
aVbut
p869
aVhe
p870
aVdoes
p871
aVpen
p872
aVthe
p873
aVsupposed
p874
aVangel
p875
aVin
p876
aVhis
p877
aVchicken
p878
aVcoop
p879
aVand
p880
aVcharge
p881
aVadmission
p882
aVto
p883
aVthe
p884
aVcrowds
p885
aVof
p886
aVcurious
p887
aVsightseers
p888
aV.
aa(lp889
V[
aVCHARACTER
p890
aV]
aVis
p891
aVprimarily
p892
aVconcerned
p893
aVwith
p894
aVhis
p895
aVfamily
p896
aVand
p897
aVsick
p898
aVchild
p899
aVand
p900
aVis
p901
aVcontent
p902
aVto
p903
aVleave
p904
aVthe
p905
aVtheoretical
p906
aVand
p907
aVtheological
p908
aVspeculations
p909
aVto
p910
aVfather
p911
aVgonzaga
p912
aV.
aa(lp913
Vhis
p914
aVdecision
p915
aVto
p916
aVshelter
p917
aVthe
p918
aVold
p919
aVman
p920
aVand
p921
aVtake
p922
aVsome
p923
aVresponsibility
p924
aVfor
p925
aVhim
p926
aV,
aVhowever
p927
aV,
aVsuggests
p928
aVthat
p929
aVhe
p930
aVis
p931
aVn't
p932
aVas
p933
aVcold
p934
aVor
p935
aVheartless
p936
aVas
p937
aVhe
p938
aVmight
p939
aVseem
p940
aV.
aa(lp941
Vby
p942
aVallowing
p943
aVthe
p944
aVold
p945
aVman
p946
aVto
p947
aVstay
p948
aV,
aV[
aVCHARACTER
p949
aV]
aValso
p950
aVinvites
p951
aVmystery
p952
aV,
aVwonder
p953
aV,
aVand
p954
aVmagic
p955
aVinto
p956
aVhis
p957
aVlife
p958
aV.
aasssS'mainText'
p959
(lp960
(lp961
Von
p962
aVthe
p963
aVthird
p964
aVday
p965
aVof
p966
aVrain
p967
aVthey
p968
aVhad
p969
aVkilled
p970
aVso
p971
aVmany
p972
aVcrabs
p973
aVinside
p974
aVthe
p975
aVhouse
p976
aVthat
p977
aVpelayo
p978
aVhad
p979
aVto
p980
aVcross
p981
aVhis
p982
aVdrenched
p983
aVcourtyard
p984
aVand
p985
aVthrow
p986
aVthem
p987
aVinto
p988
aVthe
p989
aVsea
p990
aV,
aVbecause
p991
aVthe
p992
aVnewborn
p993
aVchild
p994
aVhad
p995
aVa
aVtemperature
p996
aVall
p997
aVnight
p998
aVand
p999
aVthey
p1000
aVthought
p1001
aVit
p1002
aVwas
p1003
aVdue
p1004
aVto
p1005
aVthe
p1006
aVstench
p1007
aV.
aa(lp1008
Vthe
p1009
aVworld
p1010
aVhad
p1011
aVbeen
p1012
aVsad
p1013
aVsince
p1014
aVtuesday
p1015
aV.
aa(lp1016
Vsea
p1017
aVand
p1018
aVsky
p1019
aVwere
p1020
aVa
aVsingle
p1021
aVash-gray
p1022
aVthing
p1023
aVand
p1024
aVthe
p1025
aVsands
p1026
aVof
p1027
aVthe
p1028
aVbeach
p1029
aV,
aVwhich
p1030
aVon
p1031
aVmarch
p1032
aVnights
p1033
aVglimmered
p1034
aVlike
p1035
aVpowdered
p1036
aVlight
p1037
aV,
aVhad
p1038
aVbecome
p1039
aVa
aVstew
p1040
aVof
p1041
aVmud
p1042
aVand
p1043
aVrotten
p1044
aVshellfish
p1045
aV.
aa(lp1046
Vthe
p1047
aVlight
p1048
aVwas
p1049
aVso
p1050
aVweak
p1051
aVat
p1052
aVnoon
p1053
aVthat
p1054
aVwhen
p1055
aVpelayo
p1056
aVwas
p1057
aVcoming
p1058
aVback
p1059
aVto
p1060
aVthe
p1061
aVhouse
p1062
aVafter
p1063
aVthrowing
p1064
aVaway
p1065
aVthe
p1066
aVcrabs
p1067
aV,
aVit
p1068
aVwas
p1069
aVhard
p1070
aVfor
p1071
aVhim
p1072
aVto
p1073
aVsee
p1074
aVwhat
p1075
aVit
p1076
aVwas
p1077
aVthat
p1078
aVwas
p1079
aVmoving
p1080
aVand
p1081
aVgroaning
p1082
aVin
p1083
aVthe
p1084
aVrear
p1085
aVof
p1086
aVthe
p1087
aVcourtyard
p1088
aV.
aa(lp1089
Vhe
p1090
aVhad
p1091
aVto
p1092
aVgo
p1093
aVvery
p1094
aVclose
p1095
aVto
p1096
aVsee
p1097
aVthat
p1098
aVit
p1099
aVwas
p1100
aVan
p1101
aVold
p1102
aVman
p1103
aV,
aVa
aVvery
p1104
aVold
p1105
aVman
p1106
aV,
aVlying
p1107
aVface
p1108
aVdown
p1109
aVin
p1110
aVthe
p1111
aVmud
p1112
aV,
aVwho
p1113
aV,
aVin
p1114
aVspite
p1115
aVof
p1116
aVhis
p1117
aVtremendous
p1118
aVefforts
p1119
aV,
aVcouldn\u2019t
p1120
aVget
p1121
aVup
p1122
aV,
aVimpeded
p1123
aVby
p1124
aVhis
p1125
aVenormous
p1126
aVwings
p1127
aV.
aa(lp1128
Vfrightened
p1129
aVby
p1130
aVthat
p1131
aVnightmare
p1132
aV,
aVpelayo
p1133
aVran
p1134
aVto
p1135
aVget
p1136
aVelisenda
p1137
aV,
aVhis
p1138
aVwife
p1139
aV,
aVwho
p1140
aVwas
p1141
aVputting
p1142
aVcompresses
p1143
aVon
p1144
aVthe
p1145
aVsick
p1146
aVchild
p1147
aV,
aVand
p1148
aVhe
p1149
aVtook
p1150
aVher
p1151
aVto
p1152
aVthe
p1153
aVrear
p1154
aVof
p1155
aVthe
p1156
aVcourtyard
p1157
aV.
aa(lp1158
Vthey
p1159
aVboth
p1160
aVlooked
p1161
aVat
p1162
aVthe
p1163
aVfallen
p1164
aVbody
p1165
aVwith
p1166
aVa
aVmute
p1167
aVstupor
p1168
aV.
aa(lp1169
Vhe
p1170
aVwas
p1171
aVdressed
p1172
aVlike
p1173
aVa
aVragpicker
p1174
aV.
aa(lp1175
Vthere
p1176
aVwere
p1177
aVonly
p1178
aVa
aVfew
p1179
aVfaded
p1180
aVhairs
p1181
aVleft
p1182
aVon
p1183
aVhis
p1184
aVbald
p1185
aVskull
p1186
aVand
p1187
aVvery
p1188
aVfew
p1189
aVteeth
p1190
aVin
p1191
aVhis
p1192
aVmouth
p1193
aV,
aVand
p1194
aVhis
p1195
aVpitiful
p1196
aVcondition
p1197
aVof
p1198
aVa
aVdrenched
p1199
aVgreat-grandfather
p1200
aVtook
p1201
aVaway
p1202
aVany
p1203
aVsense
p1204
aVof
p1205
aVgrandeur
p1206
aVhe
p1207
aVmight
p1208
aVhave
p1209
aVhad
p1210
aV.
aa(lp1211
Vhis
p1212
aVhuge
p1213
aVbuzzard
p1214
aVwings
p1215
aV,
aVdirty
p1216
aVand
p1217
aVhalf-plucked
p1218
aV,
aVwere
p1219
aVforever
p1220
aVentangled
p1221
aVin
p1222
aVthe
p1223
aVmud
p1224
aV.
aa(lp1225
Vthey
p1226
aVlooked
p1227
aVat
p1228
aVhim
p1229
aVso
p1230
aVlong
p1231
aVand
p1232
aVso
p1233
aVclosely
p1234
aVthat
p1235
aVpelayo
p1236
aVand
p1237
aVelisenda
p1238
aVvery
p1239
aVsoon
p1240
aVovercame
p1241
aVtheir
p1242
aVsurprise
p1243
aVand
p1244
aVin
p1245
aVthe
p1246
aVend
p1247
aVfound
p1248
aVhim
p1249
aVfamiliar
p1250
aV.
aa(lp1251
Vthen
p1252
aVthey
p1253
aVdared
p1254
aVspeak
p1255
aVto
p1256
aVhim
p1257
aV,
aVand
p1258
aVhe
p1259
aVanswered
p1260
aVin
p1261
aVan
p1262
aVincomprehensible
p1263
aVdialect
p1264
aVwith
p1265
aVa
aVstrong
p1266
aVsailor\u2019s
p1267
aVvoice
p1268
aV.
aa(lp1269
Vthat
p1270
aVwas
p1271
aVhow
p1272
aVthey
p1273
aVskipped
p1274
aVover
p1275
aVthe
p1276
aVinconvenience
p1277
aVof
p1278
aVthe
p1279
aVwings
p1280
aVand
p1281
aVquite
p1282
aVintelligently
p1283
aVconcluded
p1284
aVthat
p1285
aVhe
p1286
aVwas
p1287
aVa
aVlonely
p1288
aVcastaway
p1289
aVfrom
p1290
aVsome
p1291
aVforeign
p1292
aVship
p1293
aVwrecked
p1294
aVby
p1295
aVthe
p1296
aVstorm
p1297
aV.
aa(lp1298
Vand
p1299
aVyet
p1300
aV,
aVthey
p1301
aVcalled
p1302
aVin
p1303
aVa
aVneighbor
p1304
aVwoman
p1305
aVwho
p1306
aVknew
p1307
aVeverything
p1308
aVabout
p1309
aVlife
p1310
aVand
p1311
aVdeath
p1312
aVto
p1313
aVsee
p1314
aVhim
p1315
aV,
aVand
p1316
aVall
p1317
aVshe
p1318
aVneeded
p1319
aVwas
p1320
aVone
p1321
aVlook
p1322
aVto
p1323
aVshow
p1324
aVthem
p1325
aVtheir
p1326
aVmistake
p1327
aV.
aa(lp1328
V\u201che\u2019s
p1329
aVan
p1330
aVangel
p1331
aV,
aV\u201d
aVshe
p1332
aVtold
p1333
aVthem
p1334
aV.
aa(lp1335
V\u201che
p1336
aVmust
p1337
aVhave
p1338
aVbeen
p1339
aVcoming
p1340
aVfor
p1341
aVthe
p1342
aVchild
p1343
aV,
aVbut
p1344
aVthe
p1345
aVpoor
p1346
aVfellow
p1347
aVis
p1348
aVso
p1349
aVold
p1350
aVthat
p1351
aVthe
p1352
aVrain
p1353
aVknocked
p1354
aVhim
p1355
aVdown.\u201d
p1356
aVon
p1357
aVthe
p1358
aVfollowing
p1359
aVday
p1360
aVeveryone
p1361
aVknew
p1362
aVthat
p1363
aVa
aVflesh-and-blood
p1364
aVangel
p1365
aVwas
p1366
aVheld
p1367
aVcaptive
p1368
aVin
p1369
aVpelayo\u2019s
p1370
aVhouse
p1371
aV.
aa(lp1372
Vagainst
p1373
aVthe
p1374
aVjudgment
p1375
aVof
p1376
aVthe
p1377
aVwise
p1378
aVneighbor
p1379
aVwoman
p1380
aV,
aVfor
p1381
aVwhom
p1382
aVangels
p1383
aVin
p1384
aVthose
p1385
aVtimes
p1386
aVwere
p1387
aVthe
p1388
aVfugitive
p1389
aVsurvivors
p1390
aVof
p1391
aVa
aVcelestial
p1392
aVconspiracy
p1393
aV,
aVthey
p1394
aVdid
p1395
aVnot
p1396
aVhave
p1397
aVthe
p1398
aVheart
p1399
aVto
p1400
aVclub
p1401
aVhim
p1402
aVto
p1403
aVdeath
p1404
aV.
aa(lp1405
Vpelayo
p1406
aVwatched
p1407
aVover
p1408
aVhim
p1409
aVall
p1410
aVafternoon
p1411
aVfrom
p1412
aVthe
p1413
aVkitchen
p1414
aV,
aVarmed
p1415
aVwith
p1416
aVhis
p1417
aVbailiff\u2019s
p1418
aVclub
p1419
aV,
aVand
p1420
aVbefore
p1421
aVgoing
p1422
aVto
p1423
aVbed
p1424
aVhe
p1425
aVdragged
p1426
aVhim
p1427
aVout
p1428
aVof
p1429
aVthe
p1430
aVmud
p1431
aVand
p1432
aVlocked
p1433
aVhim
p1434
aVup
p1435
aVwith
p1436
aVthe
p1437
aVhens
p1438
aVin
p1439
aVthe
p1440
aVwire
p1441
aVchicken
p1442
aVcoop
p1443
aV.
aa(lp1444
Vin
p1445
aVthe
p1446
aVmiddle
p1447
aVof
p1448
aVthe
p1449
aVnight
p1450
aV,
aVwhen
p1451
aVthe
p1452
aVrain
p1453
aVstopped
p1454
aV,
aVpelayo
p1455
aVand
p1456
aVelisenda
p1457
aVwere
p1458
aVstill
p1459
aVkilling
p1460
aVcrabs
p1461
aV.
aa(lp1462
Va
aVshort
p1463
aVtime
p1464
aVafterward
p1465
aVthe
p1466
aVchild
p1467
aVwoke
p1468
aVup
p1469
aVwithout
p1470
aVa
aVfever
p1471
aVand
p1472
aVwith
p1473
aVa
aVdesire
p1474
aVto
p1475
aVeat
p1476
aV.
aa(lp1477
Vthen
p1478
aVthey
p1479
aVfelt
p1480
aVmagnanimous
p1481
aVand
p1482
aVdecided
p1483
aVto
p1484
aVput
p1485
aVthe
p1486
aVangel
p1487
aVon
p1488
aVa
aVraft
p1489
aVwith
p1490
aVfresh
p1491
aVwater
p1492
aVand
p1493
aVprovisions
p1494
aVfor
p1495
aVthree
p1496
aVdays
p1497
aVand
p1498
aVleave
p1499
aVhim
p1500
aVto
p1501
aVhis
p1502
aVfate
p1503
aVon
p1504
aVthe
p1505
aVhigh
p1506
aVseas
p1507
aV.
aa(lp1508
Vbut
p1509
aVwhen
p1510
aVthey
p1511
aVwent
p1512
aVout
p1513
aVinto
p1514
aVthe
p1515
aVcourtyard
p1516
aVwith
p1517
aVthe
p1518
aVfirst
p1519
aVlight
p1520
aVof
p1521
aVdawn
p1522
aV,
aVthey
p1523
aVfound
p1524
aVthe
p1525
aVwhole
p1526
aVneighborhood
p1527
aVin
p1528
aVfront
p1529
aVof
p1530
aVthe
p1531
aVchicken
p1532
aVcoop
p1533
aVhaving
p1534
aVfun
p1535
aVwith
p1536
aVthe
p1537
aVangel
p1538
aV,
aVwithout
p1539
aVthe
p1540
aVslightest
p1541
aVreverence
p1542
aV,
aVtossing
p1543
aVhim
p1544
aVthings
p1545
aVto
p1546
aVeat
p1547
aVthrough
p1548
aVthe
p1549
aVopenings
p1550
aVin
p1551
aVthe
p1552
aVwire
p1553
aVas
p1554
aVif
p1555
aVhe
p1556
aVweren\u2019t
p1557
aVa
aVsupernatural
p1558
aVcreature
p1559
aVbut
p1560
aVa
aVcircus
p1561
aVanimal
p1562
aV.
aa(lp1563
Vfather
p1564
aVgonzaga
p1565
aVarrived
p1566
aVbefore
p1567
aVseven
p1568
aVo\u2019clock
p1569
aV,
aValarmed
p1570
aVat
p1571
aVthe
p1572
aVstrange
p1573
aVnews
p1574
aV.
aa(lp1575
Vby
p1576
aVthat
p1577
aVtime
p1578
aVonlookers
p1579
aVless
p1580
aVfrivolous
p1581
aVthan
p1582
aVthose
p1583
aVat
p1584
aVdawn
p1585
aVhad
p1586
aValready
p1587
aVarrived
p1588
aVand
p1589
aVthey
p1590
aVwere
p1591
aVmaking
p1592
aVall
p1593
aVkinds
p1594
aVof
p1595
aVconjectures
p1596
aVconcerning
p1597
aVthe
p1598
aVcaptive\u2019s
p1599
aVfuture
p1600
aV.
aa(lp1601
Vthe
p1602
aVsimplest
p1603
aVamong
p1604
aVthem
p1605
aVthought
p1606
aVthat
p1607
aVhe
p1608
aVshould
p1609
aVbe
p1610
aVnamed
p1611
aVmayor
p1612
aVof
p1613
aVthe
p1614
aVworld
p1615
aV.
aa(lp1616
Vothers
p1617
aVof
p1618
aVsterner
p1619
aVmind
p1620
aVfelt
p1621
aVthat
p1622
aVhe
p1623
aVshould
p1624
aVbe
p1625
aVpromoted
p1626
aVto
p1627
aVthe
p1628
aVrank
p1629
aVof
p1630
aVfive-star
p1631
aVgeneral
p1632
aVin
p1633
aVorder
p1634
aVto
p1635
aVwin
p1636
aVall
p1637
aVwars
p1638
aV.
aa(lp1639
Vsome
p1640
aVvisionaries
p1641
aVhoped
p1642
aVthat
p1643
aVhe
p1644
aVcould
p1645
aVbe
p1646
aVput
p1647
aVto
p1648
aVstud
p1649
aVin
p1650
aVorder
p1651
aVto
p1652
aVimplant
p1653
aVthe
p1654
aVearth
p1655
aVa
aVrace
p1656
aVof
p1657
aVwinged
p1658
aVwise
p1659
aVmen
p1660
aVwho
p1661
aVcould
p1662
aVtake
p1663
aVcharge
p1664
aVof
p1665
aVthe
p1666
aVuniverse
p1667
aV.
aa(lp1668
Vbut
p1669
aVfather
p1670
aVgonzaga
p1671
aV,
aVbefore
p1672
aVbecoming
p1673
aVa
aVpriest
p1674
aV,
aVhad
p1675
aVbeen
p1676
aVa
aVrobust
p1677
aVwoodcutter
p1678
aV.
aa(lp1679
Vstanding
p1680
aVby
p1681
aVthe
p1682
aVwire
p1683
aV,
aVhe
p1684
aVreviewed
p1685
aVhis
p1686
aVcatechism
p1687
aVin
p1688
aVan
p1689
aVinstant
p1690
aVand
p1691
aVasked
p1692
aVthem
p1693
aVto
p1694
aVopen
p1695
aVthe
p1696
aVdoor
p1697
aVso
p1698
aVthat
p1699
aVhe
p1700
aVcould
p1701
aVtake
p1702
aVa
aVclose
p1703
aVlook
p1704
aVat
p1705
aVthat
p1706
aVpitiful
p1707
aVman
p1708
aVwho
p1709
aVlooked
p1710
aVmore
p1711
aVlike
p1712
aVa
aVhuge
p1713
aVdecrepit
p1714
aVhen
p1715
aVamong
p1716
aVthe
p1717
aVfascinated
p1718
aVchickens
p1719
aV.
aa(lp1720
Vhe
p1721
aVwas
p1722
aVlying
p1723
aVin
p1724
aVthe
p1725
aVcorner
p1726
aVdrying
p1727
aVhis
p1728
aVopen
p1729
aVwings
p1730
aVin
p1731
aVthe
p1732
aVsunlight
p1733
aVamong
p1734
aVthe
p1735
aVfruit
p1736
aVpeels
p1737
aVand
p1738
aVbreakfast
p1739
aVleftovers
p1740
aVthat
p1741
aVthe
p1742
aVearly
p1743
aVrisers
p1744
aVhad
p1745
aVthrown
p1746
aVhim
p1747
aV.
aa(lp1748
Valien
p1749
aVto
p1750
aVthe
p1751
aVimpertinences
p1752
aVof
p1753
aVthe
p1754
aVworld
p1755
aV,
aVhe
p1756
aVonly
p1757
aVlifted
p1758
aVhis
p1759
aVantiquarian
p1760
aVeyes
p1761
aVand
p1762
aVmurmured
p1763
aVsomething
p1764
aVin
p1765
aVhis
p1766
aVdialect
p1767
aVwhen
p1768
aVfather
p1769
aVgonzaga
p1770
aVwent
p1771
aVinto
p1772
aVthe
p1773
aVchicken
p1774
aVcoop
p1775
aVand
p1776
aVsaid
p1777
aVgood
p1778
aVmorning
p1779
aVto
p1780
aVhim
p1781
aVin
p1782
aVlatin
p1783
aV.
aa(lp1784
Vthe
p1785
aVparish
p1786
aVpriest
p1787
aVhad
p1788
aVhis
p1789
aVfirst
p1790
aVsuspicion
p1791
aVof
p1792
aVan
p1793
aVimposter
p1794
aVwhen
p1795
aVhe
p1796
aVsaw
p1797
aVthat
p1798
aVhe
p1799
aVdid
p1800
aVnot
p1801
aVunderstand
p1802
aVthe
p1803
aVlanguage
p1804
aVof
p1805
aVgod
p1806
aVor
p1807
aVknow
p1808
aVhow
p1809
aVto
p1810
aVgreet
p1811
aVhis
p1812
aVministers
p1813
aV.
aa(lp1814
Vthen
p1815
aVhe
p1816
aVnoticed
p1817
aVthat
p1818
aVseen
p1819
aVclose
p1820
aVup
p1821
aVhe
p1822
aVwas
p1823
aVmuch
p1824
aVtoo
p1825
aVhuman
p1826
aV:
aVhe
p1827
aVhad
p1828
aVan
p1829
aVunbearable
p1830
aVsmell
p1831
aVof
p1832
aVthe
p1833
aVoutdoors
p1834
aV,
aVthe
p1835
aVback
p1836
aVside
p1837
aVof
p1838
aVhis
p1839
aVwings
p1840
aVwas
p1841
aVstrewn
p1842
aVwith
p1843
aVparasites
p1844
aVand
p1845
aVhis
p1846
aVmain
p1847
aVfeathers
p1848
aVhad
p1849
aVbeen
p1850
aVmistreated
p1851
aVby
p1852
aVterrestrial
p1853
aVwinds
p1854
aV,
aVand
p1855
aVnothing
p1856
aVabout
p1857
aVhim
p1858
aVmeasured
p1859
aVup
p1860
aVto
p1861
aVthe
p1862
aVproud
p1863
aVdignity
p1864
aVof
p1865
aVangels
p1866
aV.
aa(lp1867
Vthen
p1868
aVhe
p1869
aVcame
p1870
aVout
p1871
aVof
p1872
aVthe
p1873
aVchicken
p1874
aVcoop
p1875
aVand
p1876
aVin
p1877
aVa
aVbrief
p1878
aVsermon
p1879
aVwarned
p1880
aVthe
p1881
aVcurious
p1882
aVagainst
p1883
aVthe
p1884
aVrisks
p1885
aVof
p1886
aVbeing
p1887
aVingenuous
p1888
aV.
aa(lp1889
Vhe
p1890
aVreminded
p1891
aVthem
p1892
aVthat
p1893
aVthe
p1894
aVdevil
p1895
aVhad
p1896
aVthe
p1897
aVbad
p1898
aVhabit
p1899
aVof
p1900
aVmaking
p1901
aVuse
p1902
aVof
p1903
aVcarnival
p1904
aVtricks
p1905
aVin
p1906
aVorder
p1907
aVto
p1908
aVconfuse
p1909
aVthe
p1910
aVunwary
p1911
aV.
aa(lp1912
Vhe
p1913
aVargued
p1914
aVthat
p1915
aVif
p1916
aVwings
p1917
aVwere
p1918
aVnot
p1919
aVthe
p1920
aVessential
p1921
aVelement
p1922
aVin
p1923
aVdetermining
p1924
aVthe
p1925
aVdifferent
p1926
aVbetween
p1927
aVa
aVhawk
p1928
aVand
p1929
aVan
p1930
aVairplane
p1931
aV,
aVthey
p1932
aVwere
p1933
aVeven
p1934
aVless
p1935
aVso
p1936
aVin
p1937
aVthe
p1938
aVrecognition
p1939
aVof
p1940
aVangels
p1941
aV.
aa(lp1942
Vnevertheless
p1943
aV,
aVhe
p1944
aVpromised
p1945
aVto
p1946
aVwrite
p1947
aVa
aVletter
p1948
aVto
p1949
aVhis
p1950
aVbishop
p1951
aVso
p1952
aVthat
p1953
aVthe
p1954
aVlatter
p1955
aVwould
p1956
aVwrite
p1957
aVhis
p1958
aVprimate
p1959
aVso
p1960
aVthat
p1961
aVthe
p1962
aVlatter
p1963
aVwould
p1964
aVwrite
p1965
aVto
p1966
aVthe
p1967
aVsupreme
p1968
aVpontiff
p1969
aVin
p1970
aVorder
p1971
aVto
p1972
aVget
p1973
aVthe
p1974
aVfinal
p1975
aVverdict
p1976
aVfrom
p1977
aVthe
p1978
aVhighest
p1979
aVcourts
p1980
aV.
aa(lp1981
Vhis
p1982
aVprudence
p1983
aVfell
p1984
aVon
p1985
aVsterile
p1986
aVhearts
p1987
aV.
aa(lp1988
Vthe
p1989
aVnews
p1990
aVof
p1991
aVthe
p1992
aVcaptive
p1993
aVangel
p1994
aVspread
p1995
aVwith
p1996
aVsuch
p1997
aVrapidity
p1998
aVthat
p1999
aVafter
p2000
aVa
aVfew
p2001
aVhours
p2002
aVthe
p2003
aVcourtyard
p2004
aVhad
p2005
aVthe
p2006
aVbustle
p2007
aVof
p2008
aVa
aVmarketplace
p2009
aVand
p2010
aVthey
p2011
aVhad
p2012
aVto
p2013
aVcall
p2014
aVin
p2015
aVtroops
p2016
aVwith
p2017
aVfixed
p2018
aVbayonets
p2019
aVto
p2020
aVdisperse
p2021
aVthe
p2022
aVmob
p2023
aVthat
p2024
aVwas
p2025
aVabout
p2026
aVto
p2027
aVknock
p2028
aVthe
p2029
aVhouse
p2030
aVdown
p2031
aV.
aa(lp2032
Velisenda
p2033
aV,
aVher
p2034
aVspine
p2035
aVall
p2036
aVtwisted
p2037
aVfrom
p2038
aVsweeping
p2039
aVup
p2040
aVso
p2041
aVmuch
p2042
aVmarketplace
p2043
aVtrash
p2044
aV,
aVthen
p2045
aVgot
p2046
aVthe
p2047
aVidea
p2048
aVof
p2049
aVfencing
p2050
aVin
p2051
aVthe
p2052
aVyard
p2053
aVand
p2054
aVcharging
p2055
aVfive
p2056
aVcents
p2057
aVadmission
p2058
aVto
p2059
aVsee
p2060
aVthe
p2061
aVangel
p2062
aV.
aa(lp2063
Vthe
p2064
aVcurious
p2065
aVcame
p2066
aVfrom
p2067
aVfar
p2068
aVaway
p2069
aV.
aa(lp2070
Va
aVtraveling
p2071
aVcarnival
p2072
aVarrived
p2073
aVwith
p2074
aVa
aVflying
p2075
aVacrobat
p2076
aVwho
p2077
aVbuzzed
p2078
aVover
p2079
aVthe
p2080
aVcrowd
p2081
aVseveral
p2082
aVtimes
p2083
aV,
aVbut
p2084
aVno
p2085
aVone
p2086
aVpaid
p2087
aVany
p2088
aVattention
p2089
aVto
p2090
aVhim
p2091
aVbecause
p2092
aVhis
p2093
aVwings
p2094
aVwere
p2095
aVnot
p2096
aVthose
p2097
aVof
p2098
aVan
p2099
aVangel
p2100
aVbut
p2101
aV,
aVrather
p2102
aV,
aVthose
p2103
aVof
p2104
aVa
aVsidereal
p2105
aVbat
p2106
aV.
aa(lp2107
Vthe
p2108
aVmost
p2109
aVunfortunate
p2110
aVinvalids
p2111
aVon
p2112
aVearth
p2113
aVcame
p2114
aVin
p2115
aVsearch
p2116
aVof
p2117
aVhealth
p2118
aV:
aVa
aVpoor
p2119
aVwoman
p2120
aVwho
p2121
aVsince
p2122
aVchildhood
p2123
aVhas
p2124
aVbeen
p2125
aVcounting
p2126
aVher
p2127
aVheartbeats
p2128
aVand
p2129
aVhad
p2130
aVrun
p2131
aVout
p2132
aVof
p2133
aVnumbers
p2134
aV;
aVa
aVportuguese
p2135
aVman
p2136
aVwho
p2137
aVcouldn\u2019t
p2138
aVsleep
p2139
aVbecause
p2140
aVthe
p2141
aVnoise
p2142
aVof
p2143
aVthe
p2144
aVstars
p2145
aVdisturbed
p2146
aVhim
p2147
aV;
aVa
aVsleepwalker
p2148
aVwho
p2149
aVgot
p2150
aVup
p2151
aVat
p2152
aVnight
p2153
aVto
p2154
aVundo
p2155
aVthe
p2156
aVthings
p2157
aVhe
p2158
aVhad
p2159
aVdone
p2160
aVwhile
p2161
aVawake
p2162
aV;
aVand
p2163
aVmany
p2164
aVothers
p2165
aVwith
p2166
aVless
p2167
aVserious
p2168
aVailments
p2169
aV.
aa(lp2170
Vin
p2171
aVthe
p2172
aVmidst
p2173
aVof
p2174
aVthat
p2175
aVshipwreck
p2176
aVdisorder
p2177
aVthat
p2178
aVmade
p2179
aVthe
p2180
aVearth
p2181
aVtremble
p2182
aV,
aVpelayo
p2183
aVand
p2184
aVelisenda
p2185
aVwere
p2186
aVhappy
p2187
aVwith
p2188
aVfatigue
p2189
aV,
aVfor
p2190
aVin
p2191
aVless
p2192
aVthan
p2193
aVa
aVweek
p2194
aVthey
p2195
aVhad
p2196
aVcrammed
p2197
aVtheir
p2198
aVrooms
p2199
aVwith
p2200
aVmoney
p2201
aVand
p2202
aVthe
p2203
aVline
p2204
aVof
p2205
aVpilgrims
p2206
aVwaiting
p2207
aVtheir
p2208
aVturn
p2209
aVto
p2210
aVenter
p2211
aVstill
p2212
aVreached
p2213
aVbeyond
p2214
aVthe
p2215
aVhorizon
p2216
aV.
aa(lp2217
Vthe
p2218
aVangel
p2219
aVwas
p2220
aVthe
p2221
aVonly
p2222
aVone
p2223
aVwho
p2224
aVtook
p2225
aVno
p2226
aVpart
p2227
aVin
p2228
aVhis
p2229
aVown
p2230
aVact
p2231
aV.
aa(lp2232
Vhe
p2233
aVspent
p2234
aVhis
p2235
aVtime
p2236
aVtrying
p2237
aVto
p2238
aVget
p2239
aVcomfortable
p2240
aVin
p2241
aVhis
p2242
aVborrowed
p2243
aVnest
p2244
aV,
aVbefuddled
p2245
aVby
p2246
aVthe
p2247
aVhellish
p2248
aVheat
p2249
aVof
p2250
aVthe
p2251
aVoil
p2252
aVlamps
p2253
aVand
p2254
aVsacramental
p2255
aVcandles
p2256
aVthat
p2257
aVhad
p2258
aVbeen
p2259
aVplaced
p2260
aValong
p2261
aVthe
p2262
aVwire
p2263
aV.
aa(lp2264
Vat
p2265
aVfirst
p2266
aVthey
p2267
aVtried
p2268
aVto
p2269
aVmake
p2270
aVhim
p2271
aVeat
p2272
aVsome
p2273
aVmothballs
p2274
aV,
aVwhich
p2275
aV,
aVaccording
p2276
aVto
p2277
aVthe
p2278
aVwisdom
p2279
aVof
p2280
aVthe
p2281
aVwise
p2282
aVneighbor
p2283
aVwoman
p2284
aV,
aVwere
p2285
aVthe
p2286
aVfood
p2287
aVprescribed
p2288
aVfor
p2289
aVangels
p2290
aV.
aa(lp2291
Vbut
p2292
aVhe
p2293
aVturned
p2294
aVthem
p2295
aVdown
p2296
aV,
aVjust
p2297
aVas
p2298
aVhe
p2299
aVturned
p2300
aVdown
p2301
aVthe
p2302
aVpapal
p2303
aVlunches
p2304
aVthat
p2305
aVthe
p2306
aVpentinents
p2307
aVbrought
p2308
aVhim
p2309
aV,
aVand
p2310
aVthey
p2311
aVnever
p2312
aVfound
p2313
aVout
p2314
aVwhether
p2315
aVit
p2316
aVwas
p2317
aVbecause
p2318
aVhe
p2319
aVwas
p2320
aVan
p2321
aVangel
p2322
aVor
p2323
aVbecause
p2324
aVhe
p2325
aVwas
p2326
aVan
p2327
aVold
p2328
aVman
p2329
aVthat
p2330
aVin
p2331
aVthe
p2332
aVend
p2333
aVate
p2334
aVnothing
p2335
aVbut
p2336
aVeggplant
p2337
aVmush
p2338
aV.
aa(lp2339
Vhis
p2340
aVonly
p2341
aVsupernatural
p2342
aVvirtue
p2343
aVseemed
p2344
aVto
p2345
aVbe
p2346
aVpatience
p2347
aV.
aa(lp2348
Vespecially
p2349
aVduring
p2350
aVthe
p2351
aVfirst
p2352
aVdays
p2353
aV,
aVwhen
p2354
aVthe
p2355
aVhens
p2356
aVpecked
p2357
aVat
p2358
aVhim
p2359
aV,
aVsearching
p2360
aVfor
p2361
aVthe
p2362
aVstellar
p2363
aVparasites
p2364
aVthat
p2365
aVproliferated
p2366
aVin
p2367
aVhis
p2368
aVwings
p2369
aV,
aVand
p2370
aVthe
p2371
aVcripples
p2372
aVpulled
p2373
aVout
p2374
aVfeathers
p2375
aVto
p2376
aVtouch
p2377
aVtheir
p2378
aVdefective
p2379
aVparts
p2380
aVwith
p2381
aV,
aVand
p2382
aVeven
p2383
aVthe
p2384
aVmost
p2385
aVmerciful
p2386
aVthrew
p2387
aVstones
p2388
aVat
p2389
aVhim
p2390
aV,
aVtrying
p2391
aVto
p2392
aVget
p2393
aVhim
p2394
aVto
p2395
aVrise
p2396
aVso
p2397
aVthey
p2398
aVcould
p2399
aVsee
p2400
aVhim
p2401
aVstanding
p2402
aV.
aa(lp2403
Vthe
p2404
aVonly
p2405
aVtime
p2406
aVthey
p2407
aVsucceeded
p2408
aVin
p2409
aVarousing
p2410
aVhim
p2411
aVwas
p2412
aVwhen
p2413
aVthey
p2414
aVburned
p2415
aVhis
p2416
aVside
p2417
aVwith
p2418
aVan
p2419
aViron
p2420
aVfor
p2421
aVbranding
p2422
aVsteers
p2423
aV,
aVfor
p2424
aVhe
p2425
aVhad
p2426
aVbeen
p2427
aVmotionless
p2428
aVfor
p2429
aVso
p2430
aVmany
p2431
aVhours
p2432
aVthat
p2433
aVthey
p2434
aVthought
p2435
aVhe
p2436
aVwas
p2437
aVdead
p2438
aV.
aa(lp2439
Vhe
p2440
aVawoke
p2441
aVwith
p2442
aVa
aVstart
p2443
aV,
aVranting
p2444
aVin
p2445
aVhis
p2446
aVhermetic
p2447
aVlanguage
p2448
aVand
p2449
aVwith
p2450
aVtears
p2451
aVin
p2452
aVhis
p2453
aVeyes
p2454
aV,
aVand
p2455
aVhe
p2456
aVflapped
p2457
aVhis
p2458
aVwings
p2459
aVa
aVcouple
p2460
aVof
p2461
aVtimes
p2462
aV,
aVwhich
p2463
aVbrought
p2464
aVon
p2465
aVa
aVwhirlwind
p2466
aVof
p2467
aVchicken
p2468
aVdung
p2469
aVand
p2470
aVlunar
p2471
aVdust
p2472
aVand
p2473
aVa
aVgale
p2474
aVof
p2475
aVpanic
p2476
aVthat
p2477
aVdid
p2478
aVnot
p2479
aVseem
p2480
aVto
p2481
aVbe
p2482
aVof
p2483
aVthis
p2484
aVworld
p2485
aV.
aa(lp2486
Valthough
p2487
aVmany
p2488
aVthought
p2489
aVthat
p2490
aVhis
p2491
aVreaction
p2492
aVhad
p2493
aVnot
p2494
aVbeen
p2495
aVone
p2496
aVof
p2497
aVrage
p2498
aVbut
p2499
aVof
p2500
aVpain
p2501
aV,
aVfrom
p2502
aVthen
p2503
aVon
p2504
aVthey
p2505
aVwere
p2506
aVcareful
p2507
aVnot
p2508
aVto
p2509
aVannoy
p2510
aVhim
p2511
aV,
aVbecause
p2512
aVthe
p2513
aVmajority
p2514
aVunderstood
p2515
aVthat
p2516
aVhis
p2517
aVpassivity
p2518
aVwas
p2519
aVnot
p2520
aVthat
p2521
aVof
p2522
aVa
aVhero
p2523
aVtaking
p2524
aVhis
p2525
aVease
p2526
aVbut
p2527
aVthat
p2528
aVof
p2529
aVa
aVcataclysm
p2530
aVin
p2531
aVrepose
p2532
aV.
aa(lp2533
Vfather
p2534
aVgonzaga
p2535
aVheld
p2536
aVback
p2537
aVthe
p2538
aVcrowd\u2019s
p2539
aVfrivolity
p2540
aVwith
p2541
aVformulas
p2542
aVof
p2543
aVmaidservant
p2544
aVinspiration
p2545
aVwhile
p2546
aVawaiting
p2547
aVthe
p2548
aVarrival
p2549
aVof
p2550
aVa
aVfinal
p2551
aVjudgment
p2552
aVon
p2553
aVthe
p2554
aVnature
p2555
aVof
p2556
aVthe
p2557
aVcaptive
p2558
aV.
aa(lp2559
Vbut
p2560
aVthe
p2561
aVmail
p2562
aVfrom
p2563
aVrome
p2564
aVshowed
p2565
aVno
p2566
aVsense
p2567
aVof
p2568
aVurgency
p2569
aV.
aa(lp2570
Vthey
p2571
aVspent
p2572
aVtheir
p2573
aVtime
p2574
aVfinding
p2575
aVout
p2576
aVif
p2577
aVthe
p2578
aVprisoner
p2579
aVhad
p2580
aVa
aVnavel
p2581
aV,
aVif
p2582
aVhis
p2583
aVdialect
p2584
aVhad
p2585
aVany
p2586
aVconnection
p2587
aVwith
p2588
aVaramaic
p2589
aV,
aVhow
p2590
aVmany
p2591
aVtimes
p2592
aVhe
p2593
aVcould
p2594
aVfit
p2595
aVon
p2596
aVthe
p2597
aVhead
p2598
aVof
p2599
aVa
aVpin
p2600
aV,
aVor
p2601
aVwhether
p2602
aVhe
p2603
aVwasn\u2019t
p2604
aVjust
p2605
aVa
aVnorwegian
p2606
aVwith
p2607
aVwings
p2608
aV.
aa(lp2609
Vthose
p2610
aVmeager
p2611
aVletters
p2612
aVmight
p2613
aVhave
p2614
aVcome
p2615
aVand
p2616
aVgone
p2617
aVuntil
p2618
aVthe
p2619
aVend
p2620
aVof
p2621
aVtime
p2622
aVif
p2623
aVa
aVprovidential
p2624
aVevent
p2625
aVhad
p2626
aVnot
p2627
aVput
p2628
aVand
p2629
aVend
p2630
aVto
p2631
aVthe
p2632
aVpriest\u2019s
p2633
aVtribulations
p2634
aV.
aa(lp2635
Vit
p2636
aVso
p2637
aVhappened
p2638
aVthat
p2639
aVduring
p2640
aVthose
p2641
aVdays
p2642
aV,
aVamong
p2643
aVso
p2644
aVmany
p2645
aVother
p2646
aVcarnival
p2647
aVattractions
p2648
aV,
aVthere
p2649
aVarrived
p2650
aVin
p2651
aVthe
p2652
aVtown
p2653
aVthe
p2654
aVtraveling
p2655
aVshow
p2656
aVof
p2657
aVthe
p2658
aVwoman
p2659
aVwho
p2660
aVhad
p2661
aVbeen
p2662
aVchanged
p2663
aVinto
p2664
aVa
aVspider
p2665
aVfor
p2666
aVhaving
p2667
aVdisobeyed
p2668
aVher
p2669
aVparents
p2670
aV.
aa(lp2671
Vthe
p2672
aVadmission
p2673
aVto
p2674
aVsee
p2675
aVher
p2676
aVwas
p2677
aVnot
p2678
aVonly
p2679
aVless
p2680
aVthan
p2681
aVthe
p2682
aVadmission
p2683
aVto
p2684
aVsee
p2685
aVthe
p2686
aVangel
p2687
aV,
aVbut
p2688
aVpeople
p2689
aVwere
p2690
aVpermitted
p2691
aVto
p2692
aVask
p2693
aVher
p2694
aVall
p2695
aVmanner
p2696
aVof
p2697
aVquestions
p2698
aVabout
p2699
aVher
p2700
aVabsurd
p2701
aVstate
p2702
aVand
p2703
aVto
p2704
aVexamine
p2705
aVher
p2706
aVup
p2707
aVand
p2708
aVdown
p2709
aVso
p2710
aVthat
p2711
aVno
p2712
aVone
p2713
aVwould
p2714
aVever
p2715
aVdoubt
p2716
aVthe
p2717
aVtruth
p2718
aVof
p2719
aVher
p2720
aVhorror
p2721
aV.
aa(lp2722
Vshe
p2723
aVwas
p2724
aVa
aVfrightful
p2725
aVtarantula
p2726
aVthe
p2727
aVsize
p2728
aVof
p2729
aVa
aVram
p2730
aVand
p2731
aVwith
p2732
aVthe
p2733
aVhead
p2734
aVof
p2735
aVa
aVsad
p2736
aVmaiden
p2737
aV.
aa(lp2738
Vwhat
p2739
aVwas
p2740
aVmost
p2741
aVheartrending
p2742
aV,
aVhowever
p2743
aV,
aVwas
p2744
aVnot
p2745
aVher
p2746
aVoutlandish
p2747
aVshape
p2748
aVbut
p2749
aVthe
p2750
aVsincere
p2751
aVaffliction
p2752
aVwith
p2753
aVwhich
p2754
aVshe
p2755
aVrecounted
p2756
aVthe
p2757
aVdetails
p2758
aVof
p2759
aVher
p2760
aVmisfortune
p2761
aV.
aa(lp2762
Vwhile
p2763
aVstill
p2764
aVpractically
p2765
aVa
aVchild
p2766
aVshe
p2767
aVhad
p2768
aVsneaked
p2769
aVout
p2770
aVof
p2771
aVher
p2772
aVparents\u2019
p2773
aVhouse
p2774
aVto
p2775
aVgo
p2776
aVto
p2777
aVa
aVdance
p2778
aV,
aVand
p2779
aVwhile
p2780
aVshe
p2781
aVwas
p2782
aVcoming
p2783
aVback
p2784
aVthrough
p2785
aVthe
p2786
aVwoods
p2787
aVafter
p2788
aVhaving
p2789
aVdanced
p2790
aVall
p2791
aVnight
p2792
aVwithout
p2793
aVpermission
p2794
aV,
aVa
aVfearful
p2795
aVthunderclap
p2796
aVrent
p2797
aVthe
p2798
aVsky
p2799
aVin
p2800
aVtwo
p2801
aVand
p2802
aVthrough
p2803
aVthe
p2804
aVcrack
p2805
aVcame
p2806
aVthe
p2807
aVlightning
p2808
aVbolt
p2809
aVof
p2810
aVbrimstone
p2811
aVthat
p2812
aVchanged
p2813
aVher
p2814
aVinto
p2815
aVa
aVspider
p2816
aV.
aa(lp2817
Vher
p2818
aVonly
p2819
aVnourishment
p2820
aVcame
p2821
aVfrom
p2822
aVthe
p2823
aVmeatballs
p2824
aVthat
p2825
aVcharitable
p2826
aVsouls
p2827
aVchose
p2828
aVto
p2829
aVtoss
p2830
aVinto
p2831
aVher
p2832
aVmouth
p2833
aV.
aa(lp2834
Va
aVspectacle
p2835
aVlike
p2836
aVthat
p2837
aV,
aVfull
p2838
aVof
p2839
aVso
p2840
aVmuch
p2841
aVhuman
p2842
aVtruth
p2843
aVand
p2844
aVwith
p2845
aVsuch
p2846
aVa
aVfearful
p2847
aVlesson
p2848
aV,
aVwas
p2849
aVbound
p2850
aVto
p2851
aVdefeat
p2852
aVwithout
p2853
aVeven
p2854
aVtrying
p2855
aVthat
p2856
aVof
p2857
aVa
aVhaughty
p2858
aVangel
p2859
aVwho
p2860
aVscarcely
p2861
aVdeigned
p2862
aVto
p2863
aVlook
p2864
aVat
p2865
aVmortals
p2866
aV.
aa(lp2867
Vbesides
p2868
aV,
aVthe
p2869
aVfew
p2870
aVmiracles
p2871
aVattributed
p2872
aVto
p2873
aVthe
p2874
aVangel
p2875
aVshowed
p2876
aVa
aVcertain
p2877
aVmental
p2878
aVdisorder
p2879
aV,
aVlike
p2880
aVthe
p2881
aVblind
p2882
aVman
p2883
aVwho
p2884
aVdidn\u2019t
p2885
aVrecover
p2886
aVhis
p2887
aVsight
p2888
aVbut
p2889
aVgrew
p2890
aVthree
p2891
aVnew
p2892
aVteeth
p2893
aV,
aVor
p2894
aVthe
p2895
aVparalytic
p2896
aVwho
p2897
aVdidn\u2019t
p2898
aVget
p2899
aVto
p2900
aVwalk
p2901
aVbut
p2902
aValmost
p2903
aVwon
p2904
aVthe
p2905
aVlottery
p2906
aV,
aVand
p2907
aVthe
p2908
aVleper
p2909
aVwhose
p2910
aVsores
p2911
aVsprouted
p2912
aVsunflowers
p2913
aV.
aa(lp2914
Vthose
p2915
aVconsolation
p2916
aVmiracles
p2917
aV,
aVwhich
p2918
aVwere
p2919
aVmore
p2920
aVlike
p2921
aVmocking
p2922
aVfun
p2923
aV,
aVhad
p2924
aValready
p2925
aVruined
p2926
aVthe
p2927
aVangel\u2019s
p2928
aVreputation
p2929
aVwhen
p2930
aVthe
p2931
aVwoman
p2932
aVwho
p2933
aVhad
p2934
aVbeen
p2935
aVchanged
p2936
aVinto
p2937
aVa
aVspider
p2938
aVfinally
p2939
aVcrushed
p2940
aVhim
p2941
aVcompletely
p2942
aV.
aa(lp2943
Vthat
p2944
aVwas
p2945
aVhow
p2946
aVfather
p2947
aVgonzaga
p2948
aVwas
p2949
aVcured
p2950
aVforever
p2951
aVof
p2952
aVhis
p2953
aVinsomnia
p2954
aVand
p2955
aVpelayo\u2019s
p2956
aVcourtyard
p2957
aVwent
p2958
aVback
p2959
aVto
p2960
aVbeing
p2961
aVas
p2962
aVempty
p2963
aVas
p2964
aVduring
p2965
aVthe
p2966
aVtime
p2967
aVit
p2968
aVhad
p2969
aVrained
p2970
aVfor
p2971
aVthree
p2972
aVdays
p2973
aVand
p2974
aVcrabs
p2975
aVwalked
p2976
aVthrough
p2977
aVthe
p2978
aVbedrooms
p2979
aV.
aa(lp2980
Vthe
p2981
aVowners
p2982
aVof
p2983
aVthe
p2984
aVhouse
p2985
aVhad
p2986
aVno
p2987
aVreason
p2988
aVto
p2989
aVlament
p2990
aV.
aa(lp2991
Vwith
p2992
aVthe
p2993
aVmoney
p2994
aVthey
p2995
aVsaved
p2996
aVthey
p2997
aVbuilt
p2998
aVa
aVtwo-story
p2999
aVmansion
p3000
aVwith
p3001
aVbalconies
p3002
aVand
p3003
aVgardens
p3004
aVand
p3005
aVhigh
p3006
aVnetting
p3007
aVso
p3008
aVthat
p3009
aVcrabs
p3010
aVwouldn\u2019t
p3011
aVget
p3012
aVin
p3013
aVduring
p3014
aVthe
p3015
aVwinter
p3016
aV,
aVand
p3017
aVwith
p3018
aViron
p3019
aVbars
p3020
aVon
p3021
aVthe
p3022
aVwindows
p3023
aVso
p3024
aVthat
p3025
aVangels
p3026
aVwouldn\u2019t
p3027
aVget
p3028
aVin
p3029
aV.
aa(lp3030
Vpelayo
p3031
aValso
p3032
aVset
p3033
aVup
p3034
aVa
aVrabbit
p3035
aVwarren
p3036
aVclose
p3037
aVto
p3038
aVtown
p3039
aVand
p3040
aVgave
p3041
aVup
p3042
aVhis
p3043
aVjob
p3044
aVas
p3045
aVa
aVbailiff
p3046
aVfor
p3047
aVgood
p3048
aV,
aVand
p3049
aVelisenda
p3050
aVbought
p3051
aVsome
p3052
aVsatin
p3053
aVpumps
p3054
aVwith
p3055
aVhigh
p3056
aVheels
p3057
aVand
p3058
aVmany
p3059
aVdresses
p3060
aVof
p3061
aViridescent
p3062
aVsilk
p3063
aV,
aVthe
p3064
aVkind
p3065
aVworn
p3066
aVon
p3067
aVsunday
p3068
aVby
p3069
aVthe
p3070
aVmost
p3071
aVdesirable
p3072
aVwomen
p3073
aVin
p3074
aVthose
p3075
aVtimes
p3076
aV.
aa(lp3077
Vthe
p3078
aVchicken
p3079
aVcoop
p3080
aVwas
p3081
aVthe
p3082
aVonly
p3083
aVthing
p3084
aVthat
p3085
aVdidn\u2019t
p3086
aVreceive
p3087
aVany
p3088
aVattention
p3089
aV.
aa(lp3090
Vif
p3091
aVthey
p3092
aVwashed
p3093
aVit
p3094
aVdown
p3095
aVwith
p3096
aVcreolin
p3097
aVand
p3098
aVburned
p3099
aVtears
p3100
aVof
p3101
aVmyrrh
p3102
aVinside
p3103
aVit
p3104
aVevery
p3105
aVso
p3106
aVoften
p3107
aV,
aVit
p3108
aVwas
p3109
aVnot
p3110
aVin
p3111
aVhomage
p3112
aVto
p3113
aVthe
p3114
aVangel
p3115
aVbut
p3116
aVto
p3117
aVdrive
p3118
aVaway
p3119
aVthe
p3120
aVdungheap
p3121
aVstench
p3122
aVthat
p3123
aVstill
p3124
aVhung
p3125
aVeverywhere
p3126
aVlike
p3127
aVa
aVghost
p3128
aVand
p3129
aVwas
p3130
aVturning
p3131
aVthe
p3132
aVnew
p3133
aVhouse
p3134
aVinto
p3135
aVan
p3136
aVold
p3137
aVone
p3138
aV.
aa(lp3139
Vat
p3140
aVfirst
p3141
aV,
aVwhen
p3142
aVthe
p3143
aVchild
p3144
aVlearned
p3145
aVto
p3146
aVwalk
p3147
aV,
aVthey
p3148
aVwere
p3149
aVcareful
p3150
aVthat
p3151
aVhe
p3152
aVnot
p3153
aVget
p3154
aVtoo
p3155
aVclose
p3156
aVto
p3157
aVthe
p3158
aVchicken
p3159
aVcoop
p3160
aV.
aa(lp3161
Vbut
p3162
aVthen
p3163
aVthey
p3164
aVbegan
p3165
aVto
p3166
aVlose
p3167
aVtheir
p3168
aVfears
p3169
aVand
p3170
aVgot
p3171
aVused
p3172
aVto
p3173
aVthe
p3174
aVsmell
p3175
aV,
aVand
p3176
aVbefore
p3177
aVthey
p3178
aVchild
p3179
aVgot
p3180
aVhis
p3181
aVsecond
p3182
aVteeth
p3183
aVhe\u2019d
p3184
aVgone
p3185
aVinside
p3186
aVthe
p3187
aVchicken
p3188
aVcoop
p3189
aVto
p3190
aVplay
p3191
aV,
aVwhere
p3192
aVthe
p3193
aVwires
p3194
aVwere
p3195
aVfalling
p3196
aVapart
p3197
aV.
aa(lp3198
Vthe
p3199
aVangel
p3200
aVwas
p3201
aVno
p3202
aVless
p3203
aVstandoffish
p3204
aVwith
p3205
aVhim
p3206
aVthan
p3207
aVwith
p3208
aVthe
p3209
aVother
p3210
aVmortals
p3211
aV,
aVbut
p3212
aVhe
p3213
aVtolerated
p3214
aVthe
p3215
aVmost
p3216
aVingenious
p3217
aVinfamies
p3218
aVwith
p3219
aVthe
p3220
aVpatience
p3221
aVof
p3222
aVa
aVdog
p3223
aVwho
p3224
aVhad
p3225
aVno
p3226
aVillusions
p3227
aV.
aa(lp3228
Vthey
p3229
aVboth
p3230
aVcame
p3231
aVdown
p3232
aVwith
p3233
aVthe
p3234
aVchicken
p3235
aVpox
p3236
aVat
p3237
aVthe
p3238
aVsame
p3239
aVtime
p3240
aV.
aa(lp3241
Vthe
p3242
aVdoctor
p3243
aVwho
p3244
aVtook
p3245
aVcare
p3246
aVof
p3247
aVthe
p3248
aVchild
p3249
aVcouldn\u2019t
p3250
aVresist
p3251
aVthe
p3252
aVtemptation
p3253
aVto
p3254
aVlisten
p3255
aVto
p3256
aVthe
p3257
aVangel\u2019s
p3258
aVheart
p3259
aV,
aVand
p3260
aVhe
p3261
aVfound
p3262
aVso
p3263
aVmuch
p3264
aVwhistling
p3265
aVin
p3266
aVthe
p3267
aVheart
p3268
aVand
p3269
aVso
p3270
aVmany
p3271
aVsounds
p3272
aVin
p3273
aVhis
p3274
aVkidneys
p3275
aVthat
p3276
aVit
p3277
aVseemed
p3278
aVimpossible
p3279
aVfor
p3280
aVhim
p3281
aVto
p3282
aVbe
p3283
aValive
p3284
aV.
aa(lp3285
Vwhat
p3286
aVsurprised
p3287
aVhim
p3288
aVmost
p3289
aV,
aVhowever
p3290
aV,
aVwas
p3291
aVthe
p3292
aVlogic
p3293
aVof
p3294
aVhis
p3295
aVwings
p3296
aV.
aa(lp3297
Vthey
p3298
aVseemed
p3299
aVso
p3300
aVnatural
p3301
aVon
p3302
aVthat
p3303
aVcompletely
p3304
aVhuman
p3305
aVorganism
p3306
aVthat
p3307
aVhe
p3308
aVcouldn\u2019t
p3309
aVunderstand
p3310
aVwhy
p3311
aVother
p3312
aVmen
p3313
aVdidn\u2019t
p3314
aVhave
p3315
aVthem
p3316
aVtoo
p3317
aV.
aa(lp3318
Vwhen
p3319
aVthe
p3320
aVchild
p3321
aVbegan
p3322
aVschool
p3323
aVit
p3324
aVhad
p3325
aVbeen
p3326
aVsome
p3327
aVtime
p3328
aVsince
p3329
aVthe
p3330
aVsun
p3331
aVand
p3332
aVrain
p3333
aVhad
p3334
aVcaused
p3335
aVthe
p3336
aVcollapse
p3337
aVof
p3338
aVthe
p3339
aVchicken
p3340
aVcoop
p3341
aV.
aa(lp3342
Vthe
p3343
aVangel
p3344
aVwent
p3345
aVdragging
p3346
aVhimself
p3347
aVabout
p3348
aVhere
p3349
aVand
p3350
aVthere
p3351
aVlike
p3352
aVa
aVstray
p3353
aVdying
p3354
aVman
p3355
aV.
aa(lp3356
Vthey
p3357
aVwould
p3358
aVdrive
p3359
aVhim
p3360
aVout
p3361
aVof
p3362
aVthe
p3363
aVbedroom
p3364
aVwith
p3365
aVa
aVbroom
p3366
aVand
p3367
aVa
aVmoment
p3368
aVlater
p3369
aVfind
p3370
aVhim
p3371
aVin
p3372
aVthe
p3373
aVkitchen
p3374
aV.
aa(lp3375
Vhe
p3376
aVseemed
p3377
aVto
p3378
aVbe
p3379
aVin
p3380
aVso
p3381
aVmany
p3382
aVplaces
p3383
aVat
p3384
aVthe
p3385
aVsame
p3386
aVtime
p3387
aVthat
p3388
aVthey
p3389
aVgrew
p3390
aVto
p3391
aVthink
p3392
aVthat
p3393
aVhe\u2019d
p3394
aVbe
p3395
aVduplicated
p3396
aV,
aVthat
p3397
aVhe
p3398
aVwas
p3399
aVreproducing
p3400
aVhimself
p3401
aVall
p3402
aVthrough
p3403
aVthe
p3404
aVhouse
p3405
aV,
aVand
p3406
aVthe
p3407
aVexasperated
p3408
aVand
p3409
aVunhinged
p3410
aVelisenda
p3411
aVshouted
p3412
aVthat
p3413
aVit
p3414
aVwas
p3415
aVawful
p3416
aVliving
p3417
aVin
p3418
aVthat
p3419
aVhell
p3420
aVfull
p3421
aVof
p3422
aVangels
p3423
aV.
aa(lp3424
Vhe
p3425
aVcould
p3426
aVscarcely
p3427
aVeat
p3428
aVand
p3429
aVhis
p3430
aVantiquarian
p3431
aVeyes
p3432
aVhad
p3433
aValso
p3434
aVbecome
p3435
aVso
p3436
aVfoggy
p3437
aVthat
p3438
aVhe
p3439
aVwent
p3440
aVabout
p3441
aVbumping
p3442
aVinto
p3443
aVposts
p3444
aV.
aa(lp3445
Vall
p3446
aVhe
p3447
aVhad
p3448
aVleft
p3449
aVwere
p3450
aVthe
p3451
aVbare
p3452
aVcannulae
p3453
aVof
p3454
aVhis
p3455
aVlast
p3456
aVfeathers
p3457
aV.
aa(lp3458
Vpelayo
p3459
aVthrew
p3460
aVa
aVblanket
p3461
aVover
p3462
aVhim
p3463
aVand
p3464
aVextended
p3465
aVhim
p3466
aVthe
p3467
aVcharity
p3468
aVof
p3469
aVletting
p3470
aVhim
p3471
aVsleep
p3472
aVin
p3473
aVthe
p3474
aVshed
p3475
aV,
aVand
p3476
aVonly
p3477
aVthen
p3478
aVdid
p3479
aVthey
p3480
aVnotice
p3481
aVthat
p3482
aVhe
p3483
aVhad
p3484
aVa
aVtemperature
p3485
aVat
p3486
aVnight
p3487
aV,
aVand
p3488
aVwas
p3489
aVdelirious
p3490
aVwith
p3491
aVthe
p3492
aVtongue
p3493
aVtwisters
p3494
aVof
p3495
aVan
p3496
aVold
p3497
aVnorwegian
p3498
aV.
aa(lp3499
Vthat
p3500
aVwas
p3501
aVone
p3502
aVof
p3503
aVthe
p3504
aVfew
p3505
aVtimes
p3506
aVthey
p3507
aVbecame
p3508
aValarmed
p3509
aV,
aVfor
p3510
aVthey
p3511
aVthought
p3512
aVhe
p3513
aVwas
p3514
aVgoing
p3515
aVto
p3516
aVdie
p3517
aVand
p3518
aVnot
p3519
aVeven
p3520
aVthe
p3521
aVwise
p3522
aVneighbor
p3523
aVwoman
p3524
aVhad
p3525
aVbeen
p3526
aVable
p3527
aVto
p3528
aVtell
p3529
aVthem
p3530
aVwhat
p3531
aVto
p3532
aVdo
p3533
aVwith
p3534
aVdead
p3535
aVangels
p3536
aV.
aa(lp3537
Vand
p3538
aVyet
p3539
aVhe
p3540
aVnot
p3541
aVonly
p3542
aVsurvived
p3543
aVhis
p3544
aVworst
p3545
aVwinter
p3546
aV,
aVbut
p3547
aVseemed
p3548
aVimproved
p3549
aVwith
p3550
aVthe
p3551
aVfirst
p3552
aVsunny
p3553
aVdays
p3554
aV.
aa(lp3555
Vhe
p3556
aVremained
p3557
aVmotionless
p3558
aVfor
p3559
aVseveral
p3560
aVdays
p3561
aVin
p3562
aVthe
p3563
aVfarthest
p3564
aVcorner
p3565
aVof
p3566
aVthe
p3567
aVcourtyard
p3568
aV,
aVwhere
p3569
aVno
p3570
aVone
p3571
aVwould
p3572
aVsee
p3573
aVhim
p3574
aV,
aVand
p3575
aVat
p3576
aVthe
p3577
aVbeginning
p3578
aVof
p3579
aVdecember
p3580
aVsome
p3581
aVlarge
p3582
aV,
aVstiff
p3583
aVfeathers
p3584
aVbegan
p3585
aVto
p3586
aVgrow
p3587
aVon
p3588
aVhis
p3589
aVwings
p3590
aV,
aVthe
p3591
aVfeathers
p3592
aVof
p3593
aVa
aVscarecrow
p3594
aV,
aVwhich
p3595
aVlooked
p3596
aVmore
p3597
aVlike
p3598
aVanother
p3599
aVmisfortune
p3600
aVof
p3601
aVdecreptitude
p3602
aV.
aa(lp3603
Vbut
p3604
aVhe
p3605
aVmust
p3606
aVhave
p3607
aVknown
p3608
aVthe
p3609
aVreason
p3610
aVfor
p3611
aVthose
p3612
aVchanges
p3613
aV,
aVfor
p3614
aVhe
p3615
aVwas
p3616
aVquite
p3617
aVcareful
p3618
aVthat
p3619
aVno
p3620
aVone
p3621
aVshould
p3622
aVnotice
p3623
aVthem
p3624
aV,
aVthat
p3625
aVno
p3626
aVone
p3627
aVshould
p3628
aVhear
p3629
aVthe
p3630
aVsea
p3631
aVchanteys
p3632
aVthat
p3633
aVhe
p3634
aVsometimes
p3635
aVsang
p3636
aVunder
p3637
aVthe
p3638
aVstars
p3639
aV.
aa(lp3640
Vone
p3641
aVmorning
p3642
aVelisenda
p3643
aVwas
p3644
aVcutting
p3645
aVsome
p3646
aVbunches
p3647
aVof
p3648
aVonions
p3649
aVfor
p3650
aVlunch
p3651
aVwhen
p3652
aVa
aVwind
p3653
aVthat
p3654
aVseemed
p3655
aVto
p3656
aVcome
p3657
aVfrom
p3658
aVthe
p3659
aVhigh
p3660
aVseas
p3661
aVblew
p3662
aVinto
p3663
aVthe
p3664
aVkitchen
p3665
aV.
aa(lp3666
Vthen
p3667
aVshe
p3668
aVwent
p3669
aVto
p3670
aVthe
p3671
aVwindow
p3672
aVand
p3673
aVcaught
p3674
aVthe
p3675
aVangel
p3676
aVin
p3677
aVhis
p3678
aVfirst
p3679
aVattempts
p3680
aVat
p3681
aVflight
p3682
aV.
aa(lp3683
Vthey
p3684
aVwere
p3685
aVso
p3686
aVclumsy
p3687
aVthat
p3688
aVhis
p3689
aVfingernails
p3690
aVopened
p3691
aVa
aVfurrow
p3692
aVin
p3693
aVthe
p3694
aVvegetable
p3695
aVpatch
p3696
aVand
p3697
aVhe
p3698
aVwas
p3699
aVon
p3700
aVthe
p3701
aVpoint
p3702
aVof
p3703
aVknocking
p3704
aVthe
p3705
aVshed
p3706
aVdown
p3707
aVwith
p3708
aVthe
p3709
aVungainly
p3710
aVflapping
p3711
aVthat
p3712
aVslipped
p3713
aVon
p3714
aVthe
p3715
aVlight
p3716
aVand
p3717
aVcouldn\u2019t
p3718
aVget
p3719
aVa
aVgrip
p3720
aVon
p3721
aVthe
p3722
aVair
p3723
aV.
aa(lp3724
Vbut
p3725
aVhe
p3726
aVdid
p3727
aVmanage
p3728
aVto
p3729
aVgain
p3730
aValtitude
p3731
aV.
aa(lp3732
Velisenda
p3733
aVlet
p3734
aVout
p3735
aVa
aVsigh
p3736
aVof
p3737
aVrelief
p3738
aV,
aVfor
p3739
aVherself
p3740
aVand
p3741
aVfor
p3742
aVhim
p3743
aV,
aVwhen
p3744
aVshe
p3745
aVwatched
p3746
aVhim
p3747
aVpass
p3748
aVover
p3749
aVthe
p3750
aVlast
p3751
aVhouses
p3752
aV,
aVholding
p3753
aVhimself
p3754
aVup
p3755
aVin
p3756
aVsome
p3757
aVway
p3758
aVwith
p3759
aVthe
p3760
aVrisky
p3761
aVflapping
p3762
aVof
p3763
aVa
aVsenile
p3764
aVvulture
p3765
aV.
aa(lp3766
Vshe
p3767
aVkept
p3768
aVwatching
p3769
aVhim
p3770
aVeven
p3771
aVwhen
p3772
aVshe
p3773
aVwas
p3774
aVthrough
p3775
aVcutting
p3776
aVthe
p3777
aVonions
p3778
aVand
p3779
aVshe
p3780
aVkept
p3781
aVon
p3782
aVwatching
p3783
aVuntil
p3784
aVit
p3785
aVwas
p3786
aVno
p3787
aVlonger
p3788
aVpossible
p3789
aVfor
p3790
aVher
p3791
aVto
p3792
aVsee
p3793
aVhim
p3794
aV,
aVbecause
p3795
aVthen
p3796
aVhe
p3797
aVwas
p3798
aVno
p3799
aVlonger
p3800
aVan
p3801
aVannoyance
p3802
aVin
p3803
aVher
p3804
aVlife
p3805
aVbut
p3806
aVan
p3807
aVimaginary
p3808
aVdot
p3809
aVon
p3810
aVthe
p3811
aVhorizon
p3812
aVof
p3813
aVthe
p3814
aVsea
p3815
aV.
aasb.