ccopy_reg
_reconstructor
p1
(cData.Book
Book
p2
c__builtin__
object
p3
NtRp4
(dp5
S'stored_object'
p6
S'Books/A_Hunger_Artist/Book_object.p'
p7
sS'title'
p8
S'A Hunger Artist'
p9
sS'main_text_path'
p10
S'Books/A_Hunger_Artist/main_cleaned.txt'
p11
sS'metadata_path'
p12
S'Books/A_Hunger_Artist/meta_data.csv'
p13
sS'book_path'
p14
S'Books/A_Hunger_Artist/'
p15
sS'characters'
p16
(dp17
S'the overseer'
p18
(dp19
S'list'
p20
(lp21
(lp22
Vthe
p23
aV[
aVCHARACTER
p24
aV]
aV-
aVa
aVcircus
p25
aVmanager
p26
aVwho
p27
aVdiscovers
p28
aVthe
p29
aVhunger
p30
aVartist
p31
aVdying
p32
aVin
p33
aVhis
p34
aVcage
p35
aV.
aa(lp36
Vthe
p37
aV[
aVCHARACTER
p38
aV]
aVhears
p39
aVthe
p40
aVhunger
p41
aVartist
p42
aV's
p43
aVfinal
p44
aVwords
p45
aV,
aVbut
p46
aVhe
p47
aVclearly
p48
aVdoes
p49
aVnot
p50
aVcare
p51
aVwhether
p52
aVhe
p53
aVlives
p54
aVor
p55
aVdies
p56
aV.
aa(lp57
Vas
p58
aVsoon
p59
aVas
p60
aVthe
p61
aVhunger
p62
aVartist
p63
aVexpires
p64
aV,
aVthe
p65
aV[
aVCHARACTER
p66
aV]
aVcallously
p67
aVorders
p68
aVthat
p69
aVhis
p70
aVbody
p71
aVbe
p72
aVtaken
p73
aVaway
p74
aVand
p75
aVreplaces
p76
aVhim
p77
aVwith
p78
aVa
aVpanther
p79
aV.
aasS'relevant_text'
p80
(lp81
(lp82
(lp83
Veven
p84
aVthe
p85
aVartist
p86
aVhimself
p87
aV,
aVknew
p88
aVwhat
p89
aVrecords
p90
aVhe
p91
aVwas
p92
aValready
p93
aVbreaking
p94
aV,
aVand
p95
aVhis
p96
aVheart
p97
aVgrew
p98
aVheavy
p99
aV.
aa(lp100
Vand
p101
aVwhen
p102
aVonce
p103
aVin
p104
aVa
aVtime
p105
aVsome
p106
aVleisurely
p107
aVpasser-by
p108
aVstopped
p109
aV,
aVmade
p110
aVmerry
p111
aVover
p112
aVthe
p113
aVold
p114
aVfigure
p115
aVon
p116
aVthe
p117
aVboard
p118
aVand
p119
aVspoke
p120
aVof
p121
aVswindling
p122
aV,
aVthat
p123
aVwas
p124
aVin
p125
aVits
p126
aVway
p127
aVthe
p128
aVstupidest
p129
aVlie
p130
aVever
p131
aVinvented
p132
aVby
p133
aVindifference
p134
aVand
p135
aVinborn
p136
aVmalice
p137
aV,
aVsince
p138
aVit
p139
aVwas
p140
aVnot
p141
aVthe
p142
aVhunger
p143
aVartist
p144
aVwho
p145
aVwas
p146
aVcheating
p147
aV,
aVhe
p148
aVwas
p149
aVworking
p150
aVhonestly
p151
aV,
aVbut
p152
aVthe
p153
aVworld
p154
aVwho
p155
aVwas
p156
aVcheating
p157
aVhim
p158
aVof
p159
aVhis
p160
aVreward
p161
aV.
aa(lp162
Vmany
p163
aVmore
p164
aVdays
p165
aVwent
p166
aVby
p167
aV,
aVhowever
p168
aV,
aVand
p169
aVthat
p170
aVtoo
p171
aVcame
p172
aVto
p173
aVan
p174
aVend
p175
aV.
aa(lp176
Van
p177
aVoverseer
p178
aV's
p179
aVeye
p180
aVfell
p181
aVon
p182
aVthe
p183
aVcage
p184
aVone
p185
aVday
p186
aVand
p187
aVhe
p188
aVasked
p189
aVthe
p190
aVattendants
p191
aVwhy
p192
aVthis
p193
aVperfectly
p194
aVgood
p195
aVcage
p196
aVshould
p197
aVbe
p198
aVleft
p199
aVstanding
p200
aVthere
p201
aVunused
p202
aVwith
p203
aVdirty
p204
aVstraw
p205
aVinside
p206
aVit
p207
aV;
aVnobody
p208
aVknew
p209
aV,
aVuntil
p210
aVone
p211
aVman
p212
aV,
aVhelped
p213
aVout
p214
aVby
p215
aVthe
p216
aVnotice
p217
aVboard
p218
aV,
aVremembered
p219
aVabout
p220
aVthe
p221
aVhunger
p222
aVartist
p223
aV.
aa(lp224
Vthey
p225
aVpoked
p226
aVinto
p227
aVthe
p228
aVstraw
p229
aVwith
p230
aVsticks
p231
aVand
p232
aVfound
p233
aVhim
p234
aVin
p235
aVit
p236
aV.
aa(lp237
V``
p238
aVare
p239
aVyou
p240
aVstill
p241
aVfasting
p242
aV?
aV''
p243
aa(lp244
Vasked
p245
aVthe
p246
aVoverseer
p247
aV,
aV``
p248
aVwhen
p249
aVon
p250
aVearth
p251
aVdo
p252
aVyou
p253
aVmean
p254
aVto
p255
aVstop
p256
aV?
aV''
p257
aa(lp258
V``
p259
aVforgive
p260
aVme
p261
aV,
aVeverybody
p262
aV,
aV''
p263
aVwhispered
p264
aVthe
p265
aVhunger
p266
aVartist
p267
aV,
aVonly
p268
aVthe
p269
aVoverseer
p270
aV,
aVwho
p271
aVhad
p272
aVhis
p273
aVear
p274
aVto
p275
aVthe
p276
aVbars
p277
aV,
aVunderst
p278
aaa(lp279
(lp280
Vood
p281
aVhim
p282
aV.
aa(lp283
V``
p284
aVof
p285
aVcourse
p286
aV,
aV''
p287
aVsaid
p288
aVthe
p289
aVoverseer
p290
aV,
aVand
p291
aVtapped
p292
aVhis
p293
aVforehead
p294
aVwith
p295
aVa
aVfinger
p296
aVto
p297
aVlet
p298
aVthe
p299
aVattendants
p300
aVknow
p301
aVwhat
p302
aVstate
p303
aVthe
p304
aVman
p305
aVwas
p306
aVin
p307
aV,
aV``
p308
aVwe
p309
aVforgive
p310
aVyou
p311
aV.
aV''
p312
aa(lp313
V``
p314
aVi
aValways
p315
aVwanted
p316
aVyou
p317
aVto
p318
aVadmire
p319
aVmy
p320
aVfasting
p321
aV,
aV''
p322
aVsaid
p323
aVthe
p324
aVhunger
p325
aVartist
p326
aV.
aa(lp327
V``
p328
aVwe
p329
aVdo
p330
aVadmire
p331
aVit
p332
aV,
aV''
p333
aVsaid
p334
aVthe
p335
aVoverseer
p336
aV,
aVaffably
p337
aV.
aa(lp338
V``
p339
aVbut
p340
aVyou
p341
aVshould
p342
aVn't
p343
aVadmire
p344
aVit
p345
aV,
aV''
p346
aVsaid
p347
aVthe
p348
aVhunger
p349
aVartist
p350
aV.
aa(lp351
V``
p352
aVwell
p353
aVthen
p354
aVwe
p355
aVdo
p356
aVn't
p357
aVadmire
p358
aVit
p359
aV,
aV''
p360
aVsaid
p361
aVthe
p362
aVoverseer
p363
aV,
aV``
p364
aVbut
p365
aVwhy
p366
aVshould
p367
aVn't
p368
aVwe
p369
aVadmire
p370
aVit
p371
aV?
aV''
p372
aa(lp373
V``
p374
aVbecause
p375
aVi
aVhave
p376
aVto
p377
aVfast
p378
aV,
aVi
aVca
p379
aVn't
p380
aVhelp
p381
aVit
p382
aV,
aV''
p383
aVsaid
p384
aVthe
p385
aVhunger
p386
aVartist
p387
aV.
aa(lp388
V``
p389
aVwhat
p390
aVa
aVfellow
p391
aVyou
p392
aVare
p393
aV,
aV''
p394
aVsaid
p395
aVthe
p396
aVoverseer
p397
aV,
aV``
p398
aVand
p399
aVwhy
p400
aVca
p401
aVn't
p402
aVyou
p403
aVhelp
p404
aVit
p405
aV?
aV''
p406
aa(lp407
V``
p408
aVbecause
p409
aV,
aV''
p410
aVsaid
p411
aVthe
p412
aVhunger
p413
aVartist
p414
aV,
aVlifting
p415
aVhis
p416
aVhead
p417
aVa
aVlittle
p418
aVand
p419
aVspeaking
p420
aV,
aVwith
p421
aVhis
p422
aVlips
p423
aVpursed
p424
aV,
aVas
p425
aVif
p426
aVfor
p427
aVa
aVkiss
p428
aV,
aVright
p429
aVinto
p430
aVthe
p431
aVoverseer
p432
aV's
p433
aVear
p434
aV,
aVso
p435
aVthat
p436
aVno
p437
aVsyllable
p438
aVmight
p439
aVbe
p440
aVlost
p441
aV,
aV``
p442
aVbecause
p443
aVi
aVcould
p444
aVn't
p445
aVfind
p446
aVthe
p447
aVfood
p448
aVi
aVliked
p449
aV.
aa(lp450
Vif
p451
aVi
aVhad
p452
aVfound
p453
aVit
p454
aV,
aVbelieve
p455
aVme
p456
aV,
aVi
aVshould
p457
aVhave
p458
aVmade
p459
aVno
p460
aVfuss
p461
aVand
p462
aVstuffed
p463
aVmyself
p464
aVlike
p465
aVyou
p466
aVor
p467
aVanyone
p468
aVelse
p469
aaa(lp470
(lp471
V.
aV''
p472
aa(lp473
Vthese
p474
aVwere
p475
aVhis
p476
aVlast
p477
aVwords
p478
aV,
aVbut
p479
aVin
p480
aVhis
p481
aVdimming
p482
aVeyes
p483
aVremained
p484
aVthe
p485
aVfirm
p486
aVthough
p487
aVno
p488
aVlonger
p489
aVproud
p490
aVpersuasion
p491
aVthat
p492
aVhe
p493
aVwas
p494
aVcontinuing
p495
aVto
p496
aVfast
p497
aV.
aa(lp498
V``
p499
aVwell
p500
aV,
aVclear
p501
aVthis
p502
aVout
p503
aVnow
p504
aV!
aV''
p505
aa(lp506
Vsaid
p507
aVthe
p508
aVoverseer
p509
aV,
aVand
p510
aVthey
p511
aVburied
p512
aVthe
p513
aVhunger
p514
aVartist
p515
aV,
aVstraw
p516
aVand
p517
aVall
p518
aV.
aa(lp519
Vinto
p520
aVthe
p521
aVcage
p522
aVthey
p523
aVput
p524
aVa
aVyoung
p525
aVpanther
p526
aV.
aa(lp527
Veven
p528
aVthe
p529
aVmost
p530
aVinsensitive
p531
aVfelt
p532
aVit
p533
aVrefreshing
p534
aVto
p535
aVsee
p536
aVthis
p537
aVwild
p538
aVcreature
p539
aVleaping
p540
aVaround
p541
aVthe
p542
aVcage
p543
aVthat
p544
aVhad
p545
aVso
p546
aVlong
p547
aVbeen
p548
aVdreary
p549
aV.
aa(lp550
Vthe
p551
aVpanther
p552
aVwas
p553
aVall
p554
aVright
p555
aV.
aa(lp556
Vthe
p557
aVfood
p558
aVhe
p559
aVliked
p560
aVwas
p561
aVbrought
p562
aVhim
p563
aVwithout
p564
aVhesitation
p565
aVby
p566
aVthe
p567
aVattendants
p568
aV;
aVhe
p569
aVseemed
p570
aVnot
p571
aVeven
p572
aVto
p573
aVmiss
p574
aVhis
p575
aVfreedom
p576
aV;
aVhis
p577
aVnoble
p578
aVbody
p579
aV,
aVfurnished
p580
aValmost
p581
aVto
p582
aVthe
p583
aVbursting
p584
aVpoint
p585
aVwith
p586
aVall
p587
aVthat
p588
aVit
p589
aVneeded
p590
aV,
aVseemed
p591
aVto
p592
aVcarry
p593
aVfreedom
p594
aVaround
p595
aVwith
p596
aVit
p597
aVtoo
p598
aV;
aVsomewhere
p599
aVin
p600
aVhis
p601
aVjaw
p602
aaasS'analysis'
p603
NssS'the hunger artist'
p604
(dp605
g20
(lp606
(lp607
Vthe
p608
aV[
aVCHARACTER
p609
aV]
aV-
aVthe
p610
aVmiserable
p611
aVprotagonist
p612
aVof
p613
aVthe
p614
aVstory
p615
aV.
aa(lp616
Vdressed
p617
aVin
p618
aVblack
p619
aVtights
p620
aV,
aVthe
p621
aV[
aVCHARACTER
p622
aV]
aVis
p623
aVemaciated
p624
aV.
aa(lp625
Veverything
p626
aVabout
p627
aVhis
p628
aVdemeanor
p629
aVcries
p630
aVof
p631
aVdesperation
p632
aVand
p633
aVtragedy
p634
aV.
aa(lp635
Vhe
p636
aVsequesters
p637
aVhimself
p638
aVin
p639
aVa
aVcage
p640
aV,
aVpreferring
p641
aVto
p642
aVsit
p643
aVon
p644
aVthe
p645
aVstraw-lined
p646
aVfloor
p647
aVrather
p648
aVthan
p649
aVon
p650
aVa
aVchair
p651
aV.
aa(lp652
Valthough
p653
aVhe
p654
aVcraves
p655
aVpublic
p656
aVattention
p657
aVand
p658
aVis
p659
aVdelighted
p660
aVto
p661
aVdisplay
p662
aVhimself
p663
aVto
p664
aVwide-eyed
p665
aVspectators
p666
aV,
aVhe
p667
aVis
p668
aVoften
p669
aVfrustrated
p670
aVwith
p671
aVthe
p672
aVinteractions
p673
aVhe
p674
aVhas
p675
aVwith
p676
aVothers
p677
aV.
aa(lp678
Vwhile
p679
aVin
p680
aVhis
p681
aVcage
p682
aV,
aVthe
p683
aV[
aVCHARACTER
p684
aV]
aVwithdraws
p685
aVinto
p686
aVhimself
p687
aV,
aVseemingly
p688
aVin
p689
aVa
aVtrance
p690
aV.
aa(lp691
Vhe
p692
aVthinks
p693
aVof
p694
aVlittle
p695
aVmore
p696
aVthan
p697
aVthe
p698
aVart
p699
aVof
p700
aVfasting
p701
aVand
p702
aVhis
p703
aVdesire
p704
aVto
p705
aVbe
p706
aVthe
p707
aVgreatest
p708
aVfaster
p709
aVof
p710
aVall
p711
aVtime
p712
aV.
aasg80
(lp713
(lp714
(lp715
Vduring
p716
aVthese
p717
aVlast
p718
aVdecades
p719
aVthe
p720
aVinterest
p721
aVin
p722
aVprofessional
p723
aVfasting
p724
aVhas
p725
aVmarkedly
p726
aVdiminished
p727
aV.
aa(lp728
Vit
p729
aVused
p730
aVto
p731
aVpay
p732
aVvery
p733
aVwell
p734
aVto
p735
aVstage
p736
aVsuch
p737
aVgreat
p738
aVperformances
p739
aVunder
p740
aVone
p741
aV's
p742
aVown
p743
aVmanagement
p744
aV,
aVbut
p745
aVtoday
p746
aVthat
p747
aVis
p748
aVquite
p749
aVimpossible
p750
aV.
aa(lp751
Vwe
p752
aVlive
p753
aVin
p754
aVa
aVdifferent
p755
aVworld
p756
aVnow
p757
aV.
aa(lp758
Vat
p759
aVone
p760
aVtime
p761
aVthe
p762
aVwhole
p763
aVtown
p764
aVtook
p765
aVa
aVlively
p766
aVinterest
p767
aVin
p768
aVthe
p769
aVhunger
p770
aVartist
p771
aV;
aVfrom
p772
aVday
p773
aVto
p774
aVday
p775
aVof
p776
aVhis
p777
aVfast
p778
aVthe
p779
aVexcitement
p780
aVmounted
p781
aV;
aVeverybody
p782
aVwanted
p783
aVto
p784
aVsee
p785
aVhim
p786
aVat
p787
aVleast
p788
aVonce
p789
aVa
aVday
p790
aV;
aVthere
p791
aVwere
p792
aVpeople
p793
aVwho
p794
aVbought
p795
aVseason
p796
aVtickets
p797
aVfor
p798
aVthe
p799
aVlast
p800
aVfew
p801
aVdays
p802
aVand
p803
aVsat
p804
aVfrom
p805
aVmorning
p806
aVtill
p807
aVnight
p808
aVin
p809
aVfront
p810
aVof
p811
aVhis
p812
aVsmall
p813
aVbarred
p814
aVcage
p815
aV;
aVeven
p816
aVin
p817
aVthe
p818
aVnighttime
p819
aVthere
p820
aVwere
p821
aVvisiting
p822
aVhours
p823
aV,
aVwhen
p824
aVthe
p825
aVwhole
p826
aVeffect
p827
aVwas
p828
aVheightened
p829
aVby
p830
aVtorch
p831
aVflares
p832
aV;
aVon
p833
aVfine
p834
aVdays
p835
aVthe
p836
aVcage
p837
aVwas
p838
aVset
p839
aVout
p840
aVin
p841
aVthe
p842
aVopen
p843
aVair
p844
aV,
aVand
p845
aVthen
p846
aVit
p847
aVwas
p848
aVthe
p849
aVchildren
p850
aV's
p851
aVspecial
p852
aVtreat
p853
aVto
p854
aVsee
p855
aVthe
p856
aVhunger
p857
aVartist
p858
aV;
aVfor
p859
aVtheir
p860
aVelders
p861
aVhe
p862
aVwas
p863
aVoften
p864
aVjust
p865
aVa
aVjo
p866
aaa(lp867
(lp868
Vow
p869
aVthin
p870
aVit
p871
aVwas
p872
aV,
aVand
p873
aVthen
p874
aVagain
p875
aVwithdrawing
p876
aVdeep
p877
aVinto
p878
aVhimself
p879
aV,
aVpaying
p880
aVno
p881
aVattention
p882
aVto
p883
aVanyone
p884
aVor
p885
aVanything
p886
aV,
aVnot
p887
aVeven
p888
aVto
p889
aVthe
p890
aVall-important
p891
aVstriking
p892
aVof
p893
aVthe
p894
aVclock
p895
aVthat
p896
aVwas
p897
aVthe
p898
aVonly
p899
aVpiece
p900
aVof
p901
aVfurniture
p902
aVin
p903
aVhis
p904
aVcage
p905
aV,
aVbut
p906
aVmerely
p907
aVstaring
p908
aVinto
p909
aVvacancy
p910
aVwith
p911
aVhalf-shut
p912
aVeyes
p913
aV,
aVnow
p914
aVand
p915
aVthen
p916
aVtaking
p917
aVa
aVsip
p918
aVfrom
p919
aVa
aVtiny
p920
aVglass
p921
aVof
p922
aVwater
p923
aVto
p924
aVmoisten
p925
aVhis
p926
aVlips
p927
aV.
aa(lp928
Vbesides
p929
aVcasual
p930
aVonlookers
p931
aVthere
p932
aVwere
p933
aValso
p934
aVrelays
p935
aVof
p936
aVpermanent
p937
aVwatchers
p938
aVselected
p939
aVby
p940
aVthe
p941
aVpublic
p942
aV,
aVususally
p943
aVbutchers
p944
aV,
aVstrangely
p945
aVenough
p946
aV,
aVand
p947
aVit
p948
aVwas
p949
aVtheir
p950
aVtask
p951
aVto
p952
aVwatch
p953
aVthe
p954
aVhunger
p955
aVartist
p956
aVday
p957
aVand
p958
aVnight
p959
aV,
aVthree
p960
aVof
p961
aVthem
p962
aVat
p963
aVa
aVtime
p964
aV,
aVin
p965
aVcase
p966
aVhe
p967
aVshould
p968
aVhave
p969
aVsome
p970
aVsecret
p971
aVrecourse
p972
aVto
p973
aVnourishment
p974
aV.
aa(lp975
Vthis
p976
aVwas
p977
aVnothing
p978
aVbut
p979
aVa
aVformality
p980
aV,
aVinstituted
p981
aVto
p982
aVreassure
p983
aVthe
p984
aVmasses
p985
aV,
aVfor
p986
aVthe
p987
aVinitiates
p988
aVknew
p989
aVwell
p990
aVenough
p991
aVthat
p992
aVduring
p993
aVhis
p994
aVfast
p995
aVthe
p996
aVartist
p997
aVwould
p998
aVnever
p999
aVin
p1000
aVany
p1001
aVcircumstances
p1002
aV,
aVnot
p1003
aVeven
p1004
aVunder
p1005
aVforcible
p1006
aVcompulsion
p1007
aV,
aVswallow
p1008
aVthe
p1009
aVsmallest
p1010
aVmorsel
p1011
aVof
p1012
aVfood
p1013
aV;
aVthe
p1014
aVhonor
p1015
aVof
p1016
aVhis
p1017
aVprofession
p1018
aVforbade
p1019
aVit
p1020
aV.
aa(lp1021
Vnot
p1022
aVevery
p1023
aVwatcher
p1024
aV,
aVof
p1025
aVcourse
p1026
aV,
aVwas
p1027
aVcapable
p1028
aVof
p1029
aVunderstanding
p1030
aVthis
p1031
aV,
aVthere
p1032
aVwere
p1033
aVoften
p1034
aVgroups
p1035
aVof
p1036
aVnight
p1037
aVwatchers
p1038
aVwho
p1039
aVwere
p1040
aaa(lp1041
(lp1042
Vvery
p1043
aVlax
p1044
aVin
p1045
aVcarrying
p1046
aVout
p1047
aVtheir
p1048
aVduties
p1049
aVand
p1050
aVdeliberately
p1051
aVhudled
p1052
aVtogether
p1053
aVin
p1054
aVa
aVretired
p1055
aVcorner
p1056
aVto
p1057
aVplay
p1058
aVcards
p1059
aVwith
p1060
aVgreat
p1061
aVabsorption
p1062
aV,
aVobviously
p1063
aVintending
p1064
aVto
p1065
aVgive
p1066
aVthe
p1067
aVhunger
p1068
aVartist
p1069
aVthe
p1070
aVchance
p1071
aVof
p1072
aVa
aVlittle
p1073
aVrefreshment
p1074
aV,
aVwhich
p1075
aVthey
p1076
aVsupposed
p1077
aVhe
p1078
aVcould
p1079
aVdraw
p1080
aVfrom
p1081
aVsome
p1082
aVprivate
p1083
aVhoard
p1084
aV.
aa(lp1085
Vnothing
p1086
aVannoyed
p1087
aVthe
p1088
aVartist
p1089
aVmore
p1090
aVthan
p1091
aVsuch
p1092
aVwatchers
p1093
aV;
aVthey
p1094
aVmade
p1095
aVhim
p1096
aVmiserable
p1097
aV;
aVthey
p1098
aVmade
p1099
aVhis
p1100
aVfast
p1101
aVseem
p1102
aVunendurable
p1103
aV;
aVsometimes
p1104
aVhe
p1105
aVmastered
p1106
aVhis
p1107
aVfeebleness
p1108
aVsufficiently
p1109
aVto
p1110
aVsing
p1111
aVduring
p1112
aVtheir
p1113
aVwatch
p1114
aVfor
p1115
aVas
p1116
aVlong
p1117
aVas
p1118
aVhe
p1119
aVcould
p1120
aVkeep
p1121
aVgoing
p1122
aV,
aVto
p1123
aVshow
p1124
aVthem
p1125
aVhow
p1126
aVunjust
p1127
aVtheir
p1128
aVsuspicions
p1129
aVwere
p1130
aV.
aa(lp1131
Vbut
p1132
aVthat
p1133
aVwas
p1134
aVof
p1135
aVlittle
p1136
aVuse
p1137
aV;
aVthey
p1138
aVonly
p1139
aVwondered
p1140
aVat
p1141
aVhis
p1142
aVcleverness
p1143
aVin
p1144
aVbeing
p1145
aVable
p1146
aVto
p1147
aVfill
p1148
aVhis
p1149
aVmouth
p1150
aVeven
p1151
aVwhile
p1152
aVsinging
p1153
aV.
aa(lp1154
Vmuch
p1155
aVmore
p1156
aVto
p1157
aaa(lp1158
(lp1159
Ve
aVof
p1160
aVhealthy
p1161
aVmen
p1162
aVafter
p1163
aVa
aVweary
p1164
aVnight
p1165
aVof
p1166
aVwakefulness
p1167
aV.
aa(lp1168
Vof
p1169
aVcourse
p1170
aVthere
p1171
aVwere
p1172
aVpeople
p1173
aVwho
p1174
aVargued
p1175
aVthat
p1176
aVthis
p1177
aVbreakfast
p1178
aVwas
p1179
aVan
p1180
aVunfair
p1181
aVattempt
p1182
aVto
p1183
aVbribe
p1184
aVthe
p1185
aVwatchers
p1186
aV,
aVbut
p1187
aVthat
p1188
aVwas
p1189
aVgoing
p1190
aVrather
p1191
aVtoo
p1192
aVfar
p1193
aV,
aVand
p1194
aVwhen
p1195
aVthey
p1196
aVwere
p1197
aVinvited
p1198
aVto
p1199
aVtake
p1200
aVon
p1201
aVa
aVnight
p1202
aV's
p1203
aVvigil
p1204
aVwithout
p1205
aVa
aVbreakfast
p1206
aV,
aVmerely
p1207
aVfor
p1208
aVthe
p1209
aVsake
p1210
aVof
p1211
aVthe
p1212
aVcause
p1213
aV,
aVthey
p1214
aVmade
p1215
aVthemselves
p1216
aVscarce
p1217
aV,
aValthough
p1218
aVthey
p1219
aVstuck
p1220
aVstubbornly
p1221
aVto
p1222
aVtheir
p1223
aVsuspicions
p1224
aV.
aa(lp1225
Vsuch
p1226
aVsuspicions
p1227
aV,
aVanyhow
p1228
aV,
aVwere
p1229
aVa
aVnecessary
p1230
aVaccompaniment
p1231
aVto
p1232
aVthe
p1233
aVprofession
p1234
aVof
p1235
aVfasting
p1236
aV.
aa(lp1237
Vno
p1238
aVone
p1239
aVcould
p1240
aVpossibly
p1241
aVwatch
p1242
aVthe
p1243
aVhunger
p1244
aVartist
p1245
aVcontinuosly
p1246
aV,
aVday
p1247
aVand
p1248
aVnight
p1249
aV,
aVand
p1250
aVso
p1251
aVno
p1252
aVone
p1253
aVcould
p1254
aVproduce
p1255
aVfirst-hand
p1256
aVevidence
p1257
aVthat
p1258
aVthe
p1259
aVfast
p1260
aVhad
p1261
aVreally
p1262
aVbeen
p1263
aVrigorous
p1264
aVand
p1265
aVcontinuous
p1266
aV;
aVonly
p1267
aVthe
p1268
aVartist
p1269
aVhimself
p1270
aVcould
p1271
aVknow
p1272
aVthat
p1273
aV,
aVhe
p1274
aVwas
p1275
aVtherefore
p1276
aVbound
p1277
aVto
p1278
aVbe
p1279
aVthe
p1280
aVsole
p1281
aVcompletely
p1282
aVsatisfied
p1283
aVspectator
p1284
aVof
p1285
aVhis
p1286
aVown
p1287
aVfast
p1288
aV.
aa(lp1289
Vyet
p1290
aVfor
p1291
aVother
p1292
aVreasons
p1293
aVhe
p1294
aVwas
p1295
aVnever
p1296
aVsatisfied
p1297
aV;
aVit
p1298
aVwas
p1299
aVnot
p1300
aVperhaps
p1301
aVmere
p1302
aVfasting
p1303
aVthat
p1304
aVhad
p1305
aVbrought
p1306
aVhim
p1307
aVto
p1308
aVsuch
p1309
aVskeleton
p1310
aVthinness
p1311
aVthat
p1312
aVmany
p1313
aVpeople
p1314
aVhad
p1315
aVregretfully
p1316
aVto
p1317
aVkeep
p1318
aVaway
p1319
aVfrom
p1320
aVhis
p1321
aVexhibitions
p1322
aV,
aVbecause
p1323
aVthe
p1324
aVsight
p1325
aVof
p1326
aVhim
p1327
aVwas
p1328
aVtoo
p1329
aVmuch
p1330
aVfor
p1331
aVthem
p1332
aV,
aaa(lp1333
(lp1334
Vsympathetic
p1335
aVsupport
p1336
aVbegan
p1337
aVnotably
p1338
aVto
p1339
aVfall
p1340
aVoff
p1341
aV,
aVthere
p1342
aVwere
p1343
aVof
p1344
aVcourse
p1345
aVlocal
p1346
aVvariations
p1347
aVas
p1348
aVbetween
p1349
aVone
p1350
aVtown
p1351
aVand
p1352
aVanother
p1353
aV,
aVbut
p1354
aVas
p1355
aVa
aVgeneral
p1356
aVrule
p1357
aVforty
p1358
aVdays
p1359
aVmarked
p1360
aVthe
p1361
aVlimit
p1362
aV.
aa(lp1363
Vso
p1364
aVon
p1365
aVthe
p1366
aVfortieth
p1367
aVday
p1368
aVthe
p1369
aVflower-bedecked
p1370
aVcage
p1371
aVwas
p1372
aVopened
p1373
aV,
aVenthusiastic
p1374
aVspectators
p1375
aVfilled
p1376
aVthe
p1377
aVhall
p1378
aV,
aVa
aVmilitary
p1379
aVband
p1380
aVplayed
p1381
aV,
aVtwo
p1382
aVdoctors
p1383
aVentered
p1384
aVthe
p1385
aVcage
p1386
aVto
p1387
aVmeasure
p1388
aVthe
p1389
aVresults
p1390
aVof
p1391
aVthe
p1392
aVfast
p1393
aV,
aVwhich
p1394
aVwere
p1395
aVannounced
p1396
aVthrough
p1397
aVa
aVmegaphone
p1398
aV,
aVand
p1399
aVfinally
p1400
aVtwo
p1401
aVyoung
p1402
aVladies
p1403
aVappeared
p1404
aV,
aVblissful
p1405
aVat
p1406
aVhaving
p1407
aVbeen
p1408
aVselected
p1409
aVfor
p1410
aVthe
p1411
aVhonor
p1412
aV,
aVto
p1413
aVhelp
p1414
aVthe
p1415
aVhunger
p1416
aVartist
p1417
aVdown
p1418
aVthe
p1419
aVfew
p1420
aVsteps
p1421
aVleading
p1422
aVto
p1423
aVa
aVsmall
p1424
aVtable
p1425
aVon
p1426
aVwhich
p1427
aVwas
p1428
aVspread
p1429
aVa
aVcarefully
p1430
aVchosen
p1431
aVinvalid
p1432
aVrepast
p1433
aV.
aa(lp1434
Vand
p1435
aVat
p1436
aVthis
p1437
aVvery
p1438
aVmoment
p1439
aVthe
p1440
aVartist
p1441
aValways
p1442
aVturned
p1443
aVstubborn
p1444
aV.
aa(lp1445
Vtrue
p1446
aV,
aVhe
p1447
aVwould
p1448
aVentrust
p1449
aVhis
p1450
aVbony
p1451
aVarms
p1452
aVto
p1453
aVthe
p1454
aVoutstretched
p1455
aVhelping
p1456
aVhands
p1457
aVof
p1458
aVthe
p1459
aVladies
p1460
aVbending
p1461
aVover
p1462
aVhim
p1463
aV,
aVbut
p1464
aVstand
p1465
aVup
p1466
aVhe
p1467
aVwould
p1468
aVnot
p1469
aV.
aa(lp1470
Vwhy
p1471
aVstop
p1472
aVfasting
p1473
aVat
p1474
aVthis
p1475
aVparticular
p1476
aVmoment
p1477
aV,
aVafter
p1478
aVforty
p1479
aVdays
p1480
aVof
p1481
aVit
p1482
aV?
aa(lp1483
Vhe
p1484
aVhad
p1485
aVheld
p1486
aVout
p1487
aVfor
p1488
aVa
aVlong
p1489
aVtime
p1490
aV,
aVan
p1491
aVillimitably
p1492
aVlong
p1493
aVtime
p1494
aV;
aVwhy
p1495
aVstop
p1496
aVnow
p1497
aV,
aVwhen
p1498
aVhe
p1499
aVwas
p1500
aVin
p1501
aVhis
p1502
aVbest
p1503
aVfasting
p1504
aVform
p1505
aV,
aVor
p1506
aVrather
p1507
aV,
aVnot
p1508
aVyet
p1509
aVquite
p1510
aVin
p1511
aVhis
p1512
aaa(lp1513
(lp1514
Vbest
p1515
aVfasting
p1516
aVform
p1517
aV?
aa(lp1518
Vwhy
p1519
aVshould
p1520
aVhe
p1521
aVbe
p1522
aVcheated
p1523
aVof
p1524
aVthe
p1525
aVfame
p1526
aVhe
p1527
aVwould
p1528
aVget
p1529
aVfor
p1530
aVfasting
p1531
aVlonger
p1532
aV,
aVfor
p1533
aVbeing
p1534
aVnot
p1535
aVonly
p1536
aVthe
p1537
aVrecord
p1538
aVhunger
p1539
aVartist
p1540
aVof
p1541
aVall
p1542
aVtime
p1543
aV,
aVwhich
p1544
aVpresumably
p1545
aVhe
p1546
aVwas
p1547
aValready
p1548
aV,
aVbut
p1549
aVfor
p1550
aVbeating
p1551
aVhis
p1552
aVown
p1553
aVrecord
p1554
aVby
p1555
aVa
aVperformance
p1556
aVbeyond
p1557
aVhuman
p1558
aVimagination
p1559
aV,
aVsince
p1560
aVhe
p1561
aVfelt
p1562
aVthat
p1563
aVthere
p1564
aVwere
p1565
aVno
p1566
aVlimits
p1567
aVto
p1568
aVhis
p1569
aVcapacity
p1570
aVfor
p1571
aVfasting
p1572
aV?
aa(lp1573
Vhis
p1574
aVpublic
p1575
aVpretended
p1576
aVto
p1577
aVadmire
p1578
aVhim
p1579
aVso
p1580
aVmuch
p1581
aV,
aVwhy
p1582
aVshould
p1583
aVit
p1584
aVhave
p1585
aVso
p1586
aVlittle
p1587
aVpatience
p1588
aVwith
p1589
aVhim
p1590
aV;
aVif
p1591
aVhe
p1592
aVcould
p1593
aVendure
p1594
aVfasting
p1595
aVlonger
p1596
aV,
aVwhy
p1597
aVshould
p1598
aVn't
p1599
aVthe
p1600
aVpublic
p1601
aVendure
p1602
aVit
p1603
aV?
aa(lp1604
Vbesides
p1605
aV,
aVhe
p1606
aVwas
p1607
aVtired
p1608
aV,
aVand
p1609
aVnow
p1610
aVhe
p1611
aVwas
p1612
aVsupposed
p1613
aVto
p1614
aVlift
p1615
aVhimself
p1616
aVto
p1617
aVhis
p1618
aVfull
p1619
aVheight
p1620
aVand
p1621
aVgo
p1622
aVdown
p1623
aVto
p1624
aVa
aVmeal
p1625
aVthe
p1626
aVvery
p1627
aVthought
p1628
aVof
p1629
aVwhich
p1630
aVgave
p1631
aVhim
p1632
aVa
aVnausea
p1633
aaa(lp1634
(lp1635
Vhich
p1636
aVthe
p1637
aVimpresario
p1638
aVmanaged
p1639
aVto
p1640
aVget
p1641
aVbetween
p1642
aVthe
p1643
aVartist
p1644
aV's
p1645
aVlips
p1646
aV,
aVwhile
p1647
aVhe
p1648
aVsat
p1649
aVin
p1650
aVa
aVkind
p1651
aVof
p1652
aVhalf-fainting
p1653
aVtrance
p1654
aV,
aVto
p1655
aVthe
p1656
aVaccompaniment
p1657
aVof
p1658
aVcheerful
p1659
aVpatter
p1660
aVdesigned
p1661
aVto
p1662
aVdistract
p1663
aVthe
p1664
aVpublic
p1665
aV's
p1666
aVattention
p1667
aVfrom
p1668
aVthe
p1669
aVartist
p1670
aV's
p1671
aVcondition
p1672
aV;
aVafter
p1673
aVthat
p1674
aV,
aVa
aVtoast
p1675
aVwas
p1676
aVdrunk
p1677
aVto
p1678
aVthe
p1679
aVpublic
p1680
aV,
aVsupposedly
p1681
aVprompted
p1682
aVby
p1683
aVa
aVwhisper
p1684
aVfrom
p1685
aVthe
p1686
aVartist
p1687
aVin
p1688
aVthe
p1689
aVimpresario
p1690
aV's
p1691
aVear
p1692
aV;
aVthe
p1693
aVband
p1694
aVconfirmed
p1695
aVit
p1696
aVwith
p1697
aVa
aVmighty
p1698
aVflourish
p1699
aV,
aVthe
p1700
aVspectators
p1701
aVmelted
p1702
aVaway
p1703
aV,
aVand
p1704
aVno
p1705
aVone
p1706
aVhad
p1707
aVany
p1708
aVcause
p1709
aVto
p1710
aVbe
p1711
aVdissatisfied
p1712
aVwith
p1713
aVthe
p1714
aVproceedings
p1715
aV,
aVno
p1716
aVone
p1717
aVexcept
p1718
aVthe
p1719
aVhunger
p1720
aVartist
p1721
aVhimself
p1722
aV,
aVhe
p1723
aVonly
p1724
aV,
aVas
p1725
aValways
p1726
aV.
aa(lp1727
Vso
p1728
aVhe
p1729
aVlived
p1730
aVfor
p1731
aVmany
p1732
aVyears
p1733
aV,
aVwith
p1734
aVsmall
p1735
aVregular
p1736
aVintervals
p1737
aVof
p1738
aVrecuperation
p1739
aV,
aVin
p1740
aVvisible
p1741
aVglory
p1742
aV,
aVhonored
p1743
aVby
p1744
aVall
p1745
aVthe
p1746
aVworld
p1747
aV,
aVyet
p1748
aVin
p1749
aVspite
p1750
aVof
p1751
aVthat
p1752
aVtroubled
p1753
aVin
p1754
aVspirit
p1755
aV,
aVand
p1756
aVall
p1757
aVthe
p1758
aVmore
p1759
aVtroubled
p1760
aVbecause
p1761
aVno
p1762
aVone
p1763
aVwould
p1764
aVtake
p1765
aVhis
p1766
aVtrouble
p1767
aVseriously
p1768
aV.
aa(lp1769
Vwhat
p1770
aVcomfort
p1771
aVcould
p1772
aVhe
p1773
aVposibly
p1774
aVneed
p1775
aV?
aa(lp1776
Vwhat
p1777
aVmore
p1778
aVcould
p1779
aVhe
p1780
aVpossibly
p1781
aVwish
p1782
aVfor
p1783
aV?
aa(lp1784
Vand
p1785
aVif
p1786
aVsome
p1787
aVgood-natured
p1788
aVperson
p1789
aV,
aVfeeling
p1790
aVsorry
p1791
aVfor
p1792
aVhim
p1793
aV,
aVtried
p1794
aVto
p1795
aVconsole
p1796
aVhim
p1797
aVby
p1798
aVpointing
p1799
aVout
p1800
aVthat
p1801
aVhis
p1802
aVmelancholy
p1803
aVwas
p1804
aVprobably
p1805
aVcaused
p1806
aVby
p1807
aVfasting
p1808
aV,
aVit
p1809
aVcould
p1810
aVhappen
p1811
aV,
aaa(lp1812
(lp1813
Vas
p1814
aVthe
p1815
aVphotographs
p1816
aVappeared
p1817
aVhe
p1818
aValways
p1819
aVlet
p1820
aVgo
p1821
aVand
p1822
aVsank
p1823
aVwith
p1824
aVa
aVgroan
p1825
aVback
p1826
aVon
p1827
aVto
p1828
aVhis
p1829
aVstraw
p1830
aV,
aVand
p1831
aVthe
p1832
aVreassured
p1833
aVpublic
p1834
aVcould
p1835
aVonce
p1836
aVmore
p1837
aVcome
p1838
aVclose
p1839
aVand
p1840
aVgaze
p1841
aVat
p1842
aVhim
p1843
aV.
aa(lp1844
Va
aVfew
p1845
aVyears
p1846
aVlater
p1847
aVwhen
p1848
aVthe
p1849
aVwitnesses
p1850
aVof
p1851
aVsuch
p1852
aVscenes
p1853
aVcalled
p1854
aVthem
p1855
aVto
p1856
aVmind
p1857
aV,
aVthey
p1858
aVoften
p1859
aVfailed
p1860
aVto
p1861
aVunderstand
p1862
aVthemselves
p1863
aVat
p1864
aVall
p1865
aV.
aa(lp1866
Vfor
p1867
aVmeanwhile
p1868
aVthe
p1869
aVaforementioned
p1870
aVchance
p1871
aVin
p1872
aVpublic
p1873
aVinterest
p1874
aVhad
p1875
aVset
p1876
aVin
p1877
aV;
aVit
p1878
aVseemed
p1879
aVto
p1880
aVhappen
p1881
aValmost
p1882
aVovernight
p1883
aV;
aVthere
p1884
aVmay
p1885
aVhave
p1886
aVbeen
p1887
aVprofound
p1888
aVcauses
p1889
aVfor
p1890
aVit
p1891
aV,
aVbut
p1892
aVwho
p1893
aVwas
p1894
aVgoing
p1895
aVto
p1896
aVbother
p1897
aVabout
p1898
aVthat
p1899
aV;
aVat
p1900
aVany
p1901
aVrate
p1902
aVthe
p1903
aVpampered
p1904
aVhunger
p1905
aVartist
p1906
aVsuddenly
p1907
aVfound
p1908
aVhimself
p1909
aVdeserted
p1910
aVone
p1911
aVfine
p1912
aVday
p1913
aVby
p1914
aVthe
p1915
aVamusement
p1916
aVseekers
p1917
aV,
aVwho
p1918
aVwent
p1919
aVstreaming
p1920
aVpast
p1921
aVhim
p1922
aVto
p1923
aVother
p1924
aVmore
p1925
aVfavored
p1926
aVattractions
p1927
aV.
aa(lp1928
Vfor
p1929
aVthe
p1930
aVlast
p1931
aVtime
p1932
aVthe
p1933
aVimpresario
p1934
aVhurried
p1935
aVhim
p1936
aVover
p1937
aVhalf
p1938
aVeurope
p1939
aVto
p1940
aVdiscover
p1941
aVwhether
p1942
aVthe
p1943
aVold
p1944
aVinterest
p1945
aVmight
p1946
aVstill
p1947
aVsurvive
p1948
aVhere
p1949
aVand
p1950
aVthere
p1951
aV;
aVall
p1952
aVin
p1953
aVvain
p1954
aV;
aVeverywhere
p1955
aV,
aVas
p1956
aVif
p1957
aVby
p1958
aVsecret
p1959
aVagreement
p1960
aV,
aVa
aVpositive
p1961
aVrevulsion
p1962
aVfrom
p1963
aVprofessional
p1964
aVfasting
p1965
aVwas
p1966
aVin
p1967
aVevidence
p1968
aV.
aa(lp1969
Vof
p1970
aVcourse
p1971
aVit
p1972
aVcould
p1973
aVnot
p1974
aVreally
p1975
aVhave
p1976
aVsprung
p1977
aVup
p1978
aVso
p1979
aVsuddenly
p1980
aVas
p1981
aVall
p1982
aVthat
p1983
aV,
aVand
p1984
aVmany
p1985
aVpremonitory
p1986
aVsymptoms
p1987
aVwhich
p1988
aVhad
p1989
aVnot
p1990
aaa(lp1991
(lp1992
Vbeen
p1993
aVsufficiently
p1994
aVremarked
p1995
aVor
p1996
aVsuppressed
p1997
aVduring
p1998
aVthe
p1999
aVrush
p2000
aVand
p2001
aVglitter
p2002
aVof
p2003
aVsuccess
p2004
aVnow
p2005
aVcame
p2006
aVretrospectively
p2007
aVto
p2008
aVmind
p2009
aV,
aVbut
p2010
aVit
p2011
aVwas
p2012
aVnow
p2013
aVtoo
p2014
aVlate
p2015
aVto
p2016
aVtake
p2017
aVany
p2018
aVcountermeasures
p2019
aV.
aa(lp2020
Vfasting
p2021
aVwould
p2022
aVsurely
p2023
aVcome
p2024
aVinto
p2025
aVfashion
p2026
aVagain
p2027
aVat
p2028
aVsome
p2029
aVfuture
p2030
aVdate
p2031
aV,
aVyet
p2032
aVthat
p2033
aVwas
p2034
aVno
p2035
aVcomfort
p2036
aVfor
p2037
aVthose
p2038
aVliving
p2039
aVin
p2040
aVthe
p2041
aVpresent
p2042
aV.
aa(lp2043
Vwhat
p2044
aV,
aVthen
p2045
aV,
aVwas
p2046
aVthe
p2047
aVhunger
p2048
aVartist
p2049
aVto
p2050
aVdo
p2051
aV?
aa(lp2052
Vhe
p2053
aVhad
p2054
aVbeen
p2055
aVapplauded
p2056
aVby
p2057
aVthousands
p2058
aVin
p2059
aVhis
p2060
aVtime
p2061
aVand
p2062
aVcould
p2063
aVhardly
p2064
aVcome
p2065
aVdown
p2066
aVto
p2067
aVshowing
p2068
aVhimself
p2069
aVin
p2070
aVa
aVstreet
p2071
aVbooth
p2072
aVat
p2073
aVvillage
p2074
aVfairs
p2075
aV,
aVand
p2076
aVas
p2077
aVfor
p2078
aVadopting
p2079
aVanother
p2080
aVprofession
p2081
aV,
aVhe
p2082
aVwas
p2083
aVnot
p2084
aVonly
p2085
aVtoo
p2086
aVold
p2087
aVfor
p2088
aVthat
p2089
aVbut
p2090
aVtoo
p2091
aVfanatically
p2092
aVdevoted
p2093
aVto
p2094
aVfasting
p2095
aV.
aa(lp2096
Vso
p2097
aVhe
p2098
aVtook
p2099
aVleave
p2100
aVof
p2101
aVthe
p2102
aVimpresario
p2103
aV,
aVhis
p2104
aVpartner
p2105
aVin
p2106
aVan
p2107
aVunparalleled
p2108
aVcareer
p2109
aV,
aVand
p2110
aVhired
p2111
aVhimself
p2112
aVto
p2113
aVa
aVlarge
p2114
aVcircus
p2115
aV;
aVin
p2116
aVorder
p2117
aVto
p2118
aVspare
p2119
aVhis
p2120
aVown
p2121
aVfeelings
p2122
aVhe
p2123
aVavoided
p2124
aVreading
p2125
aVthe
p2126
aVconditions
p2127
aVof
p2128
aVhis
p2129
aVcontract
p2130
aV.
aa(lp2131
Va
aVlarge
p2132
aVcircus
p2133
aVwith
p2134
aVits
p2135
aVenormous
p2136
aVtraffic
p2137
aVin
p2138
aVreplacin
p2139
aaa(lp2140
(lp2141
Vg
aVand
p2142
aVrecruiting
p2143
aVmen
p2144
aV,
aVanimals
p2145
aVand
p2146
aVapparatus
p2147
aVcan
p2148
aValways
p2149
aVfind
p2150
aVa
aVuse
p2151
aVfor
p2152
aVpeople
p2153
aVat
p2154
aVany
p2155
aVtime
p2156
aV,
aVeven
p2157
aVfor
p2158
aVa
aVhunger
p2159
aVartist
p2160
aV,
aVprovided
p2161
aVof
p2162
aVcourse
p2163
aVthat
p2164
aVhe
p2165
aVdoes
p2166
aVnot
p2167
aVask
p2168
aVtoo
p2169
aVmuch.
p2170
aV,
aVand
p2171
aVin
p2172
aVthis
p2173
aVparticular
p2174
aVcase
p2175
aVanyhow
p2176
aVit
p2177
aVwas
p2178
aVnot
p2179
aVonly
p2180
aVthe
p2181
aVartist
p2182
aVwho
p2183
aVwas
p2184
aVtaken
p2185
aVon
p2186
aVbut
p2187
aVhis
p2188
aVfamous
p2189
aVand
p2190
aVlong-known
p2191
aVname
p2192
aVas
p2193
aVwell
p2194
aV,
aVindeed
p2195
aVconsidering
p2196
aVthe
p2197
aVpeculiar
p2198
aVnature
p2199
aVof
p2200
aVhis
p2201
aVperformance
p2202
aV,
aVwhich
p2203
aVwas
p2204
aVnot
p2205
aVimparired
p2206
aVby
p2207
aVadvancing
p2208
aVage
p2209
aV,
aVit
p2210
aVcould
p2211
aVnot
p2212
aVbe
p2213
aVobjected
p2214
aVthat
p2215
aVhere
p2216
aVwas
p2217
aVan
p2218
aVartist
p2219
aVpast
p2220
aVhis
p2221
aVprime
p2222
aV,
aVno
p2223
aVlonger
p2224
aVat
p2225
aVthe
p2226
aVheight
p2227
aVof
p2228
aVhis
p2229
aVprofessional
p2230
aVskill
p2231
aV,
aVseking
p2232
aVa
aVrefuge
p2233
aVin
p2234
aVsome
p2235
aVquiet
p2236
aVcorner
p2237
aVof
p2238
aVa
aVcircus
p2239
aV,
aVon
p2240
aVthe
p2241
aVcontrary
p2242
aV,
aVthe
p2243
aVhunger
p2244
aVartist
p2245
aVaverred
p2246
aVthat
p2247
aVhe
p2248
aVcould
p2249
aaa(lp2250
(lp2251
Vfast
p2252
aVas
p2253
aVwell
p2254
aVas
p2255
aVever
p2256
aV,
aVwhich
p2257
aVwas
p2258
aVentirely
p2259
aVcredible
p2260
aV,
aVhe
p2261
aVeven
p2262
aValleged
p2263
aVthat
p2264
aVif
p2265
aVhe
p2266
aVwere
p2267
aVallowed
p2268
aVto
p2269
aVfast
p2270
aVas
p2271
aVhe
p2272
aVliked
p2273
aV,
aVand
p2274
aVthis
p2275
aVwas
p2276
aVat
p2277
aVonce
p2278
aVpromised
p2279
aVhim
p2280
aVwithout
p2281
aVmore
p2282
aVado
p2283
aV,
aVhe
p2284
aVcould
p2285
aVastound
p2286
aVthe
p2287
aVworld
p2288
aVby
p2289
aVestablishing
p2290
aVa
aVrecord
p2291
aVnever
p2292
aVyet
p2293
aVachieved
p2294
aV,
aVa
aVstatement
p2295
aVwhich
p2296
aVcertainly
p2297
aVprovoked
p2298
aVa
aVsmile
p2299
aVamong
p2300
aVthe
p2301
aVother
p2302
aVprofessionals
p2303
aV,
aVsince
p2304
aVit
p2305
aVwas
p2306
aVleft
p2307
aVout
p2308
aVof
p2309
aVaccount
p2310
aVthe
p2311
aVchange
p2312
aVin
p2313
aVpublic
p2314
aVopinion
p2315
aV,
aVwhich
p2316
aVthe
p2317
aVhunger
p2318
aVartist
p2319
aVin
p2320
aVhis
p2321
aVzeal
p2322
aVconveniently
p2323
aVforgot
p2324
aV.
aa(lp2325
Vhe
p2326
aVhad
p2327
aVnot
p2328
aV,
aVhowever
p2329
aV,
aVactually
p2330
aVlost
p2331
aVhis
p2332
aVsense
p2333
aVof
p2334
aVthe
p2335
aVreal
p2336
aVsituation
p2337
aVand
p2338
aVtook
p2339
aVit
p2340
aVas
p2341
aVa
aVmatter
p2342
aVof
p2343
aVcourse
p2344
aVthat
p2345
aVhe
p2346
aVand
p2347
aVhis
p2348
aVcage
p2349
aVshould
p2350
aVbe
p2351
aVstationed
p2352
aV,
aVnot
p2353
aVin
p2354
aVthe
p2355
aVmiddle
p2356
aVof
p2357
aVthe
p2358
aVring
p2359
aVas
p2360
aVa
aVmain
p2361
aVattraction
p2362
aV,
aVbut
p2363
aVoutside
p2364
aV,
aVnear
p2365
aVthe
p2366
aVanimal
p2367
aVcages
p2368
aV,
aVon
p2369
aVa
aVsite
p2370
aVthat
p2371
aVwas
p2372
aVafter
p2373
aVall
p2374
aVeasily
p2375
aVaccessible
p2376
aV.
aa(lp2377
Vlarge
p2378
aVand
p2379
aVgaily
p2380
aVpainted
p2381
aVplacards
p2382
aVmade
p2383
aVa
aVframe
p2384
aVfor
p2385
aVthe
p2386
aVcage
p2387
aVand
p2388
aVannounced
p2389
aVwhat
p2390
aVwas
p2391
aVto
p2392
aVbe
p2393
aVseen
p2394
aVinside
p2395
aVit
p2396
aV.
aa(lp2397
Vwhen
p2398
aVthe
p2399
aVpublic
p2400
aVcame
p2401
aVthronging
p2402
aVout
p2403
aVin
p2404
aVthe
p2405
aVintervals
p2406
aVto
p2407
aVsee
p2408
aVthe
p2409
aVanimals
p2410
aV,
aVthey
p2411
aVcould
p2412
aaa(lp2413
(lp2414
Vharly
p2415
aVavoid
p2416
aVpassing
p2417
aVthe
p2418
aVhunger
p2419
aVartist
p2420
aV's
p2421
aVcage
p2422
aVand
p2423
aVstopping
p2424
aVthere
p2425
aVa
aVmoment
p2426
aV,
aVperhaps
p2427
aVthey
p2428
aVmight
p2429
aVeven
p2430
aVhave
p2431
aVstayed
p2432
aVlonger
p2433
aVhad
p2434
aVnot
p2435
aVthose
p2436
aVpressing
p2437
aVbehind
p2438
aVthem
p2439
aVin
p2440
aVthe
p2441
aVnarrow
p2442
aVgangway
p2443
aV,
aVwho
p2444
aVdid
p2445
aVnot
p2446
aVunderstand
p2447
aVwhy
p2448
aVthey
p2449
aVshould
p2450
aVbe
p2451
aVheld
p2452
aVup
p2453
aVon
p2454
aVtheir
p2455
aVway
p2456
aVtowards
p2457
aVthe
p2458
aVexcitements
p2459
aVof
p2460
aVthe
p2461
aVmenagerie
p2462
aV,
aVmade
p2463
aVit
p2464
aVimpossible
p2465
aVfor
p2466
aVanyone
p2467
aVto
p2468
aVstand
p2469
aVgazing
p2470
aVquietly
p2471
aVfor
p2472
aVany
p2473
aVlength
p2474
aVof
p2475
aVtime
p2476
aV.
aa(lp2477
Vand
p2478
aVthat
p2479
aVwas
p2480
aVthe
p2481
aVreason
p2482
aVwhy
p2483
aVthe
p2484
aVhunger
p2485
aVartist
p2486
aV,
aVwho
p2487
aVhad
p2488
aVof
p2489
aVcourse
p2490
aVbeen
p2491
aVlooking
p2492
aVforward
p2493
aVto
p2494
aVthese
p2495
aVvisiting
p2496
aVhours
p2497
aVas
p2498
aVthe
p2499
aVmain
p2500
aVachievement
p2501
aVof
p2502
aVhis
p2503
aVlife
p2504
aV,
aVbegan
p2505
aVinstead
p2506
aVto
p2507
aVshrink
p2508
aVfrom
p2509
aVthem
p2510
aV.
aa(lp2511
Vat
p2512
aVfirst
p2513
aVhe
p2514
aVcould
p2515
aVhardly
p2516
aVwait
p2517
aVfor
p2518
aVthe
p2519
aVintervals
p2520
aV;
aVit
p2521
aVwas
p2522
aVexhilirating
p2523
aVto
p2524
aVwatch
p2525
aVthe
p2526
aVcrowds
p2527
aVcome
p2528
aVstreaming
p2529
aVhis
p2530
aVway
p2531
aV,
aVuntil
p2532
aVonly
p2533
aVtoo
p2534
aVsoon
p2535
aV--
p2536
aVnot
p2537
aVeven
p2538
aVthe
p2539
aVmost
p2540
aVobstinante
p2541
aVself-deception
p2542
aV,
aVclung
p2543
aVto
p2544
aValmost
p2545
aVconsciously
p2546
aV,
aVcould
p2547
aVhold
p2548
aVout
p2549
aVagainst
p2550
aVthe
p2551
aVfact
p2552
aV--
p2553
aVthe
p2554
aVconviction
p2555
aVwas
p2556
aVborne
p2557
aVin
p2558
aVupon
p2559
aVhim
p2560
aVthat
p2561
aVthese
p2562
aVpeople
p2563
aV,
aVmost
p2564
aVof
p2565
aVthem
p2566
aV,
aVto
p2567
aVjudge
p2568
aVfrom
p2569
aVtheir
p2570
aVactions
p2571
aV,
aVagain
p2572
aVand
p2573
aVagain
p2574
aV,
aVwithou
p2575
aaa(lp2576
(lp2577
V-assertiveness
p2578
aV,
aVand
p2579
aVthose
p2580
aVwho
p2581
aVwanted
p2582
aVto
p2583
aVgo
p2584
aVstraight
p2585
aVon
p2586
aVto
p2587
aVthe
p2588
aVanimals
p2589
aV.
aa(lp2590
Vwhen
p2591
aVthe
p2592
aVfirst
p2593
aVgreat
p2594
aVrush
p2595
aVwas
p2596
aVpast
p2597
aV,
aVthe
p2598
aVstragglers
p2599
aVcame
p2600
aValong
p2601
aV,
aVand
p2602
aVthese
p2603
aV,
aVwhom
p2604
aVnothing
p2605
aVcould
p2606
aVhave
p2607
aVprevented
p2608
aVfrom
p2609
aVstopping
p2610
aVto
p2611
aVlook
p2612
aVat
p2613
aVhim
p2614
aVas
p2615
aVlong
p2616
aVas
p2617
aVthey
p2618
aVhad
p2619
aVbreath
p2620
aV,
aVraced
p2621
aVpast
p2622
aVwith
p2623
aVlong
p2624
aVstrides
p2625
aV,
aVhardly
p2626
aVeven
p2627
aVglancing
p2628
aVat
p2629
aVhim
p2630
aV,
aVin
p2631
aVtheir
p2632
aVhaste
p2633
aVto
p2634
aVget
p2635
aVto
p2636
aVthe
p2637
aVmenagerie
p2638
aVin
p2639
aVtime
p2640
aV.
aa(lp2641
Vand
p2642
aVall
p2643
aVtoo
p2644
aVrarely
p2645
aVdid
p2646
aVit
p2647
aVhappen
p2648
aVthat
p2649
aVhe
p2650
aVhad
p2651
aVa
aVstroke
p2652
aVof
p2653
aVluck
p2654
aV,
aVwhen
p2655
aVsome
p2656
aVfather
p2657
aVof
p2658
aVa
aVfamily
p2659
aVfetched
p2660
aVup
p2661
aVbefore
p2662
aVhim
p2663
aVwith
p2664
aVhis
p2665
aVchildren
p2666
aV,
aVpointed
p2667
aVa
aVfinger
p2668
aVat
p2669
aVthe
p2670
aVhunger
p2671
aVartist
p2672
aVand
p2673
aVexplained
p2674
aVat
p2675
aVlength
p2676
aVwhat
p2677
aVthe
p2678
aVphenomenon
p2679
aVmeant
p2680
aV,
aVtelling
p2681
aVstoried
p2682
aVof
p2683
aVearlier
p2684
aVyears
p2685
aVwhen
p2686
aVhe
p2687
aVhimself
p2688
aVhad
p2689
aVwatched
p2690
aVsimilar
p2691
aVbut
p2692
aVmuch
p2693
aVmore
p2694
aVthrilling
p2695
aVperformances
p2696
aV,
aVand
p2697
aVthe
p2698
aVchildren
p2699
aV,
aVstill
p2700
aVrather
p2701
aVuncomprehending
p2702
aV,
aVsince
p2703
aVneither
p2704
aVinside
p2705
aVnor
p2706
aVoutside
p2707
aVshcool
p2708
aVhad
p2709
aVthey
p2710
aVbeen
p2711
aVsufficiently
p2712
aVprepared
p2713
aVfor
p2714
aVthis
p2715
aVlesson
p2716
aV--
p2717
aVwhat
p2718
aVdid
p2719
aVthey
p2720
aVcare
p2721
aVabout
p2722
aVfasting
p2723
aV?
aV--
p2724
aVyet
p2725
aVshowed
p2726
aVby
p2727
aVthe
p2728
aVbrightnes
p2729
aVof
p2730
aVtheir
p2731
aVintent
p2732
aVeyes
p2733
aVthat
p2734
aVnew
p2735
aVand
p2736
aVbetter
p2737
aVtimes
p2738
aVmight
p2739
aVbe
p2740
aVcoming
p2741
aV.
aa(lp2742
Vperhaps
p2743
aV,
aVsaid
p2744
aVthe
p2745
aVhunger
p2746
aVartist
p2747
aVto
p2748
aVhimself
p2749
aVmany
p2750
aVa
aVtime
p2751
aV,
aVthings
p2752
aVcould
p2753
aVbe
p2754
aVa
aaa(lp2755
(lp2756
Vnk
p2757
aVfor
p2758
aVthe
p2759
aVtroops
p2760
aVof
p2761
aVpeople
p2762
aVwho
p2763
aVpassed
p2764
aVhis
p2765
aVcage
p2766
aV,
aVamong
p2767
aVwhom
p2768
aVthere
p2769
aVmight
p2770
aValways
p2771
aVbe
p2772
aVone
p2773
aVhere
p2774
aVand
p2775
aVthere
p2776
aVto
p2777
aVtake
p2778
aVan
p2779
aVinterest
p2780
aVin
p2781
aVhim
p2782
aV,
aVand
p2783
aVwho
p2784
aVcould
p2785
aVtell
p2786
aVwhere
p2787
aVthey
p2788
aVmight
p2789
aVseclude
p2790
aVhim
p2791
aVif
p2792
aVhe
p2793
aVcalled
p2794
aVattention
p2795
aVto
p2796
aVhis
p2797
aVexistence
p2798
aVand
p2799
aVthereby
p2800
aVto
p2801
aVthe
p2802
aVfact
p2803
aVthat
p2804
aV,
aVstrictly
p2805
aVspeaking
p2806
aV,
aVhe
p2807
aVwas
p2808
aVonly
p2809
aVan
p2810
aVimpediment
p2811
aVon
p2812
aVthe
p2813
aVwat
p2814
aVto
p2815
aVthe
p2816
aVmenagerie
p2817
aV.
aa(lp2818
Va
aVsmall
p2819
aVimpediment
p2820
aV,
aVto
p2821
aVbe
p2822
aVsure
p2823
aV,
aVone
p2824
aVthat
p2825
aVgrew
p2826
aVsteadily
p2827
aVless
p2828
aV.
aa(lp2829
Vpeople
p2830
aVgrew
p2831
aVfamiliar
p2832
aVwith
p2833
aVthe
p2834
aVstrange
p2835
aVidea
p2836
aVthat
p2837
aVthey
p2838
aVcould
p2839
aVbe
p2840
aVexpected
p2841
aV,
aVin
p2842
aVtimes
p2843
aVlike
p2844
aVthese
p2845
aV,
aVto
p2846
aVtake
p2847
aVan
p2848
aVinterest
p2849
aVin
p2850
aVa
aVhunger
p2851
aVartist
p2852
aV,
aVand
p2853
aVwith
p2854
aVthis
p2855
aVfamiliarity
p2856
aVthe
p2857
aVverdict
p2858
aVwent
p2859
aVout
p2860
aVagainst
p2861
aVhim
p2862
aV.
aa(lp2863
Vhe
p2864
aVmight
p2865
aVfast
p2866
aVas
p2867
aVmuch
p2868
aVas
p2869
aVhe
p2870
aVcould
p2871
aV,
aVand
p2872
aVhe
p2873
aVdid
p2874
aVso
p2875
aV;
aVbut
p2876
aVnothing
p2877
aVcould
p2878
aVsave
p2879
aVhim
p2880
aVnow
p2881
aV,
aVpeople
p2882
aVpassed
p2883
aVhim
p2884
aVby
p2885
aV.
aa(lp2886
Vjust
p2887
aVtry
p2888
aVto
p2889
aVexplain
p2890
aVto
p2891
aVanyone
p2892
aVthe
p2893
aVart
p2894
aVof
p2895
aVfasting
p2896
aV!
aa(lp2897
Vanyone
p2898
aVwho
p2899
aVhas
p2900
aVno
p2901
aVfeeling
p2902
aVfor
p2903
aVit
p2904
aVcan
p2905
aVnot
p2906
aVbe
p2907
aVmade
p2908
aVto
p2909
aVunderstand
p2910
aVit
p2911
aV.
aa(lp2912
Vthe
p2913
aVfine
p2914
aVplacards
p2915
aVgrew
p2916
aVdirty
p2917
aVand
p2918
aVillegible
p2919
aV,
aVthey
p2920
aVwere
p2921
aVtorn
p2922
aVdown
p2923
aV;
aVthe
p2924
aVlittle
p2925
aVnotice
p2926
aVboard
p2927
aVtelling
p2928
aVthe
p2929
aVnumber
p2930
aVof
p2931
aVfast
p2932
aVdays
p2933
aVachieved
p2934
aV,
aVwhich
p2935
aVat
p2936
aVfirst
p2937
aVwas
p2938
aVchanged
p2939
aVcarefully
p2940
aVevery
p2941
aVday
p2942
aV,
aVhad
p2943
aVlong
p2944
aVstayed
p2945
aVat
p2946
aVthe
p2947
aVsame
p2948
aVfigure
p2949
aV,
aVfor
p2950
aaa(lp2951
(lp2952
Vhe
p2953
aVartist
p2954
aVsimply
p2955
aVfasted
p2956
aVon
p2957
aVand
p2958
aVon
p2959
aV,
aVas
p2960
aVhe
p2961
aVhad
p2962
aVonce
p2963
aVdreamed
p2964
aVof
p2965
aVdoing
p2966
aV,
aVand
p2967
aVit
p2968
aVwas
p2969
aVno
p2970
aVtrouble
p2971
aVto
p2972
aVhim
p2973
aV,
aVjust
p2974
aVas
p2975
aVhe
p2976
aVhad
p2977
aValways
p2978
aVforetold
p2979
aV,
aVbut
p2980
aVno
p2981
aVone
p2982
aVcounted
p2983
aVthe
p2984
aVdays
p2985
aV,
aVnot
p2986
aVone
p2987
aV,
aVnot
p2988
aVeven
p2989
aVthe
p2990
aVartist
p2991
aVhimself
p2992
aV,
aVknew
p2993
aVwhat
p2994
aVrecords
p2995
aVhe
p2996
aVwas
p2997
aValready
p2998
aVbreaking
p2999
aV,
aVand
p3000
aVhis
p3001
aVheart
p3002
aVgrew
p3003
aVheavy
p3004
aV.
aa(lp3005
Vand
p3006
aVwhen
p3007
aVonce
p3008
aVin
p3009
aVa
aVtime
p3010
aVsome
p3011
aVleisurely
p3012
aVpasser-by
p3013
aVstopped
p3014
aV,
aVmade
p3015
aVmerry
p3016
aVover
p3017
aVthe
p3018
aVold
p3019
aVfigure
p3020
aVon
p3021
aVthe
p3022
aVboard
p3023
aVand
p3024
aVspoke
p3025
aVof
p3026
aVswindling
p3027
aV,
aVthat
p3028
aVwas
p3029
aVin
p3030
aVits
p3031
aVway
p3032
aVthe
p3033
aVstupidest
p3034
aVlie
p3035
aVever
p3036
aVinvented
p3037
aVby
p3038
aVindifference
p3039
aVand
p3040
aVinborn
p3041
aVmalice
p3042
aV,
aVsince
p3043
aVit
p3044
aVwas
p3045
aVnot
p3046
aVthe
p3047
aVhunger
p3048
aVartist
p3049
aVwho
p3050
aVwas
p3051
aVcheating
p3052
aV,
aVhe
p3053
aVwas
p3054
aVworking
p3055
aVhonestly
p3056
aV,
aVbut
p3057
aVthe
p3058
aVworld
p3059
aVwho
p3060
aVwas
p3061
aVcheating
p3062
aVhim
p3063
aVof
p3064
aVhis
p3065
aVreward
p3066
aV.
aa(lp3067
Vmany
p3068
aVmore
p3069
aVdays
p3070
aVwent
p3071
aVby
p3072
aV,
aVhowever
p3073
aV,
aVand
p3074
aVthat
p3075
aVtoo
p3076
aVcame
p3077
aVto
p3078
aVan
p3079
aVend
p3080
aV.
aa(lp3081
Van
p3082
aVoverseer
p3083
aV's
p3084
aVeye
p3085
aVfell
p3086
aVon
p3087
aVthe
p3088
aVcage
p3089
aVone
p3090
aVday
p3091
aVand
p3092
aVhe
p3093
aVasked
p3094
aVthe
p3095
aVattendants
p3096
aVwhy
p3097
aVthis
p3098
aVperfectly
p3099
aVgood
p3100
aVcage
p3101
aVshould
p3102
aVbe
p3103
aVleft
p3104
aVstanding
p3105
aVthere
p3106
aVunused
p3107
aVwith
p3108
aVdirty
p3109
aVstraw
p3110
aVinside
p3111
aVit
p3112
aV;
aVnobody
p3113
aVknew
p3114
aV,
aVuntil
p3115
aVone
p3116
aVman
p3117
aV,
aVhelped
p3118
aVout
p3119
aVby
p3120
aVthe
p3121
aVnotice
p3122
aVboard
p3123
aV,
aVremembered
p3124
aVabout
p3125
aVthe
p3126
aVhunger
p3127
aVartist
p3128
aV.
aa(lp3129
Vthey
p3130
aVpoked
p3131
aVinto
p3132
aVthe
p3133
aVstraw
p3134
aVwith
p3135
aVsticks
p3136
aVand
p3137
aVfound
p3138
aVhim
p3139
aVin
p3140
aVit
p3141
aV.
aa(lp3142
V``
p3143
aVare
p3144
aVyou
p3145
aVstill
p3146
aVfasting
p3147
aV?
aV''
p3148
aaa(lp3149
(lp3150
Vasked
p3151
aVthe
p3152
aVoverseer
p3153
aV,
aV``
p3154
aVwhen
p3155
aVon
p3156
aVearth
p3157
aVdo
p3158
aVyou
p3159
aVmean
p3160
aVto
p3161
aVstop
p3162
aV?
aV''
p3163
aa(lp3164
V``
p3165
aVforgive
p3166
aVme
p3167
aV,
aVeverybody
p3168
aV,
aV''
p3169
aVwhispered
p3170
aVthe
p3171
aVhunger
p3172
aVartist
p3173
aV,
aVonly
p3174
aVthe
p3175
aVoverseer
p3176
aV,
aVwho
p3177
aVhad
p3178
aVhis
p3179
aVear
p3180
aVto
p3181
aVthe
p3182
aVbars
p3183
aV,
aVunderstood
p3184
aVhim
p3185
aV.
aa(lp3186
V``
p3187
aVof
p3188
aVcourse
p3189
aV,
aV''
p3190
aVsaid
p3191
aVthe
p3192
aVoverseer
p3193
aV,
aVand
p3194
aVtapped
p3195
aVhis
p3196
aVforehead
p3197
aVwith
p3198
aVa
aVfinger
p3199
aVto
p3200
aVlet
p3201
aVthe
p3202
aVattendants
p3203
aVknow
p3204
aVwhat
p3205
aVstate
p3206
aVthe
p3207
aVman
p3208
aVwas
p3209
aVin
p3210
aV,
aV``
p3211
aVwe
p3212
aVforgive
p3213
aVyou
p3214
aV.
aV''
p3215
aa(lp3216
V``
p3217
aVi
aValways
p3218
aVwanted
p3219
aVyou
p3220
aVto
p3221
aVadmire
p3222
aVmy
p3223
aVfasting
p3224
aV,
aV''
p3225
aVsaid
p3226
aVthe
p3227
aVhunger
p3228
aVartist
p3229
aV.
aa(lp3230
V``
p3231
aVwe
p3232
aVdo
p3233
aVadmire
p3234
aVit
p3235
aV,
aV''
p3236
aVsaid
p3237
aVthe
p3238
aVoverseer
p3239
aV,
aVaffably
p3240
aV.
aa(lp3241
V``
p3242
aVbut
p3243
aVyou
p3244
aVshould
p3245
aVn't
p3246
aVadmire
p3247
aVit
p3248
aV,
aV''
p3249
aVsaid
p3250
aVthe
p3251
aVhunger
p3252
aVartist
p3253
aV.
aa(lp3254
V``
p3255
aVwell
p3256
aVthen
p3257
aVwe
p3258
aVdo
p3259
aVn't
p3260
aVadmire
p3261
aVit
p3262
aV,
aV''
p3263
aVsaid
p3264
aVthe
p3265
aVoverseer
p3266
aV,
aV``
p3267
aVbut
p3268
aVwhy
p3269
aVshould
p3270
aVn't
p3271
aVwe
p3272
aVadmire
p3273
aVit
p3274
aV?
aV''
p3275
aa(lp3276
V``
p3277
aVbecause
p3278
aVi
aVhave
p3279
aVto
p3280
aVfast
p3281
aV,
aVi
aVca
p3282
aVn't
p3283
aVhelp
p3284
aVit
p3285
aV,
aV''
p3286
aVsaid
p3287
aVthe
p3288
aVhunger
p3289
aVartist
p3290
aV.
aa(lp3291
V``
p3292
aVwhat
p3293
aVa
aVfellow
p3294
aVyou
p3295
aVare
p3296
aV,
aV''
p3297
aVsaid
p3298
aVthe
p3299
aVoverseer
p3300
aV,
aV``
p3301
aVand
p3302
aVwhy
p3303
aVca
p3304
aVn't
p3305
aVyou
p3306
aVhelp
p3307
aVit
p3308
aV?
aV''
p3309
aa(lp3310
V``
p3311
aVbecause
p3312
aV,
aV''
p3313
aVsaid
p3314
aVthe
p3315
aVhunger
p3316
aVartist
p3317
aV,
aVlifting
p3318
aVhis
p3319
aVhead
p3320
aVa
aVlittle
p3321
aVand
p3322
aVspeaking
p3323
aV,
aVwith
p3324
aVhis
p3325
aVlips
p3326
aVpursed
p3327
aV,
aVas
p3328
aVif
p3329
aVfor
p3330
aVa
aVkiss
p3331
aV,
aVright
p3332
aVinto
p3333
aVthe
p3334
aVoverseer
p3335
aV's
p3336
aVear
p3337
aV,
aVso
p3338
aVthat
p3339
aVno
p3340
aVsyllable
p3341
aVmight
p3342
aVbe
p3343
aVlost
p3344
aV,
aV``
p3345
aVbecause
p3346
aVi
aVcould
p3347
aVn't
p3348
aVfind
p3349
aVthe
p3350
aVfood
p3351
aVi
aVliked
p3352
aV.
aa(lp3353
Vif
p3354
aVi
aVhad
p3355
aVfound
p3356
aVit
p3357
aV,
aVbelieve
p3358
aVme
p3359
aV,
aVi
aVshould
p3360
aVhave
p3361
aVmade
p3362
aaa(lp3363
(lp3364
Vno
p3365
aVfuss
p3366
aVand
p3367
aVstuffed
p3368
aVmyself
p3369
aVlike
p3370
aVyou
p3371
aVor
p3372
aVanyone
p3373
aVelse
p3374
aV.
aV''
p3375
aa(lp3376
Vthese
p3377
aVwere
p3378
aVhis
p3379
aVlast
p3380
aVwords
p3381
aV,
aVbut
p3382
aVin
p3383
aVhis
p3384
aVdimming
p3385
aVeyes
p3386
aVremained
p3387
aVthe
p3388
aVfirm
p3389
aVthough
p3390
aVno
p3391
aVlonger
p3392
aVproud
p3393
aVpersuasion
p3394
aVthat
p3395
aVhe
p3396
aVwas
p3397
aVcontinuing
p3398
aVto
p3399
aVfast
p3400
aV.
aa(lp3401
V``
p3402
aVwell
p3403
aV,
aVclear
p3404
aVthis
p3405
aVout
p3406
aVnow
p3407
aV!
aV''
p3408
aa(lp3409
Vsaid
p3410
aVthe
p3411
aVoverseer
p3412
aV,
aVand
p3413
aVthey
p3414
aVburied
p3415
aVthe
p3416
aVhunger
p3417
aVartist
p3418
aV,
aVstraw
p3419
aVand
p3420
aVall
p3421
aV.
aa(lp3422
Vinto
p3423
aVthe
p3424
aVcage
p3425
aVthey
p3426
aVput
p3427
aVa
aVyoung
p3428
aVpanther
p3429
aV.
aa(lp3430
Veven
p3431
aVthe
p3432
aVmost
p3433
aVinsensitive
p3434
aVfelt
p3435
aVit
p3436
aVrefreshing
p3437
aVto
p3438
aVsee
p3439
aVthis
p3440
aVwild
p3441
aVcreature
p3442
aVleaping
p3443
aVaround
p3444
aVthe
p3445
aVcage
p3446
aVthat
p3447
aVhad
p3448
aVso
p3449
aVlong
p3450
aVbeen
p3451
aVdreary
p3452
aV.
aa(lp3453
Vthe
p3454
aVpanther
p3455
aVwas
p3456
aVall
p3457
aVright
p3458
aV.
aa(lp3459
Vthe
p3460
aVfood
p3461
aVhe
p3462
aVliked
p3463
aVwas
p3464
aVbrought
p3465
aVhim
p3466
aVwithout
p3467
aVhesitation
p3468
aVby
p3469
aVthe
p3470
aVattendants
p3471
aV;
aVhe
p3472
aVseemed
p3473
aVnot
p3474
aVeven
p3475
aVto
p3476
aVmiss
p3477
aVhis
p3478
aVfreedom
p3479
aV;
aVhis
p3480
aVnoble
p3481
aVbody
p3482
aV,
aVfurnished
p3483
aValmost
p3484
aVto
p3485
aVthe
p3486
aVbursting
p3487
aVpoint
p3488
aVwith
p3489
aVall
p3490
aVthat
p3491
aVit
p3492
aVneeded
p3493
aV,
aVseemed
p3494
aVto
p3495
aVcarry
p3496
aVfreedom
p3497
aVaround
p3498
aVwith
p3499
aVit
p3500
aVtoo
p3501
aV;
aVsomewhere
p3502
aVin
p3503
aVhis
p3504
aVjaws
p3505
aVit
p3506
aVseemed
p3507
aVto
p3508
aVlurk
p3509
aV;
aVand
p3510
aVthe
p3511
aVjoy
p3512
aVof
p3513
aaasg603
(lp3514
(lp3515
Vthe
p3516
aV[
aVCHARACTER
p3517
aV]
aVthe
p3518
aVkey
p3519
aVto
p3520
aVthe
p3521
aV[
aVCHARACTER
p3522
aV]
aV's
p3523
aVcharacter
p3524
aVlies
p3525
aVin
p3526
aVhis
p3527
aVidentity
p3528
aVas
p3529
aVa
aVprofessional
p3530
aVfaster
p3531
aV,
aVand
p3532
aVat
p3533
aVthe
p3534
aVcenter
p3535
aVof
p3536
aVhis
p3537
aVdedication
p3538
aVto
p3539
aVthe
p3540
aVperfection
p3541
aVof
p3542
aVhis
p3543
aVart
p3544
aVis
p3545
aVhis
p3546
aVambition
p3547
aVto
p3548
aVachieve
p3549
aVsomething
p3550
aVthat
p3551
aVno
p3552
aVone
p3553
aVhas
p3554
aVever
p3555
aVachieved
p3556
aVbefore
p3557
aV.
aa(lp3558
Vthe
p3559
aVhunger
p3560
aVthat
p3561
aVthe
p3562
aV[
aVCHARACTER
p3563
aV]
aVwillfully
p3564
aVendures
p3565
aVhas
p3566
aVa
aVdouble
p3567
aVmeaning
p3568
aV:
aVit
p3569
aVrefers
p3570
aVto
p3571
aVhis
p3572
aVvocation
p3573
aVof
p3574
aVfasting
p3575
aVas
p3576
aVwell
p3577
aVas
p3578
aVhis
p3579
aVinsatiable
p3580
aVyearning
p3581
aVto
p3582
aVdefy
p3583
aVhuman
p3584
aVimagination
p3585
aVby
p3586
aVfasting
p3587
aVindefinitely
p3588
aV.
aa(lp3589
Vdriven
p3590
aVto
p3591
aVrenounce
p3592
aVthe
p3593
aVnourishment
p3594
aVthat
p3595
aVthe
p3596
aVrest
p3597
aVof
p3598
aVhumanity
p3599
aVembraces
p3600
aV,
aVthe
p3601
aV[
aVCHARACTER
p3602
aV]
aVliterally
p3603
aVlives
p3604
aVin
p3605
aVself-denial
p3606
aV,
aVforsaking
p3607
aVcomfort
p3608
aV,
aVcompanionship
p3609
aV,
aVand
p3610
aV,
aVmost
p3611
aVimportant
p3612
aV,
aVfood
p3613
aV,
aVall
p3614
aVof
p3615
aVwhich
p3616
aVare
p3617
aVnecessary
p3618
aVto
p3619
aVsurvival
p3620
aV.
aa(lp3621
Vthus
p3622
aV,
aVthe
p3623
aV[
aVCHARACTER
p3624
aV]
aV's
p3625
aVdevotion
p3626
aVto
p3627
aVhis
p3628
aVart
p3629
aVconstitutes
p3630
aVa
aVthinly
p3631
aVmasked
p3632
aVdeath
p3633
aVwish
p3634
aV.
aa(lp3635
Vunwilling
p3636
aVto
p3637
aVrespond
p3638
aVto
p3639
aVthe
p3640
aVneeds
p3641
aVhe
p3642
aVhas
p3643
aVas
p3644
aVa
aVhuman
p3645
aVbeing
p3646
aV,
aVlet
p3647
aValone
p3648
aVas
p3649
aVa
aVliving
p3650
aVthing
p3651
aV,
aVthe
p3652
aV[
aVCHARACTER
p3653
aV]
aVmakes
p3654
aVdeath
p3655
aVthe
p3656
aVculmination
p3657
aVof
p3658
aVhis
p3659
aVlife
p3660
aV's
p3661
aVwork
p3662
aV.
aa(lp3663
Vthe
p3664
aV[
aVCHARACTER
p3665
aV]
aVis
p3666
aVdoomed
p3667
aVto
p3668
aVbe
p3669
aVunhappy
p3670
aVbecause
p3671
aVhe
p3672
aVdepends
p3673
aVon
p3674
aVothers
p3675
aV'
aVunderstanding
p3676
aVto
p3677
aVvalidate
p3678
aVhis
p3679
aVperformance
p3680
aV,
aVwhich
p3681
aVis
p3682
aV,
aVby
p3683
aVhis
p3684
aVown
p3685
aVdescription
p3686
aV,
aV``
p3687
aVbeyond
p3688
aVhuman
p3689
aVimagination
p3690
aV.
aV''
p3691
aa(lp3692
Vhe
p3693
aVfeels
p3694
aVdeep
p3695
aVdisdain
p3696
aVfor
p3697
aVhis
p3698
aVspectators
p3699
aV,
aVbut
p3700
aVbecause
p3701
aVthe
p3702
aVnature
p3703
aVof
p3704
aVperformance
p3705
aVart
p3706
aVrequires
p3707
aVspectators
p3708
aV,
aVthe
p3709
aV[
aVCHARACTER
p3710
aV]
aVis
p3711
aVtied
p3712
aVto
p3713
aVthe
p3714
aVpeople
p3715
aVhe
p3716
aVseeks
p3717
aVto
p3718
aVevade
p3719
aV.
aa(lp3720
Vhe
p3721
aVis
p3722
aV,
aVin
p3723
aVa
aVsense
p3724
aV,
aVa
aVmisfit
p3725
aVin
p3726
aVa
aVshowman
p3727
aV's
p3728
aVposition
p3729
aV,
aVand
p3730
aVhe
p3731
aVcomes
p3732
aVto
p3733
aVdepend
p3734
aVon
p3735
aVthe
p3736
aVpraise
p3737
aVand
p3738
aVwide-eyed
p3739
aVamazement
p3740
aVof
p3741
aVhis
p3742
aVspectators
p3743
aVas
p3744
aVif
p3745
aVthey
p3746
aVthemselves
p3747
aVwere
p3748
aVthe
p3749
aVfood
p3750
aVof
p3751
aVlife
p3752
aV.
aa(lp3753
Vwhen
p3754
aVhe
p3755
aVexperiences
p3756
aVtheir
p3757
aVsuspicion
p3758
aV,
aVcynicism
p3759
aV,
aVand
p3760
aVindifference
p3761
aV,
aVhe
p3762
aVbecomes
p3763
aVfrustrated
p3764
aV,
aVunable
p3765
aVto
p3766
aVunderstand
p3767
aVthat
p3768
aVbeing
p3769
aVan
p3770
aVartist
p3771
aVoften
p3772
aVmeans
p3773
aVbeing
p3774
aValienated
p3775
aVfrom
p3776
aVothers
p3777
aV.
aa(lp3778
Vonly
p3779
aVat
p3780
aVthe
p3781
aVend
p3782
aVof
p3783
aVhis
p3784
aVlife
p3785
aVdoes
p3786
aVthe
p3787
aV[
aVCHARACTER
p3788
aV]
aVseem
p3789
aVto
p3790
aVapproach
p3791
aVan
p3792
aVunderstanding
p3793
aVof
p3794
aVthe
p3795
aVparadox
p3796
aVthat
p3797
aVdefines
p3798
aVhis
p3799
aVexistence
p3800
aV.
aa(lp3801
Vat
p3802
aVthis
p3803
aVpoint
p3804
aV,
aVhe
p3805
aVno
p3806
aVlonger
p3807
aVthinks
p3808
aVthat
p3809
aV``
p3810
aVthe
p3811
aVworld
p3812
aV[
aVis
p3813
aV]
aVcheating
p3814
aVhim
p3815
aVof
p3816
aVhis
p3817
aVreward
p3818
aV,
aV''
p3819
aVbut
p3820
aVrather
p3821
aVthat
p3822
aVhis
p3823
aVaspirations
p3824
aVcould
p3825
aVnever
p3826
aVbe
p3827
aVrewarded
p3828
aVin
p3829
aVthe
p3830
aVworld
p3831
aVin
p3832
aVwhich
p3833
aVhe
p3834
aVlives
p3835
aV.
aassS'the impresario'
p3836
(dp3837
g20
(lp3838
(lp3839
Vthe
p3840
aV[
aVCHARACTER
p3841
aV]
aV-
aVthe
p3842
aVhunger
p3843
aVartist
p3844
aV's
p3845
aVmanager
p3846
aV.
aa(lp3847
Vuntil
p3848
aVhis
p3849
aVpartnership
p3850
aVwith
p3851
aVthe
p3852
aVhunger
p3853
aVartist
p3854
aVends
p3855
aV,
aVthe
p3856
aV[
aVCHARACTER
p3857
aV]
aVis
p3858
aVwholly
p3859
aVdedicated
p3860
aVto
p3861
aVthe
p3862
aVhunger
p3863
aVartist
p3864
aV's
p3865
aVcareer
p3866
aVand
p3867
aVdevotes
p3868
aVall
p3869
aVhis
p3870
aVresources
p3871
aVto
p3872
aVhis
p3873
aVadvancement
p3874
aV.
aa(lp3875
Vas
p3876
aVa
aVresult
p3877
aVof
p3878
aVspending
p3879
aVso
p3880
aVmuch
p3881
aVtime
p3882
aVwith
p3883
aVthe
p3884
aVhunger
p3885
aVartist
p3886
aV,
aVthe
p3887
aV[
aVCHARACTER
p3888
aV]
aVlikely
p3889
aVknows
p3890
aVhim
p3891
aVbetter
p3892
aVthan
p3893
aVanyone
p3894
aVelse
p3895
aV.
aa(lp3896
Vall
p3897
aVthe
p3898
aVsame
p3899
aV,
aVthey
p3900
aVdo
p3901
aVnot
p3902
aVseem
p3903
aVto
p3904
aVbe
p3905
aVfriends
p3906
aV,
aVgiven
p3907
aVthe
p3908
aVpleasure
p3909
aVthat
p3910
aVthe
p3911
aV[
aVCHARACTER
p3912
aV]
aVtakes
p3913
aVin
p3914
aVtaunting
p3915
aVthe
p3916
aVhunger
p3917
aVartist
p3918
aVduring
p3919
aVhis
p3920
aVperformances
p3921
aVto
p3922
aVincrease
p3923
aVthe
p3924
aVdrama
p3925
aVand
p3926
aVexcitement
p3927
aV.
aasg80
(lp3928
(lp3929
(lp3930
Vndurable
p3931
aV;
aVsometimes
p3932
aVhe
p3933
aVmastered
p3934
aVhis
p3935
aVfeebleness
p3936
aVsufficiently
p3937
aVto
p3938
aVsing
p3939
aVduring
p3940
aVtheir
p3941
aVwatch
p3942
aVfor
p3943
aVas
p3944
aVlong
p3945
aVas
p3946
aVhe
p3947
aVcould
p3948
aVkeep
p3949
aVgoing
p3950
aV,
aVto
p3951
aVshow
p3952
aVthem
p3953
aVhow
p3954
aVunjust
p3955
aVtheir
p3956
aVsuspicions
p3957
aVwere
p3958
aV.
aa(lp3959
Vbut
p3960
aVthat
p3961
aVwas
p3962
aVof
p3963
aVlittle
p3964
aVuse
p3965
aV;
aVthey
p3966
aVonly
p3967
aVwondered
p3968
aVat
p3969
aVhis
p3970
aVcleverness
p3971
aVin
p3972
aVbeing
p3973
aVable
p3974
aVto
p3975
aVfill
p3976
aVhis
p3977
aVmouth
p3978
aVeven
p3979
aVwhile
p3980
aVsinging
p3981
aV.
aa(lp3982
Vmuch
p3983
aVmore
p3984
aVto
p3985
aVhis
p3986
aVtaste
p3987
aVwere
p3988
aVthe
p3989
aVwatchers
p3990
aVwho
p3991
aVsat
p3992
aVup
p3993
aVclose
p3994
aVto
p3995
aVthe
p3996
aVbars
p3997
aV,
aVwho
p3998
aVwere
p3999
aVnot
p4000
aVcontent
p4001
aVwith
p4002
aVthe
p4003
aVdim
p4004
aVnight
p4005
aVlighting
p4006
aVof
p4007
aVthe
p4008
aVhall
p4009
aVbut
p4010
aVfocused
p4011
aVhim
p4012
aVin
p4013
aVthe
p4014
aVfull
p4015
aVglare
p4016
aVof
p4017
aVthe
p4018
aVelectric
p4019
aVpocket
p4020
aVtorch
p4021
aVgiven
p4022
aVthem
p4023
aVby
p4024
aVthe
p4025
aVimpresario
p4026
aV.
aa(lp4027
Vthe
p4028
aVharsh
p4029
aVlight
p4030
aVdid
p4031
aVnot
p4032
aVtrouble
p4033
aVhim
p4034
aVat
p4035
aVall
p4036
aV,
aVin
p4037
aVany
p4038
aVcase
p4039
aVhe
p4040
aVcould
p4041
aVnever
p4042
aVsleep
p4043
aVproperly
p4044
aV,
aVand
p4045
aVhe
p4046
aVcould
p4047
aValways
p4048
aVdrowse
p4049
aVa
aVlittle
p4050
aV,
aVeven
p4051
aVwhen
p4052
aVthe
p4053
aVhall
p4054
aVwas
p4055
aVthronged
p4056
aVwith
p4057
aVnoisy
p4058
aVonlookers
p4059
aV.
aa(lp4060
Vhe
p4061
aVwas
p4062
aVquite
p4063
aVhappy
p4064
aVat
p4065
aVthe
p4066
aVprospect
p4067
aVof
p4068
aVspending
p4069
aVa
aVsleepless
p4070
aVnight
p4071
aVwith
p4072
aVsuch
p4073
aVwatchers
p4074
aV;
aVhe
p4075
aVwas
p4076
aVready
p4077
aVto
p4078
aVexchange
p4079
aVjokes
p4080
aVwith
p4081
aVthem
p4082
aV,
aVto
p4083
aVtell
p4084
aVthem
p4085
aVstories
p4086
aVout
p4087
aVof
p4088
aVhis
p4089
aVnomadic
p4090
aVlife
p4091
aV,
aVanything
p4092
aVat
p4093
aVall
p4094
aVto
p4095
aVkeep
p4096
aVthem
p4097
aVawake
p4098
aVand
p4099
aVdemonstrate
p4100
aVto
p4101
aVthem
p4102
aVthat
p4103
aVhe
p4104
aVhad
p4105
aVno
p4106
aVeatables
p4107
aVin
p4108
aVhis
p4109
aVcage
p4110
aVand
p4111
aVthat
p4112
aVhe
p4113
aVwas
p4114
aVfasting
p4115
aVas
p4116
aVnot
p4117
aVone
p4118
aVof
p4119
aVthem
p4120
aVcould
p4121
aVfast
p4122
aaa(lp4123
(lp4124
Ver
p4125
aV,
aVthought
p4126
aVhe
p4127
aVwas
p4128
aVout
p4129
aVfor
p4130
aVpublicity
p4131
aVor
p4132
aVelse
p4133
aVhe
p4134
aVwas
p4135
aVsome
p4136
aVkind
p4137
aVof
p4138
aVcheat
p4139
aVwho
p4140
aVfound
p4141
aVit
p4142
aVeasy
p4143
aVto
p4144
aVfast
p4145
aVbecause
p4146
aVhe
p4147
aVhad
p4148
aVdiscovered
p4149
aVa
aVway
p4150
aVof
p4151
aVmaking
p4152
aVit
p4153
aVeasy
p4154
aV,
aVand
p4155
aVthen
p4156
aVhad
p4157
aVthe
p4158
aVimpudence
p4159
aVto
p4160
aVadmit
p4161
aVthe
p4162
aVfact
p4163
aV,
aVmore
p4164
aVor
p4165
aVless
p4166
aV.
aa(lp4167
Vhe
p4168
aVhad
p4169
aVto
p4170
aVput
p4171
aVup
p4172
aVwith
p4173
aVall
p4174
aVthat
p4175
aV,
aVand
p4176
aVin
p4177
aVthe
p4178
aVcourse
p4179
aVof
p4180
aVtime
p4181
aVhad
p4182
aVgot
p4183
aVused
p4184
aVto
p4185
aVit
p4186
aV,
aVbut
p4187
aVhis
p4188
aVinner
p4189
aVdissatisfaction
p4190
aValways
p4191
aVrankled
p4192
aV,
aVand
p4193
aVnever
p4194
aVyet
p4195
aV,
aVafter
p4196
aVany
p4197
aVterm
p4198
aVof
p4199
aVfasting
p4200
aV--
p4201
aVthis
p4202
aVmust
p4203
aVbe
p4204
aVgranted
p4205
aVto
p4206
aVhis
p4207
aVcredit
p4208
aV--
p4209
aVhad
p4210
aVhe
p4211
aVleft
p4212
aVthe
p4213
aVcage
p4214
aVof
p4215
aVhis
p4216
aVown
p4217
aVfree
p4218
aVwill
p4219
aV.
aa(lp4220
Vthe
p4221
aVlongest
p4222
aVperiod
p4223
aVof
p4224
aVfasting
p4225
aVwas
p4226
aVfixed
p4227
aVby
p4228
aVhis
p4229
aVimpresario
p4230
aVat
p4231
aVforty
p4232
aVdays
p4233
aV,
aVbeyond
p4234
aVthat
p4235
aVterm
p4236
aVhe
p4237
aVwas
p4238
aVnot
p4239
aVallowed
p4240
aVto
p4241
aVgo
p4242
aV,
aVnot
p4243
aVeven
p4244
aVin
p4245
aVgreat
p4246
aVcities
p4247
aV,
aVand
p4248
aVthere
p4249
aVwas
p4250
aVgood
p4251
aVreason
p4252
aVfor
p4253
aVit
p4254
aV,
aVtoo
p4255
aV.
aa(lp4256
Vexperience
p4257
aVhad
p4258
aVproved
p4259
aVthat
p4260
aVfor
p4261
aVabout
p4262
aVforty
p4263
aVdays
p4264
aVthe
p4265
aVinterest
p4266
aVof
p4267
aVthe
p4268
aVpublic
p4269
aVcould
p4270
aVbe
p4271
aVstimulated
p4272
aVby
p4273
aVa
aVsteadily
p4274
aVincreasing
p4275
aVpressure
p4276
aVof
p4277
aVadvertisment
p4278
aV,
aVbut
p4279
aVafter
p4280
aVthat
p4281
aVthe
p4282
aVtown
p4283
aVbegan
p4284
aVto
p4285
aVlose
p4286
aVinterest
p4287
aV,
aVsympathetic
p4288
aVsupport
p4289
aVbegan
p4290
aVnotably
p4291
aVto
p4292
aVfall
p4293
aVoff
p4294
aV,
aVthere
p4295
aVwere
p4296
aVof
p4297
aVcourse
p4298
aVlocal
p4299
aVvariations
p4300
aVas
p4301
aVbetween
p4302
aVone
p4303
aVtown
p4304
aVand
p4305
aVanother
p4306
aV,
aVbut
p4307
aVas
p4308
aVa
aVgeneral
p4309
aVrule
p4310
aVforty
p4311
aVdays
p4312
aVmarked
p4313
aVthe
p4314
aVlimit
p4315
aV.
aa(lp4316
Vso
p4317
aVon
p4318
aVthe
p4319
aVfor
p4320
aaa(lp4321
(lp4322
Vhould
p4323
aVn't
p4324
aVthe
p4325
aVpublic
p4326
aVendure
p4327
aVit
p4328
aV?
aa(lp4329
Vbesides
p4330
aV,
aVhe
p4331
aVwas
p4332
aVtired
p4333
aV,
aVand
p4334
aVnow
p4335
aVhe
p4336
aVwas
p4337
aVsupposed
p4338
aVto
p4339
aVlift
p4340
aVhimself
p4341
aVto
p4342
aVhis
p4343
aVfull
p4344
aVheight
p4345
aVand
p4346
aVgo
p4347
aVdown
p4348
aVto
p4349
aVa
aVmeal
p4350
aVthe
p4351
aVvery
p4352
aVthought
p4353
aVof
p4354
aVwhich
p4355
aVgave
p4356
aVhim
p4357
aVa
aVnausea
p4358
aVthat
p4359
aVonly
p4360
aVthe
p4361
aVpresence
p4362
aVof
p4363
aVthe
p4364
aVladies
p4365
aVkept
p4366
aVhim
p4367
aVfrom
p4368
aVbetraying
p4369
aV,
aVand
p4370
aVeven
p4371
aVthat
p4372
aVwith
p4373
aVan
p4374
aVeffort
p4375
aV.
aa(lp4376
Vand
p4377
aVhe
p4378
aVlooked
p4379
aVup
p4380
aVinto
p4381
aVthe
p4382
aVeyes
p4383
aVof
p4384
aVthe
p4385
aVladies
p4386
aVwho
p4387
aVwere
p4388
aVapparently
p4389
aVso
p4390
aVfriendly
p4391
aVand
p4392
aVin
p4393
aVreality
p4394
aVso
p4395
aVcruel
p4396
aV,
aVand
p4397
aVshook
p4398
aVhis
p4399
aVhead
p4400
aV,
aVwhich
p4401
aVfelt
p4402
aVtoo
p4403
aVheavy
p4404
aVon
p4405
aVits
p4406
aVstrengthless
p4407
aVneck
p4408
aV.
aa(lp4409
Vbut
p4410
aVthen
p4411
aVthere
p4412
aVhappened
p4413
aVyet
p4414
aVagain
p4415
aVwhat
p4416
aValways
p4417
aVhappened
p4418
aV.
aa(lp4419
Vthe
p4420
aVimpresario
p4421
aVcame
p4422
aVforward
p4423
aV,
aVwithout
p4424
aVa
aVword
p4425
aV--
p4426
aVfor
p4427
aVthe
p4428
aVband
p4429
aVmade
p4430
aVspeech
p4431
aVimpossible
p4432
aV--
p4433
aVlifted
p4434
aVhis
p4435
aVarms
p4436
aVin
p4437
aVthe
p4438
aVair
p4439
aVabove
p4440
aVthe
p4441
aVartist
p4442
aV,
aVas
p4443
aVif
p4444
aVinviting
p4445
aVheaven
p4446
aVto
p4447
aVlook
p4448
aVdown
p4449
aVupon
p4450
aVits
p4451
aVcreature
p4452
aVhere
p4453
aVin
p4454
aVthe
p4455
aVstraw
p4456
aV,
aVthis
p4457
aVsuffering
p4458
aVmartyr
p4459
aV,
aVwhich
p4460
aVindeed
p4461
aVhe
p4462
aVwas
p4463
aV,
aValthough
p4464
aVin
p4465
aVquite
p4466
aVanother
p4467
aVsense
p4468
aV;
aVgrasped
p4469
aVhim
p4470
aVaround
p4471
aVthe
p4472
aVemaciated
p4473
aVwaist
p4474
aV,
aVwith
p4475
aVexaggerated
p4476
aVcaution
p4477
aV,
aVso
p4478
aVthat
p4479
aVthe
p4480
aVfrail
p4481
aVcondition
p4482
aVhe
p4483
aVwas
p4484
aVin
p4485
aVmight
p4486
aVbe
p4487
aVappreciated
p4488
aV;
aVand
p4489
aVcommitted
p4490
aVhim
p4491
aVto
p4492
aVthe
p4493
aVcare
p4494
aVof
p4495
aVthe
p4496
aVblenching
p4497
aVladies
p4498
aV,
aVnot
p4499
aVwithout
p4500
aVsecretly
p4501
aVgiving
p4502
aVhim
p4503
aVa
aVshaking
p4504
aVso
p4505
aVthat
p4506
aVhis
p4507
aVleg
p4508
aaa(lp4509
(lp4510
Vexpected
p4511
aVit
p4512
aVto
p4513
aVbe
p4514
aV--
p4515
aVfirst
p4516
aVstretched
p4517
aVher
p4518
aVneck
p4519
aVas
p4520
aVfar
p4521
aVas
p4522
aVshe
p4523
aVcould
p4524
aVto
p4525
aVkeep
p4526
aVher
p4527
aVface
p4528
aVat
p4529
aVleast
p4530
aVfree
p4531
aVfrom
p4532
aVcontact
p4533
aVwith
p4534
aVthe
p4535
aVartist
p4536
aV,
aVthen
p4537
aVfinding
p4538
aVthis
p4539
aVimpossible
p4540
aV,
aVand
p4541
aVher
p4542
aVmore
p4543
aVfortunate
p4544
aVcompanion
p4545
aVnot
p4546
aVcoming
p4547
aVto
p4548
aVher
p4549
aVaid
p4550
aV,
aVbut
p4551
aVmerely
p4552
aVholding
p4553
aVextended
p4554
aVon
p4555
aVher
p4556
aVown
p4557
aVtrembling
p4558
aVhand
p4559
aVthe
p4560
aVlittle
p4561
aVbunch
p4562
aVof
p4563
aVknucklebones
p4564
aVthat
p4565
aVwas
p4566
aVthe
p4567
aVartist
p4568
aV's
p4569
aV,
aVto
p4570
aVthe
p4571
aVgreat
p4572
aVdelight
p4573
aVof
p4574
aVthe
p4575
aVspectators
p4576
aVburst
p4577
aVinto
p4578
aVtears
p4579
aVand
p4580
aVhad
p4581
aVto
p4582
aVbe
p4583
aVreplaced
p4584
aVby
p4585
aVan
p4586
aVattendant
p4587
aVwho
p4588
aVhad
p4589
aVlong
p4590
aVbeen
p4591
aVstationed
p4592
aVin
p4593
aVreadiness
p4594
aV.
aa(lp4595
Vthen
p4596
aVcame
p4597
aVthe
p4598
aVfood
p4599
aV,
aVa
aVlittle
p4600
aVof
p4601
aVwhich
p4602
aVthe
p4603
aVimpresario
p4604
aVmanaged
p4605
aVto
p4606
aVget
p4607
aVbetween
p4608
aVthe
p4609
aVartist
p4610
aV's
p4611
aVlips
p4612
aV,
aVwhile
p4613
aVhe
p4614
aVsat
p4615
aVin
p4616
aVa
aVkind
p4617
aVof
p4618
aVhalf-fainting
p4619
aVtrance
p4620
aV,
aVto
p4621
aVthe
p4622
aVaccompaniment
p4623
aVof
p4624
aVcheerful
p4625
aVpatter
p4626
aVdesigned
p4627
aVto
p4628
aVdistract
p4629
aVthe
p4630
aVpublic
p4631
aV's
p4632
aVattention
p4633
aVfrom
p4634
aVthe
p4635
aVartist
p4636
aV's
p4637
aVcondition
p4638
aV;
aVafter
p4639
aVthat
p4640
aV,
aVa
aVtoast
p4641
aVwas
p4642
aVdrunk
p4643
aVto
p4644
aVthe
p4645
aVpublic
p4646
aV,
aVsupposedly
p4647
aVprompted
p4648
aVby
p4649
aVa
aVwhisper
p4650
aVfrom
p4651
aVthe
p4652
aVartist
p4653
aVin
p4654
aVthe
p4655
aVimpresario
p4656
aV's
p4657
aVear
p4658
aV;
aVthe
p4659
aVband
p4660
aVconfirmed
p4661
aVit
p4662
aVwith
p4663
aVa
aVmighty
p4664
aVflourish
p4665
aV,
aVthe
p4666
aVspectators
p4667
aVmelted
p4668
aVaway
p4669
aV,
aVand
p4670
aVno
p4671
aVone
p4672
aVhad
p4673
aVany
p4674
aVcause
p4675
aVto
p4676
aVbe
p4677
aVdissatisfied
p4678
aVwith
p4679
aVthe
p4680
aVproceedings
p4681
aV,
aVno
p4682
aVone
p4683
aVexcept
p4684
aVthe
p4685
aVhunger
p4686
aVartist
p4687
aVhimse
p4688
aaa(lp4689
(lp4690
Vspirit
p4691
aV,
aVand
p4692
aVall
p4693
aVthe
p4694
aVmore
p4695
aVtroubled
p4696
aVbecause
p4697
aVno
p4698
aVone
p4699
aVwould
p4700
aVtake
p4701
aVhis
p4702
aVtrouble
p4703
aVseriously
p4704
aV.
aa(lp4705
Vwhat
p4706
aVcomfort
p4707
aVcould
p4708
aVhe
p4709
aVposibly
p4710
aVneed
p4711
aV?
aa(lp4712
Vwhat
p4713
aVmore
p4714
aVcould
p4715
aVhe
p4716
aVpossibly
p4717
aVwish
p4718
aVfor
p4719
aV?
aa(lp4720
Vand
p4721
aVif
p4722
aVsome
p4723
aVgood-natured
p4724
aVperson
p4725
aV,
aVfeeling
p4726
aVsorry
p4727
aVfor
p4728
aVhim
p4729
aV,
aVtried
p4730
aVto
p4731
aVconsole
p4732
aVhim
p4733
aVby
p4734
aVpointing
p4735
aVout
p4736
aVthat
p4737
aVhis
p4738
aVmelancholy
p4739
aVwas
p4740
aVprobably
p4741
aVcaused
p4742
aVby
p4743
aVfasting
p4744
aV,
aVit
p4745
aVcould
p4746
aVhappen
p4747
aV,
aVespecially
p4748
aVwhen
p4749
aVhe
p4750
aVhad
p4751
aVbeen
p4752
aVfasting
p4753
aVfor
p4754
aVsome
p4755
aVtime
p4756
aV,
aVthat
p4757
aVhe
p4758
aVreacted
p4759
aVwith
p4760
aVan
p4761
aVoutburst
p4762
aVof
p4763
aVfury
p4764
aVand
p4765
aVto
p4766
aVthe
p4767
aVgeneral
p4768
aValarm
p4769
aVbegan
p4770
aVto
p4771
aVshake
p4772
aVthe
p4773
aVbars
p4774
aVof
p4775
aVthe
p4776
aVcage
p4777
aVlike
p4778
aVa
aVwild
p4779
aVanimal
p4780
aV.
aa(lp4781
Vyet
p4782
aVthe
p4783
aVimpresario
p4784
aVhad
p4785
aVa
aVway
p4786
aVof
p4787
aVpunishing
p4788
aVthese
p4789
aVoutbreaks
p4790
aVwhich
p4791
aVhe
p4792
aVrather
p4793
aVenjoyed
p4794
aVputting
p4795
aVinto
p4796
aVoperation
p4797
aV.
aa(lp4798
Vhe
p4799
aVwould
p4800
aVapologize
p4801
aVpublicly
p4802
aVfor
p4803
aVthe
p4804
aVartist
p4805
aV's
p4806
aVbehavior
p4807
aV,
aVwhich
p4808
aVwas
p4809
aVonly
p4810
aVto
p4811
aVbe
p4812
aVexcused
p4813
aV,
aVhe
p4814
aVadmitted
p4815
aV,
aVbecause
p4816
aVof
p4817
aVthe
p4818
aVirritability
p4819
aVcaused
p4820
aVby
p4821
aVfasting
p4822
aV;
aVa
aVcondition
p4823
aVhardly
p4824
aVto
p4825
aVbe
p4826
aVunderstood
p4827
aVby
p4828
aVwell-fed
p4829
aVpeople
p4830
aV;
aVthen
p4831
aVby
p4832
aVnatural
p4833
aVtransition
p4834
aVhe
p4835
aVwent
p4836
aVon
p4837
aVto
p4838
aVmention
p4839
aVthe
p4840
aVartist
p4841
aV's
p4842
aVequally
p4843
aVincomprehensible
p4844
aVboast
p4845
aVthat
p4846
aVhe
p4847
aVcould
p4848
aVfast
p4849
aVfor
p4850
aVmuch
p4851
aVlonger
p4852
aVthan
p4853
aVhe
p4854
aVwas
p4855
aVdoing
p4856
aV;
aVhe
p4857
aVpraised
p4858
aVthe
p4859
aVhigh
p4860
aVambition
p4861
aV,
aVthe
p4862
aVgood
p4863
aVwill
p4864
aV,
aVthe
p4865
aVgreat
p4866
aVself-deni
p4867
aaa(lp4868
(lp4869
Ve
aVpublic
p4870
aV,
aVshowing
p4871
aVthe
p4872
aVartist
p4873
aVon
p4874
aVthe
p4875
aVfortieth
p4876
aVday
p4877
aVof
p4878
aVa
aVfast
p4879
aVlying
p4880
aVin
p4881
aVbed
p4882
aValmost
p4883
aVdead
p4884
aVfrom
p4885
aVexhaustion
p4886
aV.
aa(lp4887
Vthis
p4888
aVperversion
p4889
aVof
p4890
aVthe
p4891
aVtruth
p4892
aV,
aVfamiliar
p4893
aVto
p4894
aVthe
p4895
aVartist
p4896
aVthough
p4897
aVit
p4898
aVwas
p4899
aV,
aValways
p4900
aVunnerved
p4901
aVhim
p4902
aVafresh
p4903
aVand
p4904
aVproved
p4905
aVtoo
p4906
aVmuch
p4907
aVfor
p4908
aVhim
p4909
aV.
aa(lp4910
Vwhat
p4911
aVwas
p4912
aVa
aVconsequence
p4913
aVof
p4914
aVthe
p4915
aVpremature
p4916
aVending
p4917
aVof
p4918
aVhis
p4919
aVfast
p4920
aVwas
p4921
aVhere
p4922
aVpresented
p4923
aVas
p4924
aVthe
p4925
aVcause
p4926
aVof
p4927
aVit
p4928
aV!
aa(lp4929
Vto
p4930
aVfight
p4931
aVagainst
p4932
aVthis
p4933
aVlack
p4934
aVof
p4935
aVunderstanding
p4936
aV,
aVagainst
p4937
aVa
aVwhole
p4938
aVworld
p4939
aVof
p4940
aVnon-understanding
p4941
aV,
aVwas
p4942
aVimpossible
p4943
aV.
aa(lp4944
Vtime
p4945
aVand
p4946
aVtime
p4947
aVagain
p4948
aVin
p4949
aVgood
p4950
aVfaith
p4951
aVhe
p4952
aVstood
p4953
aVby
p4954
aVthe
p4955
aVbars
p4956
aVlistening
p4957
aVto
p4958
aVthe
p4959
aVimpresario
p4960
aV,
aVbut
p4961
aVas
p4962
aVsoon
p4963
aVas
p4964
aVthe
p4965
aVphotographs
p4966
aVappeared
p4967
aVhe
p4968
aValways
p4969
aVlet
p4970
aVgo
p4971
aVand
p4972
aVsank
p4973
aVwith
p4974
aVa
aVgroan
p4975
aVback
p4976
aVon
p4977
aVto
p4978
aVhis
p4979
aVstraw
p4980
aV,
aVand
p4981
aVthe
p4982
aVreassured
p4983
aVpublic
p4984
aVcould
p4985
aVonce
p4986
aVmore
p4987
aVcome
p4988
aVclose
p4989
aVand
p4990
aVgaze
p4991
aVat
p4992
aVhim
p4993
aV.
aa(lp4994
Va
aVfew
p4995
aVyears
p4996
aVlater
p4997
aVwhen
p4998
aVthe
p4999
aVwitnesses
p5000
aVof
p5001
aVsuch
p5002
aVscenes
p5003
aVcalled
p5004
aVthem
p5005
aVto
p5006
aVmind
p5007
aV,
aVthey
p5008
aVoften
p5009
aVfailed
p5010
aVto
p5011
aVunderstand
p5012
aVthemselves
p5013
aVat
p5014
aVall
p5015
aV.
aa(lp5016
Vfor
p5017
aVmeanwhile
p5018
aVthe
p5019
aVaforementioned
p5020
aVchance
p5021
aVin
p5022
aVpublic
p5023
aVinterest
p5024
aVhad
p5025
aVset
p5026
aVin
p5027
aV;
aVit
p5028
aVseemed
p5029
aVto
p5030
aVhappen
p5031
aValmost
p5032
aVovernight
p5033
aV;
aVthere
p5034
aVmay
p5035
aVhave
p5036
aVbeen
p5037
aVprofound
p5038
aVcauses
p5039
aVfor
p5040
aVit
p5041
aV,
aVbut
p5042
aVwho
p5043
aVwas
p5044
aVgoing
p5045
aVto
p5046
aVbother
p5047
aVabout
p5048
aVthat
p5049
aV;
aVat
p5050
aVany
p5051
aVrate
p5052
aaa(lp5053
(lp5054
Vthe
p5055
aVpampered
p5056
aVhunger
p5057
aVartist
p5058
aVsuddenly
p5059
aVfound
p5060
aVhimself
p5061
aVdeserted
p5062
aVone
p5063
aVfine
p5064
aVday
p5065
aVby
p5066
aVthe
p5067
aVamusement
p5068
aVseekers
p5069
aV,
aVwho
p5070
aVwent
p5071
aVstreaming
p5072
aVpast
p5073
aVhim
p5074
aVto
p5075
aVother
p5076
aVmore
p5077
aVfavored
p5078
aVattractions
p5079
aV.
aa(lp5080
Vfor
p5081
aVthe
p5082
aVlast
p5083
aVtime
p5084
aVthe
p5085
aVimpresario
p5086
aVhurried
p5087
aVhim
p5088
aVover
p5089
aVhalf
p5090
aVeurope
p5091
aVto
p5092
aVdiscover
p5093
aVwhether
p5094
aVthe
p5095
aVold
p5096
aVinterest
p5097
aVmight
p5098
aVstill
p5099
aVsurvive
p5100
aVhere
p5101
aVand
p5102
aVthere
p5103
aV;
aVall
p5104
aVin
p5105
aVvain
p5106
aV;
aVeverywhere
p5107
aV,
aVas
p5108
aVif
p5109
aVby
p5110
aVsecret
p5111
aVagreement
p5112
aV,
aVa
aVpositive
p5113
aVrevulsion
p5114
aVfrom
p5115
aVprofessional
p5116
aVfasting
p5117
aVwas
p5118
aVin
p5119
aVevidence
p5120
aV.
aa(lp5121
Vof
p5122
aVcourse
p5123
aVit
p5124
aVcould
p5125
aVnot
p5126
aVreally
p5127
aVhave
p5128
aVsprung
p5129
aVup
p5130
aVso
p5131
aVsuddenly
p5132
aVas
p5133
aVall
p5134
aVthat
p5135
aV,
aVand
p5136
aVmany
p5137
aVpremonitory
p5138
aVsymptoms
p5139
aVwhich
p5140
aVhad
p5141
aVnot
p5142
aVbeen
p5143
aVsufficiently
p5144
aVremarked
p5145
aVor
p5146
aVsuppressed
p5147
aVduring
p5148
aVthe
p5149
aVrush
p5150
aVand
p5151
aVglitter
p5152
aVof
p5153
aVsuccess
p5154
aVnow
p5155
aVcame
p5156
aVretrospectively
p5157
aVto
p5158
aVmind
p5159
aV,
aVbut
p5160
aVit
p5161
aVwas
p5162
aVnow
p5163
aVtoo
p5164
aVlate
p5165
aVto
p5166
aVtake
p5167
aVany
p5168
aVcountermeasures
p5169
aV.
aaa(lp5170
(lp5171
Vfasting
p5172
aVwould
p5173
aVsurely
p5174
aVcome
p5175
aVinto
p5176
aVfashion
p5177
aVagain
p5178
aVat
p5179
aVsome
p5180
aVfuture
p5181
aVdate
p5182
aV,
aVyet
p5183
aVthat
p5184
aVwas
p5185
aVno
p5186
aVcomfort
p5187
aVfor
p5188
aVthose
p5189
aVliving
p5190
aVin
p5191
aVthe
p5192
aVpresent
p5193
aV.
aa(lp5194
Vwhat
p5195
aV,
aVthen
p5196
aV,
aVwas
p5197
aVthe
p5198
aVhunger
p5199
aVartist
p5200
aVto
p5201
aVdo
p5202
aV?
aa(lp5203
Vhe
p5204
aVhad
p5205
aVbeen
p5206
aVapplauded
p5207
aVby
p5208
aVthousands
p5209
aVin
p5210
aVhis
p5211
aVtime
p5212
aVand
p5213
aVcould
p5214
aVhardly
p5215
aVcome
p5216
aVdown
p5217
aVto
p5218
aVshowing
p5219
aVhimself
p5220
aVin
p5221
aVa
aVstreet
p5222
aVbooth
p5223
aVat
p5224
aVvillage
p5225
aVfairs
p5226
aV,
aVand
p5227
aVas
p5228
aVfor
p5229
aVadopting
p5230
aVanother
p5231
aVprofession
p5232
aV,
aVhe
p5233
aVwas
p5234
aVnot
p5235
aVonly
p5236
aVtoo
p5237
aVold
p5238
aVfor
p5239
aVthat
p5240
aVbut
p5241
aVtoo
p5242
aVfanatically
p5243
aVdevoted
p5244
aVto
p5245
aVfasting
p5246
aV.
aa(lp5247
Vso
p5248
aVhe
p5249
aVtook
p5250
aVleave
p5251
aVof
p5252
aVthe
p5253
aVimpresario
p5254
aV,
aVhis
p5255
aVpartner
p5256
aVin
p5257
aVan
p5258
aVunparalleled
p5259
aVcareer
p5260
aV,
aVand
p5261
aVhired
p5262
aVhimself
p5263
aVto
p5264
aVa
aVlarge
p5265
aVcircus
p5266
aV;
aVin
p5267
aVorder
p5268
aVto
p5269
aVspare
p5270
aVhis
p5271
aVown
p5272
aVfeelings
p5273
aVhe
p5274
aVavoided
p5275
aVreading
p5276
aVthe
p5277
aVconditions
p5278
aVof
p5279
aVhis
p5280
aVcontract
p5281
aV.
aa(lp5282
Va
aVlarge
p5283
aVcircus
p5284
aVwith
p5285
aVits
p5286
aVenormous
p5287
aVtraffic
p5288
aVin
p5289
aVreplacing
p5290
aVand
p5291
aVrecruiting
p5292
aVmen
p5293
aV,
aVanimals
p5294
aVand
p5295
aVapparatus
p5296
aVcan
p5297
aValways
p5298
aVfind
p5299
aVa
aVuse
p5300
aVfor
p5301
aVpeople
p5302
aVat
p5303
aVany
p5304
aVtime
p5305
aV,
aVeven
p5306
aVfor
p5307
aVa
aVhunger
p5308
aVartist
p5309
aV,
aVprovided
p5310
aVof
p5311
aVcourse
p5312
aVthat
p5313
aVhe
p5314
aVdoes
p5315
aVnot
p5316
aVask
p5317
aVtoo
p5318
aVmuch.
p5319
aV,
aVand
p5320
aVin
p5321
aVthis
p5322
aVparticular
p5323
aVcase
p5324
aVanyhow
p5325
aVit
p5326
aVwas
p5327
aVnot
p5328
aVonly
p5329
aVthe
p5330
aVartist
p5331
aVwho
p5332
aVwas
p5333
aVtaken
p5334
aVon
p5335
aVbut
p5336
aVhis
p5337
aVfamous
p5338
aVand
p5339
aVlong-known
p5340
aVname
p5341
aVas
p5342
aaasg603
(lp5343
(lp5344
Vthe
p5345
aV[
aVCHARACTER
p5346
aV]
aVthe
p5347
aV[
aVCHARACTER
p5348
aV]
aVis
p5349
aVpart
p5350
aVof
p5351
aVa
aVclass
p5352
aVof
p5353
aVpeople
p5354
aVwho
p5355
aVexploit
p5356
aVart
p5357
aVand
p5358
aVartists
p5359
aVfor
p5360
aVtheir
p5361
aVown
p5362
aVpersonal
p5363
aVgain
p5364
aV.
aa(lp5365
Vthough
p5366
aVthe
p5367
aV[
aVCHARACTER
p5368
aV]
aVis
p5369
aVthe
p5370
aVhunger
p5371
aVartist
p5372
aV's
p5373
aV``
p5374
aVpartner
p5375
aVin
p5376
aVan
p5377
aVunparalleled
p5378
aVcareer
p5379
aV,
aV''
p5380
aVa
aVdescription
p5381
aVthat
p5382
aVwould
p5383
aVsuggest
p5384
aVcamaraderie
p5385
aVbetween
p5386
aVthe
p5387
aVtwo
p5388
aVmen
p5389
aV,
aVhe
p5390
aVbehaves
p5391
aVfor
p5392
aVthe
p5393
aVmost
p5394
aVpart
p5395
aVas
p5396
aVa
aVparasite
p5397
aVwould
p5398
aV,
aVfattening
p5399
aVhimself
p5400
aVon
p5401
aVthe
p5402
aVproceeds
p5403
aVpresumably
p5404
aVgiven
p5405
aVto
p5406
aVthe
p5407
aVhunger
p5408
aVartist
p5409
aVfor
p5410
aVhis
p5411
aVperformances
p5412
aV.
aa(lp5413
Vthe
p5414
aV[
aVCHARACTER
p5415
aV]
aVfinds
p5416
aVsustenance
p5417
aVby
p5418
aVcapitalizing
p5419
aVon
p5420
aVanother
p5421
aVman
p5422
aV's
p5423
aVstarvation
p5424
aV.
aa(lp5425
Vin
p5426
aVessence
p5427
aV,
aVthe
p5428
aV[
aVCHARACTER
p5429
aV]
aVcommodifies
p5430
aVthe
p5431
aVhunger
p5432
aVartist
p5433
aV's
p5434
aVsuffering
p5435
aV,
aVwhen
p5436
aVall
p5437
aVthe
p5438
aVhunger
p5439
aVartist
p5440
aVaspires
p5441
aVto
p5442
aVdo
p5443
aVis
p5444
aVbe
p5445
aVrecognized
p5446
aVfor
p5447
aVhis
p5448
aVefforts
p5449
aVand
p5450
aVachievements
p5451
aV.
aa(lp5452
Vthe
p5453
aV[
aVCHARACTER
p5454
aV]
aV's
p5455
aVcareer
p5456
aVtrajectory
p5457
aVand
p5458
aVbusiness
p5459
aVpractices
p5460
aV,
aVwhen
p5461
aVtaken
p5462
aVtogether
p5463
aV,
aVfurther
p5464
aVindicate
p5465
aVhis
p5466
aVparasitic
p5467
aVnature
p5468
aV.
aa(lp5469
Vjust
p5470
aVas
p5471
aVthe
p5472
aVparasite
p5473
aVis
p5474
aVmost
p5475
aVeffective
p5476
aVwhen
p5477
aVit
p5478
aVdoes
p5479
aVnot
p5480
aVdrain
p5481
aVits
p5482
aVhost
p5483
aVcompletely
p5484
aV,
aVthe
p5485
aV[
aVCHARACTER
p5486
aV]
aVis
p5487
aVmost
p5488
aVsuccessful
p5489
aVfor
p5490
aVshepherding
p5491
aVthe
p5492
aVhunger
p5493
aVartist
p5494
aVback
p5495
aVfrom
p5496
aVthe
p5497
aVbrink
p5498
aVof
p5499
aVdeath
p5500
aVat
p5501
aVthe
p5502
aVend
p5503
aVof
p5504
aVeach
p5505
aVperformance
p5506
aV.
aa(lp5507
Vfinally
p5508
aV,
aVthe
p5509
aV[
aVCHARACTER
p5510
aV]
aVabandons
p5511
aVhis
p5512
aVhost
p5513
aVwhen
p5514
aVnourishment
p5515
aVis
p5516
aVno
p5517
aVlonger
p5518
aVavailable
p5519
aV.
aa(lp5520
Vwhile
p5521
aVthe
p5522
aV[
aVCHARACTER
p5523
aV]
aV's
p5524
aVmotivations
p5525
aVfor
p5526
aVassociating
p5527
aVwith
p5528
aVthe
p5529
aVhunger
p5530
aVartist
p5531
aVare
p5532
aVprimarily
p5533
aVself-centered
p5534
aV,
aVthe
p5535
aV[
aVCHARACTER
p5536
aV]
aVplays
p5537
aVan
p5538
aVimportant
p5539
aVrole
p5540
aVin
p5541
aVenabling
p5542
aVthe
p5543
aVhunger
p5544
aVartist
p5545
aVto
p5546
aVcome
p5547
aVclose
p5548
aVto
p5549
aVreaching
p5550
aVhis
p5551
aVgoal
p5552
aV.
aa(lp5553
Vthe
p5554
aV[
aVCHARACTER
p5555
aV]
aVmay
p5556
aVbehave
p5557
aVas
p5558
aVthe
p5559
aVhunger
p5560
aVartist
p5561
aV's
p5562
aVparasitic
p5563
aVpublicist
p5564
aV,
aVbut
p5565
aVhe
p5566
aValso
p5567
aVfunctions
p5568
aVas
p5569
aVthe
p5570
aVhunger
p5571
aVartist
p5572
aV's
p5573
aVonly
p5574
aVconnection
p5575
aVto
p5576
aVthe
p5577
aVpeople
p5578
aVon
p5579
aVwhom
p5580
aVhe
p5581
aVdepends
p5582
aVto
p5583
aVrecognize
p5584
aVhis
p5585
aVartistic
p5586
aVachievement
p5587
aV.
aa(lp5588
Vby
p5589
aVtaking
p5590
aVresponsibility
p5591
aVfor
p5592
aVthe
p5593
aVhunger
p5594
aVartist
p5595
aV's
p5596
aVphysical
p5597
aVneeds
p5598
aV,
aVeven
p5599
aVto
p5600
aVthe
p5601
aVextent
p5602
aVof
p5603
aVforce-feeding
p5604
aVhim
p5605
aV,
aVthe
p5606
aV[
aVCHARACTER
p5607
aV]
aVfrees
p5608
aVthe
p5609
aVhunger
p5610
aVartist
p5611
aVto
p5612
aVfocus
p5613
aVsolely
p5614
aVon
p5615
aVhis
p5616
aVaspiration
p5617
aVto
p5618
aVfast
p5619
aV.
aa(lp5620
Vof
p5621
aVthe
p5622
aVtwo
p5623
aV,
aVit
p5624
aVis
p5625
aVthe
p5626
aV[
aVCHARACTER
p5627
aV]
aVwho
p5628
aVmost
p5629
aVclearly
p5630
aVperceives
p5631
aVthe
p5632
aVdisconnect
p5633
aVbetween
p5634
aVthe
p5635
aVhunger
p5636
aVartist
p5637
aV's
p5638
aVapparent
p5639
aVdeath
p5640
aVwish
p5641
aVand
p5642
aVneed
p5643
aVto
p5644
aVbe
p5645
aVrecognized
p5646
aVby
p5647
aVthe
p5648
aVmasses
p5649
aV.
aa(lp5650
Vby
p5651
aVremaining
p5652
aVwith
p5653
aVthe
p5654
aVhunger
p5655
aVartist
p5656
aVuntil
p5657
aVhe
p5658
aVno
p5659
aVlonger
p5660
aVpossibly
p5661
aVcan
p5662
aV,
aVthe
p5663
aV[
aVCHARACTER
p5664
aV]
aVis
p5665
aVin
p5666
aVsome
p5667
aVways
p5668
aVthe
p5669
aVhunger
p5670
aVartist
p5671
aV's
p5672
aVpartner
p5673
aVand
p5674
aVdevoted
p5675
aVcaretaker
p5676
aV.
aasssS'mainText'
p5677
(lp5678
(lp5679
Vduring
p5680
aVthese
p5681
aVlast
p5682
aVdecades
p5683
aVthe
p5684
aVinterest
p5685
aVin
p5686
aVprofessional
p5687
aVfasting
p5688
aVhas
p5689
aVmarkedly
p5690
aVdiminished
p5691
aV.
aa(lp5692
Vit
p5693
aVused
p5694
aVto
p5695
aVpay
p5696
aVvery
p5697
aVwell
p5698
aVto
p5699
aVstage
p5700
aVsuch
p5701
aVgreat
p5702
aVperformances
p5703
aVunder
p5704
aVone
p5705
aV's
p5706
aVown
p5707
aVmanagement
p5708
aV,
aVbut
p5709
aVtoday
p5710
aVthat
p5711
aVis
p5712
aVquite
p5713
aVimpossible
p5714
aV.
aa(lp5715
Vwe
p5716
aVlive
p5717
aVin
p5718
aVa
aVdifferent
p5719
aVworld
p5720
aVnow
p5721
aV.
aa(lp5722
Vat
p5723
aVone
p5724
aVtime
p5725
aVthe
p5726
aVwhole
p5727
aVtown
p5728
aVtook
p5729
aVa
aVlively
p5730
aVinterest
p5731
aVin
p5732
aVthe
p5733
aVhunger
p5734
aVartist
p5735
aV;
aVfrom
p5736
aVday
p5737
aVto
p5738
aVday
p5739
aVof
p5740
aVhis
p5741
aVfast
p5742
aVthe
p5743
aVexcitement
p5744
aVmounted
p5745
aV;
aVeverybody
p5746
aVwanted
p5747
aVto
p5748
aVsee
p5749
aVhim
p5750
aVat
p5751
aVleast
p5752
aVonce
p5753
aVa
aVday
p5754
aV;
aVthere
p5755
aVwere
p5756
aVpeople
p5757
aVwho
p5758
aVbought
p5759
aVseason
p5760
aVtickets
p5761
aVfor
p5762
aVthe
p5763
aVlast
p5764
aVfew
p5765
aVdays
p5766
aVand
p5767
aVsat
p5768
aVfrom
p5769
aVmorning
p5770
aVtill
p5771
aVnight
p5772
aVin
p5773
aVfront
p5774
aVof
p5775
aVhis
p5776
aVsmall
p5777
aVbarred
p5778
aVcage
p5779
aV;
aVeven
p5780
aVin
p5781
aVthe
p5782
aVnighttime
p5783
aVthere
p5784
aVwere
p5785
aVvisiting
p5786
aVhours
p5787
aV,
aVwhen
p5788
aVthe
p5789
aVwhole
p5790
aVeffect
p5791
aVwas
p5792
aVheightened
p5793
aVby
p5794
aVtorch
p5795
aVflares
p5796
aV;
aVon
p5797
aVfine
p5798
aVdays
p5799
aVthe
p5800
aVcage
p5801
aVwas
p5802
aVset
p5803
aVout
p5804
aVin
p5805
aVthe
p5806
aVopen
p5807
aVair
p5808
aV,
aVand
p5809
aVthen
p5810
aVit
p5811
aVwas
p5812
aVthe
p5813
aVchildren
p5814
aV's
p5815
aVspecial
p5816
aVtreat
p5817
aVto
p5818
aVsee
p5819
aVthe
p5820
aVhunger
p5821
aVartist
p5822
aV;
aVfor
p5823
aVtheir
p5824
aVelders
p5825
aVhe
p5826
aVwas
p5827
aVoften
p5828
aVjust
p5829
aVa
aVjoke
p5830
aVthat
p5831
aVhappened
p5832
aVto
p5833
aVbe
p5834
aVin
p5835
aVfashion
p5836
aV,
aVbut
p5837
aVthe
p5838
aVchildren
p5839
aVstood
p5840
aVopenmouthed
p5841
aV,
aVholding
p5842
aVeach
p5843
aVother
p5844
aV's
p5845
aVhands
p5846
aVfor
p5847
aVgreater
p5848
aVsecurity
p5849
aV,
aVmarveling
p5850
aVat
p5851
aVhim
p5852
aVas
p5853
aVhe
p5854
aVsat
p5855
aVthere
p5856
aVpallid
p5857
aVin
p5858
aVblack
p5859
aVtights
p5860
aV,
aVwith
p5861
aVhis
p5862
aVribs
p5863
aVsticking
p5864
aVout
p5865
aVso
p5866
aVprominently
p5867
aV,
aVnot
p5868
aVeven
p5869
aVon
p5870
aVa
aVseat
p5871
aVbut
p5872
aVdown
p5873
aVamong
p5874
aVstraw
p5875
aVon
p5876
aVthe
p5877
aVground
p5878
aV,
aVsometimes
p5879
aVgiving
p5880
aVa
aVcourteous
p5881
aVnod
p5882
aV,
aVanswering
p5883
aVquestions
p5884
aVwith
p5885
aVa
aVconstrained
p5886
aVsmile
p5887
aV,
aVor
p5888
aVperhaps
p5889
aVstretching
p5890
aVan
p5891
aVarm
p5892
aVthrough
p5893
aVthe
p5894
aVbars
p5895
aVso
p5896
aVthat
p5897
aVone
p5898
aVmight
p5899
aVfeel
p5900
aVhow
p5901
aVthin
p5902
aVit
p5903
aVwas
p5904
aV,
aVand
p5905
aVthen
p5906
aVagain
p5907
aVwithdrawing
p5908
aVdeep
p5909
aVinto
p5910
aVhimself
p5911
aV,
aVpaying
p5912
aVno
p5913
aVattention
p5914
aVto
p5915
aVanyone
p5916
aVor
p5917
aVanything
p5918
aV,
aVnot
p5919
aVeven
p5920
aVto
p5921
aVthe
p5922
aVall-important
p5923
aVstriking
p5924
aVof
p5925
aVthe
p5926
aVclock
p5927
aVthat
p5928
aVwas
p5929
aVthe
p5930
aVonly
p5931
aVpiece
p5932
aVof
p5933
aVfurniture
p5934
aVin
p5935
aVhis
p5936
aVcage
p5937
aV,
aVbut
p5938
aVmerely
p5939
aVstaring
p5940
aVinto
p5941
aVvacancy
p5942
aVwith
p5943
aVhalf-shut
p5944
aVeyes
p5945
aV,
aVnow
p5946
aVand
p5947
aVthen
p5948
aVtaking
p5949
aVa
aVsip
p5950
aVfrom
p5951
aVa
aVtiny
p5952
aVglass
p5953
aVof
p5954
aVwater
p5955
aVto
p5956
aVmoisten
p5957
aVhis
p5958
aVlips
p5959
aV.
aa(lp5960
Vbesides
p5961
aVcasual
p5962
aVonlookers
p5963
aVthere
p5964
aVwere
p5965
aValso
p5966
aVrelays
p5967
aVof
p5968
aVpermanent
p5969
aVwatchers
p5970
aVselected
p5971
aVby
p5972
aVthe
p5973
aVpublic
p5974
aV,
aVususally
p5975
aVbutchers
p5976
aV,
aVstrangely
p5977
aVenough
p5978
aV,
aVand
p5979
aVit
p5980
aVwas
p5981
aVtheir
p5982
aVtask
p5983
aVto
p5984
aVwatch
p5985
aVthe
p5986
aVhunger
p5987
aVartist
p5988
aVday
p5989
aVand
p5990
aVnight
p5991
aV,
aVthree
p5992
aVof
p5993
aVthem
p5994
aVat
p5995
aVa
aVtime
p5996
aV,
aVin
p5997
aVcase
p5998
aVhe
p5999
aVshould
p6000
aVhave
p6001
aVsome
p6002
aVsecret
p6003
aVrecourse
p6004
aVto
p6005
aVnourishment
p6006
aV.
aa(lp6007
Vthis
p6008
aVwas
p6009
aVnothing
p6010
aVbut
p6011
aVa
aVformality
p6012
aV,
aVinstituted
p6013
aVto
p6014
aVreassure
p6015
aVthe
p6016
aVmasses
p6017
aV,
aVfor
p6018
aVthe
p6019
aVinitiates
p6020
aVknew
p6021
aVwell
p6022
aVenough
p6023
aVthat
p6024
aVduring
p6025
aVhis
p6026
aVfast
p6027
aVthe
p6028
aVartist
p6029
aVwould
p6030
aVnever
p6031
aVin
p6032
aVany
p6033
aVcircumstances
p6034
aV,
aVnot
p6035
aVeven
p6036
aVunder
p6037
aVforcible
p6038
aVcompulsion
p6039
aV,
aVswallow
p6040
aVthe
p6041
aVsmallest
p6042
aVmorsel
p6043
aVof
p6044
aVfood
p6045
aV;
aVthe
p6046
aVhonor
p6047
aVof
p6048
aVhis
p6049
aVprofession
p6050
aVforbade
p6051
aVit
p6052
aV.
aa(lp6053
Vnot
p6054
aVevery
p6055
aVwatcher
p6056
aV,
aVof
p6057
aVcourse
p6058
aV,
aVwas
p6059
aVcapable
p6060
aVof
p6061
aVunderstanding
p6062
aVthis
p6063
aV,
aVthere
p6064
aVwere
p6065
aVoften
p6066
aVgroups
p6067
aVof
p6068
aVnight
p6069
aVwatchers
p6070
aVwho
p6071
aVwere
p6072
aVvery
p6073
aVlax
p6074
aVin
p6075
aVcarrying
p6076
aVout
p6077
aVtheir
p6078
aVduties
p6079
aVand
p6080
aVdeliberately
p6081
aVhudled
p6082
aVtogether
p6083
aVin
p6084
aVa
aVretired
p6085
aVcorner
p6086
aVto
p6087
aVplay
p6088
aVcards
p6089
aVwith
p6090
aVgreat
p6091
aVabsorption
p6092
aV,
aVobviously
p6093
aVintending
p6094
aVto
p6095
aVgive
p6096
aVthe
p6097
aVhunger
p6098
aVartist
p6099
aVthe
p6100
aVchance
p6101
aVof
p6102
aVa
aVlittle
p6103
aVrefreshment
p6104
aV,
aVwhich
p6105
aVthey
p6106
aVsupposed
p6107
aVhe
p6108
aVcould
p6109
aVdraw
p6110
aVfrom
p6111
aVsome
p6112
aVprivate
p6113
aVhoard
p6114
aV.
aa(lp6115
Vnothing
p6116
aVannoyed
p6117
aVthe
p6118
aVartist
p6119
aVmore
p6120
aVthan
p6121
aVsuch
p6122
aVwatchers
p6123
aV;
aVthey
p6124
aVmade
p6125
aVhim
p6126
aVmiserable
p6127
aV;
aVthey
p6128
aVmade
p6129
aVhis
p6130
aVfast
p6131
aVseem
p6132
aVunendurable
p6133
aV;
aVsometimes
p6134
aVhe
p6135
aVmastered
p6136
aVhis
p6137
aVfeebleness
p6138
aVsufficiently
p6139
aVto
p6140
aVsing
p6141
aVduring
p6142
aVtheir
p6143
aVwatch
p6144
aVfor
p6145
aVas
p6146
aVlong
p6147
aVas
p6148
aVhe
p6149
aVcould
p6150
aVkeep
p6151
aVgoing
p6152
aV,
aVto
p6153
aVshow
p6154
aVthem
p6155
aVhow
p6156
aVunjust
p6157
aVtheir
p6158
aVsuspicions
p6159
aVwere
p6160
aV.
aa(lp6161
Vbut
p6162
aVthat
p6163
aVwas
p6164
aVof
p6165
aVlittle
p6166
aVuse
p6167
aV;
aVthey
p6168
aVonly
p6169
aVwondered
p6170
aVat
p6171
aVhis
p6172
aVcleverness
p6173
aVin
p6174
aVbeing
p6175
aVable
p6176
aVto
p6177
aVfill
p6178
aVhis
p6179
aVmouth
p6180
aVeven
p6181
aVwhile
p6182
aVsinging
p6183
aV.
aa(lp6184
Vmuch
p6185
aVmore
p6186
aVto
p6187
aVhis
p6188
aVtaste
p6189
aVwere
p6190
aVthe
p6191
aVwatchers
p6192
aVwho
p6193
aVsat
p6194
aVup
p6195
aVclose
p6196
aVto
p6197
aVthe
p6198
aVbars
p6199
aV,
aVwho
p6200
aVwere
p6201
aVnot
p6202
aVcontent
p6203
aVwith
p6204
aVthe
p6205
aVdim
p6206
aVnight
p6207
aVlighting
p6208
aVof
p6209
aVthe
p6210
aVhall
p6211
aVbut
p6212
aVfocused
p6213
aVhim
p6214
aVin
p6215
aVthe
p6216
aVfull
p6217
aVglare
p6218
aVof
p6219
aVthe
p6220
aVelectric
p6221
aVpocket
p6222
aVtorch
p6223
aVgiven
p6224
aVthem
p6225
aVby
p6226
aVthe
p6227
aVimpresario
p6228
aV.
aa(lp6229
Vthe
p6230
aVharsh
p6231
aVlight
p6232
aVdid
p6233
aVnot
p6234
aVtrouble
p6235
aVhim
p6236
aVat
p6237
aVall
p6238
aV,
aVin
p6239
aVany
p6240
aVcase
p6241
aVhe
p6242
aVcould
p6243
aVnever
p6244
aVsleep
p6245
aVproperly
p6246
aV,
aVand
p6247
aVhe
p6248
aVcould
p6249
aValways
p6250
aVdrowse
p6251
aVa
aVlittle
p6252
aV,
aVeven
p6253
aVwhen
p6254
aVthe
p6255
aVhall
p6256
aVwas
p6257
aVthronged
p6258
aVwith
p6259
aVnoisy
p6260
aVonlookers
p6261
aV.
aa(lp6262
Vhe
p6263
aVwas
p6264
aVquite
p6265
aVhappy
p6266
aVat
p6267
aVthe
p6268
aVprospect
p6269
aVof
p6270
aVspending
p6271
aVa
aVsleepless
p6272
aVnight
p6273
aVwith
p6274
aVsuch
p6275
aVwatchers
p6276
aV;
aVhe
p6277
aVwas
p6278
aVready
p6279
aVto
p6280
aVexchange
p6281
aVjokes
p6282
aVwith
p6283
aVthem
p6284
aV,
aVto
p6285
aVtell
p6286
aVthem
p6287
aVstories
p6288
aVout
p6289
aVof
p6290
aVhis
p6291
aVnomadic
p6292
aVlife
p6293
aV,
aVanything
p6294
aVat
p6295
aVall
p6296
aVto
p6297
aVkeep
p6298
aVthem
p6299
aVawake
p6300
aVand
p6301
aVdemonstrate
p6302
aVto
p6303
aVthem
p6304
aVthat
p6305
aVhe
p6306
aVhad
p6307
aVno
p6308
aVeatables
p6309
aVin
p6310
aVhis
p6311
aVcage
p6312
aVand
p6313
aVthat
p6314
aVhe
p6315
aVwas
p6316
aVfasting
p6317
aVas
p6318
aVnot
p6319
aVone
p6320
aVof
p6321
aVthem
p6322
aVcould
p6323
aVfast
p6324
aV.
aa(lp6325
Vbut
p6326
aVhis
p6327
aVhappiest
p6328
aVmoment
p6329
aVwas
p6330
aVwhen
p6331
aVthe
p6332
aVmorning
p6333
aVcame
p6334
aVand
p6335
aVan
p6336
aVenormous
p6337
aVbreakfast
p6338
aVwas
p6339
aVbrought
p6340
aVthem
p6341
aV,
aVat
p6342
aVhis
p6343
aVexpense
p6344
aV,
aVon
p6345
aVwhich
p6346
aVthey
p6347
aVflung
p6348
aVthemselves
p6349
aVwit
p6350
aVhthe
p6351
aVkeen
p6352
aVappetite
p6353
aVof
p6354
aVhealthy
p6355
aVmen
p6356
aVafter
p6357
aVa
aVweary
p6358
aVnight
p6359
aVof
p6360
aVwakefulness
p6361
aV.
aa(lp6362
Vof
p6363
aVcourse
p6364
aVthere
p6365
aVwere
p6366
aVpeople
p6367
aVwho
p6368
aVargued
p6369
aVthat
p6370
aVthis
p6371
aVbreakfast
p6372
aVwas
p6373
aVan
p6374
aVunfair
p6375
aVattempt
p6376
aVto
p6377
aVbribe
p6378
aVthe
p6379
aVwatchers
p6380
aV,
aVbut
p6381
aVthat
p6382
aVwas
p6383
aVgoing
p6384
aVrather
p6385
aVtoo
p6386
aVfar
p6387
aV,
aVand
p6388
aVwhen
p6389
aVthey
p6390
aVwere
p6391
aVinvited
p6392
aVto
p6393
aVtake
p6394
aVon
p6395
aVa
aVnight
p6396
aV's
p6397
aVvigil
p6398
aVwithout
p6399
aVa
aVbreakfast
p6400
aV,
aVmerely
p6401
aVfor
p6402
aVthe
p6403
aVsake
p6404
aVof
p6405
aVthe
p6406
aVcause
p6407
aV,
aVthey
p6408
aVmade
p6409
aVthemselves
p6410
aVscarce
p6411
aV,
aValthough
p6412
aVthey
p6413
aVstuck
p6414
aVstubbornly
p6415
aVto
p6416
aVtheir
p6417
aVsuspicions
p6418
aV.
aa(lp6419
Vsuch
p6420
aVsuspicions
p6421
aV,
aVanyhow
p6422
aV,
aVwere
p6423
aVa
aVnecessary
p6424
aVaccompaniment
p6425
aVto
p6426
aVthe
p6427
aVprofession
p6428
aVof
p6429
aVfasting
p6430
aV.
aa(lp6431
Vno
p6432
aVone
p6433
aVcould
p6434
aVpossibly
p6435
aVwatch
p6436
aVthe
p6437
aVhunger
p6438
aVartist
p6439
aVcontinuosly
p6440
aV,
aVday
p6441
aVand
p6442
aVnight
p6443
aV,
aVand
p6444
aVso
p6445
aVno
p6446
aVone
p6447
aVcould
p6448
aVproduce
p6449
aVfirst-hand
p6450
aVevidence
p6451
aVthat
p6452
aVthe
p6453
aVfast
p6454
aVhad
p6455
aVreally
p6456
aVbeen
p6457
aVrigorous
p6458
aVand
p6459
aVcontinuous
p6460
aV;
aVonly
p6461
aVthe
p6462
aVartist
p6463
aVhimself
p6464
aVcould
p6465
aVknow
p6466
aVthat
p6467
aV,
aVhe
p6468
aVwas
p6469
aVtherefore
p6470
aVbound
p6471
aVto
p6472
aVbe
p6473
aVthe
p6474
aVsole
p6475
aVcompletely
p6476
aVsatisfied
p6477
aVspectator
p6478
aVof
p6479
aVhis
p6480
aVown
p6481
aVfast
p6482
aV.
aa(lp6483
Vyet
p6484
aVfor
p6485
aVother
p6486
aVreasons
p6487
aVhe
p6488
aVwas
p6489
aVnever
p6490
aVsatisfied
p6491
aV;
aVit
p6492
aVwas
p6493
aVnot
p6494
aVperhaps
p6495
aVmere
p6496
aVfasting
p6497
aVthat
p6498
aVhad
p6499
aVbrought
p6500
aVhim
p6501
aVto
p6502
aVsuch
p6503
aVskeleton
p6504
aVthinness
p6505
aVthat
p6506
aVmany
p6507
aVpeople
p6508
aVhad
p6509
aVregretfully
p6510
aVto
p6511
aVkeep
p6512
aVaway
p6513
aVfrom
p6514
aVhis
p6515
aVexhibitions
p6516
aV,
aVbecause
p6517
aVthe
p6518
aVsight
p6519
aVof
p6520
aVhim
p6521
aVwas
p6522
aVtoo
p6523
aVmuch
p6524
aVfor
p6525
aVthem
p6526
aV,
aVperhaps
p6527
aVit
p6528
aVwas
p6529
aVdissatisfaction
p6530
aVwith
p6531
aVhimself
p6532
aVthat
p6533
aVhad
p6534
aVworn
p6535
aVhim
p6536
aVdown
p6537
aV.
aa(lp6538
Vfor
p6539
aVhe
p6540
aValone
p6541
aVknew
p6542
aV,
aVwhat
p6543
aVno
p6544
aVother
p6545
aVinitiate
p6546
aVknew
p6547
aV,
aVhow
p6548
aVeasy
p6549
aVit
p6550
aVwas
p6551
aVto
p6552
aVfast
p6553
aV.
aa(lp6554
Vit
p6555
aVwas
p6556
aVthe
p6557
aVeasiest
p6558
aVthing
p6559
aVin
p6560
aVthe
p6561
aVworld
p6562
aV.
aa(lp6563
Vhe
p6564
aVmade
p6565
aVno
p6566
aVsecret
p6567
aVof
p6568
aVthis
p6569
aV,
aVyet
p6570
aVpeople
p6571
aVdid
p6572
aVnot
p6573
aVbelieve
p6574
aVhim
p6575
aV.
aa(lp6576
Vat
p6577
aVthe
p6578
aVbest
p6579
aVthey
p6580
aVset
p6581
aVhim
p6582
aVdown
p6583
aVas
p6584
aVmodest
p6585
aV,
aVmost
p6586
aVof
p6587
aVthem
p6588
aV,
aVhowever
p6589
aV,
aVthought
p6590
aVhe
p6591
aVwas
p6592
aVout
p6593
aVfor
p6594
aVpublicity
p6595
aVor
p6596
aVelse
p6597
aVhe
p6598
aVwas
p6599
aVsome
p6600
aVkind
p6601
aVof
p6602
aVcheat
p6603
aVwho
p6604
aVfound
p6605
aVit
p6606
aVeasy
p6607
aVto
p6608
aVfast
p6609
aVbecause
p6610
aVhe
p6611
aVhad
p6612
aVdiscovered
p6613
aVa
aVway
p6614
aVof
p6615
aVmaking
p6616
aVit
p6617
aVeasy
p6618
aV,
aVand
p6619
aVthen
p6620
aVhad
p6621
aVthe
p6622
aVimpudence
p6623
aVto
p6624
aVadmit
p6625
aVthe
p6626
aVfact
p6627
aV,
aVmore
p6628
aVor
p6629
aVless
p6630
aV.
aa(lp6631
Vhe
p6632
aVhad
p6633
aVto
p6634
aVput
p6635
aVup
p6636
aVwith
p6637
aVall
p6638
aVthat
p6639
aV,
aVand
p6640
aVin
p6641
aVthe
p6642
aVcourse
p6643
aVof
p6644
aVtime
p6645
aVhad
p6646
aVgot
p6647
aVused
p6648
aVto
p6649
aVit
p6650
aV,
aVbut
p6651
aVhis
p6652
aVinner
p6653
aVdissatisfaction
p6654
aValways
p6655
aVrankled
p6656
aV,
aVand
p6657
aVnever
p6658
aVyet
p6659
aV,
aVafter
p6660
aVany
p6661
aVterm
p6662
aVof
p6663
aVfasting
p6664
aV--
p6665
aVthis
p6666
aVmust
p6667
aVbe
p6668
aVgranted
p6669
aVto
p6670
aVhis
p6671
aVcredit
p6672
aV--
p6673
aVhad
p6674
aVhe
p6675
aVleft
p6676
aVthe
p6677
aVcage
p6678
aVof
p6679
aVhis
p6680
aVown
p6681
aVfree
p6682
aVwill
p6683
aV.
aa(lp6684
Vthe
p6685
aVlongest
p6686
aVperiod
p6687
aVof
p6688
aVfasting
p6689
aVwas
p6690
aVfixed
p6691
aVby
p6692
aVhis
p6693
aVimpresario
p6694
aVat
p6695
aVforty
p6696
aVdays
p6697
aV,
aVbeyond
p6698
aVthat
p6699
aVterm
p6700
aVhe
p6701
aVwas
p6702
aVnot
p6703
aVallowed
p6704
aVto
p6705
aVgo
p6706
aV,
aVnot
p6707
aVeven
p6708
aVin
p6709
aVgreat
p6710
aVcities
p6711
aV,
aVand
p6712
aVthere
p6713
aVwas
p6714
aVgood
p6715
aVreason
p6716
aVfor
p6717
aVit
p6718
aV,
aVtoo
p6719
aV.
aa(lp6720
Vexperience
p6721
aVhad
p6722
aVproved
p6723
aVthat
p6724
aVfor
p6725
aVabout
p6726
aVforty
p6727
aVdays
p6728
aVthe
p6729
aVinterest
p6730
aVof
p6731
aVthe
p6732
aVpublic
p6733
aVcould
p6734
aVbe
p6735
aVstimulated
p6736
aVby
p6737
aVa
aVsteadily
p6738
aVincreasing
p6739
aVpressure
p6740
aVof
p6741
aVadvertisment
p6742
aV,
aVbut
p6743
aVafter
p6744
aVthat
p6745
aVthe
p6746
aVtown
p6747
aVbegan
p6748
aVto
p6749
aVlose
p6750
aVinterest
p6751
aV,
aVsympathetic
p6752
aVsupport
p6753
aVbegan
p6754
aVnotably
p6755
aVto
p6756
aVfall
p6757
aVoff
p6758
aV,
aVthere
p6759
aVwere
p6760
aVof
p6761
aVcourse
p6762
aVlocal
p6763
aVvariations
p6764
aVas
p6765
aVbetween
p6766
aVone
p6767
aVtown
p6768
aVand
p6769
aVanother
p6770
aV,
aVbut
p6771
aVas
p6772
aVa
aVgeneral
p6773
aVrule
p6774
aVforty
p6775
aVdays
p6776
aVmarked
p6777
aVthe
p6778
aVlimit
p6779
aV.
aa(lp6780
Vso
p6781
aVon
p6782
aVthe
p6783
aVfortieth
p6784
aVday
p6785
aVthe
p6786
aVflower-bedecked
p6787
aVcage
p6788
aVwas
p6789
aVopened
p6790
aV,
aVenthusiastic
p6791
aVspectators
p6792
aVfilled
p6793
aVthe
p6794
aVhall
p6795
aV,
aVa
aVmilitary
p6796
aVband
p6797
aVplayed
p6798
aV,
aVtwo
p6799
aVdoctors
p6800
aVentered
p6801
aVthe
p6802
aVcage
p6803
aVto
p6804
aVmeasure
p6805
aVthe
p6806
aVresults
p6807
aVof
p6808
aVthe
p6809
aVfast
p6810
aV,
aVwhich
p6811
aVwere
p6812
aVannounced
p6813
aVthrough
p6814
aVa
aVmegaphone
p6815
aV,
aVand
p6816
aVfinally
p6817
aVtwo
p6818
aVyoung
p6819
aVladies
p6820
aVappeared
p6821
aV,
aVblissful
p6822
aVat
p6823
aVhaving
p6824
aVbeen
p6825
aVselected
p6826
aVfor
p6827
aVthe
p6828
aVhonor
p6829
aV,
aVto
p6830
aVhelp
p6831
aVthe
p6832
aVhunger
p6833
aVartist
p6834
aVdown
p6835
aVthe
p6836
aVfew
p6837
aVsteps
p6838
aVleading
p6839
aVto
p6840
aVa
aVsmall
p6841
aVtable
p6842
aVon
p6843
aVwhich
p6844
aVwas
p6845
aVspread
p6846
aVa
aVcarefully
p6847
aVchosen
p6848
aVinvalid
p6849
aVrepast
p6850
aV.
aa(lp6851
Vand
p6852
aVat
p6853
aVthis
p6854
aVvery
p6855
aVmoment
p6856
aVthe
p6857
aVartist
p6858
aValways
p6859
aVturned
p6860
aVstubborn
p6861
aV.
aa(lp6862
Vtrue
p6863
aV,
aVhe
p6864
aVwould
p6865
aVentrust
p6866
aVhis
p6867
aVbony
p6868
aVarms
p6869
aVto
p6870
aVthe
p6871
aVoutstretched
p6872
aVhelping
p6873
aVhands
p6874
aVof
p6875
aVthe
p6876
aVladies
p6877
aVbending
p6878
aVover
p6879
aVhim
p6880
aV,
aVbut
p6881
aVstand
p6882
aVup
p6883
aVhe
p6884
aVwould
p6885
aVnot
p6886
aV.
aa(lp6887
Vwhy
p6888
aVstop
p6889
aVfasting
p6890
aVat
p6891
aVthis
p6892
aVparticular
p6893
aVmoment
p6894
aV,
aVafter
p6895
aVforty
p6896
aVdays
p6897
aVof
p6898
aVit
p6899
aV?
aa(lp6900
Vhe
p6901
aVhad
p6902
aVheld
p6903
aVout
p6904
aVfor
p6905
aVa
aVlong
p6906
aVtime
p6907
aV,
aVan
p6908
aVillimitably
p6909
aVlong
p6910
aVtime
p6911
aV;
aVwhy
p6912
aVstop
p6913
aVnow
p6914
aV,
aVwhen
p6915
aVhe
p6916
aVwas
p6917
aVin
p6918
aVhis
p6919
aVbest
p6920
aVfasting
p6921
aVform
p6922
aV,
aVor
p6923
aVrather
p6924
aV,
aVnot
p6925
aVyet
p6926
aVquite
p6927
aVin
p6928
aVhis
p6929
aVbest
p6930
aVfasting
p6931
aVform
p6932
aV?
aa(lp6933
Vwhy
p6934
aVshould
p6935
aVhe
p6936
aVbe
p6937
aVcheated
p6938
aVof
p6939
aVthe
p6940
aVfame
p6941
aVhe
p6942
aVwould
p6943
aVget
p6944
aVfor
p6945
aVfasting
p6946
aVlonger
p6947
aV,
aVfor
p6948
aVbeing
p6949
aVnot
p6950
aVonly
p6951
aVthe
p6952
aVrecord
p6953
aVhunger
p6954
aVartist
p6955
aVof
p6956
aVall
p6957
aVtime
p6958
aV,
aVwhich
p6959
aVpresumably
p6960
aVhe
p6961
aVwas
p6962
aValready
p6963
aV,
aVbut
p6964
aVfor
p6965
aVbeating
p6966
aVhis
p6967
aVown
p6968
aVrecord
p6969
aVby
p6970
aVa
aVperformance
p6971
aVbeyond
p6972
aVhuman
p6973
aVimagination
p6974
aV,
aVsince
p6975
aVhe
p6976
aVfelt
p6977
aVthat
p6978
aVthere
p6979
aVwere
p6980
aVno
p6981
aVlimits
p6982
aVto
p6983
aVhis
p6984
aVcapacity
p6985
aVfor
p6986
aVfasting
p6987
aV?
aa(lp6988
Vhis
p6989
aVpublic
p6990
aVpretended
p6991
aVto
p6992
aVadmire
p6993
aVhim
p6994
aVso
p6995
aVmuch
p6996
aV,
aVwhy
p6997
aVshould
p6998
aVit
p6999
aVhave
p7000
aVso
p7001
aVlittle
p7002
aVpatience
p7003
aVwith
p7004
aVhim
p7005
aV;
aVif
p7006
aVhe
p7007
aVcould
p7008
aVendure
p7009
aVfasting
p7010
aVlonger
p7011
aV,
aVwhy
p7012
aVshould
p7013
aVn't
p7014
aVthe
p7015
aVpublic
p7016
aVendure
p7017
aVit
p7018
aV?
aa(lp7019
Vbesides
p7020
aV,
aVhe
p7021
aVwas
p7022
aVtired
p7023
aV,
aVand
p7024
aVnow
p7025
aVhe
p7026
aVwas
p7027
aVsupposed
p7028
aVto
p7029
aVlift
p7030
aVhimself
p7031
aVto
p7032
aVhis
p7033
aVfull
p7034
aVheight
p7035
aVand
p7036
aVgo
p7037
aVdown
p7038
aVto
p7039
aVa
aVmeal
p7040
aVthe
p7041
aVvery
p7042
aVthought
p7043
aVof
p7044
aVwhich
p7045
aVgave
p7046
aVhim
p7047
aVa
aVnausea
p7048
aVthat
p7049
aVonly
p7050
aVthe
p7051
aVpresence
p7052
aVof
p7053
aVthe
p7054
aVladies
p7055
aVkept
p7056
aVhim
p7057
aVfrom
p7058
aVbetraying
p7059
aV,
aVand
p7060
aVeven
p7061
aVthat
p7062
aVwith
p7063
aVan
p7064
aVeffort
p7065
aV.
aa(lp7066
Vand
p7067
aVhe
p7068
aVlooked
p7069
aVup
p7070
aVinto
p7071
aVthe
p7072
aVeyes
p7073
aVof
p7074
aVthe
p7075
aVladies
p7076
aVwho
p7077
aVwere
p7078
aVapparently
p7079
aVso
p7080
aVfriendly
p7081
aVand
p7082
aVin
p7083
aVreality
p7084
aVso
p7085
aVcruel
p7086
aV,
aVand
p7087
aVshook
p7088
aVhis
p7089
aVhead
p7090
aV,
aVwhich
p7091
aVfelt
p7092
aVtoo
p7093
aVheavy
p7094
aVon
p7095
aVits
p7096
aVstrengthless
p7097
aVneck
p7098
aV.
aa(lp7099
Vbut
p7100
aVthen
p7101
aVthere
p7102
aVhappened
p7103
aVyet
p7104
aVagain
p7105
aVwhat
p7106
aValways
p7107
aVhappened
p7108
aV.
aa(lp7109
Vthe
p7110
aVimpresario
p7111
aVcame
p7112
aVforward
p7113
aV,
aVwithout
p7114
aVa
aVword
p7115
aV--
p7116
aVfor
p7117
aVthe
p7118
aVband
p7119
aVmade
p7120
aVspeech
p7121
aVimpossible
p7122
aV--
p7123
aVlifted
p7124
aVhis
p7125
aVarms
p7126
aVin
p7127
aVthe
p7128
aVair
p7129
aVabove
p7130
aVthe
p7131
aVartist
p7132
aV,
aVas
p7133
aVif
p7134
aVinviting
p7135
aVheaven
p7136
aVto
p7137
aVlook
p7138
aVdown
p7139
aVupon
p7140
aVits
p7141
aVcreature
p7142
aVhere
p7143
aVin
p7144
aVthe
p7145
aVstraw
p7146
aV,
aVthis
p7147
aVsuffering
p7148
aVmartyr
p7149
aV,
aVwhich
p7150
aVindeed
p7151
aVhe
p7152
aVwas
p7153
aV,
aValthough
p7154
aVin
p7155
aVquite
p7156
aVanother
p7157
aVsense
p7158
aV;
aVgrasped
p7159
aVhim
p7160
aVaround
p7161
aVthe
p7162
aVemaciated
p7163
aVwaist
p7164
aV,
aVwith
p7165
aVexaggerated
p7166
aVcaution
p7167
aV,
aVso
p7168
aVthat
p7169
aVthe
p7170
aVfrail
p7171
aVcondition
p7172
aVhe
p7173
aVwas
p7174
aVin
p7175
aVmight
p7176
aVbe
p7177
aVappreciated
p7178
aV;
aVand
p7179
aVcommitted
p7180
aVhim
p7181
aVto
p7182
aVthe
p7183
aVcare
p7184
aVof
p7185
aVthe
p7186
aVblenching
p7187
aVladies
p7188
aV,
aVnot
p7189
aVwithout
p7190
aVsecretly
p7191
aVgiving
p7192
aVhim
p7193
aVa
aVshaking
p7194
aVso
p7195
aVthat
p7196
aVhis
p7197
aVlegs
p7198
aVand
p7199
aVbody
p7200
aVtottered
p7201
aVand
p7202
aVswayed
p7203
aV.
aa(lp7204
Vthe
p7205
aVartist
p7206
aVnow
p7207
aVsubmitted
p7208
aVcompletely
p7209
aV;
aVhis
p7210
aVhead
p7211
aVlolled
p7212
aVon
p7213
aVhis
p7214
aVbreast
p7215
aVas
p7216
aVif
p7217
aVit
p7218
aVhad
p7219
aVlanded
p7220
aVthere
p7221
aVby
p7222
aVchance
p7223
aV;
aVhis
p7224
aVbody
p7225
aVwas
p7226
aVhollowed
p7227
aVout
p7228
aV;
aVhis
p7229
aVlegs
p7230
aVin
p7231
aVa
aVspasm
p7232
aVof
p7233
aVself-preservation
p7234
aVclung
p7235
aVto
p7236
aVeach
p7237
aVother
p7238
aVat
p7239
aVthe
p7240
aVknees
p7241
aV,
aVyet
p7242
aVscraped
p7243
aVon
p7244
aVthe
p7245
aVground
p7246
aVas
p7247
aVif
p7248
aVit
p7249
aVwere
p7250
aVnot
p7251
aVreally
p7252
aVsolid
p7253
aVground
p7254
aV,
aVas
p7255
aVif
p7256
aVthey
p7257
aVwere
p7258
aVonly
p7259
aVtrying
p7260
aVto
p7261
aVfind
p7262
aVsolid
p7263
aVground
p7264
aV;
aVand
p7265
aVthe
p7266
aVwhole
p7267
aVweight
p7268
aVof
p7269
aVhis
p7270
aVbody
p7271
aV,
aVa
aVfeatherweight
p7272
aVafter
p7273
aVall
p7274
aV,
aVrelapsed
p7275
aVonto
p7276
aVone
p7277
aVof
p7278
aVthe
p7279
aVladies
p7280
aV,
aVwho
p7281
aVlooking
p7282
aVround
p7283
aVfor
p7284
aVhelp
p7285
aVand
p7286
aVpanting
p7287
aVa
aVlittle
p7288
aV--
p7289
aVthis
p7290
aVpost
p7291
aVof
p7292
aVhonor
p7293
aVwas
p7294
aVnot
p7295
aVat
p7296
aVall
p7297
aVwhat
p7298
aVshe
p7299
aVexpected
p7300
aVit
p7301
aVto
p7302
aVbe
p7303
aV--
p7304
aVfirst
p7305
aVstretched
p7306
aVher
p7307
aVneck
p7308
aVas
p7309
aVfar
p7310
aVas
p7311
aVshe
p7312
aVcould
p7313
aVto
p7314
aVkeep
p7315
aVher
p7316
aVface
p7317
aVat
p7318
aVleast
p7319
aVfree
p7320
aVfrom
p7321
aVcontact
p7322
aVwith
p7323
aVthe
p7324
aVartist
p7325
aV,
aVthen
p7326
aVfinding
p7327
aVthis
p7328
aVimpossible
p7329
aV,
aVand
p7330
aVher
p7331
aVmore
p7332
aVfortunate
p7333
aVcompanion
p7334
aVnot
p7335
aVcoming
p7336
aVto
p7337
aVher
p7338
aVaid
p7339
aV,
aVbut
p7340
aVmerely
p7341
aVholding
p7342
aVextended
p7343
aVon
p7344
aVher
p7345
aVown
p7346
aVtrembling
p7347
aVhand
p7348
aVthe
p7349
aVlittle
p7350
aVbunch
p7351
aVof
p7352
aVknucklebones
p7353
aVthat
p7354
aVwas
p7355
aVthe
p7356
aVartist
p7357
aV's
p7358
aV,
aVto
p7359
aVthe
p7360
aVgreat
p7361
aVdelight
p7362
aVof
p7363
aVthe
p7364
aVspectators
p7365
aVburst
p7366
aVinto
p7367
aVtears
p7368
aVand
p7369
aVhad
p7370
aVto
p7371
aVbe
p7372
aVreplaced
p7373
aVby
p7374
aVan
p7375
aVattendant
p7376
aVwho
p7377
aVhad
p7378
aVlong
p7379
aVbeen
p7380
aVstationed
p7381
aVin
p7382
aVreadiness
p7383
aV.
aa(lp7384
Vthen
p7385
aVcame
p7386
aVthe
p7387
aVfood
p7388
aV,
aVa
aVlittle
p7389
aVof
p7390
aVwhich
p7391
aVthe
p7392
aVimpresario
p7393
aVmanaged
p7394
aVto
p7395
aVget
p7396
aVbetween
p7397
aVthe
p7398
aVartist
p7399
aV's
p7400
aVlips
p7401
aV,
aVwhile
p7402
aVhe
p7403
aVsat
p7404
aVin
p7405
aVa
aVkind
p7406
aVof
p7407
aVhalf-fainting
p7408
aVtrance
p7409
aV,
aVto
p7410
aVthe
p7411
aVaccompaniment
p7412
aVof
p7413
aVcheerful
p7414
aVpatter
p7415
aVdesigned
p7416
aVto
p7417
aVdistract
p7418
aVthe
p7419
aVpublic
p7420
aV's
p7421
aVattention
p7422
aVfrom
p7423
aVthe
p7424
aVartist
p7425
aV's
p7426
aVcondition
p7427
aV;
aVafter
p7428
aVthat
p7429
aV,
aVa
aVtoast
p7430
aVwas
p7431
aVdrunk
p7432
aVto
p7433
aVthe
p7434
aVpublic
p7435
aV,
aVsupposedly
p7436
aVprompted
p7437
aVby
p7438
aVa
aVwhisper
p7439
aVfrom
p7440
aVthe
p7441
aVartist
p7442
aVin
p7443
aVthe
p7444
aVimpresario
p7445
aV's
p7446
aVear
p7447
aV;
aVthe
p7448
aVband
p7449
aVconfirmed
p7450
aVit
p7451
aVwith
p7452
aVa
aVmighty
p7453
aVflourish
p7454
aV,
aVthe
p7455
aVspectators
p7456
aVmelted
p7457
aVaway
p7458
aV,
aVand
p7459
aVno
p7460
aVone
p7461
aVhad
p7462
aVany
p7463
aVcause
p7464
aVto
p7465
aVbe
p7466
aVdissatisfied
p7467
aVwith
p7468
aVthe
p7469
aVproceedings
p7470
aV,
aVno
p7471
aVone
p7472
aVexcept
p7473
aVthe
p7474
aVhunger
p7475
aVartist
p7476
aVhimself
p7477
aV,
aVhe
p7478
aVonly
p7479
aV,
aVas
p7480
aValways
p7481
aV.
aa(lp7482
Vso
p7483
aVhe
p7484
aVlived
p7485
aVfor
p7486
aVmany
p7487
aVyears
p7488
aV,
aVwith
p7489
aVsmall
p7490
aVregular
p7491
aVintervals
p7492
aVof
p7493
aVrecuperation
p7494
aV,
aVin
p7495
aVvisible
p7496
aVglory
p7497
aV,
aVhonored
p7498
aVby
p7499
aVall
p7500
aVthe
p7501
aVworld
p7502
aV,
aVyet
p7503
aVin
p7504
aVspite
p7505
aVof
p7506
aVthat
p7507
aVtroubled
p7508
aVin
p7509
aVspirit
p7510
aV,
aVand
p7511
aVall
p7512
aVthe
p7513
aVmore
p7514
aVtroubled
p7515
aVbecause
p7516
aVno
p7517
aVone
p7518
aVwould
p7519
aVtake
p7520
aVhis
p7521
aVtrouble
p7522
aVseriously
p7523
aV.
aa(lp7524
Vwhat
p7525
aVcomfort
p7526
aVcould
p7527
aVhe
p7528
aVposibly
p7529
aVneed
p7530
aV?
aa(lp7531
Vwhat
p7532
aVmore
p7533
aVcould
p7534
aVhe
p7535
aVpossibly
p7536
aVwish
p7537
aVfor
p7538
aV?
aa(lp7539
Vand
p7540
aVif
p7541
aVsome
p7542
aVgood-natured
p7543
aVperson
p7544
aV,
aVfeeling
p7545
aVsorry
p7546
aVfor
p7547
aVhim
p7548
aV,
aVtried
p7549
aVto
p7550
aVconsole
p7551
aVhim
p7552
aVby
p7553
aVpointing
p7554
aVout
p7555
aVthat
p7556
aVhis
p7557
aVmelancholy
p7558
aVwas
p7559
aVprobably
p7560
aVcaused
p7561
aVby
p7562
aVfasting
p7563
aV,
aVit
p7564
aVcould
p7565
aVhappen
p7566
aV,
aVespecially
p7567
aVwhen
p7568
aVhe
p7569
aVhad
p7570
aVbeen
p7571
aVfasting
p7572
aVfor
p7573
aVsome
p7574
aVtime
p7575
aV,
aVthat
p7576
aVhe
p7577
aVreacted
p7578
aVwith
p7579
aVan
p7580
aVoutburst
p7581
aVof
p7582
aVfury
p7583
aVand
p7584
aVto
p7585
aVthe
p7586
aVgeneral
p7587
aValarm
p7588
aVbegan
p7589
aVto
p7590
aVshake
p7591
aVthe
p7592
aVbars
p7593
aVof
p7594
aVthe
p7595
aVcage
p7596
aVlike
p7597
aVa
aVwild
p7598
aVanimal
p7599
aV.
aa(lp7600
Vyet
p7601
aVthe
p7602
aVimpresario
p7603
aVhad
p7604
aVa
aVway
p7605
aVof
p7606
aVpunishing
p7607
aVthese
p7608
aVoutbreaks
p7609
aVwhich
p7610
aVhe
p7611
aVrather
p7612
aVenjoyed
p7613
aVputting
p7614
aVinto
p7615
aVoperation
p7616
aV.
aa(lp7617
Vhe
p7618
aVwould
p7619
aVapologize
p7620
aVpublicly
p7621
aVfor
p7622
aVthe
p7623
aVartist
p7624
aV's
p7625
aVbehavior
p7626
aV,
aVwhich
p7627
aVwas
p7628
aVonly
p7629
aVto
p7630
aVbe
p7631
aVexcused
p7632
aV,
aVhe
p7633
aVadmitted
p7634
aV,
aVbecause
p7635
aVof
p7636
aVthe
p7637
aVirritability
p7638
aVcaused
p7639
aVby
p7640
aVfasting
p7641
aV;
aVa
aVcondition
p7642
aVhardly
p7643
aVto
p7644
aVbe
p7645
aVunderstood
p7646
aVby
p7647
aVwell-fed
p7648
aVpeople
p7649
aV;
aVthen
p7650
aVby
p7651
aVnatural
p7652
aVtransition
p7653
aVhe
p7654
aVwent
p7655
aVon
p7656
aVto
p7657
aVmention
p7658
aVthe
p7659
aVartist
p7660
aV's
p7661
aVequally
p7662
aVincomprehensible
p7663
aVboast
p7664
aVthat
p7665
aVhe
p7666
aVcould
p7667
aVfast
p7668
aVfor
p7669
aVmuch
p7670
aVlonger
p7671
aVthan
p7672
aVhe
p7673
aVwas
p7674
aVdoing
p7675
aV;
aVhe
p7676
aVpraised
p7677
aVthe
p7678
aVhigh
p7679
aVambition
p7680
aV,
aVthe
p7681
aVgood
p7682
aVwill
p7683
aV,
aVthe
p7684
aVgreat
p7685
aVself-denial
p7686
aVundoubtedly
p7687
aVimplicit
p7688
aVin
p7689
aVsuch
p7690
aVa
aVstatement
p7691
aV;
aVand
p7692
aVthen
p7693
aVquite
p7694
aVsimply
p7695
aVcountered
p7696
aVit
p7697
aVby
p7698
aVbringing
p7699
aVout
p7700
aVphotographs
p7701
aV,
aVwhich
p7702
aVwere
p7703
aValso
p7704
aVon
p7705
aVsale
p7706
aVto
p7707
aVthe
p7708
aVpublic
p7709
aV,
aVshowing
p7710
aVthe
p7711
aVartist
p7712
aVon
p7713
aVthe
p7714
aVfortieth
p7715
aVday
p7716
aVof
p7717
aVa
aVfast
p7718
aVlying
p7719
aVin
p7720
aVbed
p7721
aValmost
p7722
aVdead
p7723
aVfrom
p7724
aVexhaustion
p7725
aV.
aa(lp7726
Vthis
p7727
aVperversion
p7728
aVof
p7729
aVthe
p7730
aVtruth
p7731
aV,
aVfamiliar
p7732
aVto
p7733
aVthe
p7734
aVartist
p7735
aVthough
p7736
aVit
p7737
aVwas
p7738
aV,
aValways
p7739
aVunnerved
p7740
aVhim
p7741
aVafresh
p7742
aVand
p7743
aVproved
p7744
aVtoo
p7745
aVmuch
p7746
aVfor
p7747
aVhim
p7748
aV.
aa(lp7749
Vwhat
p7750
aVwas
p7751
aVa
aVconsequence
p7752
aVof
p7753
aVthe
p7754
aVpremature
p7755
aVending
p7756
aVof
p7757
aVhis
p7758
aVfast
p7759
aVwas
p7760
aVhere
p7761
aVpresented
p7762
aVas
p7763
aVthe
p7764
aVcause
p7765
aVof
p7766
aVit
p7767
aV!
aa(lp7768
Vto
p7769
aVfight
p7770
aVagainst
p7771
aVthis
p7772
aVlack
p7773
aVof
p7774
aVunderstanding
p7775
aV,
aVagainst
p7776
aVa
aVwhole
p7777
aVworld
p7778
aVof
p7779
aVnon-understanding
p7780
aV,
aVwas
p7781
aVimpossible
p7782
aV.
aa(lp7783
Vtime
p7784
aVand
p7785
aVtime
p7786
aVagain
p7787
aVin
p7788
aVgood
p7789
aVfaith
p7790
aVhe
p7791
aVstood
p7792
aVby
p7793
aVthe
p7794
aVbars
p7795
aVlistening
p7796
aVto
p7797
aVthe
p7798
aVimpresario
p7799
aV,
aVbut
p7800
aVas
p7801
aVsoon
p7802
aVas
p7803
aVthe
p7804
aVphotographs
p7805
aVappeared
p7806
aVhe
p7807
aValways
p7808
aVlet
p7809
aVgo
p7810
aVand
p7811
aVsank
p7812
aVwith
p7813
aVa
aVgroan
p7814
aVback
p7815
aVon
p7816
aVto
p7817
aVhis
p7818
aVstraw
p7819
aV,
aVand
p7820
aVthe
p7821
aVreassured
p7822
aVpublic
p7823
aVcould
p7824
aVonce
p7825
aVmore
p7826
aVcome
p7827
aVclose
p7828
aVand
p7829
aVgaze
p7830
aVat
p7831
aVhim
p7832
aV.
aa(lp7833
Va
aVfew
p7834
aVyears
p7835
aVlater
p7836
aVwhen
p7837
aVthe
p7838
aVwitnesses
p7839
aVof
p7840
aVsuch
p7841
aVscenes
p7842
aVcalled
p7843
aVthem
p7844
aVto
p7845
aVmind
p7846
aV,
aVthey
p7847
aVoften
p7848
aVfailed
p7849
aVto
p7850
aVunderstand
p7851
aVthemselves
p7852
aVat
p7853
aVall
p7854
aV.
aa(lp7855
Vfor
p7856
aVmeanwhile
p7857
aVthe
p7858
aVaforementioned
p7859
aVchance
p7860
aVin
p7861
aVpublic
p7862
aVinterest
p7863
aVhad
p7864
aVset
p7865
aVin
p7866
aV;
aVit
p7867
aVseemed
p7868
aVto
p7869
aVhappen
p7870
aValmost
p7871
aVovernight
p7872
aV;
aVthere
p7873
aVmay
p7874
aVhave
p7875
aVbeen
p7876
aVprofound
p7877
aVcauses
p7878
aVfor
p7879
aVit
p7880
aV,
aVbut
p7881
aVwho
p7882
aVwas
p7883
aVgoing
p7884
aVto
p7885
aVbother
p7886
aVabout
p7887
aVthat
p7888
aV;
aVat
p7889
aVany
p7890
aVrate
p7891
aVthe
p7892
aVpampered
p7893
aVhunger
p7894
aVartist
p7895
aVsuddenly
p7896
aVfound
p7897
aVhimself
p7898
aVdeserted
p7899
aVone
p7900
aVfine
p7901
aVday
p7902
aVby
p7903
aVthe
p7904
aVamusement
p7905
aVseekers
p7906
aV,
aVwho
p7907
aVwent
p7908
aVstreaming
p7909
aVpast
p7910
aVhim
p7911
aVto
p7912
aVother
p7913
aVmore
p7914
aVfavored
p7915
aVattractions
p7916
aV.
aa(lp7917
Vfor
p7918
aVthe
p7919
aVlast
p7920
aVtime
p7921
aVthe
p7922
aVimpresario
p7923
aVhurried
p7924
aVhim
p7925
aVover
p7926
aVhalf
p7927
aVeurope
p7928
aVto
p7929
aVdiscover
p7930
aVwhether
p7931
aVthe
p7932
aVold
p7933
aVinterest
p7934
aVmight
p7935
aVstill
p7936
aVsurvive
p7937
aVhere
p7938
aVand
p7939
aVthere
p7940
aV;
aVall
p7941
aVin
p7942
aVvain
p7943
aV;
aVeverywhere
p7944
aV,
aVas
p7945
aVif
p7946
aVby
p7947
aVsecret
p7948
aVagreement
p7949
aV,
aVa
aVpositive
p7950
aVrevulsion
p7951
aVfrom
p7952
aVprofessional
p7953
aVfasting
p7954
aVwas
p7955
aVin
p7956
aVevidence
p7957
aV.
aa(lp7958
Vof
p7959
aVcourse
p7960
aVit
p7961
aVcould
p7962
aVnot
p7963
aVreally
p7964
aVhave
p7965
aVsprung
p7966
aVup
p7967
aVso
p7968
aVsuddenly
p7969
aVas
p7970
aVall
p7971
aVthat
p7972
aV,
aVand
p7973
aVmany
p7974
aVpremonitory
p7975
aVsymptoms
p7976
aVwhich
p7977
aVhad
p7978
aVnot
p7979
aVbeen
p7980
aVsufficiently
p7981
aVremarked
p7982
aVor
p7983
aVsuppressed
p7984
aVduring
p7985
aVthe
p7986
aVrush
p7987
aVand
p7988
aVglitter
p7989
aVof
p7990
aVsuccess
p7991
aVnow
p7992
aVcame
p7993
aVretrospectively
p7994
aVto
p7995
aVmind
p7996
aV,
aVbut
p7997
aVit
p7998
aVwas
p7999
aVnow
p8000
aVtoo
p8001
aVlate
p8002
aVto
p8003
aVtake
p8004
aVany
p8005
aVcountermeasures
p8006
aV.
aa(lp8007
Vfasting
p8008
aVwould
p8009
aVsurely
p8010
aVcome
p8011
aVinto
p8012
aVfashion
p8013
aVagain
p8014
aVat
p8015
aVsome
p8016
aVfuture
p8017
aVdate
p8018
aV,
aVyet
p8019
aVthat
p8020
aVwas
p8021
aVno
p8022
aVcomfort
p8023
aVfor
p8024
aVthose
p8025
aVliving
p8026
aVin
p8027
aVthe
p8028
aVpresent
p8029
aV.
aa(lp8030
Vwhat
p8031
aV,
aVthen
p8032
aV,
aVwas
p8033
aVthe
p8034
aVhunger
p8035
aVartist
p8036
aVto
p8037
aVdo
p8038
aV?
aa(lp8039
Vhe
p8040
aVhad
p8041
aVbeen
p8042
aVapplauded
p8043
aVby
p8044
aVthousands
p8045
aVin
p8046
aVhis
p8047
aVtime
p8048
aVand
p8049
aVcould
p8050
aVhardly
p8051
aVcome
p8052
aVdown
p8053
aVto
p8054
aVshowing
p8055
aVhimself
p8056
aVin
p8057
aVa
aVstreet
p8058
aVbooth
p8059
aVat
p8060
aVvillage
p8061
aVfairs
p8062
aV,
aVand
p8063
aVas
p8064
aVfor
p8065
aVadopting
p8066
aVanother
p8067
aVprofession
p8068
aV,
aVhe
p8069
aVwas
p8070
aVnot
p8071
aVonly
p8072
aVtoo
p8073
aVold
p8074
aVfor
p8075
aVthat
p8076
aVbut
p8077
aVtoo
p8078
aVfanatically
p8079
aVdevoted
p8080
aVto
p8081
aVfasting
p8082
aV.
aa(lp8083
Vso
p8084
aVhe
p8085
aVtook
p8086
aVleave
p8087
aVof
p8088
aVthe
p8089
aVimpresario
p8090
aV,
aVhis
p8091
aVpartner
p8092
aVin
p8093
aVan
p8094
aVunparalleled
p8095
aVcareer
p8096
aV,
aVand
p8097
aVhired
p8098
aVhimself
p8099
aVto
p8100
aVa
aVlarge
p8101
aVcircus
p8102
aV;
aVin
p8103
aVorder
p8104
aVto
p8105
aVspare
p8106
aVhis
p8107
aVown
p8108
aVfeelings
p8109
aVhe
p8110
aVavoided
p8111
aVreading
p8112
aVthe
p8113
aVconditions
p8114
aVof
p8115
aVhis
p8116
aVcontract
p8117
aV.
aa(lp8118
Va
aVlarge
p8119
aVcircus
p8120
aVwith
p8121
aVits
p8122
aVenormous
p8123
aVtraffic
p8124
aVin
p8125
aVreplacing
p8126
aVand
p8127
aVrecruiting
p8128
aVmen
p8129
aV,
aVanimals
p8130
aVand
p8131
aVapparatus
p8132
aVcan
p8133
aValways
p8134
aVfind
p8135
aVa
aVuse
p8136
aVfor
p8137
aVpeople
p8138
aVat
p8139
aVany
p8140
aVtime
p8141
aV,
aVeven
p8142
aVfor
p8143
aVa
aVhunger
p8144
aVartist
p8145
aV,
aVprovided
p8146
aVof
p8147
aVcourse
p8148
aVthat
p8149
aVhe
p8150
aVdoes
p8151
aVnot
p8152
aVask
p8153
aVtoo
p8154
aVmuch.
p8155
aV,
aVand
p8156
aVin
p8157
aVthis
p8158
aVparticular
p8159
aVcase
p8160
aVanyhow
p8161
aVit
p8162
aVwas
p8163
aVnot
p8164
aVonly
p8165
aVthe
p8166
aVartist
p8167
aVwho
p8168
aVwas
p8169
aVtaken
p8170
aVon
p8171
aVbut
p8172
aVhis
p8173
aVfamous
p8174
aVand
p8175
aVlong-known
p8176
aVname
p8177
aVas
p8178
aVwell
p8179
aV,
aVindeed
p8180
aVconsidering
p8181
aVthe
p8182
aVpeculiar
p8183
aVnature
p8184
aVof
p8185
aVhis
p8186
aVperformance
p8187
aV,
aVwhich
p8188
aVwas
p8189
aVnot
p8190
aVimparired
p8191
aVby
p8192
aVadvancing
p8193
aVage
p8194
aV,
aVit
p8195
aVcould
p8196
aVnot
p8197
aVbe
p8198
aVobjected
p8199
aVthat
p8200
aVhere
p8201
aVwas
p8202
aVan
p8203
aVartist
p8204
aVpast
p8205
aVhis
p8206
aVprime
p8207
aV,
aVno
p8208
aVlonger
p8209
aVat
p8210
aVthe
p8211
aVheight
p8212
aVof
p8213
aVhis
p8214
aVprofessional
p8215
aVskill
p8216
aV,
aVseking
p8217
aVa
aVrefuge
p8218
aVin
p8219
aVsome
p8220
aVquiet
p8221
aVcorner
p8222
aVof
p8223
aVa
aVcircus
p8224
aV,
aVon
p8225
aVthe
p8226
aVcontrary
p8227
aV,
aVthe
p8228
aVhunger
p8229
aVartist
p8230
aVaverred
p8231
aVthat
p8232
aVhe
p8233
aVcould
p8234
aVfast
p8235
aVas
p8236
aVwell
p8237
aVas
p8238
aVever
p8239
aV,
aVwhich
p8240
aVwas
p8241
aVentirely
p8242
aVcredible
p8243
aV,
aVhe
p8244
aVeven
p8245
aValleged
p8246
aVthat
p8247
aVif
p8248
aVhe
p8249
aVwere
p8250
aVallowed
p8251
aVto
p8252
aVfast
p8253
aVas
p8254
aVhe
p8255
aVliked
p8256
aV,
aVand
p8257
aVthis
p8258
aVwas
p8259
aVat
p8260
aVonce
p8261
aVpromised
p8262
aVhim
p8263
aVwithout
p8264
aVmore
p8265
aVado
p8266
aV,
aVhe
p8267
aVcould
p8268
aVastound
p8269
aVthe
p8270
aVworld
p8271
aVby
p8272
aVestablishing
p8273
aVa
aVrecord
p8274
aVnever
p8275
aVyet
p8276
aVachieved
p8277
aV,
aVa
aVstatement
p8278
aVwhich
p8279
aVcertainly
p8280
aVprovoked
p8281
aVa
aVsmile
p8282
aVamong
p8283
aVthe
p8284
aVother
p8285
aVprofessionals
p8286
aV,
aVsince
p8287
aVit
p8288
aVwas
p8289
aVleft
p8290
aVout
p8291
aVof
p8292
aVaccount
p8293
aVthe
p8294
aVchange
p8295
aVin
p8296
aVpublic
p8297
aVopinion
p8298
aV,
aVwhich
p8299
aVthe
p8300
aVhunger
p8301
aVartist
p8302
aVin
p8303
aVhis
p8304
aVzeal
p8305
aVconveniently
p8306
aVforgot
p8307
aV.
aa(lp8308
Vhe
p8309
aVhad
p8310
aVnot
p8311
aV,
aVhowever
p8312
aV,
aVactually
p8313
aVlost
p8314
aVhis
p8315
aVsense
p8316
aVof
p8317
aVthe
p8318
aVreal
p8319
aVsituation
p8320
aVand
p8321
aVtook
p8322
aVit
p8323
aVas
p8324
aVa
aVmatter
p8325
aVof
p8326
aVcourse
p8327
aVthat
p8328
aVhe
p8329
aVand
p8330
aVhis
p8331
aVcage
p8332
aVshould
p8333
aVbe
p8334
aVstationed
p8335
aV,
aVnot
p8336
aVin
p8337
aVthe
p8338
aVmiddle
p8339
aVof
p8340
aVthe
p8341
aVring
p8342
aVas
p8343
aVa
aVmain
p8344
aVattraction
p8345
aV,
aVbut
p8346
aVoutside
p8347
aV,
aVnear
p8348
aVthe
p8349
aVanimal
p8350
aVcages
p8351
aV,
aVon
p8352
aVa
aVsite
p8353
aVthat
p8354
aVwas
p8355
aVafter
p8356
aVall
p8357
aVeasily
p8358
aVaccessible
p8359
aV.
aa(lp8360
Vlarge
p8361
aVand
p8362
aVgaily
p8363
aVpainted
p8364
aVplacards
p8365
aVmade
p8366
aVa
aVframe
p8367
aVfor
p8368
aVthe
p8369
aVcage
p8370
aVand
p8371
aVannounced
p8372
aVwhat
p8373
aVwas
p8374
aVto
p8375
aVbe
p8376
aVseen
p8377
aVinside
p8378
aVit
p8379
aV.
aa(lp8380
Vwhen
p8381
aVthe
p8382
aVpublic
p8383
aVcame
p8384
aVthronging
p8385
aVout
p8386
aVin
p8387
aVthe
p8388
aVintervals
p8389
aVto
p8390
aVsee
p8391
aVthe
p8392
aVanimals
p8393
aV,
aVthey
p8394
aVcould
p8395
aVharly
p8396
aVavoid
p8397
aVpassing
p8398
aVthe
p8399
aVhunger
p8400
aVartist
p8401
aV's
p8402
aVcage
p8403
aVand
p8404
aVstopping
p8405
aVthere
p8406
aVa
aVmoment
p8407
aV,
aVperhaps
p8408
aVthey
p8409
aVmight
p8410
aVeven
p8411
aVhave
p8412
aVstayed
p8413
aVlonger
p8414
aVhad
p8415
aVnot
p8416
aVthose
p8417
aVpressing
p8418
aVbehind
p8419
aVthem
p8420
aVin
p8421
aVthe
p8422
aVnarrow
p8423
aVgangway
p8424
aV,
aVwho
p8425
aVdid
p8426
aVnot
p8427
aVunderstand
p8428
aVwhy
p8429
aVthey
p8430
aVshould
p8431
aVbe
p8432
aVheld
p8433
aVup
p8434
aVon
p8435
aVtheir
p8436
aVway
p8437
aVtowards
p8438
aVthe
p8439
aVexcitements
p8440
aVof
p8441
aVthe
p8442
aVmenagerie
p8443
aV,
aVmade
p8444
aVit
p8445
aVimpossible
p8446
aVfor
p8447
aVanyone
p8448
aVto
p8449
aVstand
p8450
aVgazing
p8451
aVquietly
p8452
aVfor
p8453
aVany
p8454
aVlength
p8455
aVof
p8456
aVtime
p8457
aV.
aa(lp8458
Vand
p8459
aVthat
p8460
aVwas
p8461
aVthe
p8462
aVreason
p8463
aVwhy
p8464
aVthe
p8465
aVhunger
p8466
aVartist
p8467
aV,
aVwho
p8468
aVhad
p8469
aVof
p8470
aVcourse
p8471
aVbeen
p8472
aVlooking
p8473
aVforward
p8474
aVto
p8475
aVthese
p8476
aVvisiting
p8477
aVhours
p8478
aVas
p8479
aVthe
p8480
aVmain
p8481
aVachievement
p8482
aVof
p8483
aVhis
p8484
aVlife
p8485
aV,
aVbegan
p8486
aVinstead
p8487
aVto
p8488
aVshrink
p8489
aVfrom
p8490
aVthem
p8491
aV.
aa(lp8492
Vat
p8493
aVfirst
p8494
aVhe
p8495
aVcould
p8496
aVhardly
p8497
aVwait
p8498
aVfor
p8499
aVthe
p8500
aVintervals
p8501
aV;
aVit
p8502
aVwas
p8503
aVexhilirating
p8504
aVto
p8505
aVwatch
p8506
aVthe
p8507
aVcrowds
p8508
aVcome
p8509
aVstreaming
p8510
aVhis
p8511
aVway
p8512
aV,
aVuntil
p8513
aVonly
p8514
aVtoo
p8515
aVsoon
p8516
aV--
p8517
aVnot
p8518
aVeven
p8519
aVthe
p8520
aVmost
p8521
aVobstinante
p8522
aVself-deception
p8523
aV,
aVclung
p8524
aVto
p8525
aValmost
p8526
aVconsciously
p8527
aV,
aVcould
p8528
aVhold
p8529
aVout
p8530
aVagainst
p8531
aVthe
p8532
aVfact
p8533
aV--
p8534
aVthe
p8535
aVconviction
p8536
aVwas
p8537
aVborne
p8538
aVin
p8539
aVupon
p8540
aVhim
p8541
aVthat
p8542
aVthese
p8543
aVpeople
p8544
aV,
aVmost
p8545
aVof
p8546
aVthem
p8547
aV,
aVto
p8548
aVjudge
p8549
aVfrom
p8550
aVtheir
p8551
aVactions
p8552
aV,
aVagain
p8553
aVand
p8554
aVagain
p8555
aV,
aVwithout
p8556
aVexception
p8557
aV,
aVwere
p8558
aVall
p8559
aVon
p8560
aVtheir
p8561
aVway
p8562
aVto
p8563
aVthe
p8564
aVmenagerie
p8565
aV.
aa(lp8566
Vand
p8567
aVthe
p8568
aVfirst
p8569
aVsight
p8570
aVof
p8571
aVthem
p8572
aVfrom
p8573
aVthe
p8574
aVdistance
p8575
aVremained
p8576
aVthe
p8577
aVbest
p8578
aV.
aa(lp8579
Vfor
p8580
aVwhen
p8581
aVthey
p8582
aVreached
p8583
aVhis
p8584
aVcage
p8585
aVhe
p8586
aVwas
p8587
aVat
p8588
aVonce
p8589
aVdeafened
p8590
aVby
p8591
aVthe
p8592
aVstorm
p8593
aVof
p8594
aVshouting
p8595
aVand
p8596
aVabuse
p8597
aVthat
p8598
aVarose
p8599
aVfrom
p8600
aVthe
p8601
aVtwo
p8602
aVcontending
p8603
aVfactions
p8604
aV,
aVwhich
p8605
aVrenewed
p8606
aVthemselves
p8607
aVcontinuously
p8608
aV,
aVof
p8609
aVthose
p8610
aVwho
p8611
aVwanted
p8612
aVto
p8613
aVstop
p8614
aVand
p8615
aVstare
p8616
aVat
p8617
aVhim
p8618
aV--
p8619
aVhe
p8620
aVsoon
p8621
aVbegan
p8622
aVto
p8623
aVdislike
p8624
aVthem
p8625
aVmore
p8626
aVthan
p8627
aVthe
p8628
aVothers
p8629
aV--
p8630
aVnot
p8631
aVout
p8632
aVof
p8633
aVreal
p8634
aVinterest
p8635
aVbut
p8636
aVonly
p8637
aVout
p8638
aVof
p8639
aVobstinante
p8640
aVself-assertiveness
p8641
aV,
aVand
p8642
aVthose
p8643
aVwho
p8644
aVwanted
p8645
aVto
p8646
aVgo
p8647
aVstraight
p8648
aVon
p8649
aVto
p8650
aVthe
p8651
aVanimals
p8652
aV.
aa(lp8653
Vwhen
p8654
aVthe
p8655
aVfirst
p8656
aVgreat
p8657
aVrush
p8658
aVwas
p8659
aVpast
p8660
aV,
aVthe
p8661
aVstragglers
p8662
aVcame
p8663
aValong
p8664
aV,
aVand
p8665
aVthese
p8666
aV,
aVwhom
p8667
aVnothing
p8668
aVcould
p8669
aVhave
p8670
aVprevented
p8671
aVfrom
p8672
aVstopping
p8673
aVto
p8674
aVlook
p8675
aVat
p8676
aVhim
p8677
aVas
p8678
aVlong
p8679
aVas
p8680
aVthey
p8681
aVhad
p8682
aVbreath
p8683
aV,
aVraced
p8684
aVpast
p8685
aVwith
p8686
aVlong
p8687
aVstrides
p8688
aV,
aVhardly
p8689
aVeven
p8690
aVglancing
p8691
aVat
p8692
aVhim
p8693
aV,
aVin
p8694
aVtheir
p8695
aVhaste
p8696
aVto
p8697
aVget
p8698
aVto
p8699
aVthe
p8700
aVmenagerie
p8701
aVin
p8702
aVtime
p8703
aV.
aa(lp8704
Vand
p8705
aVall
p8706
aVtoo
p8707
aVrarely
p8708
aVdid
p8709
aVit
p8710
aVhappen
p8711
aVthat
p8712
aVhe
p8713
aVhad
p8714
aVa
aVstroke
p8715
aVof
p8716
aVluck
p8717
aV,
aVwhen
p8718
aVsome
p8719
aVfather
p8720
aVof
p8721
aVa
aVfamily
p8722
aVfetched
p8723
aVup
p8724
aVbefore
p8725
aVhim
p8726
aVwith
p8727
aVhis
p8728
aVchildren
p8729
aV,
aVpointed
p8730
aVa
aVfinger
p8731
aVat
p8732
aVthe
p8733
aVhunger
p8734
aVartist
p8735
aVand
p8736
aVexplained
p8737
aVat
p8738
aVlength
p8739
aVwhat
p8740
aVthe
p8741
aVphenomenon
p8742
aVmeant
p8743
aV,
aVtelling
p8744
aVstoried
p8745
aVof
p8746
aVearlier
p8747
aVyears
p8748
aVwhen
p8749
aVhe
p8750
aVhimself
p8751
aVhad
p8752
aVwatched
p8753
aVsimilar
p8754
aVbut
p8755
aVmuch
p8756
aVmore
p8757
aVthrilling
p8758
aVperformances
p8759
aV,
aVand
p8760
aVthe
p8761
aVchildren
p8762
aV,
aVstill
p8763
aVrather
p8764
aVuncomprehending
p8765
aV,
aVsince
p8766
aVneither
p8767
aVinside
p8768
aVnor
p8769
aVoutside
p8770
aVshcool
p8771
aVhad
p8772
aVthey
p8773
aVbeen
p8774
aVsufficiently
p8775
aVprepared
p8776
aVfor
p8777
aVthis
p8778
aVlesson
p8779
aV--
p8780
aVwhat
p8781
aVdid
p8782
aVthey
p8783
aVcare
p8784
aVabout
p8785
aVfasting
p8786
aV?
aV--
p8787
aVyet
p8788
aVshowed
p8789
aVby
p8790
aVthe
p8791
aVbrightnes
p8792
aVof
p8793
aVtheir
p8794
aVintent
p8795
aVeyes
p8796
aVthat
p8797
aVnew
p8798
aVand
p8799
aVbetter
p8800
aVtimes
p8801
aVmight
p8802
aVbe
p8803
aVcoming
p8804
aV.
aa(lp8805
Vperhaps
p8806
aV,
aVsaid
p8807
aVthe
p8808
aVhunger
p8809
aVartist
p8810
aVto
p8811
aVhimself
p8812
aVmany
p8813
aVa
aVtime
p8814
aV,
aVthings
p8815
aVcould
p8816
aVbe
p8817
aVa
aVlittle
p8818
aVbetter
p8819
aVif
p8820
aVhis
p8821
aVcage
p8822
aVwere
p8823
aVset
p8824
aVnot
p8825
aVquite
p8826
aVso
p8827
aVnear
p8828
aVthe
p8829
aVmenagerie
p8830
aV.
aa(lp8831
Vthat
p8832
aVmade
p8833
aVit
p8834
aVtoo
p8835
aVeasy
p8836
aVfor
p8837
aVpeople
p8838
aVto
p8839
aVmake
p8840
aVtheir
p8841
aVchoice
p8842
aV,
aVto
p8843
aVsay
p8844
aVnothing
p8845
aVof
p8846
aVwhat
p8847
aVhe
p8848
aVsuffered
p8849
aVfrom
p8850
aVthe
p8851
aVstench
p8852
aVof
p8853
aVthe
p8854
aVmenagerie
p8855
aV,
aVthe
p8856
aVanimals
p8857
aV'
aVrestlessness
p8858
aVby
p8859
aVnight
p8860
aV,
aVthe
p8861
aVcarrying
p8862
aVpast
p8863
aVof
p8864
aVraw
p8865
aVlumps
p8866
aVof
p8867
aVflesh
p8868
aVfor
p8869
aVthe
p8870
aVbeasts
p8871
aVof
p8872
aVprey
p8873
aV,
aVthe
p8874
aVroaring
p8875
aVat
p8876
aVfeeding
p8877
aVtimes
p8878
aV,
aVwhich
p8879
aVdepressed
p8880
aVhim
p8881
aVcontinuously
p8882
aV.
aa(lp8883
Vbut
p8884
aVhe
p8885
aVdid
p8886
aVnot
p8887
aVdare
p8888
aVto
p8889
aVlodge
p8890
aVa
aVcomplaint
p8891
aVwith
p8892
aVthe
p8893
aVmanagement
p8894
aV;
aVafter
p8895
aVall
p8896
aV,
aVhe
p8897
aVhad
p8898
aVthe
p8899
aVanimals
p8900
aVto
p8901
aVthank
p8902
aVfor
p8903
aVthe
p8904
aVtroops
p8905
aVof
p8906
aVpeople
p8907
aVwho
p8908
aVpassed
p8909
aVhis
p8910
aVcage
p8911
aV,
aVamong
p8912
aVwhom
p8913
aVthere
p8914
aVmight
p8915
aValways
p8916
aVbe
p8917
aVone
p8918
aVhere
p8919
aVand
p8920
aVthere
p8921
aVto
p8922
aVtake
p8923
aVan
p8924
aVinterest
p8925
aVin
p8926
aVhim
p8927
aV,
aVand
p8928
aVwho
p8929
aVcould
p8930
aVtell
p8931
aVwhere
p8932
aVthey
p8933
aVmight
p8934
aVseclude
p8935
aVhim
p8936
aVif
p8937
aVhe
p8938
aVcalled
p8939
aVattention
p8940
aVto
p8941
aVhis
p8942
aVexistence
p8943
aVand
p8944
aVthereby
p8945
aVto
p8946
aVthe
p8947
aVfact
p8948
aVthat
p8949
aV,
aVstrictly
p8950
aVspeaking
p8951
aV,
aVhe
p8952
aVwas
p8953
aVonly
p8954
aVan
p8955
aVimpediment
p8956
aVon
p8957
aVthe
p8958
aVwat
p8959
aVto
p8960
aVthe
p8961
aVmenagerie
p8962
aV.
aa(lp8963
Va
aVsmall
p8964
aVimpediment
p8965
aV,
aVto
p8966
aVbe
p8967
aVsure
p8968
aV,
aVone
p8969
aVthat
p8970
aVgrew
p8971
aVsteadily
p8972
aVless
p8973
aV.
aa(lp8974
Vpeople
p8975
aVgrew
p8976
aVfamiliar
p8977
aVwith
p8978
aVthe
p8979
aVstrange
p8980
aVidea
p8981
aVthat
p8982
aVthey
p8983
aVcould
p8984
aVbe
p8985
aVexpected
p8986
aV,
aVin
p8987
aVtimes
p8988
aVlike
p8989
aVthese
p8990
aV,
aVto
p8991
aVtake
p8992
aVan
p8993
aVinterest
p8994
aVin
p8995
aVa
aVhunger
p8996
aVartist
p8997
aV,
aVand
p8998
aVwith
p8999
aVthis
p9000
aVfamiliarity
p9001
aVthe
p9002
aVverdict
p9003
aVwent
p9004
aVout
p9005
aVagainst
p9006
aVhim
p9007
aV.
aa(lp9008
Vhe
p9009
aVmight
p9010
aVfast
p9011
aVas
p9012
aVmuch
p9013
aVas
p9014
aVhe
p9015
aVcould
p9016
aV,
aVand
p9017
aVhe
p9018
aVdid
p9019
aVso
p9020
aV;
aVbut
p9021
aVnothing
p9022
aVcould
p9023
aVsave
p9024
aVhim
p9025
aVnow
p9026
aV,
aVpeople
p9027
aVpassed
p9028
aVhim
p9029
aVby
p9030
aV.
aa(lp9031
Vjust
p9032
aVtry
p9033
aVto
p9034
aVexplain
p9035
aVto
p9036
aVanyone
p9037
aVthe
p9038
aVart
p9039
aVof
p9040
aVfasting
p9041
aV!
aa(lp9042
Vanyone
p9043
aVwho
p9044
aVhas
p9045
aVno
p9046
aVfeeling
p9047
aVfor
p9048
aVit
p9049
aVcan
p9050
aVnot
p9051
aVbe
p9052
aVmade
p9053
aVto
p9054
aVunderstand
p9055
aVit
p9056
aV.
aa(lp9057
Vthe
p9058
aVfine
p9059
aVplacards
p9060
aVgrew
p9061
aVdirty
p9062
aVand
p9063
aVillegible
p9064
aV,
aVthey
p9065
aVwere
p9066
aVtorn
p9067
aVdown
p9068
aV;
aVthe
p9069
aVlittle
p9070
aVnotice
p9071
aVboard
p9072
aVtelling
p9073
aVthe
p9074
aVnumber
p9075
aVof
p9076
aVfast
p9077
aVdays
p9078
aVachieved
p9079
aV,
aVwhich
p9080
aVat
p9081
aVfirst
p9082
aVwas
p9083
aVchanged
p9084
aVcarefully
p9085
aVevery
p9086
aVday
p9087
aV,
aVhad
p9088
aVlong
p9089
aVstayed
p9090
aVat
p9091
aVthe
p9092
aVsame
p9093
aVfigure
p9094
aV,
aVfor
p9095
aVafter
p9096
aVthe
p9097
aVfirst
p9098
aVfew
p9099
aVweeks
p9100
aVeven
p9101
aVthis
p9102
aVsmall
p9103
aVtask
p9104
aVseemed
p9105
aVpointless
p9106
aVto
p9107
aVthe
p9108
aVstaff
p9109
aV;
aVand
p9110
aVso
p9111
aVthe
p9112
aVartist
p9113
aVsimply
p9114
aVfasted
p9115
aVon
p9116
aVand
p9117
aVon
p9118
aV,
aVas
p9119
aVhe
p9120
aVhad
p9121
aVonce
p9122
aVdreamed
p9123
aVof
p9124
aVdoing
p9125
aV,
aVand
p9126
aVit
p9127
aVwas
p9128
aVno
p9129
aVtrouble
p9130
aVto
p9131
aVhim
p9132
aV,
aVjust
p9133
aVas
p9134
aVhe
p9135
aVhad
p9136
aValways
p9137
aVforetold
p9138
aV,
aVbut
p9139
aVno
p9140
aVone
p9141
aVcounted
p9142
aVthe
p9143
aVdays
p9144
aV,
aVnot
p9145
aVone
p9146
aV,
aVnot
p9147
aVeven
p9148
aVthe
p9149
aVartist
p9150
aVhimself
p9151
aV,
aVknew
p9152
aVwhat
p9153
aVrecords
p9154
aVhe
p9155
aVwas
p9156
aValready
p9157
aVbreaking
p9158
aV,
aVand
p9159
aVhis
p9160
aVheart
p9161
aVgrew
p9162
aVheavy
p9163
aV.
aa(lp9164
Vand
p9165
aVwhen
p9166
aVonce
p9167
aVin
p9168
aVa
aVtime
p9169
aVsome
p9170
aVleisurely
p9171
aVpasser-by
p9172
aVstopped
p9173
aV,
aVmade
p9174
aVmerry
p9175
aVover
p9176
aVthe
p9177
aVold
p9178
aVfigure
p9179
aVon
p9180
aVthe
p9181
aVboard
p9182
aVand
p9183
aVspoke
p9184
aVof
p9185
aVswindling
p9186
aV,
aVthat
p9187
aVwas
p9188
aVin
p9189
aVits
p9190
aVway
p9191
aVthe
p9192
aVstupidest
p9193
aVlie
p9194
aVever
p9195
aVinvented
p9196
aVby
p9197
aVindifference
p9198
aVand
p9199
aVinborn
p9200
aVmalice
p9201
aV,
aVsince
p9202
aVit
p9203
aVwas
p9204
aVnot
p9205
aVthe
p9206
aVhunger
p9207
aVartist
p9208
aVwho
p9209
aVwas
p9210
aVcheating
p9211
aV,
aVhe
p9212
aVwas
p9213
aVworking
p9214
aVhonestly
p9215
aV,
aVbut
p9216
aVthe
p9217
aVworld
p9218
aVwho
p9219
aVwas
p9220
aVcheating
p9221
aVhim
p9222
aVof
p9223
aVhis
p9224
aVreward
p9225
aV.
aa(lp9226
Vmany
p9227
aVmore
p9228
aVdays
p9229
aVwent
p9230
aVby
p9231
aV,
aVhowever
p9232
aV,
aVand
p9233
aVthat
p9234
aVtoo
p9235
aVcame
p9236
aVto
p9237
aVan
p9238
aVend
p9239
aV.
aa(lp9240
Van
p9241
aVoverseer
p9242
aV's
p9243
aVeye
p9244
aVfell
p9245
aVon
p9246
aVthe
p9247
aVcage
p9248
aVone
p9249
aVday
p9250
aVand
p9251
aVhe
p9252
aVasked
p9253
aVthe
p9254
aVattendants
p9255
aVwhy
p9256
aVthis
p9257
aVperfectly
p9258
aVgood
p9259
aVcage
p9260
aVshould
p9261
aVbe
p9262
aVleft
p9263
aVstanding
p9264
aVthere
p9265
aVunused
p9266
aVwith
p9267
aVdirty
p9268
aVstraw
p9269
aVinside
p9270
aVit
p9271
aV;
aVnobody
p9272
aVknew
p9273
aV,
aVuntil
p9274
aVone
p9275
aVman
p9276
aV,
aVhelped
p9277
aVout
p9278
aVby
p9279
aVthe
p9280
aVnotice
p9281
aVboard
p9282
aV,
aVremembered
p9283
aVabout
p9284
aVthe
p9285
aVhunger
p9286
aVartist
p9287
aV.
aa(lp9288
Vthey
p9289
aVpoked
p9290
aVinto
p9291
aVthe
p9292
aVstraw
p9293
aVwith
p9294
aVsticks
p9295
aVand
p9296
aVfound
p9297
aVhim
p9298
aVin
p9299
aVit
p9300
aV.
aa(lp9301
V``
p9302
aVare
p9303
aVyou
p9304
aVstill
p9305
aVfasting
p9306
aV?
aV''
p9307
aa(lp9308
Vasked
p9309
aVthe
p9310
aVoverseer
p9311
aV,
aV``
p9312
aVwhen
p9313
aVon
p9314
aVearth
p9315
aVdo
p9316
aVyou
p9317
aVmean
p9318
aVto
p9319
aVstop
p9320
aV?
aV''
p9321
aa(lp9322
V``
p9323
aVforgive
p9324
aVme
p9325
aV,
aVeverybody
p9326
aV,
aV''
p9327
aVwhispered
p9328
aVthe
p9329
aVhunger
p9330
aVartist
p9331
aV,
aVonly
p9332
aVthe
p9333
aVoverseer
p9334
aV,
aVwho
p9335
aVhad
p9336
aVhis
p9337
aVear
p9338
aVto
p9339
aVthe
p9340
aVbars
p9341
aV,
aVunderstood
p9342
aVhim
p9343
aV.
aa(lp9344
V``
p9345
aVof
p9346
aVcourse
p9347
aV,
aV''
p9348
aVsaid
p9349
aVthe
p9350
aVoverseer
p9351
aV,
aVand
p9352
aVtapped
p9353
aVhis
p9354
aVforehead
p9355
aVwith
p9356
aVa
aVfinger
p9357
aVto
p9358
aVlet
p9359
aVthe
p9360
aVattendants
p9361
aVknow
p9362
aVwhat
p9363
aVstate
p9364
aVthe
p9365
aVman
p9366
aVwas
p9367
aVin
p9368
aV,
aV``
p9369
aVwe
p9370
aVforgive
p9371
aVyou
p9372
aV.
aV''
p9373
aa(lp9374
V``
p9375
aVi
aValways
p9376
aVwanted
p9377
aVyou
p9378
aVto
p9379
aVadmire
p9380
aVmy
p9381
aVfasting
p9382
aV,
aV''
p9383
aVsaid
p9384
aVthe
p9385
aVhunger
p9386
aVartist
p9387
aV.
aa(lp9388
V``
p9389
aVwe
p9390
aVdo
p9391
aVadmire
p9392
aVit
p9393
aV,
aV''
p9394
aVsaid
p9395
aVthe
p9396
aVoverseer
p9397
aV,
aVaffably
p9398
aV.
aa(lp9399
V``
p9400
aVbut
p9401
aVyou
p9402
aVshould
p9403
aVn't
p9404
aVadmire
p9405
aVit
p9406
aV,
aV''
p9407
aVsaid
p9408
aVthe
p9409
aVhunger
p9410
aVartist
p9411
aV.
aa(lp9412
V``
p9413
aVwell
p9414
aVthen
p9415
aVwe
p9416
aVdo
p9417
aVn't
p9418
aVadmire
p9419
aVit
p9420
aV,
aV''
p9421
aVsaid
p9422
aVthe
p9423
aVoverseer
p9424
aV,
aV``
p9425
aVbut
p9426
aVwhy
p9427
aVshould
p9428
aVn't
p9429
aVwe
p9430
aVadmire
p9431
aVit
p9432
aV?
aV''
p9433
aa(lp9434
V``
p9435
aVbecause
p9436
aVi
aVhave
p9437
aVto
p9438
aVfast
p9439
aV,
aVi
aVca
p9440
aVn't
p9441
aVhelp
p9442
aVit
p9443
aV,
aV''
p9444
aVsaid
p9445
aVthe
p9446
aVhunger
p9447
aVartist
p9448
aV.
aa(lp9449
V``
p9450
aVwhat
p9451
aVa
aVfellow
p9452
aVyou
p9453
aVare
p9454
aV,
aV''
p9455
aVsaid
p9456
aVthe
p9457
aVoverseer
p9458
aV,
aV``
p9459
aVand
p9460
aVwhy
p9461
aVca
p9462
aVn't
p9463
aVyou
p9464
aVhelp
p9465
aVit
p9466
aV?
aV''
p9467
aa(lp9468
V``
p9469
aVbecause
p9470
aV,
aV''
p9471
aVsaid
p9472
aVthe
p9473
aVhunger
p9474
aVartist
p9475
aV,
aVlifting
p9476
aVhis
p9477
aVhead
p9478
aVa
aVlittle
p9479
aVand
p9480
aVspeaking
p9481
aV,
aVwith
p9482
aVhis
p9483
aVlips
p9484
aVpursed
p9485
aV,
aVas
p9486
aVif
p9487
aVfor
p9488
aVa
aVkiss
p9489
aV,
aVright
p9490
aVinto
p9491
aVthe
p9492
aVoverseer
p9493
aV's
p9494
aVear
p9495
aV,
aVso
p9496
aVthat
p9497
aVno
p9498
aVsyllable
p9499
aVmight
p9500
aVbe
p9501
aVlost
p9502
aV,
aV``
p9503
aVbecause
p9504
aVi
aVcould
p9505
aVn't
p9506
aVfind
p9507
aVthe
p9508
aVfood
p9509
aVi
aVliked
p9510
aV.
aa(lp9511
Vif
p9512
aVi
aVhad
p9513
aVfound
p9514
aVit
p9515
aV,
aVbelieve
p9516
aVme
p9517
aV,
aVi
aVshould
p9518
aVhave
p9519
aVmade
p9520
aVno
p9521
aVfuss
p9522
aVand
p9523
aVstuffed
p9524
aVmyself
p9525
aVlike
p9526
aVyou
p9527
aVor
p9528
aVanyone
p9529
aVelse
p9530
aV.
aV''
p9531
aa(lp9532
Vthese
p9533
aVwere
p9534
aVhis
p9535
aVlast
p9536
aVwords
p9537
aV,
aVbut
p9538
aVin
p9539
aVhis
p9540
aVdimming
p9541
aVeyes
p9542
aVremained
p9543
aVthe
p9544
aVfirm
p9545
aVthough
p9546
aVno
p9547
aVlonger
p9548
aVproud
p9549
aVpersuasion
p9550
aVthat
p9551
aVhe
p9552
aVwas
p9553
aVcontinuing
p9554
aVto
p9555
aVfast
p9556
aV.
aa(lp9557
V``
p9558
aVwell
p9559
aV,
aVclear
p9560
aVthis
p9561
aVout
p9562
aVnow
p9563
aV!
aV''
p9564
aa(lp9565
Vsaid
p9566
aVthe
p9567
aVoverseer
p9568
aV,
aVand
p9569
aVthey
p9570
aVburied
p9571
aVthe
p9572
aVhunger
p9573
aVartist
p9574
aV,
aVstraw
p9575
aVand
p9576
aVall
p9577
aV.
aa(lp9578
Vinto
p9579
aVthe
p9580
aVcage
p9581
aVthey
p9582
aVput
p9583
aVa
aVyoung
p9584
aVpanther
p9585
aV.
aa(lp9586
Veven
p9587
aVthe
p9588
aVmost
p9589
aVinsensitive
p9590
aVfelt
p9591
aVit
p9592
aVrefreshing
p9593
aVto
p9594
aVsee
p9595
aVthis
p9596
aVwild
p9597
aVcreature
p9598
aVleaping
p9599
aVaround
p9600
aVthe
p9601
aVcage
p9602
aVthat
p9603
aVhad
p9604
aVso
p9605
aVlong
p9606
aVbeen
p9607
aVdreary
p9608
aV.
aa(lp9609
Vthe
p9610
aVpanther
p9611
aVwas
p9612
aVall
p9613
aVright
p9614
aV.
aa(lp9615
Vthe
p9616
aVfood
p9617
aVhe
p9618
aVliked
p9619
aVwas
p9620
aVbrought
p9621
aVhim
p9622
aVwithout
p9623
aVhesitation
p9624
aVby
p9625
aVthe
p9626
aVattendants
p9627
aV;
aVhe
p9628
aVseemed
p9629
aVnot
p9630
aVeven
p9631
aVto
p9632
aVmiss
p9633
aVhis
p9634
aVfreedom
p9635
aV;
aVhis
p9636
aVnoble
p9637
aVbody
p9638
aV,
aVfurnished
p9639
aValmost
p9640
aVto
p9641
aVthe
p9642
aVbursting
p9643
aVpoint
p9644
aVwith
p9645
aVall
p9646
aVthat
p9647
aVit
p9648
aVneeded
p9649
aV,
aVseemed
p9650
aVto
p9651
aVcarry
p9652
aVfreedom
p9653
aVaround
p9654
aVwith
p9655
aVit
p9656
aVtoo
p9657
aV;
aVsomewhere
p9658
aVin
p9659
aVhis
p9660
aVjaws
p9661
aVit
p9662
aVseemed
p9663
aVto
p9664
aVlurk
p9665
aV;
aVand
p9666
aVthe
p9667
aVjoy
p9668
aVof
p9669
aVlife
p9670
aVstreamed
p9671
aVwith
p9672
aVsuch
p9673
aVardent
p9674
aVpassion
p9675
aVfrom
p9676
aVhis
p9677
aVthroat
p9678
aVthat
p9679
aVfor
p9680
aVthe
p9681
aVonlookers
p9682
aVit
p9683
aVwas
p9684
aVnot
p9685
aVeasy
p9686
aVto
p9687
aVstand
p9688
aVthe
p9689
aVshock
p9690
aVof
p9691
aVit
p9692
aV.
aa(lp9693
Vbut
p9694
aVthey
p9695
aVbraced
p9696
aVthemselves
p9697
aV,
aVcrowded
p9698
aVround
p9699
aVthe
p9700
aVcage
p9701
aV,
aVand
p9702
aVdid
p9703
aVnot
p9704
aVwant
p9705
aVever
p9706
aVto
p9707
aVmove
p9708
aVaway
p9709
aV.
aasb.