ccopy_reg
_reconstructor
p1
(cData.Book
Book
p2
c__builtin__
object
p3
NtRp4
(dp5
S'stored_object'
p6
S'Books/A_Hunger_Artist/Book_object.p'
p7
sS'title'
p8
S'A Hunger Artist'
p9
sS'main_text_path'
p10
S'Books/A_Hunger_Artist/main_cleaned.txt'
p11
sS'metadata_path'
p12
S'Books/A_Hunger_Artist/meta_data.csv'
p13
sS'book_path'
p14
S'Books/A_Hunger_Artist/'
p15
sS'characters'
p16
(dp17
S'the overseer'
p18
(dp19
S'list'
p20
(lp21
(lp22
Vthe
p23
aV[
aVCHARACTER
p24
aV]
aV-
aVa
aVcircus
p25
aVmanager
p26
aVwho
p27
aVdiscovers
p28
aVthe
p29
aVhunger
p30
aVartist
p31
aVdying
p32
aVin
p33
aVhis
p34
aVcage
p35
aV.
aa(lp36
Vthe
p37
aV[
aVCHARACTER
p38
aV]
aVhears
p39
aVthe
p40
aVhunger
p41
aVartist
p42
aV's
p43
aVfinal
p44
aVwords
p45
aV,
aVbut
p46
aVhe
p47
aVclearly
p48
aVdoes
p49
aVnot
p50
aVcare
p51
aVwhether
p52
aVhe
p53
aVlives
p54
aVor
p55
aVdies
p56
aV.
aa(lp57
Vas
p58
aVsoon
p59
aVas
p60
aVthe
p61
aVhunger
p62
aVartist
p63
aVexpires
p64
aV,
aVthe
p65
aV[
aVCHARACTER
p66
aV]
aVcallously
p67
aVorders
p68
aVthat
p69
aVhis
p70
aVbody
p71
aVbe
p72
aVtaken
p73
aVaway
p74
aVand
p75
aVreplaces
p76
aVhim
p77
aVwith
p78
aVa
aVpanther
p79
aV.
aasS'analysis'
p80
NssS'the hunger artist'
p81
(dp82
g20
(lp83
(lp84
Vthe
p85
aV[
aVCHARACTER
p86
aV]
aV-
aVthe
p87
aVmiserable
p88
aVprotagonist
p89
aVof
p90
aVthe
p91
aVstory
p92
aV.
aa(lp93
Vdressed
p94
aVin
p95
aVblack
p96
aVtights
p97
aV,
aVthe
p98
aV[
aVCHARACTER
p99
aV]
aVis
p100
aVemaciated
p101
aV.
aa(lp102
Veverything
p103
aVabout
p104
aVhis
p105
aVdemeanor
p106
aVcries
p107
aVof
p108
aVdesperation
p109
aVand
p110
aVtragedy
p111
aV.
aa(lp112
Vhe
p113
aVsequesters
p114
aVhimself
p115
aVin
p116
aVa
aVcage
p117
aV,
aVpreferring
p118
aVto
p119
aVsit
p120
aVon
p121
aVthe
p122
aVstraw-lined
p123
aVfloor
p124
aVrather
p125
aVthan
p126
aVon
p127
aVa
aVchair
p128
aV.
aa(lp129
Valthough
p130
aVhe
p131
aVcraves
p132
aVpublic
p133
aVattention
p134
aVand
p135
aVis
p136
aVdelighted
p137
aVto
p138
aVdisplay
p139
aVhimself
p140
aVto
p141
aVwide-eyed
p142
aVspectators
p143
aV,
aVhe
p144
aVis
p145
aVoften
p146
aVfrustrated
p147
aVwith
p148
aVthe
p149
aVinteractions
p150
aVhe
p151
aVhas
p152
aVwith
p153
aVothers
p154
aV.
aa(lp155
Vwhile
p156
aVin
p157
aVhis
p158
aVcage
p159
aV,
aVthe
p160
aV[
aVCHARACTER
p161
aV]
aVwithdraws
p162
aVinto
p163
aVhimself
p164
aV,
aVseemingly
p165
aVin
p166
aVa
aVtrance
p167
aV.
aa(lp168
Vhe
p169
aVthinks
p170
aVof
p171
aVlittle
p172
aVmore
p173
aVthan
p174
aVthe
p175
aVart
p176
aVof
p177
aVfasting
p178
aVand
p179
aVhis
p180
aVdesire
p181
aVto
p182
aVbe
p183
aVthe
p184
aVgreatest
p185
aVfaster
p186
aVof
p187
aVall
p188
aVtime
p189
aV.
aasg80
(lp190
(lp191
Vthe
p192
aV[
aVCHARACTER
p193
aV]
aVthe
p194
aVkey
p195
aVto
p196
aVthe
p197
aV[
aVCHARACTER
p198
aV]
aV's
p199
aVcharacter
p200
aVlies
p201
aVin
p202
aVhis
p203
aVidentity
p204
aVas
p205
aVa
aVprofessional
p206
aVfaster
p207
aV,
aVand
p208
aVat
p209
aVthe
p210
aVcenter
p211
aVof
p212
aVhis
p213
aVdedication
p214
aVto
p215
aVthe
p216
aVperfection
p217
aVof
p218
aVhis
p219
aVart
p220
aVis
p221
aVhis
p222
aVambition
p223
aVto
p224
aVachieve
p225
aVsomething
p226
aVthat
p227
aVno
p228
aVone
p229
aVhas
p230
aVever
p231
aVachieved
p232
aVbefore
p233
aV.
aa(lp234
Vthe
p235
aVhunger
p236
aVthat
p237
aVthe
p238
aV[
aVCHARACTER
p239
aV]
aVwillfully
p240
aVendures
p241
aVhas
p242
aVa
aVdouble
p243
aVmeaning
p244
aV:
aVit
p245
aVrefers
p246
aVto
p247
aVhis
p248
aVvocation
p249
aVof
p250
aVfasting
p251
aVas
p252
aVwell
p253
aVas
p254
aVhis
p255
aVinsatiable
p256
aVyearning
p257
aVto
p258
aVdefy
p259
aVhuman
p260
aVimagination
p261
aVby
p262
aVfasting
p263
aVindefinitely
p264
aV.
aa(lp265
Vdriven
p266
aVto
p267
aVrenounce
p268
aVthe
p269
aVnourishment
p270
aVthat
p271
aVthe
p272
aVrest
p273
aVof
p274
aVhumanity
p275
aVembraces
p276
aV,
aVthe
p277
aV[
aVCHARACTER
p278
aV]
aVliterally
p279
aVlives
p280
aVin
p281
aVself-denial
p282
aV,
aVforsaking
p283
aVcomfort
p284
aV,
aVcompanionship
p285
aV,
aVand
p286
aV,
aVmost
p287
aVimportant
p288
aV,
aVfood
p289
aV,
aVall
p290
aVof
p291
aVwhich
p292
aVare
p293
aVnecessary
p294
aVto
p295
aVsurvival
p296
aV.
aa(lp297
Vthus
p298
aV,
aVthe
p299
aV[
aVCHARACTER
p300
aV]
aV's
p301
aVdevotion
p302
aVto
p303
aVhis
p304
aVart
p305
aVconstitutes
p306
aVa
aVthinly
p307
aVmasked
p308
aVdeath
p309
aVwish
p310
aV.
aa(lp311
Vunwilling
p312
aVto
p313
aVrespond
p314
aVto
p315
aVthe
p316
aVneeds
p317
aVhe
p318
aVhas
p319
aVas
p320
aVa
aVhuman
p321
aVbeing
p322
aV,
aVlet
p323
aValone
p324
aVas
p325
aVa
aVliving
p326
aVthing
p327
aV,
aVthe
p328
aV[
aVCHARACTER
p329
aV]
aVmakes
p330
aVdeath
p331
aVthe
p332
aVculmination
p333
aVof
p334
aVhis
p335
aVlife
p336
aV's
p337
aVwork
p338
aV.
aa(lp339
Vthe
p340
aV[
aVCHARACTER
p341
aV]
aVis
p342
aVdoomed
p343
aVto
p344
aVbe
p345
aVunhappy
p346
aVbecause
p347
aVhe
p348
aVdepends
p349
aVon
p350
aVothers
p351
aV'
aVunderstanding
p352
aVto
p353
aVvalidate
p354
aVhis
p355
aVperformance
p356
aV,
aVwhich
p357
aVis
p358
aV,
aVby
p359
aVhis
p360
aVown
p361
aVdescription
p362
aV,
aV``
p363
aVbeyond
p364
aVhuman
p365
aVimagination
p366
aV.
aV''
p367
aa(lp368
Vhe
p369
aVfeels
p370
aVdeep
p371
aVdisdain
p372
aVfor
p373
aVhis
p374
aVspectators
p375
aV,
aVbut
p376
aVbecause
p377
aVthe
p378
aVnature
p379
aVof
p380
aVperformance
p381
aVart
p382
aVrequires
p383
aVspectators
p384
aV,
aVthe
p385
aV[
aVCHARACTER
p386
aV]
aVis
p387
aVtied
p388
aVto
p389
aVthe
p390
aVpeople
p391
aVhe
p392
aVseeks
p393
aVto
p394
aVevade
p395
aV.
aa(lp396
Vhe
p397
aVis
p398
aV,
aVin
p399
aVa
aVsense
p400
aV,
aVa
aVmisfit
p401
aVin
p402
aVa
aVshowman
p403
aV's
p404
aVposition
p405
aV,
aVand
p406
aVhe
p407
aVcomes
p408
aVto
p409
aVdepend
p410
aVon
p411
aVthe
p412
aVpraise
p413
aVand
p414
aVwide-eyed
p415
aVamazement
p416
aVof
p417
aVhis
p418
aVspectators
p419
aVas
p420
aVif
p421
aVthey
p422
aVthemselves
p423
aVwere
p424
aVthe
p425
aVfood
p426
aVof
p427
aVlife
p428
aV.
aa(lp429
Vwhen
p430
aVhe
p431
aVexperiences
p432
aVtheir
p433
aVsuspicion
p434
aV,
aVcynicism
p435
aV,
aVand
p436
aVindifference
p437
aV,
aVhe
p438
aVbecomes
p439
aVfrustrated
p440
aV,
aVunable
p441
aVto
p442
aVunderstand
p443
aVthat
p444
aVbeing
p445
aVan
p446
aVartist
p447
aVoften
p448
aVmeans
p449
aVbeing
p450
aValienated
p451
aVfrom
p452
aVothers
p453
aV.
aa(lp454
Vonly
p455
aVat
p456
aVthe
p457
aVend
p458
aVof
p459
aVhis
p460
aVlife
p461
aVdoes
p462
aVthe
p463
aV[
aVCHARACTER
p464
aV]
aVseem
p465
aVto
p466
aVapproach
p467
aVan
p468
aVunderstanding
p469
aVof
p470
aVthe
p471
aVparadox
p472
aVthat
p473
aVdefines
p474
aVhis
p475
aVexistence
p476
aV.
aa(lp477
Vat
p478
aVthis
p479
aVpoint
p480
aV,
aVhe
p481
aVno
p482
aVlonger
p483
aVthinks
p484
aVthat
p485
aV``
p486
aVthe
p487
aVworld
p488
aV[
aVis
p489
aV]
aVcheating
p490
aVhim
p491
aVof
p492
aVhis
p493
aVreward
p494
aV,
aV''
p495
aVbut
p496
aVrather
p497
aVthat
p498
aVhis
p499
aVaspirations
p500
aVcould
p501
aVnever
p502
aVbe
p503
aVrewarded
p504
aVin
p505
aVthe
p506
aVworld
p507
aVin
p508
aVwhich
p509
aVhe
p510
aVlives
p511
aV.
aassS'the impresario'
p512
(dp513
g20
(lp514
(lp515
Vthe
p516
aV[
aVCHARACTER
p517
aV]
aV-
aVthe
p518
aVhunger
p519
aVartist
p520
aV's
p521
aVmanager
p522
aV.
aa(lp523
Vuntil
p524
aVhis
p525
aVpartnership
p526
aVwith
p527
aVthe
p528
aVhunger
p529
aVartist
p530
aVends
p531
aV,
aVthe
p532
aV[
aVCHARACTER
p533
aV]
aVis
p534
aVwholly
p535
aVdedicated
p536
aVto
p537
aVthe
p538
aVhunger
p539
aVartist
p540
aV's
p541
aVcareer
p542
aVand
p543
aVdevotes
p544
aVall
p545
aVhis
p546
aVresources
p547
aVto
p548
aVhis
p549
aVadvancement
p550
aV.
aa(lp551
Vas
p552
aVa
aVresult
p553
aVof
p554
aVspending
p555
aVso
p556
aVmuch
p557
aVtime
p558
aVwith
p559
aVthe
p560
aVhunger
p561
aVartist
p562
aV,
aVthe
p563
aV[
aVCHARACTER
p564
aV]
aVlikely
p565
aVknows
p566
aVhim
p567
aVbetter
p568
aVthan
p569
aVanyone
p570
aVelse
p571
aV.
aa(lp572
Vall
p573
aVthe
p574
aVsame
p575
aV,
aVthey
p576
aVdo
p577
aVnot
p578
aVseem
p579
aVto
p580
aVbe
p581
aVfriends
p582
aV,
aVgiven
p583
aVthe
p584
aVpleasure
p585
aVthat
p586
aVthe
p587
aV[
aVCHARACTER
p588
aV]
aVtakes
p589
aVin
p590
aVtaunting
p591
aVthe
p592
aVhunger
p593
aVartist
p594
aVduring
p595
aVhis
p596
aVperformances
p597
aVto
p598
aVincrease
p599
aVthe
p600
aVdrama
p601
aVand
p602
aVexcitement
p603
aV.
aasg80
(lp604
(lp605
Vthe
p606
aV[
aVCHARACTER
p607
aV]
aVthe
p608
aV[
aVCHARACTER
p609
aV]
aVis
p610
aVpart
p611
aVof
p612
aVa
aVclass
p613
aVof
p614
aVpeople
p615
aVwho
p616
aVexploit
p617
aVart
p618
aVand
p619
aVartists
p620
aVfor
p621
aVtheir
p622
aVown
p623
aVpersonal
p624
aVgain
p625
aV.
aa(lp626
Vthough
p627
aVthe
p628
aV[
aVCHARACTER
p629
aV]
aVis
p630
aVthe
p631
aVhunger
p632
aVartist
p633
aV's
p634
aV``
p635
aVpartner
p636
aVin
p637
aVan
p638
aVunparalleled
p639
aVcareer
p640
aV,
aV''
p641
aVa
aVdescription
p642
aVthat
p643
aVwould
p644
aVsuggest
p645
aVcamaraderie
p646
aVbetween
p647
aVthe
p648
aVtwo
p649
aVmen
p650
aV,
aVhe
p651
aVbehaves
p652
aVfor
p653
aVthe
p654
aVmost
p655
aVpart
p656
aVas
p657
aVa
aVparasite
p658
aVwould
p659
aV,
aVfattening
p660
aVhimself
p661
aVon
p662
aVthe
p663
aVproceeds
p664
aVpresumably
p665
aVgiven
p666
aVto
p667
aVthe
p668
aVhunger
p669
aVartist
p670
aVfor
p671
aVhis
p672
aVperformances
p673
aV.
aa(lp674
Vthe
p675
aV[
aVCHARACTER
p676
aV]
aVfinds
p677
aVsustenance
p678
aVby
p679
aVcapitalizing
p680
aVon
p681
aVanother
p682
aVman
p683
aV's
p684
aVstarvation
p685
aV.
aa(lp686
Vin
p687
aVessence
p688
aV,
aVthe
p689
aV[
aVCHARACTER
p690
aV]
aVcommodifies
p691
aVthe
p692
aVhunger
p693
aVartist
p694
aV's
p695
aVsuffering
p696
aV,
aVwhen
p697
aVall
p698
aVthe
p699
aVhunger
p700
aVartist
p701
aVaspires
p702
aVto
p703
aVdo
p704
aVis
p705
aVbe
p706
aVrecognized
p707
aVfor
p708
aVhis
p709
aVefforts
p710
aVand
p711
aVachievements
p712
aV.
aa(lp713
Vthe
p714
aV[
aVCHARACTER
p715
aV]
aV's
p716
aVcareer
p717
aVtrajectory
p718
aVand
p719
aVbusiness
p720
aVpractices
p721
aV,
aVwhen
p722
aVtaken
p723
aVtogether
p724
aV,
aVfurther
p725
aVindicate
p726
aVhis
p727
aVparasitic
p728
aVnature
p729
aV.
aa(lp730
Vjust
p731
aVas
p732
aVthe
p733
aVparasite
p734
aVis
p735
aVmost
p736
aVeffective
p737
aVwhen
p738
aVit
p739
aVdoes
p740
aVnot
p741
aVdrain
p742
aVits
p743
aVhost
p744
aVcompletely
p745
aV,
aVthe
p746
aV[
aVCHARACTER
p747
aV]
aVis
p748
aVmost
p749
aVsuccessful
p750
aVfor
p751
aVshepherding
p752
aVthe
p753
aVhunger
p754
aVartist
p755
aVback
p756
aVfrom
p757
aVthe
p758
aVbrink
p759
aVof
p760
aVdeath
p761
aVat
p762
aVthe
p763
aVend
p764
aVof
p765
aVeach
p766
aVperformance
p767
aV.
aa(lp768
Vfinally
p769
aV,
aVthe
p770
aV[
aVCHARACTER
p771
aV]
aVabandons
p772
aVhis
p773
aVhost
p774
aVwhen
p775
aVnourishment
p776
aVis
p777
aVno
p778
aVlonger
p779
aVavailable
p780
aV.
aa(lp781
Vwhile
p782
aVthe
p783
aV[
aVCHARACTER
p784
aV]
aV's
p785
aVmotivations
p786
aVfor
p787
aVassociating
p788
aVwith
p789
aVthe
p790
aVhunger
p791
aVartist
p792
aVare
p793
aVprimarily
p794
aVself-centered
p795
aV,
aVthe
p796
aV[
aVCHARACTER
p797
aV]
aVplays
p798
aVan
p799
aVimportant
p800
aVrole
p801
aVin
p802
aVenabling
p803
aVthe
p804
aVhunger
p805
aVartist
p806
aVto
p807
aVcome
p808
aVclose
p809
aVto
p810
aVreaching
p811
aVhis
p812
aVgoal
p813
aV.
aa(lp814
Vthe
p815
aV[
aVCHARACTER
p816
aV]
aVmay
p817
aVbehave
p818
aVas
p819
aVthe
p820
aVhunger
p821
aVartist
p822
aV's
p823
aVparasitic
p824
aVpublicist
p825
aV,
aVbut
p826
aVhe
p827
aValso
p828
aVfunctions
p829
aVas
p830
aVthe
p831
aVhunger
p832
aVartist
p833
aV's
p834
aVonly
p835
aVconnection
p836
aVto
p837
aVthe
p838
aVpeople
p839
aVon
p840
aVwhom
p841
aVhe
p842
aVdepends
p843
aVto
p844
aVrecognize
p845
aVhis
p846
aVartistic
p847
aVachievement
p848
aV.
aa(lp849
Vby
p850
aVtaking
p851
aVresponsibility
p852
aVfor
p853
aVthe
p854
aVhunger
p855
aVartist
p856
aV's
p857
aVphysical
p858
aVneeds
p859
aV,
aVeven
p860
aVto
p861
aVthe
p862
aVextent
p863
aVof
p864
aVforce-feeding
p865
aVhim
p866
aV,
aVthe
p867
aV[
aVCHARACTER
p868
aV]
aVfrees
p869
aVthe
p870
aVhunger
p871
aVartist
p872
aVto
p873
aVfocus
p874
aVsolely
p875
aVon
p876
aVhis
p877
aVaspiration
p878
aVto
p879
aVfast
p880
aV.
aa(lp881
Vof
p882
aVthe
p883
aVtwo
p884
aV,
aVit
p885
aVis
p886
aVthe
p887
aV[
aVCHARACTER
p888
aV]
aVwho
p889
aVmost
p890
aVclearly
p891
aVperceives
p892
aVthe
p893
aVdisconnect
p894
aVbetween
p895
aVthe
p896
aVhunger
p897
aVartist
p898
aV's
p899
aVapparent
p900
aVdeath
p901
aVwish
p902
aVand
p903
aVneed
p904
aVto
p905
aVbe
p906
aVrecognized
p907
aVby
p908
aVthe
p909
aVmasses
p910
aV.
aa(lp911
Vby
p912
aVremaining
p913
aVwith
p914
aVthe
p915
aVhunger
p916
aVartist
p917
aVuntil
p918
aVhe
p919
aVno
p920
aVlonger
p921
aVpossibly
p922
aVcan
p923
aV,
aVthe
p924
aV[
aVCHARACTER
p925
aV]
aVis
p926
aVin
p927
aVsome
p928
aVways
p929
aVthe
p930
aVhunger
p931
aVartist
p932
aV's
p933
aVpartner
p934
aVand
p935
aVdevoted
p936
aVcaretaker
p937
aV.
aasssS'mainText'
p938
(lp939
(lp940
Vduring
p941
aVthese
p942
aVlast
p943
aVdecades
p944
aVthe
p945
aVinterest
p946
aVin
p947
aVprofessional
p948
aVfasting
p949
aVhas
p950
aVmarkedly
p951
aVdiminished
p952
aV.
aa(lp953
Vit
p954
aVused
p955
aVto
p956
aVpay
p957
aVvery
p958
aVwell
p959
aVto
p960
aVstage
p961
aVsuch
p962
aVgreat
p963
aVperformances
p964
aVunder
p965
aVone
p966
aV's
p967
aVown
p968
aVmanagement
p969
aV,
aVbut
p970
aVtoday
p971
aVthat
p972
aVis
p973
aVquite
p974
aVimpossible
p975
aV.
aa(lp976
Vwe
p977
aVlive
p978
aVin
p979
aVa
aVdifferent
p980
aVworld
p981
aVnow
p982
aV.
aa(lp983
Vat
p984
aVone
p985
aVtime
p986
aVthe
p987
aVwhole
p988
aVtown
p989
aVtook
p990
aVa
aVlively
p991
aVinterest
p992
aVin
p993
aVthe
p994
aVhunger
p995
aVartist
p996
aV;
aVfrom
p997
aVday
p998
aVto
p999
aVday
p1000
aVof
p1001
aVhis
p1002
aVfast
p1003
aVthe
p1004
aVexcitement
p1005
aVmounted
p1006
aV;
aVeverybody
p1007
aVwanted
p1008
aVto
p1009
aVsee
p1010
aVhim
p1011
aVat
p1012
aVleast
p1013
aVonce
p1014
aVa
aVday
p1015
aV;
aVthere
p1016
aVwere
p1017
aVpeople
p1018
aVwho
p1019
aVbought
p1020
aVseason
p1021
aVtickets
p1022
aVfor
p1023
aVthe
p1024
aVlast
p1025
aVfew
p1026
aVdays
p1027
aVand
p1028
aVsat
p1029
aVfrom
p1030
aVmorning
p1031
aVtill
p1032
aVnight
p1033
aVin
p1034
aVfront
p1035
aVof
p1036
aVhis
p1037
aVsmall
p1038
aVbarred
p1039
aVcage
p1040
aV;
aVeven
p1041
aVin
p1042
aVthe
p1043
aVnighttime
p1044
aVthere
p1045
aVwere
p1046
aVvisiting
p1047
aVhours
p1048
aV,
aVwhen
p1049
aVthe
p1050
aVwhole
p1051
aVeffect
p1052
aVwas
p1053
aVheightened
p1054
aVby
p1055
aVtorch
p1056
aVflares
p1057
aV;
aVon
p1058
aVfine
p1059
aVdays
p1060
aVthe
p1061
aVcage
p1062
aVwas
p1063
aVset
p1064
aVout
p1065
aVin
p1066
aVthe
p1067
aVopen
p1068
aVair
p1069
aV,
aVand
p1070
aVthen
p1071
aVit
p1072
aVwas
p1073
aVthe
p1074
aVchildren
p1075
aV's
p1076
aVspecial
p1077
aVtreat
p1078
aVto
p1079
aVsee
p1080
aVthe
p1081
aVhunger
p1082
aVartist
p1083
aV;
aVfor
p1084
aVtheir
p1085
aVelders
p1086
aVhe
p1087
aVwas
p1088
aVoften
p1089
aVjust
p1090
aVa
aVjoke
p1091
aVthat
p1092
aVhappened
p1093
aVto
p1094
aVbe
p1095
aVin
p1096
aVfashion
p1097
aV,
aVbut
p1098
aVthe
p1099
aVchildren
p1100
aVstood
p1101
aVopenmouthed
p1102
aV,
aVholding
p1103
aVeach
p1104
aVother
p1105
aV's
p1106
aVhands
p1107
aVfor
p1108
aVgreater
p1109
aVsecurity
p1110
aV,
aVmarveling
p1111
aVat
p1112
aVhim
p1113
aVas
p1114
aVhe
p1115
aVsat
p1116
aVthere
p1117
aVpallid
p1118
aVin
p1119
aVblack
p1120
aVtights
p1121
aV,
aVwith
p1122
aVhis
p1123
aVribs
p1124
aVsticking
p1125
aVout
p1126
aVso
p1127
aVprominently
p1128
aV,
aVnot
p1129
aVeven
p1130
aVon
p1131
aVa
aVseat
p1132
aVbut
p1133
aVdown
p1134
aVamong
p1135
aVstraw
p1136
aVon
p1137
aVthe
p1138
aVground
p1139
aV,
aVsometimes
p1140
aVgiving
p1141
aVa
aVcourteous
p1142
aVnod
p1143
aV,
aVanswering
p1144
aVquestions
p1145
aVwith
p1146
aVa
aVconstrained
p1147
aVsmile
p1148
aV,
aVor
p1149
aVperhaps
p1150
aVstretching
p1151
aVan
p1152
aVarm
p1153
aVthrough
p1154
aVthe
p1155
aVbars
p1156
aVso
p1157
aVthat
p1158
aVone
p1159
aVmight
p1160
aVfeel
p1161
aVhow
p1162
aVthin
p1163
aVit
p1164
aVwas
p1165
aV,
aVand
p1166
aVthen
p1167
aVagain
p1168
aVwithdrawing
p1169
aVdeep
p1170
aVinto
p1171
aVhimself
p1172
aV,
aVpaying
p1173
aVno
p1174
aVattention
p1175
aVto
p1176
aVanyone
p1177
aVor
p1178
aVanything
p1179
aV,
aVnot
p1180
aVeven
p1181
aVto
p1182
aVthe
p1183
aVall-important
p1184
aVstriking
p1185
aVof
p1186
aVthe
p1187
aVclock
p1188
aVthat
p1189
aVwas
p1190
aVthe
p1191
aVonly
p1192
aVpiece
p1193
aVof
p1194
aVfurniture
p1195
aVin
p1196
aVhis
p1197
aVcage
p1198
aV,
aVbut
p1199
aVmerely
p1200
aVstaring
p1201
aVinto
p1202
aVvacancy
p1203
aVwith
p1204
aVhalf-shut
p1205
aVeyes
p1206
aV,
aVnow
p1207
aVand
p1208
aVthen
p1209
aVtaking
p1210
aVa
aVsip
p1211
aVfrom
p1212
aVa
aVtiny
p1213
aVglass
p1214
aVof
p1215
aVwater
p1216
aVto
p1217
aVmoisten
p1218
aVhis
p1219
aVlips
p1220
aV.
aa(lp1221
Vbesides
p1222
aVcasual
p1223
aVonlookers
p1224
aVthere
p1225
aVwere
p1226
aValso
p1227
aVrelays
p1228
aVof
p1229
aVpermanent
p1230
aVwatchers
p1231
aVselected
p1232
aVby
p1233
aVthe
p1234
aVpublic
p1235
aV,
aVususally
p1236
aVbutchers
p1237
aV,
aVstrangely
p1238
aVenough
p1239
aV,
aVand
p1240
aVit
p1241
aVwas
p1242
aVtheir
p1243
aVtask
p1244
aVto
p1245
aVwatch
p1246
aVthe
p1247
aVhunger
p1248
aVartist
p1249
aVday
p1250
aVand
p1251
aVnight
p1252
aV,
aVthree
p1253
aVof
p1254
aVthem
p1255
aVat
p1256
aVa
aVtime
p1257
aV,
aVin
p1258
aVcase
p1259
aVhe
p1260
aVshould
p1261
aVhave
p1262
aVsome
p1263
aVsecret
p1264
aVrecourse
p1265
aVto
p1266
aVnourishment
p1267
aV.
aa(lp1268
Vthis
p1269
aVwas
p1270
aVnothing
p1271
aVbut
p1272
aVa
aVformality
p1273
aV,
aVinstituted
p1274
aVto
p1275
aVreassure
p1276
aVthe
p1277
aVmasses
p1278
aV,
aVfor
p1279
aVthe
p1280
aVinitiates
p1281
aVknew
p1282
aVwell
p1283
aVenough
p1284
aVthat
p1285
aVduring
p1286
aVhis
p1287
aVfast
p1288
aVthe
p1289
aVartist
p1290
aVwould
p1291
aVnever
p1292
aVin
p1293
aVany
p1294
aVcircumstances
p1295
aV,
aVnot
p1296
aVeven
p1297
aVunder
p1298
aVforcible
p1299
aVcompulsion
p1300
aV,
aVswallow
p1301
aVthe
p1302
aVsmallest
p1303
aVmorsel
p1304
aVof
p1305
aVfood
p1306
aV;
aVthe
p1307
aVhonor
p1308
aVof
p1309
aVhis
p1310
aVprofession
p1311
aVforbade
p1312
aVit
p1313
aV.
aa(lp1314
Vnot
p1315
aVevery
p1316
aVwatcher
p1317
aV,
aVof
p1318
aVcourse
p1319
aV,
aVwas
p1320
aVcapable
p1321
aVof
p1322
aVunderstanding
p1323
aVthis
p1324
aV,
aVthere
p1325
aVwere
p1326
aVoften
p1327
aVgroups
p1328
aVof
p1329
aVnight
p1330
aVwatchers
p1331
aVwho
p1332
aVwere
p1333
aVvery
p1334
aVlax
p1335
aVin
p1336
aVcarrying
p1337
aVout
p1338
aVtheir
p1339
aVduties
p1340
aVand
p1341
aVdeliberately
p1342
aVhudled
p1343
aVtogether
p1344
aVin
p1345
aVa
aVretired
p1346
aVcorner
p1347
aVto
p1348
aVplay
p1349
aVcards
p1350
aVwith
p1351
aVgreat
p1352
aVabsorption
p1353
aV,
aVobviously
p1354
aVintending
p1355
aVto
p1356
aVgive
p1357
aVthe
p1358
aVhunger
p1359
aVartist
p1360
aVthe
p1361
aVchance
p1362
aVof
p1363
aVa
aVlittle
p1364
aVrefreshment
p1365
aV,
aVwhich
p1366
aVthey
p1367
aVsupposed
p1368
aVhe
p1369
aVcould
p1370
aVdraw
p1371
aVfrom
p1372
aVsome
p1373
aVprivate
p1374
aVhoard
p1375
aV.
aa(lp1376
Vnothing
p1377
aVannoyed
p1378
aVthe
p1379
aVartist
p1380
aVmore
p1381
aVthan
p1382
aVsuch
p1383
aVwatchers
p1384
aV;
aVthey
p1385
aVmade
p1386
aVhim
p1387
aVmiserable
p1388
aV;
aVthey
p1389
aVmade
p1390
aVhis
p1391
aVfast
p1392
aVseem
p1393
aVunendurable
p1394
aV;
aVsometimes
p1395
aVhe
p1396
aVmastered
p1397
aVhis
p1398
aVfeebleness
p1399
aVsufficiently
p1400
aVto
p1401
aVsing
p1402
aVduring
p1403
aVtheir
p1404
aVwatch
p1405
aVfor
p1406
aVas
p1407
aVlong
p1408
aVas
p1409
aVhe
p1410
aVcould
p1411
aVkeep
p1412
aVgoing
p1413
aV,
aVto
p1414
aVshow
p1415
aVthem
p1416
aVhow
p1417
aVunjust
p1418
aVtheir
p1419
aVsuspicions
p1420
aVwere
p1421
aV.
aa(lp1422
Vbut
p1423
aVthat
p1424
aVwas
p1425
aVof
p1426
aVlittle
p1427
aVuse
p1428
aV;
aVthey
p1429
aVonly
p1430
aVwondered
p1431
aVat
p1432
aVhis
p1433
aVcleverness
p1434
aVin
p1435
aVbeing
p1436
aVable
p1437
aVto
p1438
aVfill
p1439
aVhis
p1440
aVmouth
p1441
aVeven
p1442
aVwhile
p1443
aVsinging
p1444
aV.
aa(lp1445
Vmuch
p1446
aVmore
p1447
aVto
p1448
aVhis
p1449
aVtaste
p1450
aVwere
p1451
aVthe
p1452
aVwatchers
p1453
aVwho
p1454
aVsat
p1455
aVup
p1456
aVclose
p1457
aVto
p1458
aVthe
p1459
aVbars
p1460
aV,
aVwho
p1461
aVwere
p1462
aVnot
p1463
aVcontent
p1464
aVwith
p1465
aVthe
p1466
aVdim
p1467
aVnight
p1468
aVlighting
p1469
aVof
p1470
aVthe
p1471
aVhall
p1472
aVbut
p1473
aVfocused
p1474
aVhim
p1475
aVin
p1476
aVthe
p1477
aVfull
p1478
aVglare
p1479
aVof
p1480
aVthe
p1481
aVelectric
p1482
aVpocket
p1483
aVtorch
p1484
aVgiven
p1485
aVthem
p1486
aVby
p1487
aVthe
p1488
aVimpresario
p1489
aV.
aa(lp1490
Vthe
p1491
aVharsh
p1492
aVlight
p1493
aVdid
p1494
aVnot
p1495
aVtrouble
p1496
aVhim
p1497
aVat
p1498
aVall
p1499
aV,
aVin
p1500
aVany
p1501
aVcase
p1502
aVhe
p1503
aVcould
p1504
aVnever
p1505
aVsleep
p1506
aVproperly
p1507
aV,
aVand
p1508
aVhe
p1509
aVcould
p1510
aValways
p1511
aVdrowse
p1512
aVa
aVlittle
p1513
aV,
aVeven
p1514
aVwhen
p1515
aVthe
p1516
aVhall
p1517
aVwas
p1518
aVthronged
p1519
aVwith
p1520
aVnoisy
p1521
aVonlookers
p1522
aV.
aa(lp1523
Vhe
p1524
aVwas
p1525
aVquite
p1526
aVhappy
p1527
aVat
p1528
aVthe
p1529
aVprospect
p1530
aVof
p1531
aVspending
p1532
aVa
aVsleepless
p1533
aVnight
p1534
aVwith
p1535
aVsuch
p1536
aVwatchers
p1537
aV;
aVhe
p1538
aVwas
p1539
aVready
p1540
aVto
p1541
aVexchange
p1542
aVjokes
p1543
aVwith
p1544
aVthem
p1545
aV,
aVto
p1546
aVtell
p1547
aVthem
p1548
aVstories
p1549
aVout
p1550
aVof
p1551
aVhis
p1552
aVnomadic
p1553
aVlife
p1554
aV,
aVanything
p1555
aVat
p1556
aVall
p1557
aVto
p1558
aVkeep
p1559
aVthem
p1560
aVawake
p1561
aVand
p1562
aVdemonstrate
p1563
aVto
p1564
aVthem
p1565
aVthat
p1566
aVhe
p1567
aVhad
p1568
aVno
p1569
aVeatables
p1570
aVin
p1571
aVhis
p1572
aVcage
p1573
aVand
p1574
aVthat
p1575
aVhe
p1576
aVwas
p1577
aVfasting
p1578
aVas
p1579
aVnot
p1580
aVone
p1581
aVof
p1582
aVthem
p1583
aVcould
p1584
aVfast
p1585
aV.
aa(lp1586
Vbut
p1587
aVhis
p1588
aVhappiest
p1589
aVmoment
p1590
aVwas
p1591
aVwhen
p1592
aVthe
p1593
aVmorning
p1594
aVcame
p1595
aVand
p1596
aVan
p1597
aVenormous
p1598
aVbreakfast
p1599
aVwas
p1600
aVbrought
p1601
aVthem
p1602
aV,
aVat
p1603
aVhis
p1604
aVexpense
p1605
aV,
aVon
p1606
aVwhich
p1607
aVthey
p1608
aVflung
p1609
aVthemselves
p1610
aVwit
p1611
aVhthe
p1612
aVkeen
p1613
aVappetite
p1614
aVof
p1615
aVhealthy
p1616
aVmen
p1617
aVafter
p1618
aVa
aVweary
p1619
aVnight
p1620
aVof
p1621
aVwakefulness
p1622
aV.
aa(lp1623
Vof
p1624
aVcourse
p1625
aVthere
p1626
aVwere
p1627
aVpeople
p1628
aVwho
p1629
aVargued
p1630
aVthat
p1631
aVthis
p1632
aVbreakfast
p1633
aVwas
p1634
aVan
p1635
aVunfair
p1636
aVattempt
p1637
aVto
p1638
aVbribe
p1639
aVthe
p1640
aVwatchers
p1641
aV,
aVbut
p1642
aVthat
p1643
aVwas
p1644
aVgoing
p1645
aVrather
p1646
aVtoo
p1647
aVfar
p1648
aV,
aVand
p1649
aVwhen
p1650
aVthey
p1651
aVwere
p1652
aVinvited
p1653
aVto
p1654
aVtake
p1655
aVon
p1656
aVa
aVnight
p1657
aV's
p1658
aVvigil
p1659
aVwithout
p1660
aVa
aVbreakfast
p1661
aV,
aVmerely
p1662
aVfor
p1663
aVthe
p1664
aVsake
p1665
aVof
p1666
aVthe
p1667
aVcause
p1668
aV,
aVthey
p1669
aVmade
p1670
aVthemselves
p1671
aVscarce
p1672
aV,
aValthough
p1673
aVthey
p1674
aVstuck
p1675
aVstubbornly
p1676
aVto
p1677
aVtheir
p1678
aVsuspicions
p1679
aV.
aa(lp1680
Vsuch
p1681
aVsuspicions
p1682
aV,
aVanyhow
p1683
aV,
aVwere
p1684
aVa
aVnecessary
p1685
aVaccompaniment
p1686
aVto
p1687
aVthe
p1688
aVprofession
p1689
aVof
p1690
aVfasting
p1691
aV.
aa(lp1692
Vno
p1693
aVone
p1694
aVcould
p1695
aVpossibly
p1696
aVwatch
p1697
aVthe
p1698
aVhunger
p1699
aVartist
p1700
aVcontinuosly
p1701
aV,
aVday
p1702
aVand
p1703
aVnight
p1704
aV,
aVand
p1705
aVso
p1706
aVno
p1707
aVone
p1708
aVcould
p1709
aVproduce
p1710
aVfirst-hand
p1711
aVevidence
p1712
aVthat
p1713
aVthe
p1714
aVfast
p1715
aVhad
p1716
aVreally
p1717
aVbeen
p1718
aVrigorous
p1719
aVand
p1720
aVcontinuous
p1721
aV;
aVonly
p1722
aVthe
p1723
aVartist
p1724
aVhimself
p1725
aVcould
p1726
aVknow
p1727
aVthat
p1728
aV,
aVhe
p1729
aVwas
p1730
aVtherefore
p1731
aVbound
p1732
aVto
p1733
aVbe
p1734
aVthe
p1735
aVsole
p1736
aVcompletely
p1737
aVsatisfied
p1738
aVspectator
p1739
aVof
p1740
aVhis
p1741
aVown
p1742
aVfast
p1743
aV.
aa(lp1744
Vyet
p1745
aVfor
p1746
aVother
p1747
aVreasons
p1748
aVhe
p1749
aVwas
p1750
aVnever
p1751
aVsatisfied
p1752
aV;
aVit
p1753
aVwas
p1754
aVnot
p1755
aVperhaps
p1756
aVmere
p1757
aVfasting
p1758
aVthat
p1759
aVhad
p1760
aVbrought
p1761
aVhim
p1762
aVto
p1763
aVsuch
p1764
aVskeleton
p1765
aVthinness
p1766
aVthat
p1767
aVmany
p1768
aVpeople
p1769
aVhad
p1770
aVregretfully
p1771
aVto
p1772
aVkeep
p1773
aVaway
p1774
aVfrom
p1775
aVhis
p1776
aVexhibitions
p1777
aV,
aVbecause
p1778
aVthe
p1779
aVsight
p1780
aVof
p1781
aVhim
p1782
aVwas
p1783
aVtoo
p1784
aVmuch
p1785
aVfor
p1786
aVthem
p1787
aV,
aVperhaps
p1788
aVit
p1789
aVwas
p1790
aVdissatisfaction
p1791
aVwith
p1792
aVhimself
p1793
aVthat
p1794
aVhad
p1795
aVworn
p1796
aVhim
p1797
aVdown
p1798
aV.
aa(lp1799
Vfor
p1800
aVhe
p1801
aValone
p1802
aVknew
p1803
aV,
aVwhat
p1804
aVno
p1805
aVother
p1806
aVinitiate
p1807
aVknew
p1808
aV,
aVhow
p1809
aVeasy
p1810
aVit
p1811
aVwas
p1812
aVto
p1813
aVfast
p1814
aV.
aa(lp1815
Vit
p1816
aVwas
p1817
aVthe
p1818
aVeasiest
p1819
aVthing
p1820
aVin
p1821
aVthe
p1822
aVworld
p1823
aV.
aa(lp1824
Vhe
p1825
aVmade
p1826
aVno
p1827
aVsecret
p1828
aVof
p1829
aVthis
p1830
aV,
aVyet
p1831
aVpeople
p1832
aVdid
p1833
aVnot
p1834
aVbelieve
p1835
aVhim
p1836
aV.
aa(lp1837
Vat
p1838
aVthe
p1839
aVbest
p1840
aVthey
p1841
aVset
p1842
aVhim
p1843
aVdown
p1844
aVas
p1845
aVmodest
p1846
aV,
aVmost
p1847
aVof
p1848
aVthem
p1849
aV,
aVhowever
p1850
aV,
aVthought
p1851
aVhe
p1852
aVwas
p1853
aVout
p1854
aVfor
p1855
aVpublicity
p1856
aVor
p1857
aVelse
p1858
aVhe
p1859
aVwas
p1860
aVsome
p1861
aVkind
p1862
aVof
p1863
aVcheat
p1864
aVwho
p1865
aVfound
p1866
aVit
p1867
aVeasy
p1868
aVto
p1869
aVfast
p1870
aVbecause
p1871
aVhe
p1872
aVhad
p1873
aVdiscovered
p1874
aVa
aVway
p1875
aVof
p1876
aVmaking
p1877
aVit
p1878
aVeasy
p1879
aV,
aVand
p1880
aVthen
p1881
aVhad
p1882
aVthe
p1883
aVimpudence
p1884
aVto
p1885
aVadmit
p1886
aVthe
p1887
aVfact
p1888
aV,
aVmore
p1889
aVor
p1890
aVless
p1891
aV.
aa(lp1892
Vhe
p1893
aVhad
p1894
aVto
p1895
aVput
p1896
aVup
p1897
aVwith
p1898
aVall
p1899
aVthat
p1900
aV,
aVand
p1901
aVin
p1902
aVthe
p1903
aVcourse
p1904
aVof
p1905
aVtime
p1906
aVhad
p1907
aVgot
p1908
aVused
p1909
aVto
p1910
aVit
p1911
aV,
aVbut
p1912
aVhis
p1913
aVinner
p1914
aVdissatisfaction
p1915
aValways
p1916
aVrankled
p1917
aV,
aVand
p1918
aVnever
p1919
aVyet
p1920
aV,
aVafter
p1921
aVany
p1922
aVterm
p1923
aVof
p1924
aVfasting
p1925
aV--
p1926
aVthis
p1927
aVmust
p1928
aVbe
p1929
aVgranted
p1930
aVto
p1931
aVhis
p1932
aVcredit
p1933
aV--
p1934
aVhad
p1935
aVhe
p1936
aVleft
p1937
aVthe
p1938
aVcage
p1939
aVof
p1940
aVhis
p1941
aVown
p1942
aVfree
p1943
aVwill
p1944
aV.
aa(lp1945
Vthe
p1946
aVlongest
p1947
aVperiod
p1948
aVof
p1949
aVfasting
p1950
aVwas
p1951
aVfixed
p1952
aVby
p1953
aVhis
p1954
aVimpresario
p1955
aVat
p1956
aVforty
p1957
aVdays
p1958
aV,
aVbeyond
p1959
aVthat
p1960
aVterm
p1961
aVhe
p1962
aVwas
p1963
aVnot
p1964
aVallowed
p1965
aVto
p1966
aVgo
p1967
aV,
aVnot
p1968
aVeven
p1969
aVin
p1970
aVgreat
p1971
aVcities
p1972
aV,
aVand
p1973
aVthere
p1974
aVwas
p1975
aVgood
p1976
aVreason
p1977
aVfor
p1978
aVit
p1979
aV,
aVtoo
p1980
aV.
aa(lp1981
Vexperience
p1982
aVhad
p1983
aVproved
p1984
aVthat
p1985
aVfor
p1986
aVabout
p1987
aVforty
p1988
aVdays
p1989
aVthe
p1990
aVinterest
p1991
aVof
p1992
aVthe
p1993
aVpublic
p1994
aVcould
p1995
aVbe
p1996
aVstimulated
p1997
aVby
p1998
aVa
aVsteadily
p1999
aVincreasing
p2000
aVpressure
p2001
aVof
p2002
aVadvertisment
p2003
aV,
aVbut
p2004
aVafter
p2005
aVthat
p2006
aVthe
p2007
aVtown
p2008
aVbegan
p2009
aVto
p2010
aVlose
p2011
aVinterest
p2012
aV,
aVsympathetic
p2013
aVsupport
p2014
aVbegan
p2015
aVnotably
p2016
aVto
p2017
aVfall
p2018
aVoff
p2019
aV,
aVthere
p2020
aVwere
p2021
aVof
p2022
aVcourse
p2023
aVlocal
p2024
aVvariations
p2025
aVas
p2026
aVbetween
p2027
aVone
p2028
aVtown
p2029
aVand
p2030
aVanother
p2031
aV,
aVbut
p2032
aVas
p2033
aVa
aVgeneral
p2034
aVrule
p2035
aVforty
p2036
aVdays
p2037
aVmarked
p2038
aVthe
p2039
aVlimit
p2040
aV.
aa(lp2041
Vso
p2042
aVon
p2043
aVthe
p2044
aVfortieth
p2045
aVday
p2046
aVthe
p2047
aVflower-bedecked
p2048
aVcage
p2049
aVwas
p2050
aVopened
p2051
aV,
aVenthusiastic
p2052
aVspectators
p2053
aVfilled
p2054
aVthe
p2055
aVhall
p2056
aV,
aVa
aVmilitary
p2057
aVband
p2058
aVplayed
p2059
aV,
aVtwo
p2060
aVdoctors
p2061
aVentered
p2062
aVthe
p2063
aVcage
p2064
aVto
p2065
aVmeasure
p2066
aVthe
p2067
aVresults
p2068
aVof
p2069
aVthe
p2070
aVfast
p2071
aV,
aVwhich
p2072
aVwere
p2073
aVannounced
p2074
aVthrough
p2075
aVa
aVmegaphone
p2076
aV,
aVand
p2077
aVfinally
p2078
aVtwo
p2079
aVyoung
p2080
aVladies
p2081
aVappeared
p2082
aV,
aVblissful
p2083
aVat
p2084
aVhaving
p2085
aVbeen
p2086
aVselected
p2087
aVfor
p2088
aVthe
p2089
aVhonor
p2090
aV,
aVto
p2091
aVhelp
p2092
aVthe
p2093
aVhunger
p2094
aVartist
p2095
aVdown
p2096
aVthe
p2097
aVfew
p2098
aVsteps
p2099
aVleading
p2100
aVto
p2101
aVa
aVsmall
p2102
aVtable
p2103
aVon
p2104
aVwhich
p2105
aVwas
p2106
aVspread
p2107
aVa
aVcarefully
p2108
aVchosen
p2109
aVinvalid
p2110
aVrepast
p2111
aV.
aa(lp2112
Vand
p2113
aVat
p2114
aVthis
p2115
aVvery
p2116
aVmoment
p2117
aVthe
p2118
aVartist
p2119
aValways
p2120
aVturned
p2121
aVstubborn
p2122
aV.
aa(lp2123
Vtrue
p2124
aV,
aVhe
p2125
aVwould
p2126
aVentrust
p2127
aVhis
p2128
aVbony
p2129
aVarms
p2130
aVto
p2131
aVthe
p2132
aVoutstretched
p2133
aVhelping
p2134
aVhands
p2135
aVof
p2136
aVthe
p2137
aVladies
p2138
aVbending
p2139
aVover
p2140
aVhim
p2141
aV,
aVbut
p2142
aVstand
p2143
aVup
p2144
aVhe
p2145
aVwould
p2146
aVnot
p2147
aV.
aa(lp2148
Vwhy
p2149
aVstop
p2150
aVfasting
p2151
aVat
p2152
aVthis
p2153
aVparticular
p2154
aVmoment
p2155
aV,
aVafter
p2156
aVforty
p2157
aVdays
p2158
aVof
p2159
aVit
p2160
aV?
aa(lp2161
Vhe
p2162
aVhad
p2163
aVheld
p2164
aVout
p2165
aVfor
p2166
aVa
aVlong
p2167
aVtime
p2168
aV,
aVan
p2169
aVillimitably
p2170
aVlong
p2171
aVtime
p2172
aV;
aVwhy
p2173
aVstop
p2174
aVnow
p2175
aV,
aVwhen
p2176
aVhe
p2177
aVwas
p2178
aVin
p2179
aVhis
p2180
aVbest
p2181
aVfasting
p2182
aVform
p2183
aV,
aVor
p2184
aVrather
p2185
aV,
aVnot
p2186
aVyet
p2187
aVquite
p2188
aVin
p2189
aVhis
p2190
aVbest
p2191
aVfasting
p2192
aVform
p2193
aV?
aa(lp2194
Vwhy
p2195
aVshould
p2196
aVhe
p2197
aVbe
p2198
aVcheated
p2199
aVof
p2200
aVthe
p2201
aVfame
p2202
aVhe
p2203
aVwould
p2204
aVget
p2205
aVfor
p2206
aVfasting
p2207
aVlonger
p2208
aV,
aVfor
p2209
aVbeing
p2210
aVnot
p2211
aVonly
p2212
aVthe
p2213
aVrecord
p2214
aVhunger
p2215
aVartist
p2216
aVof
p2217
aVall
p2218
aVtime
p2219
aV,
aVwhich
p2220
aVpresumably
p2221
aVhe
p2222
aVwas
p2223
aValready
p2224
aV,
aVbut
p2225
aVfor
p2226
aVbeating
p2227
aVhis
p2228
aVown
p2229
aVrecord
p2230
aVby
p2231
aVa
aVperformance
p2232
aVbeyond
p2233
aVhuman
p2234
aVimagination
p2235
aV,
aVsince
p2236
aVhe
p2237
aVfelt
p2238
aVthat
p2239
aVthere
p2240
aVwere
p2241
aVno
p2242
aVlimits
p2243
aVto
p2244
aVhis
p2245
aVcapacity
p2246
aVfor
p2247
aVfasting
p2248
aV?
aa(lp2249
Vhis
p2250
aVpublic
p2251
aVpretended
p2252
aVto
p2253
aVadmire
p2254
aVhim
p2255
aVso
p2256
aVmuch
p2257
aV,
aVwhy
p2258
aVshould
p2259
aVit
p2260
aVhave
p2261
aVso
p2262
aVlittle
p2263
aVpatience
p2264
aVwith
p2265
aVhim
p2266
aV;
aVif
p2267
aVhe
p2268
aVcould
p2269
aVendure
p2270
aVfasting
p2271
aVlonger
p2272
aV,
aVwhy
p2273
aVshould
p2274
aVn't
p2275
aVthe
p2276
aVpublic
p2277
aVendure
p2278
aVit
p2279
aV?
aa(lp2280
Vbesides
p2281
aV,
aVhe
p2282
aVwas
p2283
aVtired
p2284
aV,
aVand
p2285
aVnow
p2286
aVhe
p2287
aVwas
p2288
aVsupposed
p2289
aVto
p2290
aVlift
p2291
aVhimself
p2292
aVto
p2293
aVhis
p2294
aVfull
p2295
aVheight
p2296
aVand
p2297
aVgo
p2298
aVdown
p2299
aVto
p2300
aVa
aVmeal
p2301
aVthe
p2302
aVvery
p2303
aVthought
p2304
aVof
p2305
aVwhich
p2306
aVgave
p2307
aVhim
p2308
aVa
aVnausea
p2309
aVthat
p2310
aVonly
p2311
aVthe
p2312
aVpresence
p2313
aVof
p2314
aVthe
p2315
aVladies
p2316
aVkept
p2317
aVhim
p2318
aVfrom
p2319
aVbetraying
p2320
aV,
aVand
p2321
aVeven
p2322
aVthat
p2323
aVwith
p2324
aVan
p2325
aVeffort
p2326
aV.
aa(lp2327
Vand
p2328
aVhe
p2329
aVlooked
p2330
aVup
p2331
aVinto
p2332
aVthe
p2333
aVeyes
p2334
aVof
p2335
aVthe
p2336
aVladies
p2337
aVwho
p2338
aVwere
p2339
aVapparently
p2340
aVso
p2341
aVfriendly
p2342
aVand
p2343
aVin
p2344
aVreality
p2345
aVso
p2346
aVcruel
p2347
aV,
aVand
p2348
aVshook
p2349
aVhis
p2350
aVhead
p2351
aV,
aVwhich
p2352
aVfelt
p2353
aVtoo
p2354
aVheavy
p2355
aVon
p2356
aVits
p2357
aVstrengthless
p2358
aVneck
p2359
aV.
aa(lp2360
Vbut
p2361
aVthen
p2362
aVthere
p2363
aVhappened
p2364
aVyet
p2365
aVagain
p2366
aVwhat
p2367
aValways
p2368
aVhappened
p2369
aV.
aa(lp2370
Vthe
p2371
aVimpresario
p2372
aVcame
p2373
aVforward
p2374
aV,
aVwithout
p2375
aVa
aVword
p2376
aV--
p2377
aVfor
p2378
aVthe
p2379
aVband
p2380
aVmade
p2381
aVspeech
p2382
aVimpossible
p2383
aV--
p2384
aVlifted
p2385
aVhis
p2386
aVarms
p2387
aVin
p2388
aVthe
p2389
aVair
p2390
aVabove
p2391
aVthe
p2392
aVartist
p2393
aV,
aVas
p2394
aVif
p2395
aVinviting
p2396
aVheaven
p2397
aVto
p2398
aVlook
p2399
aVdown
p2400
aVupon
p2401
aVits
p2402
aVcreature
p2403
aVhere
p2404
aVin
p2405
aVthe
p2406
aVstraw
p2407
aV,
aVthis
p2408
aVsuffering
p2409
aVmartyr
p2410
aV,
aVwhich
p2411
aVindeed
p2412
aVhe
p2413
aVwas
p2414
aV,
aValthough
p2415
aVin
p2416
aVquite
p2417
aVanother
p2418
aVsense
p2419
aV;
aVgrasped
p2420
aVhim
p2421
aVaround
p2422
aVthe
p2423
aVemaciated
p2424
aVwaist
p2425
aV,
aVwith
p2426
aVexaggerated
p2427
aVcaution
p2428
aV,
aVso
p2429
aVthat
p2430
aVthe
p2431
aVfrail
p2432
aVcondition
p2433
aVhe
p2434
aVwas
p2435
aVin
p2436
aVmight
p2437
aVbe
p2438
aVappreciated
p2439
aV;
aVand
p2440
aVcommitted
p2441
aVhim
p2442
aVto
p2443
aVthe
p2444
aVcare
p2445
aVof
p2446
aVthe
p2447
aVblenching
p2448
aVladies
p2449
aV,
aVnot
p2450
aVwithout
p2451
aVsecretly
p2452
aVgiving
p2453
aVhim
p2454
aVa
aVshaking
p2455
aVso
p2456
aVthat
p2457
aVhis
p2458
aVlegs
p2459
aVand
p2460
aVbody
p2461
aVtottered
p2462
aVand
p2463
aVswayed
p2464
aV.
aa(lp2465
Vthe
p2466
aVartist
p2467
aVnow
p2468
aVsubmitted
p2469
aVcompletely
p2470
aV;
aVhis
p2471
aVhead
p2472
aVlolled
p2473
aVon
p2474
aVhis
p2475
aVbreast
p2476
aVas
p2477
aVif
p2478
aVit
p2479
aVhad
p2480
aVlanded
p2481
aVthere
p2482
aVby
p2483
aVchance
p2484
aV;
aVhis
p2485
aVbody
p2486
aVwas
p2487
aVhollowed
p2488
aVout
p2489
aV;
aVhis
p2490
aVlegs
p2491
aVin
p2492
aVa
aVspasm
p2493
aVof
p2494
aVself-preservation
p2495
aVclung
p2496
aVto
p2497
aVeach
p2498
aVother
p2499
aVat
p2500
aVthe
p2501
aVknees
p2502
aV,
aVyet
p2503
aVscraped
p2504
aVon
p2505
aVthe
p2506
aVground
p2507
aVas
p2508
aVif
p2509
aVit
p2510
aVwere
p2511
aVnot
p2512
aVreally
p2513
aVsolid
p2514
aVground
p2515
aV,
aVas
p2516
aVif
p2517
aVthey
p2518
aVwere
p2519
aVonly
p2520
aVtrying
p2521
aVto
p2522
aVfind
p2523
aVsolid
p2524
aVground
p2525
aV;
aVand
p2526
aVthe
p2527
aVwhole
p2528
aVweight
p2529
aVof
p2530
aVhis
p2531
aVbody
p2532
aV,
aVa
aVfeatherweight
p2533
aVafter
p2534
aVall
p2535
aV,
aVrelapsed
p2536
aVonto
p2537
aVone
p2538
aVof
p2539
aVthe
p2540
aVladies
p2541
aV,
aVwho
p2542
aVlooking
p2543
aVround
p2544
aVfor
p2545
aVhelp
p2546
aVand
p2547
aVpanting
p2548
aVa
aVlittle
p2549
aV--
p2550
aVthis
p2551
aVpost
p2552
aVof
p2553
aVhonor
p2554
aVwas
p2555
aVnot
p2556
aVat
p2557
aVall
p2558
aVwhat
p2559
aVshe
p2560
aVexpected
p2561
aVit
p2562
aVto
p2563
aVbe
p2564
aV--
p2565
aVfirst
p2566
aVstretched
p2567
aVher
p2568
aVneck
p2569
aVas
p2570
aVfar
p2571
aVas
p2572
aVshe
p2573
aVcould
p2574
aVto
p2575
aVkeep
p2576
aVher
p2577
aVface
p2578
aVat
p2579
aVleast
p2580
aVfree
p2581
aVfrom
p2582
aVcontact
p2583
aVwith
p2584
aVthe
p2585
aVartist
p2586
aV,
aVthen
p2587
aVfinding
p2588
aVthis
p2589
aVimpossible
p2590
aV,
aVand
p2591
aVher
p2592
aVmore
p2593
aVfortunate
p2594
aVcompanion
p2595
aVnot
p2596
aVcoming
p2597
aVto
p2598
aVher
p2599
aVaid
p2600
aV,
aVbut
p2601
aVmerely
p2602
aVholding
p2603
aVextended
p2604
aVon
p2605
aVher
p2606
aVown
p2607
aVtrembling
p2608
aVhand
p2609
aVthe
p2610
aVlittle
p2611
aVbunch
p2612
aVof
p2613
aVknucklebones
p2614
aVthat
p2615
aVwas
p2616
aVthe
p2617
aVartist
p2618
aV's
p2619
aV,
aVto
p2620
aVthe
p2621
aVgreat
p2622
aVdelight
p2623
aVof
p2624
aVthe
p2625
aVspectators
p2626
aVburst
p2627
aVinto
p2628
aVtears
p2629
aVand
p2630
aVhad
p2631
aVto
p2632
aVbe
p2633
aVreplaced
p2634
aVby
p2635
aVan
p2636
aVattendant
p2637
aVwho
p2638
aVhad
p2639
aVlong
p2640
aVbeen
p2641
aVstationed
p2642
aVin
p2643
aVreadiness
p2644
aV.
aa(lp2645
Vthen
p2646
aVcame
p2647
aVthe
p2648
aVfood
p2649
aV,
aVa
aVlittle
p2650
aVof
p2651
aVwhich
p2652
aVthe
p2653
aVimpresario
p2654
aVmanaged
p2655
aVto
p2656
aVget
p2657
aVbetween
p2658
aVthe
p2659
aVartist
p2660
aV's
p2661
aVlips
p2662
aV,
aVwhile
p2663
aVhe
p2664
aVsat
p2665
aVin
p2666
aVa
aVkind
p2667
aVof
p2668
aVhalf-fainting
p2669
aVtrance
p2670
aV,
aVto
p2671
aVthe
p2672
aVaccompaniment
p2673
aVof
p2674
aVcheerful
p2675
aVpatter
p2676
aVdesigned
p2677
aVto
p2678
aVdistract
p2679
aVthe
p2680
aVpublic
p2681
aV's
p2682
aVattention
p2683
aVfrom
p2684
aVthe
p2685
aVartist
p2686
aV's
p2687
aVcondition
p2688
aV;
aVafter
p2689
aVthat
p2690
aV,
aVa
aVtoast
p2691
aVwas
p2692
aVdrunk
p2693
aVto
p2694
aVthe
p2695
aVpublic
p2696
aV,
aVsupposedly
p2697
aVprompted
p2698
aVby
p2699
aVa
aVwhisper
p2700
aVfrom
p2701
aVthe
p2702
aVartist
p2703
aVin
p2704
aVthe
p2705
aVimpresario
p2706
aV's
p2707
aVear
p2708
aV;
aVthe
p2709
aVband
p2710
aVconfirmed
p2711
aVit
p2712
aVwith
p2713
aVa
aVmighty
p2714
aVflourish
p2715
aV,
aVthe
p2716
aVspectators
p2717
aVmelted
p2718
aVaway
p2719
aV,
aVand
p2720
aVno
p2721
aVone
p2722
aVhad
p2723
aVany
p2724
aVcause
p2725
aVto
p2726
aVbe
p2727
aVdissatisfied
p2728
aVwith
p2729
aVthe
p2730
aVproceedings
p2731
aV,
aVno
p2732
aVone
p2733
aVexcept
p2734
aVthe
p2735
aVhunger
p2736
aVartist
p2737
aVhimself
p2738
aV,
aVhe
p2739
aVonly
p2740
aV,
aVas
p2741
aValways
p2742
aV.
aa(lp2743
Vso
p2744
aVhe
p2745
aVlived
p2746
aVfor
p2747
aVmany
p2748
aVyears
p2749
aV,
aVwith
p2750
aVsmall
p2751
aVregular
p2752
aVintervals
p2753
aVof
p2754
aVrecuperation
p2755
aV,
aVin
p2756
aVvisible
p2757
aVglory
p2758
aV,
aVhonored
p2759
aVby
p2760
aVall
p2761
aVthe
p2762
aVworld
p2763
aV,
aVyet
p2764
aVin
p2765
aVspite
p2766
aVof
p2767
aVthat
p2768
aVtroubled
p2769
aVin
p2770
aVspirit
p2771
aV,
aVand
p2772
aVall
p2773
aVthe
p2774
aVmore
p2775
aVtroubled
p2776
aVbecause
p2777
aVno
p2778
aVone
p2779
aVwould
p2780
aVtake
p2781
aVhis
p2782
aVtrouble
p2783
aVseriously
p2784
aV.
aa(lp2785
Vwhat
p2786
aVcomfort
p2787
aVcould
p2788
aVhe
p2789
aVposibly
p2790
aVneed
p2791
aV?
aa(lp2792
Vwhat
p2793
aVmore
p2794
aVcould
p2795
aVhe
p2796
aVpossibly
p2797
aVwish
p2798
aVfor
p2799
aV?
aa(lp2800
Vand
p2801
aVif
p2802
aVsome
p2803
aVgood-natured
p2804
aVperson
p2805
aV,
aVfeeling
p2806
aVsorry
p2807
aVfor
p2808
aVhim
p2809
aV,
aVtried
p2810
aVto
p2811
aVconsole
p2812
aVhim
p2813
aVby
p2814
aVpointing
p2815
aVout
p2816
aVthat
p2817
aVhis
p2818
aVmelancholy
p2819
aVwas
p2820
aVprobably
p2821
aVcaused
p2822
aVby
p2823
aVfasting
p2824
aV,
aVit
p2825
aVcould
p2826
aVhappen
p2827
aV,
aVespecially
p2828
aVwhen
p2829
aVhe
p2830
aVhad
p2831
aVbeen
p2832
aVfasting
p2833
aVfor
p2834
aVsome
p2835
aVtime
p2836
aV,
aVthat
p2837
aVhe
p2838
aVreacted
p2839
aVwith
p2840
aVan
p2841
aVoutburst
p2842
aVof
p2843
aVfury
p2844
aVand
p2845
aVto
p2846
aVthe
p2847
aVgeneral
p2848
aValarm
p2849
aVbegan
p2850
aVto
p2851
aVshake
p2852
aVthe
p2853
aVbars
p2854
aVof
p2855
aVthe
p2856
aVcage
p2857
aVlike
p2858
aVa
aVwild
p2859
aVanimal
p2860
aV.
aa(lp2861
Vyet
p2862
aVthe
p2863
aVimpresario
p2864
aVhad
p2865
aVa
aVway
p2866
aVof
p2867
aVpunishing
p2868
aVthese
p2869
aVoutbreaks
p2870
aVwhich
p2871
aVhe
p2872
aVrather
p2873
aVenjoyed
p2874
aVputting
p2875
aVinto
p2876
aVoperation
p2877
aV.
aa(lp2878
Vhe
p2879
aVwould
p2880
aVapologize
p2881
aVpublicly
p2882
aVfor
p2883
aVthe
p2884
aVartist
p2885
aV's
p2886
aVbehavior
p2887
aV,
aVwhich
p2888
aVwas
p2889
aVonly
p2890
aVto
p2891
aVbe
p2892
aVexcused
p2893
aV,
aVhe
p2894
aVadmitted
p2895
aV,
aVbecause
p2896
aVof
p2897
aVthe
p2898
aVirritability
p2899
aVcaused
p2900
aVby
p2901
aVfasting
p2902
aV;
aVa
aVcondition
p2903
aVhardly
p2904
aVto
p2905
aVbe
p2906
aVunderstood
p2907
aVby
p2908
aVwell-fed
p2909
aVpeople
p2910
aV;
aVthen
p2911
aVby
p2912
aVnatural
p2913
aVtransition
p2914
aVhe
p2915
aVwent
p2916
aVon
p2917
aVto
p2918
aVmention
p2919
aVthe
p2920
aVartist
p2921
aV's
p2922
aVequally
p2923
aVincomprehensible
p2924
aVboast
p2925
aVthat
p2926
aVhe
p2927
aVcould
p2928
aVfast
p2929
aVfor
p2930
aVmuch
p2931
aVlonger
p2932
aVthan
p2933
aVhe
p2934
aVwas
p2935
aVdoing
p2936
aV;
aVhe
p2937
aVpraised
p2938
aVthe
p2939
aVhigh
p2940
aVambition
p2941
aV,
aVthe
p2942
aVgood
p2943
aVwill
p2944
aV,
aVthe
p2945
aVgreat
p2946
aVself-denial
p2947
aVundoubtedly
p2948
aVimplicit
p2949
aVin
p2950
aVsuch
p2951
aVa
aVstatement
p2952
aV;
aVand
p2953
aVthen
p2954
aVquite
p2955
aVsimply
p2956
aVcountered
p2957
aVit
p2958
aVby
p2959
aVbringing
p2960
aVout
p2961
aVphotographs
p2962
aV,
aVwhich
p2963
aVwere
p2964
aValso
p2965
aVon
p2966
aVsale
p2967
aVto
p2968
aVthe
p2969
aVpublic
p2970
aV,
aVshowing
p2971
aVthe
p2972
aVartist
p2973
aVon
p2974
aVthe
p2975
aVfortieth
p2976
aVday
p2977
aVof
p2978
aVa
aVfast
p2979
aVlying
p2980
aVin
p2981
aVbed
p2982
aValmost
p2983
aVdead
p2984
aVfrom
p2985
aVexhaustion
p2986
aV.
aa(lp2987
Vthis
p2988
aVperversion
p2989
aVof
p2990
aVthe
p2991
aVtruth
p2992
aV,
aVfamiliar
p2993
aVto
p2994
aVthe
p2995
aVartist
p2996
aVthough
p2997
aVit
p2998
aVwas
p2999
aV,
aValways
p3000
aVunnerved
p3001
aVhim
p3002
aVafresh
p3003
aVand
p3004
aVproved
p3005
aVtoo
p3006
aVmuch
p3007
aVfor
p3008
aVhim
p3009
aV.
aa(lp3010
Vwhat
p3011
aVwas
p3012
aVa
aVconsequence
p3013
aVof
p3014
aVthe
p3015
aVpremature
p3016
aVending
p3017
aVof
p3018
aVhis
p3019
aVfast
p3020
aVwas
p3021
aVhere
p3022
aVpresented
p3023
aVas
p3024
aVthe
p3025
aVcause
p3026
aVof
p3027
aVit
p3028
aV!
aa(lp3029
Vto
p3030
aVfight
p3031
aVagainst
p3032
aVthis
p3033
aVlack
p3034
aVof
p3035
aVunderstanding
p3036
aV,
aVagainst
p3037
aVa
aVwhole
p3038
aVworld
p3039
aVof
p3040
aVnon-understanding
p3041
aV,
aVwas
p3042
aVimpossible
p3043
aV.
aa(lp3044
Vtime
p3045
aVand
p3046
aVtime
p3047
aVagain
p3048
aVin
p3049
aVgood
p3050
aVfaith
p3051
aVhe
p3052
aVstood
p3053
aVby
p3054
aVthe
p3055
aVbars
p3056
aVlistening
p3057
aVto
p3058
aVthe
p3059
aVimpresario
p3060
aV,
aVbut
p3061
aVas
p3062
aVsoon
p3063
aVas
p3064
aVthe
p3065
aVphotographs
p3066
aVappeared
p3067
aVhe
p3068
aValways
p3069
aVlet
p3070
aVgo
p3071
aVand
p3072
aVsank
p3073
aVwith
p3074
aVa
aVgroan
p3075
aVback
p3076
aVon
p3077
aVto
p3078
aVhis
p3079
aVstraw
p3080
aV,
aVand
p3081
aVthe
p3082
aVreassured
p3083
aVpublic
p3084
aVcould
p3085
aVonce
p3086
aVmore
p3087
aVcome
p3088
aVclose
p3089
aVand
p3090
aVgaze
p3091
aVat
p3092
aVhim
p3093
aV.
aa(lp3094
Va
aVfew
p3095
aVyears
p3096
aVlater
p3097
aVwhen
p3098
aVthe
p3099
aVwitnesses
p3100
aVof
p3101
aVsuch
p3102
aVscenes
p3103
aVcalled
p3104
aVthem
p3105
aVto
p3106
aVmind
p3107
aV,
aVthey
p3108
aVoften
p3109
aVfailed
p3110
aVto
p3111
aVunderstand
p3112
aVthemselves
p3113
aVat
p3114
aVall
p3115
aV.
aa(lp3116
Vfor
p3117
aVmeanwhile
p3118
aVthe
p3119
aVaforementioned
p3120
aVchance
p3121
aVin
p3122
aVpublic
p3123
aVinterest
p3124
aVhad
p3125
aVset
p3126
aVin
p3127
aV;
aVit
p3128
aVseemed
p3129
aVto
p3130
aVhappen
p3131
aValmost
p3132
aVovernight
p3133
aV;
aVthere
p3134
aVmay
p3135
aVhave
p3136
aVbeen
p3137
aVprofound
p3138
aVcauses
p3139
aVfor
p3140
aVit
p3141
aV,
aVbut
p3142
aVwho
p3143
aVwas
p3144
aVgoing
p3145
aVto
p3146
aVbother
p3147
aVabout
p3148
aVthat
p3149
aV;
aVat
p3150
aVany
p3151
aVrate
p3152
aVthe
p3153
aVpampered
p3154
aVhunger
p3155
aVartist
p3156
aVsuddenly
p3157
aVfound
p3158
aVhimself
p3159
aVdeserted
p3160
aVone
p3161
aVfine
p3162
aVday
p3163
aVby
p3164
aVthe
p3165
aVamusement
p3166
aVseekers
p3167
aV,
aVwho
p3168
aVwent
p3169
aVstreaming
p3170
aVpast
p3171
aVhim
p3172
aVto
p3173
aVother
p3174
aVmore
p3175
aVfavored
p3176
aVattractions
p3177
aV.
aa(lp3178
Vfor
p3179
aVthe
p3180
aVlast
p3181
aVtime
p3182
aVthe
p3183
aVimpresario
p3184
aVhurried
p3185
aVhim
p3186
aVover
p3187
aVhalf
p3188
aVeurope
p3189
aVto
p3190
aVdiscover
p3191
aVwhether
p3192
aVthe
p3193
aVold
p3194
aVinterest
p3195
aVmight
p3196
aVstill
p3197
aVsurvive
p3198
aVhere
p3199
aVand
p3200
aVthere
p3201
aV;
aVall
p3202
aVin
p3203
aVvain
p3204
aV;
aVeverywhere
p3205
aV,
aVas
p3206
aVif
p3207
aVby
p3208
aVsecret
p3209
aVagreement
p3210
aV,
aVa
aVpositive
p3211
aVrevulsion
p3212
aVfrom
p3213
aVprofessional
p3214
aVfasting
p3215
aVwas
p3216
aVin
p3217
aVevidence
p3218
aV.
aa(lp3219
Vof
p3220
aVcourse
p3221
aVit
p3222
aVcould
p3223
aVnot
p3224
aVreally
p3225
aVhave
p3226
aVsprung
p3227
aVup
p3228
aVso
p3229
aVsuddenly
p3230
aVas
p3231
aVall
p3232
aVthat
p3233
aV,
aVand
p3234
aVmany
p3235
aVpremonitory
p3236
aVsymptoms
p3237
aVwhich
p3238
aVhad
p3239
aVnot
p3240
aVbeen
p3241
aVsufficiently
p3242
aVremarked
p3243
aVor
p3244
aVsuppressed
p3245
aVduring
p3246
aVthe
p3247
aVrush
p3248
aVand
p3249
aVglitter
p3250
aVof
p3251
aVsuccess
p3252
aVnow
p3253
aVcame
p3254
aVretrospectively
p3255
aVto
p3256
aVmind
p3257
aV,
aVbut
p3258
aVit
p3259
aVwas
p3260
aVnow
p3261
aVtoo
p3262
aVlate
p3263
aVto
p3264
aVtake
p3265
aVany
p3266
aVcountermeasures
p3267
aV.
aa(lp3268
Vfasting
p3269
aVwould
p3270
aVsurely
p3271
aVcome
p3272
aVinto
p3273
aVfashion
p3274
aVagain
p3275
aVat
p3276
aVsome
p3277
aVfuture
p3278
aVdate
p3279
aV,
aVyet
p3280
aVthat
p3281
aVwas
p3282
aVno
p3283
aVcomfort
p3284
aVfor
p3285
aVthose
p3286
aVliving
p3287
aVin
p3288
aVthe
p3289
aVpresent
p3290
aV.
aa(lp3291
Vwhat
p3292
aV,
aVthen
p3293
aV,
aVwas
p3294
aVthe
p3295
aVhunger
p3296
aVartist
p3297
aVto
p3298
aVdo
p3299
aV?
aa(lp3300
Vhe
p3301
aVhad
p3302
aVbeen
p3303
aVapplauded
p3304
aVby
p3305
aVthousands
p3306
aVin
p3307
aVhis
p3308
aVtime
p3309
aVand
p3310
aVcould
p3311
aVhardly
p3312
aVcome
p3313
aVdown
p3314
aVto
p3315
aVshowing
p3316
aVhimself
p3317
aVin
p3318
aVa
aVstreet
p3319
aVbooth
p3320
aVat
p3321
aVvillage
p3322
aVfairs
p3323
aV,
aVand
p3324
aVas
p3325
aVfor
p3326
aVadopting
p3327
aVanother
p3328
aVprofession
p3329
aV,
aVhe
p3330
aVwas
p3331
aVnot
p3332
aVonly
p3333
aVtoo
p3334
aVold
p3335
aVfor
p3336
aVthat
p3337
aVbut
p3338
aVtoo
p3339
aVfanatically
p3340
aVdevoted
p3341
aVto
p3342
aVfasting
p3343
aV.
aa(lp3344
Vso
p3345
aVhe
p3346
aVtook
p3347
aVleave
p3348
aVof
p3349
aVthe
p3350
aVimpresario
p3351
aV,
aVhis
p3352
aVpartner
p3353
aVin
p3354
aVan
p3355
aVunparalleled
p3356
aVcareer
p3357
aV,
aVand
p3358
aVhired
p3359
aVhimself
p3360
aVto
p3361
aVa
aVlarge
p3362
aVcircus
p3363
aV;
aVin
p3364
aVorder
p3365
aVto
p3366
aVspare
p3367
aVhis
p3368
aVown
p3369
aVfeelings
p3370
aVhe
p3371
aVavoided
p3372
aVreading
p3373
aVthe
p3374
aVconditions
p3375
aVof
p3376
aVhis
p3377
aVcontract
p3378
aV.
aa(lp3379
Va
aVlarge
p3380
aVcircus
p3381
aVwith
p3382
aVits
p3383
aVenormous
p3384
aVtraffic
p3385
aVin
p3386
aVreplacing
p3387
aVand
p3388
aVrecruiting
p3389
aVmen
p3390
aV,
aVanimals
p3391
aVand
p3392
aVapparatus
p3393
aVcan
p3394
aValways
p3395
aVfind
p3396
aVa
aVuse
p3397
aVfor
p3398
aVpeople
p3399
aVat
p3400
aVany
p3401
aVtime
p3402
aV,
aVeven
p3403
aVfor
p3404
aVa
aVhunger
p3405
aVartist
p3406
aV,
aVprovided
p3407
aVof
p3408
aVcourse
p3409
aVthat
p3410
aVhe
p3411
aVdoes
p3412
aVnot
p3413
aVask
p3414
aVtoo
p3415
aVmuch.
p3416
aV,
aVand
p3417
aVin
p3418
aVthis
p3419
aVparticular
p3420
aVcase
p3421
aVanyhow
p3422
aVit
p3423
aVwas
p3424
aVnot
p3425
aVonly
p3426
aVthe
p3427
aVartist
p3428
aVwho
p3429
aVwas
p3430
aVtaken
p3431
aVon
p3432
aVbut
p3433
aVhis
p3434
aVfamous
p3435
aVand
p3436
aVlong-known
p3437
aVname
p3438
aVas
p3439
aVwell
p3440
aV,
aVindeed
p3441
aVconsidering
p3442
aVthe
p3443
aVpeculiar
p3444
aVnature
p3445
aVof
p3446
aVhis
p3447
aVperformance
p3448
aV,
aVwhich
p3449
aVwas
p3450
aVnot
p3451
aVimparired
p3452
aVby
p3453
aVadvancing
p3454
aVage
p3455
aV,
aVit
p3456
aVcould
p3457
aVnot
p3458
aVbe
p3459
aVobjected
p3460
aVthat
p3461
aVhere
p3462
aVwas
p3463
aVan
p3464
aVartist
p3465
aVpast
p3466
aVhis
p3467
aVprime
p3468
aV,
aVno
p3469
aVlonger
p3470
aVat
p3471
aVthe
p3472
aVheight
p3473
aVof
p3474
aVhis
p3475
aVprofessional
p3476
aVskill
p3477
aV,
aVseking
p3478
aVa
aVrefuge
p3479
aVin
p3480
aVsome
p3481
aVquiet
p3482
aVcorner
p3483
aVof
p3484
aVa
aVcircus
p3485
aV,
aVon
p3486
aVthe
p3487
aVcontrary
p3488
aV,
aVthe
p3489
aVhunger
p3490
aVartist
p3491
aVaverred
p3492
aVthat
p3493
aVhe
p3494
aVcould
p3495
aVfast
p3496
aVas
p3497
aVwell
p3498
aVas
p3499
aVever
p3500
aV,
aVwhich
p3501
aVwas
p3502
aVentirely
p3503
aVcredible
p3504
aV,
aVhe
p3505
aVeven
p3506
aValleged
p3507
aVthat
p3508
aVif
p3509
aVhe
p3510
aVwere
p3511
aVallowed
p3512
aVto
p3513
aVfast
p3514
aVas
p3515
aVhe
p3516
aVliked
p3517
aV,
aVand
p3518
aVthis
p3519
aVwas
p3520
aVat
p3521
aVonce
p3522
aVpromised
p3523
aVhim
p3524
aVwithout
p3525
aVmore
p3526
aVado
p3527
aV,
aVhe
p3528
aVcould
p3529
aVastound
p3530
aVthe
p3531
aVworld
p3532
aVby
p3533
aVestablishing
p3534
aVa
aVrecord
p3535
aVnever
p3536
aVyet
p3537
aVachieved
p3538
aV,
aVa
aVstatement
p3539
aVwhich
p3540
aVcertainly
p3541
aVprovoked
p3542
aVa
aVsmile
p3543
aVamong
p3544
aVthe
p3545
aVother
p3546
aVprofessionals
p3547
aV,
aVsince
p3548
aVit
p3549
aVwas
p3550
aVleft
p3551
aVout
p3552
aVof
p3553
aVaccount
p3554
aVthe
p3555
aVchange
p3556
aVin
p3557
aVpublic
p3558
aVopinion
p3559
aV,
aVwhich
p3560
aVthe
p3561
aVhunger
p3562
aVartist
p3563
aVin
p3564
aVhis
p3565
aVzeal
p3566
aVconveniently
p3567
aVforgot
p3568
aV.
aa(lp3569
Vhe
p3570
aVhad
p3571
aVnot
p3572
aV,
aVhowever
p3573
aV,
aVactually
p3574
aVlost
p3575
aVhis
p3576
aVsense
p3577
aVof
p3578
aVthe
p3579
aVreal
p3580
aVsituation
p3581
aVand
p3582
aVtook
p3583
aVit
p3584
aVas
p3585
aVa
aVmatter
p3586
aVof
p3587
aVcourse
p3588
aVthat
p3589
aVhe
p3590
aVand
p3591
aVhis
p3592
aVcage
p3593
aVshould
p3594
aVbe
p3595
aVstationed
p3596
aV,
aVnot
p3597
aVin
p3598
aVthe
p3599
aVmiddle
p3600
aVof
p3601
aVthe
p3602
aVring
p3603
aVas
p3604
aVa
aVmain
p3605
aVattraction
p3606
aV,
aVbut
p3607
aVoutside
p3608
aV,
aVnear
p3609
aVthe
p3610
aVanimal
p3611
aVcages
p3612
aV,
aVon
p3613
aVa
aVsite
p3614
aVthat
p3615
aVwas
p3616
aVafter
p3617
aVall
p3618
aVeasily
p3619
aVaccessible
p3620
aV.
aa(lp3621
Vlarge
p3622
aVand
p3623
aVgaily
p3624
aVpainted
p3625
aVplacards
p3626
aVmade
p3627
aVa
aVframe
p3628
aVfor
p3629
aVthe
p3630
aVcage
p3631
aVand
p3632
aVannounced
p3633
aVwhat
p3634
aVwas
p3635
aVto
p3636
aVbe
p3637
aVseen
p3638
aVinside
p3639
aVit
p3640
aV.
aa(lp3641
Vwhen
p3642
aVthe
p3643
aVpublic
p3644
aVcame
p3645
aVthronging
p3646
aVout
p3647
aVin
p3648
aVthe
p3649
aVintervals
p3650
aVto
p3651
aVsee
p3652
aVthe
p3653
aVanimals
p3654
aV,
aVthey
p3655
aVcould
p3656
aVharly
p3657
aVavoid
p3658
aVpassing
p3659
aVthe
p3660
aVhunger
p3661
aVartist
p3662
aV's
p3663
aVcage
p3664
aVand
p3665
aVstopping
p3666
aVthere
p3667
aVa
aVmoment
p3668
aV,
aVperhaps
p3669
aVthey
p3670
aVmight
p3671
aVeven
p3672
aVhave
p3673
aVstayed
p3674
aVlonger
p3675
aVhad
p3676
aVnot
p3677
aVthose
p3678
aVpressing
p3679
aVbehind
p3680
aVthem
p3681
aVin
p3682
aVthe
p3683
aVnarrow
p3684
aVgangway
p3685
aV,
aVwho
p3686
aVdid
p3687
aVnot
p3688
aVunderstand
p3689
aVwhy
p3690
aVthey
p3691
aVshould
p3692
aVbe
p3693
aVheld
p3694
aVup
p3695
aVon
p3696
aVtheir
p3697
aVway
p3698
aVtowards
p3699
aVthe
p3700
aVexcitements
p3701
aVof
p3702
aVthe
p3703
aVmenagerie
p3704
aV,
aVmade
p3705
aVit
p3706
aVimpossible
p3707
aVfor
p3708
aVanyone
p3709
aVto
p3710
aVstand
p3711
aVgazing
p3712
aVquietly
p3713
aVfor
p3714
aVany
p3715
aVlength
p3716
aVof
p3717
aVtime
p3718
aV.
aa(lp3719
Vand
p3720
aVthat
p3721
aVwas
p3722
aVthe
p3723
aVreason
p3724
aVwhy
p3725
aVthe
p3726
aVhunger
p3727
aVartist
p3728
aV,
aVwho
p3729
aVhad
p3730
aVof
p3731
aVcourse
p3732
aVbeen
p3733
aVlooking
p3734
aVforward
p3735
aVto
p3736
aVthese
p3737
aVvisiting
p3738
aVhours
p3739
aVas
p3740
aVthe
p3741
aVmain
p3742
aVachievement
p3743
aVof
p3744
aVhis
p3745
aVlife
p3746
aV,
aVbegan
p3747
aVinstead
p3748
aVto
p3749
aVshrink
p3750
aVfrom
p3751
aVthem
p3752
aV.
aa(lp3753
Vat
p3754
aVfirst
p3755
aVhe
p3756
aVcould
p3757
aVhardly
p3758
aVwait
p3759
aVfor
p3760
aVthe
p3761
aVintervals
p3762
aV;
aVit
p3763
aVwas
p3764
aVexhilirating
p3765
aVto
p3766
aVwatch
p3767
aVthe
p3768
aVcrowds
p3769
aVcome
p3770
aVstreaming
p3771
aVhis
p3772
aVway
p3773
aV,
aVuntil
p3774
aVonly
p3775
aVtoo
p3776
aVsoon
p3777
aV--
p3778
aVnot
p3779
aVeven
p3780
aVthe
p3781
aVmost
p3782
aVobstinante
p3783
aVself-deception
p3784
aV,
aVclung
p3785
aVto
p3786
aValmost
p3787
aVconsciously
p3788
aV,
aVcould
p3789
aVhold
p3790
aVout
p3791
aVagainst
p3792
aVthe
p3793
aVfact
p3794
aV--
p3795
aVthe
p3796
aVconviction
p3797
aVwas
p3798
aVborne
p3799
aVin
p3800
aVupon
p3801
aVhim
p3802
aVthat
p3803
aVthese
p3804
aVpeople
p3805
aV,
aVmost
p3806
aVof
p3807
aVthem
p3808
aV,
aVto
p3809
aVjudge
p3810
aVfrom
p3811
aVtheir
p3812
aVactions
p3813
aV,
aVagain
p3814
aVand
p3815
aVagain
p3816
aV,
aVwithout
p3817
aVexception
p3818
aV,
aVwere
p3819
aVall
p3820
aVon
p3821
aVtheir
p3822
aVway
p3823
aVto
p3824
aVthe
p3825
aVmenagerie
p3826
aV.
aa(lp3827
Vand
p3828
aVthe
p3829
aVfirst
p3830
aVsight
p3831
aVof
p3832
aVthem
p3833
aVfrom
p3834
aVthe
p3835
aVdistance
p3836
aVremained
p3837
aVthe
p3838
aVbest
p3839
aV.
aa(lp3840
Vfor
p3841
aVwhen
p3842
aVthey
p3843
aVreached
p3844
aVhis
p3845
aVcage
p3846
aVhe
p3847
aVwas
p3848
aVat
p3849
aVonce
p3850
aVdeafened
p3851
aVby
p3852
aVthe
p3853
aVstorm
p3854
aVof
p3855
aVshouting
p3856
aVand
p3857
aVabuse
p3858
aVthat
p3859
aVarose
p3860
aVfrom
p3861
aVthe
p3862
aVtwo
p3863
aVcontending
p3864
aVfactions
p3865
aV,
aVwhich
p3866
aVrenewed
p3867
aVthemselves
p3868
aVcontinuously
p3869
aV,
aVof
p3870
aVthose
p3871
aVwho
p3872
aVwanted
p3873
aVto
p3874
aVstop
p3875
aVand
p3876
aVstare
p3877
aVat
p3878
aVhim
p3879
aV--
p3880
aVhe
p3881
aVsoon
p3882
aVbegan
p3883
aVto
p3884
aVdislike
p3885
aVthem
p3886
aVmore
p3887
aVthan
p3888
aVthe
p3889
aVothers
p3890
aV--
p3891
aVnot
p3892
aVout
p3893
aVof
p3894
aVreal
p3895
aVinterest
p3896
aVbut
p3897
aVonly
p3898
aVout
p3899
aVof
p3900
aVobstinante
p3901
aVself-assertiveness
p3902
aV,
aVand
p3903
aVthose
p3904
aVwho
p3905
aVwanted
p3906
aVto
p3907
aVgo
p3908
aVstraight
p3909
aVon
p3910
aVto
p3911
aVthe
p3912
aVanimals
p3913
aV.
aa(lp3914
Vwhen
p3915
aVthe
p3916
aVfirst
p3917
aVgreat
p3918
aVrush
p3919
aVwas
p3920
aVpast
p3921
aV,
aVthe
p3922
aVstragglers
p3923
aVcame
p3924
aValong
p3925
aV,
aVand
p3926
aVthese
p3927
aV,
aVwhom
p3928
aVnothing
p3929
aVcould
p3930
aVhave
p3931
aVprevented
p3932
aVfrom
p3933
aVstopping
p3934
aVto
p3935
aVlook
p3936
aVat
p3937
aVhim
p3938
aVas
p3939
aVlong
p3940
aVas
p3941
aVthey
p3942
aVhad
p3943
aVbreath
p3944
aV,
aVraced
p3945
aVpast
p3946
aVwith
p3947
aVlong
p3948
aVstrides
p3949
aV,
aVhardly
p3950
aVeven
p3951
aVglancing
p3952
aVat
p3953
aVhim
p3954
aV,
aVin
p3955
aVtheir
p3956
aVhaste
p3957
aVto
p3958
aVget
p3959
aVto
p3960
aVthe
p3961
aVmenagerie
p3962
aVin
p3963
aVtime
p3964
aV.
aa(lp3965
Vand
p3966
aVall
p3967
aVtoo
p3968
aVrarely
p3969
aVdid
p3970
aVit
p3971
aVhappen
p3972
aVthat
p3973
aVhe
p3974
aVhad
p3975
aVa
aVstroke
p3976
aVof
p3977
aVluck
p3978
aV,
aVwhen
p3979
aVsome
p3980
aVfather
p3981
aVof
p3982
aVa
aVfamily
p3983
aVfetched
p3984
aVup
p3985
aVbefore
p3986
aVhim
p3987
aVwith
p3988
aVhis
p3989
aVchildren
p3990
aV,
aVpointed
p3991
aVa
aVfinger
p3992
aVat
p3993
aVthe
p3994
aVhunger
p3995
aVartist
p3996
aVand
p3997
aVexplained
p3998
aVat
p3999
aVlength
p4000
aVwhat
p4001
aVthe
p4002
aVphenomenon
p4003
aVmeant
p4004
aV,
aVtelling
p4005
aVstoried
p4006
aVof
p4007
aVearlier
p4008
aVyears
p4009
aVwhen
p4010
aVhe
p4011
aVhimself
p4012
aVhad
p4013
aVwatched
p4014
aVsimilar
p4015
aVbut
p4016
aVmuch
p4017
aVmore
p4018
aVthrilling
p4019
aVperformances
p4020
aV,
aVand
p4021
aVthe
p4022
aVchildren
p4023
aV,
aVstill
p4024
aVrather
p4025
aVuncomprehending
p4026
aV,
aVsince
p4027
aVneither
p4028
aVinside
p4029
aVnor
p4030
aVoutside
p4031
aVshcool
p4032
aVhad
p4033
aVthey
p4034
aVbeen
p4035
aVsufficiently
p4036
aVprepared
p4037
aVfor
p4038
aVthis
p4039
aVlesson
p4040
aV--
p4041
aVwhat
p4042
aVdid
p4043
aVthey
p4044
aVcare
p4045
aVabout
p4046
aVfasting
p4047
aV?
aV--
p4048
aVyet
p4049
aVshowed
p4050
aVby
p4051
aVthe
p4052
aVbrightnes
p4053
aVof
p4054
aVtheir
p4055
aVintent
p4056
aVeyes
p4057
aVthat
p4058
aVnew
p4059
aVand
p4060
aVbetter
p4061
aVtimes
p4062
aVmight
p4063
aVbe
p4064
aVcoming
p4065
aV.
aa(lp4066
Vperhaps
p4067
aV,
aVsaid
p4068
aVthe
p4069
aVhunger
p4070
aVartist
p4071
aVto
p4072
aVhimself
p4073
aVmany
p4074
aVa
aVtime
p4075
aV,
aVthings
p4076
aVcould
p4077
aVbe
p4078
aVa
aVlittle
p4079
aVbetter
p4080
aVif
p4081
aVhis
p4082
aVcage
p4083
aVwere
p4084
aVset
p4085
aVnot
p4086
aVquite
p4087
aVso
p4088
aVnear
p4089
aVthe
p4090
aVmenagerie
p4091
aV.
aa(lp4092
Vthat
p4093
aVmade
p4094
aVit
p4095
aVtoo
p4096
aVeasy
p4097
aVfor
p4098
aVpeople
p4099
aVto
p4100
aVmake
p4101
aVtheir
p4102
aVchoice
p4103
aV,
aVto
p4104
aVsay
p4105
aVnothing
p4106
aVof
p4107
aVwhat
p4108
aVhe
p4109
aVsuffered
p4110
aVfrom
p4111
aVthe
p4112
aVstench
p4113
aVof
p4114
aVthe
p4115
aVmenagerie
p4116
aV,
aVthe
p4117
aVanimals
p4118
aV'
aVrestlessness
p4119
aVby
p4120
aVnight
p4121
aV,
aVthe
p4122
aVcarrying
p4123
aVpast
p4124
aVof
p4125
aVraw
p4126
aVlumps
p4127
aVof
p4128
aVflesh
p4129
aVfor
p4130
aVthe
p4131
aVbeasts
p4132
aVof
p4133
aVprey
p4134
aV,
aVthe
p4135
aVroaring
p4136
aVat
p4137
aVfeeding
p4138
aVtimes
p4139
aV,
aVwhich
p4140
aVdepressed
p4141
aVhim
p4142
aVcontinuously
p4143
aV.
aa(lp4144
Vbut
p4145
aVhe
p4146
aVdid
p4147
aVnot
p4148
aVdare
p4149
aVto
p4150
aVlodge
p4151
aVa
aVcomplaint
p4152
aVwith
p4153
aVthe
p4154
aVmanagement
p4155
aV;
aVafter
p4156
aVall
p4157
aV,
aVhe
p4158
aVhad
p4159
aVthe
p4160
aVanimals
p4161
aVto
p4162
aVthank
p4163
aVfor
p4164
aVthe
p4165
aVtroops
p4166
aVof
p4167
aVpeople
p4168
aVwho
p4169
aVpassed
p4170
aVhis
p4171
aVcage
p4172
aV,
aVamong
p4173
aVwhom
p4174
aVthere
p4175
aVmight
p4176
aValways
p4177
aVbe
p4178
aVone
p4179
aVhere
p4180
aVand
p4181
aVthere
p4182
aVto
p4183
aVtake
p4184
aVan
p4185
aVinterest
p4186
aVin
p4187
aVhim
p4188
aV,
aVand
p4189
aVwho
p4190
aVcould
p4191
aVtell
p4192
aVwhere
p4193
aVthey
p4194
aVmight
p4195
aVseclude
p4196
aVhim
p4197
aVif
p4198
aVhe
p4199
aVcalled
p4200
aVattention
p4201
aVto
p4202
aVhis
p4203
aVexistence
p4204
aVand
p4205
aVthereby
p4206
aVto
p4207
aVthe
p4208
aVfact
p4209
aVthat
p4210
aV,
aVstrictly
p4211
aVspeaking
p4212
aV,
aVhe
p4213
aVwas
p4214
aVonly
p4215
aVan
p4216
aVimpediment
p4217
aVon
p4218
aVthe
p4219
aVwat
p4220
aVto
p4221
aVthe
p4222
aVmenagerie
p4223
aV.
aa(lp4224
Va
aVsmall
p4225
aVimpediment
p4226
aV,
aVto
p4227
aVbe
p4228
aVsure
p4229
aV,
aVone
p4230
aVthat
p4231
aVgrew
p4232
aVsteadily
p4233
aVless
p4234
aV.
aa(lp4235
Vpeople
p4236
aVgrew
p4237
aVfamiliar
p4238
aVwith
p4239
aVthe
p4240
aVstrange
p4241
aVidea
p4242
aVthat
p4243
aVthey
p4244
aVcould
p4245
aVbe
p4246
aVexpected
p4247
aV,
aVin
p4248
aVtimes
p4249
aVlike
p4250
aVthese
p4251
aV,
aVto
p4252
aVtake
p4253
aVan
p4254
aVinterest
p4255
aVin
p4256
aVa
aVhunger
p4257
aVartist
p4258
aV,
aVand
p4259
aVwith
p4260
aVthis
p4261
aVfamiliarity
p4262
aVthe
p4263
aVverdict
p4264
aVwent
p4265
aVout
p4266
aVagainst
p4267
aVhim
p4268
aV.
aa(lp4269
Vhe
p4270
aVmight
p4271
aVfast
p4272
aVas
p4273
aVmuch
p4274
aVas
p4275
aVhe
p4276
aVcould
p4277
aV,
aVand
p4278
aVhe
p4279
aVdid
p4280
aVso
p4281
aV;
aVbut
p4282
aVnothing
p4283
aVcould
p4284
aVsave
p4285
aVhim
p4286
aVnow
p4287
aV,
aVpeople
p4288
aVpassed
p4289
aVhim
p4290
aVby
p4291
aV.
aa(lp4292
Vjust
p4293
aVtry
p4294
aVto
p4295
aVexplain
p4296
aVto
p4297
aVanyone
p4298
aVthe
p4299
aVart
p4300
aVof
p4301
aVfasting
p4302
aV!
aa(lp4303
Vanyone
p4304
aVwho
p4305
aVhas
p4306
aVno
p4307
aVfeeling
p4308
aVfor
p4309
aVit
p4310
aVcan
p4311
aVnot
p4312
aVbe
p4313
aVmade
p4314
aVto
p4315
aVunderstand
p4316
aVit
p4317
aV.
aa(lp4318
Vthe
p4319
aVfine
p4320
aVplacards
p4321
aVgrew
p4322
aVdirty
p4323
aVand
p4324
aVillegible
p4325
aV,
aVthey
p4326
aVwere
p4327
aVtorn
p4328
aVdown
p4329
aV;
aVthe
p4330
aVlittle
p4331
aVnotice
p4332
aVboard
p4333
aVtelling
p4334
aVthe
p4335
aVnumber
p4336
aVof
p4337
aVfast
p4338
aVdays
p4339
aVachieved
p4340
aV,
aVwhich
p4341
aVat
p4342
aVfirst
p4343
aVwas
p4344
aVchanged
p4345
aVcarefully
p4346
aVevery
p4347
aVday
p4348
aV,
aVhad
p4349
aVlong
p4350
aVstayed
p4351
aVat
p4352
aVthe
p4353
aVsame
p4354
aVfigure
p4355
aV,
aVfor
p4356
aVafter
p4357
aVthe
p4358
aVfirst
p4359
aVfew
p4360
aVweeks
p4361
aVeven
p4362
aVthis
p4363
aVsmall
p4364
aVtask
p4365
aVseemed
p4366
aVpointless
p4367
aVto
p4368
aVthe
p4369
aVstaff
p4370
aV;
aVand
p4371
aVso
p4372
aVthe
p4373
aVartist
p4374
aVsimply
p4375
aVfasted
p4376
aVon
p4377
aVand
p4378
aVon
p4379
aV,
aVas
p4380
aVhe
p4381
aVhad
p4382
aVonce
p4383
aVdreamed
p4384
aVof
p4385
aVdoing
p4386
aV,
aVand
p4387
aVit
p4388
aVwas
p4389
aVno
p4390
aVtrouble
p4391
aVto
p4392
aVhim
p4393
aV,
aVjust
p4394
aVas
p4395
aVhe
p4396
aVhad
p4397
aValways
p4398
aVforetold
p4399
aV,
aVbut
p4400
aVno
p4401
aVone
p4402
aVcounted
p4403
aVthe
p4404
aVdays
p4405
aV,
aVnot
p4406
aVone
p4407
aV,
aVnot
p4408
aVeven
p4409
aVthe
p4410
aVartist
p4411
aVhimself
p4412
aV,
aVknew
p4413
aVwhat
p4414
aVrecords
p4415
aVhe
p4416
aVwas
p4417
aValready
p4418
aVbreaking
p4419
aV,
aVand
p4420
aVhis
p4421
aVheart
p4422
aVgrew
p4423
aVheavy
p4424
aV.
aa(lp4425
Vand
p4426
aVwhen
p4427
aVonce
p4428
aVin
p4429
aVa
aVtime
p4430
aVsome
p4431
aVleisurely
p4432
aVpasser-by
p4433
aVstopped
p4434
aV,
aVmade
p4435
aVmerry
p4436
aVover
p4437
aVthe
p4438
aVold
p4439
aVfigure
p4440
aVon
p4441
aVthe
p4442
aVboard
p4443
aVand
p4444
aVspoke
p4445
aVof
p4446
aVswindling
p4447
aV,
aVthat
p4448
aVwas
p4449
aVin
p4450
aVits
p4451
aVway
p4452
aVthe
p4453
aVstupidest
p4454
aVlie
p4455
aVever
p4456
aVinvented
p4457
aVby
p4458
aVindifference
p4459
aVand
p4460
aVinborn
p4461
aVmalice
p4462
aV,
aVsince
p4463
aVit
p4464
aVwas
p4465
aVnot
p4466
aVthe
p4467
aVhunger
p4468
aVartist
p4469
aVwho
p4470
aVwas
p4471
aVcheating
p4472
aV,
aVhe
p4473
aVwas
p4474
aVworking
p4475
aVhonestly
p4476
aV,
aVbut
p4477
aVthe
p4478
aVworld
p4479
aVwho
p4480
aVwas
p4481
aVcheating
p4482
aVhim
p4483
aVof
p4484
aVhis
p4485
aVreward
p4486
aV.
aa(lp4487
Vmany
p4488
aVmore
p4489
aVdays
p4490
aVwent
p4491
aVby
p4492
aV,
aVhowever
p4493
aV,
aVand
p4494
aVthat
p4495
aVtoo
p4496
aVcame
p4497
aVto
p4498
aVan
p4499
aVend
p4500
aV.
aa(lp4501
Van
p4502
aVoverseer
p4503
aV's
p4504
aVeye
p4505
aVfell
p4506
aVon
p4507
aVthe
p4508
aVcage
p4509
aVone
p4510
aVday
p4511
aVand
p4512
aVhe
p4513
aVasked
p4514
aVthe
p4515
aVattendants
p4516
aVwhy
p4517
aVthis
p4518
aVperfectly
p4519
aVgood
p4520
aVcage
p4521
aVshould
p4522
aVbe
p4523
aVleft
p4524
aVstanding
p4525
aVthere
p4526
aVunused
p4527
aVwith
p4528
aVdirty
p4529
aVstraw
p4530
aVinside
p4531
aVit
p4532
aV;
aVnobody
p4533
aVknew
p4534
aV,
aVuntil
p4535
aVone
p4536
aVman
p4537
aV,
aVhelped
p4538
aVout
p4539
aVby
p4540
aVthe
p4541
aVnotice
p4542
aVboard
p4543
aV,
aVremembered
p4544
aVabout
p4545
aVthe
p4546
aVhunger
p4547
aVartist
p4548
aV.
aa(lp4549
Vthey
p4550
aVpoked
p4551
aVinto
p4552
aVthe
p4553
aVstraw
p4554
aVwith
p4555
aVsticks
p4556
aVand
p4557
aVfound
p4558
aVhim
p4559
aVin
p4560
aVit
p4561
aV.
aa(lp4562
V``
p4563
aVare
p4564
aVyou
p4565
aVstill
p4566
aVfasting
p4567
aV?
aV''
p4568
aa(lp4569
Vasked
p4570
aVthe
p4571
aVoverseer
p4572
aV,
aV``
p4573
aVwhen
p4574
aVon
p4575
aVearth
p4576
aVdo
p4577
aVyou
p4578
aVmean
p4579
aVto
p4580
aVstop
p4581
aV?
aV''
p4582
aa(lp4583
V``
p4584
aVforgive
p4585
aVme
p4586
aV,
aVeverybody
p4587
aV,
aV''
p4588
aVwhispered
p4589
aVthe
p4590
aVhunger
p4591
aVartist
p4592
aV,
aVonly
p4593
aVthe
p4594
aVoverseer
p4595
aV,
aVwho
p4596
aVhad
p4597
aVhis
p4598
aVear
p4599
aVto
p4600
aVthe
p4601
aVbars
p4602
aV,
aVunderstood
p4603
aVhim
p4604
aV.
aa(lp4605
V``
p4606
aVof
p4607
aVcourse
p4608
aV,
aV''
p4609
aVsaid
p4610
aVthe
p4611
aVoverseer
p4612
aV,
aVand
p4613
aVtapped
p4614
aVhis
p4615
aVforehead
p4616
aVwith
p4617
aVa
aVfinger
p4618
aVto
p4619
aVlet
p4620
aVthe
p4621
aVattendants
p4622
aVknow
p4623
aVwhat
p4624
aVstate
p4625
aVthe
p4626
aVman
p4627
aVwas
p4628
aVin
p4629
aV,
aV``
p4630
aVwe
p4631
aVforgive
p4632
aVyou
p4633
aV.
aV''
p4634
aa(lp4635
V``
p4636
aVi
aValways
p4637
aVwanted
p4638
aVyou
p4639
aVto
p4640
aVadmire
p4641
aVmy
p4642
aVfasting
p4643
aV,
aV''
p4644
aVsaid
p4645
aVthe
p4646
aVhunger
p4647
aVartist
p4648
aV.
aa(lp4649
V``
p4650
aVwe
p4651
aVdo
p4652
aVadmire
p4653
aVit
p4654
aV,
aV''
p4655
aVsaid
p4656
aVthe
p4657
aVoverseer
p4658
aV,
aVaffably
p4659
aV.
aa(lp4660
V``
p4661
aVbut
p4662
aVyou
p4663
aVshould
p4664
aVn't
p4665
aVadmire
p4666
aVit
p4667
aV,
aV''
p4668
aVsaid
p4669
aVthe
p4670
aVhunger
p4671
aVartist
p4672
aV.
aa(lp4673
V``
p4674
aVwell
p4675
aVthen
p4676
aVwe
p4677
aVdo
p4678
aVn't
p4679
aVadmire
p4680
aVit
p4681
aV,
aV''
p4682
aVsaid
p4683
aVthe
p4684
aVoverseer
p4685
aV,
aV``
p4686
aVbut
p4687
aVwhy
p4688
aVshould
p4689
aVn't
p4690
aVwe
p4691
aVadmire
p4692
aVit
p4693
aV?
aV''
p4694
aa(lp4695
V``
p4696
aVbecause
p4697
aVi
aVhave
p4698
aVto
p4699
aVfast
p4700
aV,
aVi
aVca
p4701
aVn't
p4702
aVhelp
p4703
aVit
p4704
aV,
aV''
p4705
aVsaid
p4706
aVthe
p4707
aVhunger
p4708
aVartist
p4709
aV.
aa(lp4710
V``
p4711
aVwhat
p4712
aVa
aVfellow
p4713
aVyou
p4714
aVare
p4715
aV,
aV''
p4716
aVsaid
p4717
aVthe
p4718
aVoverseer
p4719
aV,
aV``
p4720
aVand
p4721
aVwhy
p4722
aVca
p4723
aVn't
p4724
aVyou
p4725
aVhelp
p4726
aVit
p4727
aV?
aV''
p4728
aa(lp4729
V``
p4730
aVbecause
p4731
aV,
aV''
p4732
aVsaid
p4733
aVthe
p4734
aVhunger
p4735
aVartist
p4736
aV,
aVlifting
p4737
aVhis
p4738
aVhead
p4739
aVa
aVlittle
p4740
aVand
p4741
aVspeaking
p4742
aV,
aVwith
p4743
aVhis
p4744
aVlips
p4745
aVpursed
p4746
aV,
aVas
p4747
aVif
p4748
aVfor
p4749
aVa
aVkiss
p4750
aV,
aVright
p4751
aVinto
p4752
aVthe
p4753
aVoverseer
p4754
aV's
p4755
aVear
p4756
aV,
aVso
p4757
aVthat
p4758
aVno
p4759
aVsyllable
p4760
aVmight
p4761
aVbe
p4762
aVlost
p4763
aV,
aV``
p4764
aVbecause
p4765
aVi
aVcould
p4766
aVn't
p4767
aVfind
p4768
aVthe
p4769
aVfood
p4770
aVi
aVliked
p4771
aV.
aa(lp4772
Vif
p4773
aVi
aVhad
p4774
aVfound
p4775
aVit
p4776
aV,
aVbelieve
p4777
aVme
p4778
aV,
aVi
aVshould
p4779
aVhave
p4780
aVmade
p4781
aVno
p4782
aVfuss
p4783
aVand
p4784
aVstuffed
p4785
aVmyself
p4786
aVlike
p4787
aVyou
p4788
aVor
p4789
aVanyone
p4790
aVelse
p4791
aV.
aV''
p4792
aa(lp4793
Vthese
p4794
aVwere
p4795
aVhis
p4796
aVlast
p4797
aVwords
p4798
aV,
aVbut
p4799
aVin
p4800
aVhis
p4801
aVdimming
p4802
aVeyes
p4803
aVremained
p4804
aVthe
p4805
aVfirm
p4806
aVthough
p4807
aVno
p4808
aVlonger
p4809
aVproud
p4810
aVpersuasion
p4811
aVthat
p4812
aVhe
p4813
aVwas
p4814
aVcontinuing
p4815
aVto
p4816
aVfast
p4817
aV.
aa(lp4818
V``
p4819
aVwell
p4820
aV,
aVclear
p4821
aVthis
p4822
aVout
p4823
aVnow
p4824
aV!
aV''
p4825
aa(lp4826
Vsaid
p4827
aVthe
p4828
aVoverseer
p4829
aV,
aVand
p4830
aVthey
p4831
aVburied
p4832
aVthe
p4833
aVhunger
p4834
aVartist
p4835
aV,
aVstraw
p4836
aVand
p4837
aVall
p4838
aV.
aa(lp4839
Vinto
p4840
aVthe
p4841
aVcage
p4842
aVthey
p4843
aVput
p4844
aVa
aVyoung
p4845
aVpanther
p4846
aV.
aa(lp4847
Veven
p4848
aVthe
p4849
aVmost
p4850
aVinsensitive
p4851
aVfelt
p4852
aVit
p4853
aVrefreshing
p4854
aVto
p4855
aVsee
p4856
aVthis
p4857
aVwild
p4858
aVcreature
p4859
aVleaping
p4860
aVaround
p4861
aVthe
p4862
aVcage
p4863
aVthat
p4864
aVhad
p4865
aVso
p4866
aVlong
p4867
aVbeen
p4868
aVdreary
p4869
aV.
aa(lp4870
Vthe
p4871
aVpanther
p4872
aVwas
p4873
aVall
p4874
aVright
p4875
aV.
aa(lp4876
Vthe
p4877
aVfood
p4878
aVhe
p4879
aVliked
p4880
aVwas
p4881
aVbrought
p4882
aVhim
p4883
aVwithout
p4884
aVhesitation
p4885
aVby
p4886
aVthe
p4887
aVattendants
p4888
aV;
aVhe
p4889
aVseemed
p4890
aVnot
p4891
aVeven
p4892
aVto
p4893
aVmiss
p4894
aVhis
p4895
aVfreedom
p4896
aV;
aVhis
p4897
aVnoble
p4898
aVbody
p4899
aV,
aVfurnished
p4900
aValmost
p4901
aVto
p4902
aVthe
p4903
aVbursting
p4904
aVpoint
p4905
aVwith
p4906
aVall
p4907
aVthat
p4908
aVit
p4909
aVneeded
p4910
aV,
aVseemed
p4911
aVto
p4912
aVcarry
p4913
aVfreedom
p4914
aVaround
p4915
aVwith
p4916
aVit
p4917
aVtoo
p4918
aV;
aVsomewhere
p4919
aVin
p4920
aVhis
p4921
aVjaws
p4922
aVit
p4923
aVseemed
p4924
aVto
p4925
aVlurk
p4926
aV;
aVand
p4927
aVthe
p4928
aVjoy
p4929
aVof
p4930
aVlife
p4931
aVstreamed
p4932
aVwith
p4933
aVsuch
p4934
aVardent
p4935
aVpassion
p4936
aVfrom
p4937
aVhis
p4938
aVthroat
p4939
aVthat
p4940
aVfor
p4941
aVthe
p4942
aVonlookers
p4943
aVit
p4944
aVwas
p4945
aVnot
p4946
aVeasy
p4947
aVto
p4948
aVstand
p4949
aVthe
p4950
aVshock
p4951
aVof
p4952
aVit
p4953
aV.
aa(lp4954
Vbut
p4955
aVthey
p4956
aVbraced
p4957
aVthemselves
p4958
aV,
aVcrowded
p4959
aVround
p4960
aVthe
p4961
aVcage
p4962
aV,
aVand
p4963
aVdid
p4964
aVnot
p4965
aVwant
p4966
aVever
p4967
aVto
p4968
aVmove
p4969
aVaway
p4970
aV.
aasb.