ccopy_reg
_reconstructor
p1
(cData.Book
Book
p2
c__builtin__
object
p3
NtRp4
(dp5
S'stored_object'
p6
S'Books/Antigone/Book_object.p'
p7
sS'title'
p8
S'Antigone'
p9
sS'main_text_path'
p10
S'Books/Antigone/main_cleaned.txt'
p11
sS'metadata_path'
p12
S'Books/Antigone/meta_data.csv'
p13
sS'book_path'
p14
S'Books/Antigone/'
p15
sS'characters'
p16
(dp17
S'ismene'
p18
(dp19
S'list'
p20
(lp21
(lp22
V[
aVCHARACTER
p23
aV]
aV-
aVblonde
p24
aV,
aVfull-figured
p25
aV,
aVand
p26
aVradiantly
p27
aVbeautiful
p28
aV,
aVthe
p29
aVlaughing
p30
aV,
aVtalkative
p31
aV[
aVCHARACTER
p32
aV]
aVis
p33
aVthe
p34
aVgood
p35
aVgirl
p36
aVof
p37
aVthe
p38
aVfamily
p39
aV.
aa(lp40
Vshe
p41
aVis
p42
aVreasonable
p43
aVand
p44
aVunderstands
p45
aVher
p46
aVplace
p47
aV,
aVbowing
p48
aVto
p49
aVcreon
p50
aV's
p51
aVedict
p52
aVand
p53
aVattempting
p54
aVto
p55
aVdissuade
p56
aVantigone
p57
aVfrom
p58
aVher
p59
aVact
p60
aVof
p61
aVrebellion
p62
aV.
aa(lp63
Vas
p64
aVin
p65
aVsophocles
p66
aV'
aVplay
p67
aV,
aVshe
p68
aVis
p69
aVantigone
p70
aV's
p71
aVfoil
p72
aV.
aa(lp73
Vultimately
p74
aVshe
p75
aVwill
p76
aVrecant
p77
aVand
p78
aVbeg
p79
aVantigone
p80
aVto
p81
aVallow
p82
aVher
p83
aVto
p84
aVjoin
p85
aVher
p86
aVin
p87
aVdeath
p88
aV.
aa(lp89
Vthough
p90
aVantigone
p91
aVrefuses
p92
aV,
aV[
aVCHARACTER
p93
aV]
aV's
p94
aVconversion
p95
aVindicates
p96
aVhow
p97
aVher
p98
aVresistance
p99
aVis
p100
aVcontagious
p101
aV.
aasS'analysis'
p102
NssS'eurydice'
p103
(dp104
g20
(lp105
(lp106
V[
aVCHARACTER
p107
aV]
aV-
aVcreon
p108
aV's
p109
aVkind
p110
aV,
aVknitting
p111
aVwife
p112
aVwhose
p113
aVonly
p114
aVfunction
p115
aV,
aVas
p116
aVthe
p117
aVchorus
p118
aVdeclares
p119
aV,
aVis
p120
aVto
p121
aVknit
p122
aVin
p123
aVher
p124
aVroom
p125
aVuntil
p126
aVit
p127
aVis
p128
aVher
p129
aVtime
p130
aVto
p131
aVdie
p132
aV.
aa(lp133
Vher
p134
aVsuicide
p135
aVis
p136
aVcreon
p137
aV's
p138
aVlast
p139
aVpunishment
p140
aV,
aVleaving
p141
aVhim
p142
aVentirely
p143
aValone
p144
aV.
aasg102
NssS'haemon'
p145
(dp146
g20
(lp147
(lp148
V[
aVCHARACTER
p149
aV]
aV-
aVantigone
p150
aV's
p151
aVyoung
p152
aVfiance
p153
aVand
p154
aVson
p155
aVto
p156
aVcreon
p157
aV.
aa(lp158
V[
aVCHARACTER
p159
aV]
aVappears
p160
aVtwice
p161
aVin
p162
aVthe
p163
aVplay
p164
aV.
aa(lp165
Vin
p166
aVthe
p167
aVfirst
p168
aV,
aVhe
p169
aVis
p170
aVrejected
p171
aVby
p172
aVantigone
p173
aV;
aVin
p174
aVthe
p175
aVsecond
p176
aV,
aVhe
p177
aVbegs
p178
aVhis
p179
aVfather
p180
aVfor
p181
aVantigone
p182
aV's
p183
aVlife
p184
aV.
aa(lp185
Vcreon
p186
aV's
p187
aVrefusal
p188
aVruins
p189
aVhis
p190
aVexalted
p191
aVview
p192
aVof
p193
aVhis
p194
aVfather
p195
aV.
aa(lp196
Vhe
p197
aVtoo
p198
aVrefuses
p199
aVthe
p200
aVhappiness
p201
aVthat
p202
aVcreon
p203
aVoffers
p204
aVhim
p205
aVand
p206
aVfollows
p207
aVantigone
p208
aVto
p209
aVa
aVtragic
p210
aVdemise
p211
aV.
aasg102
NssS'antigone'
p212
(dp213
g20
(lp214
(lp215
V[
aVCHARACTER
p216
aV]
aV-
aVthe
p217
aVplay
p218
aV's
p219
aVtragic
p220
aVheroine
p221
aV.
aa(lp222
Vin
p223
aVthe
p224
aVfirst
p225
aVmoments
p226
aVof
p227
aVthe
p228
aVplay
p229
aV,
aV[
aVCHARACTER
p230
aV]
aVis
p231
aVopposed
p232
aVto
p233
aVher
p234
aVradiant
p235
aVsister
p236
aVismene
p237
aV.
aa(lp238
Vunlike
p239
aVher
p240
aVbeautiful
p241
aVand
p242
aVdocile
p243
aVsister
p244
aV,
aV[
aVCHARACTER
p245
aV]
aVis
p246
aVsallow
p247
aV,
aVwithdrawn
p248
aV,
aVand
p249
aVrecalcitrant
p250
aV.
aasg102
(lp251
(lp252
V[
aVCHARACTER
p253
aV]
aV[
aVCHARACTER
p254
aV]
aVis
p255
aVthe
p256
aVplay
p257
aV's
p258
aVtragic
p259
aVheroine
p260
aV.
aa(lp261
Vin
p262
aVthe
p263
aVfirst
p264
aVmoments
p265
aVof
p266
aVthe
p267
aVplay
p268
aV,
aV[
aVCHARACTER
p269
aV]
aVis
p270
aVopposed
p271
aVto
p272
aVher
p273
aVradiant
p274
aVsister
p275
aVismene
p276
aV.
aa(lp277
Vunlike
p278
aVher
p279
aVbeautiful
p280
aVand
p281
aVdocile
p282
aVsister
p283
aV,
aV[
aVCHARACTER
p284
aV]
aVis
p285
aVscrawny
p286
aV,
aVsallow
p287
aV,
aVwithdrawn
p288
aV,
aVand
p289
aVrecalcitrant
p290
aVbrat
p291
aV.
aa(lp292
Vlike
p293
aVanouilh
p294
aV's
p295
aVeurydice
p296
aV,
aVthe
p297
aVheroine
p298
aVof
p299
aVhis
p300
aVplay
p301
aVeurydice
p302
aV,
aVand
p303
aVjoan
p304
aVof
p305
aVarc
p306
aV,
aV[
aVCHARACTER
p307
aV]
aVhas
p308
aVa
aVboyish
p309
aVphysique
p310
aVand
p311
aVcurses
p312
aVher
p313
aVgirlhood
p314
aV.
aa(lp315
Vshe
p316
aVis
p317
aVthe
p318
aVantithesis
p319
aVof
p320
aVthe
p321
aVmelodramatic
p322
aVheroine
p323
aV,
aVthe
p324
aVarchetypal
p325
aVblond
p326
aVingenue
p327
aVas
p328
aVembodied
p329
aVin
p330
aVismene
p331
aV.
aa(lp332
V[
aVCHARACTER
p333
aV]
aVhas
p334
aValways
p335
aVbeen
p336
aVdifficult
p337
aV,
aVterrorizing
p338
aVismene
p339
aVas
p340
aVa
aVchild
p341
aV,
aValways
p342
aVinsisting
p343
aVon
p344
aVthe
p345
aVgratification
p346
aVof
p347
aVher
p348
aVdesires
p349
aV,
aVrefusing
p350
aVto
p351
aV``
p352
aVunderstand
p353
aV''
p354
aVthe
p355
aVlimits
p356
aVplaced
p357
aVon
p358
aVher
p359
aV.
aa(lp360
Vher
p361
aVenvy
p362
aVof
p363
aVismene
p364
aVis
p365
aVclear
p366
aV.
aa(lp367
Vismene
p368
aVis
p369
aVentirely
p370
aVof
p371
aVthis
p372
aVworld
p373
aV,
aVthe
p374
aVobject
p375
aVof
p376
aVall
p377
aVmen
p378
aV's
p379
aVdesires
p380
aV.
aa(lp381
Vthus
p382
aVshe
p383
aVwill
p384
aVat
p385
aVone
p386
aVpoint
p387
aVrob
p388
aVismene
p389
aVof
p390
aVher
p391
aVfeminine
p392
aVaccoutrements
p393
aVto
p394
aVseduce
p395
aVher
p396
aVfiance
p397
aVhaemon
p398
aV.
aa(lp399
Vshe
p400
aVfails
p401
aV,
aVhowever
p402
aV,
aVas
p403
aVsuch
p404
aVhuman
p405
aVpleasures
p406
aVare
p407
aVnot
p408
aVmeant
p409
aVfor
p410
aVher
p411
aV.
aa(lp412
Vgenerally
p413
aVaudiences
p414
aVhave
p415
aVreceived
p416
aVanouilh
p417
aV's
p418
aV[
aVCHARACTER
p419
aV]
aVas
p420
aVa
aVfigure
p421
aVfor
p422
aVfrench
p423
aVresistance
p424
aV,
aV[
aVCHARACTER
p425
aV]
aVappearing
p426
aVas
p427
aVthe
p428
aVyoung
p429
aVgirl
p430
aVwho
p431
aVrises
p432
aVup
p433
aValone
p434
aVagainst
p435
aVstate
p436
aVpower
p437
aV.
aa(lp438
Vanouilh
p439
aV's
p440
aVadaptation
p441
aVstrips
p442
aV[
aVCHARACTER
p443
aV]
aV's
p444
aVact
p445
aVof
p446
aVits
p447
aVmoral
p448
aV,
aVpolitical
p449
aV,
aVreligious
p450
aV,
aVand
p451
aVfilial
p452
aVtrappings
p453
aV,
aVallowing
p454
aVit
p455
aVto
p456
aVemerge
p457
aVin
p458
aVall
p459
aVits
p460
aVgratuitousness
p461
aV.
aa(lp462
Vin
p463
aVthe
p464
aVend
p465
aV,
aV[
aVCHARACTER
p466
aV]
aV's
p467
aVtragedy
p468
aVrests
p469
aVin
p470
aVher
p471
aVrefusal
p472
aVto
p473
aVcede
p474
aVon
p475
aVher
p476
aVdesire
p477
aV.
aa(lp478
Vagainst
p479
aVall
p480
aVprohibitions
p481
aVand
p482
aVwithout
p483
aVany
p484
aVjust
p485
aVcause
p486
aV,
aVshe
p487
aVwill
p488
aVbury
p489
aVher
p490
aVbrother
p491
aVto
p492
aVthe
p493
aVpoint
p494
aVof
p495
aVher
p496
aVown
p497
aVdeath
p498
aV.
aa(lp499
Vas
p500
aVwe
p501
aVlearn
p502
aVin
p503
aVher
p504
aVconfrontation
p505
aVwith
p506
aVcreon
p507
aV,
aVthis
p508
aVinsistence
p509
aVon
p510
aVher
p511
aVdesire
p512
aVlocates
p513
aVher
p514
aVin
p515
aVa
aVline
p516
aVof
p517
aVtragic
p518
aVheroes
p519
aV,
aVspecifically
p520
aVthat
p521
aVof
p522
aVoedipus
p523
aV.
aa(lp524
Vlike
p525
aVoedipus
p526
aV,
aVher
p527
aVinsistence
p528
aVon
p529
aVher
p530
aVdesire
p531
aVbeyond
p532
aVthe
p533
aVlimits
p534
aVof
p535
aVreason
p536
aVrender
p537
aVher
p538
aVugly
p539
aV,
aVabject
p540
aV,
aVtabooed
p541
aV.
aa(lp542
Vin
p543
aVrefusing
p544
aVto
p545
aVcede
p546
aVit
p547
aV,
aVshe
p548
aVmoves
p549
aVoutside
p550
aVthe
p551
aVhuman
p552
aVcommunity
p553
aV.
aa(lp554
Vas
p555
aVwith
p556
aVoedipus
p557
aV,
aVit
p558
aVis
p559
aVprecisely
p560
aVher
p561
aVmoment
p562
aVof
p563
aVabjection
p564
aV,
aVwhen
p565
aVshe
p566
aVhas
p567
aVlost
p568
aVall
p569
aVhope
p570
aV,
aVwhen
p571
aVher
p572
aVtragic
p573
aVbeauty
p574
aVemerges
p575
aV.
aa(lp576
Vher
p577
aVbeauty
p578
aVexerts
p579
aVa
aVchilling
p580
aVfascination
p581
aV.
aa(lp582
Vas
p583
aVismene
p584
aVnotes
p585
aV,
aV[
aVCHARACTER
p586
aV]
aVis
p587
aVnot
p588
aVbeautiful
p589
aVlike
p590
aVthe
p591
aVrest
p592
aV,
aVbut
p593
aVbeautiful
p594
aVin
p595
aVa
aVway
p596
aVthat
p597
aVstops
p598
aVchildren
p599
aVin
p600
aVthe
p601
aVstreet
p602
aV,
aVbeautiful
p603
aVin
p604
aVa
aVway
p605
aVthat
p606
aVunsettles
p607
aV,
aVfrightens
p608
aV,
aVand
p609
aVawes
p610
aV.
aassS'chorus'
p611
(dp612
g20
(lp613
(lp614
V[
aVCHARACTER
p615
aV]
aV-
aVanouilh
p616
aVreduces
p617
aVthe
p618
aV[
aVCHARACTER
p619
aV]
aV,
aVwho
p620
aVappears
p621
aVas
p622
aVnarrator
p623
aVand
p624
aVcommentator
p625
aV.
aa(lp626
Vthe
p627
aV[
aVCHARACTER
p628
aV]
aVframes
p629
aVthe
p630
aVplay
p631
aVwith
p632
aVa
aVprologue
p633
aVand
p634
aVepilogue
p635
aV,
aVintroducing
p636
aVthe
p637
aVaction
p638
aVand
p639
aVcharacters
p640
aVunder
p641
aVthe
p642
aVsign
p643
aVof
p644
aVfatality
p645
aV.
aa(lp646
Vin
p647
aVpresenting
p648
aVthe
p649
aVtragedy
p650
aV,
aVthe
p651
aV[
aVCHARACTER
p652
aV]
aVinstructs
p653
aVthe
p654
aVaudience
p655
aVon
p656
aVproper
p657
aVspectatorship
p658
aV,
aVreappearing
p659
aVat
p660
aVthe
p661
aVtragedy
p662
aV's
p663
aVpivotal
p664
aVmoments
p665
aVto
p666
aVcomment
p667
aVon
p668
aVthe
p669
aVaction
p670
aVor
p671
aVthe
p672
aVnature
p673
aVof
p674
aVtragedy
p675
aVitself
p676
aV.
aa(lp677
Valong
p678
aVwith
p679
aVplaying
p680
aVnarrator
p681
aV,
aVthe
p682
aV[
aVCHARACTER
p683
aV]
aValso
p684
aVattempts
p685
aVto
p686
aVintercede
p687
aVthroughout
p688
aVthe
p689
aVplay
p690
aV,
aVwhether
p691
aVon
p692
aVthe
p693
aVbehalf
p694
aVof
p695
aVthe
p696
aVtheban
p697
aVpeople
p698
aVor
p699
aVthe
p700
aVhorrified
p701
aVspectators
p702
aV.
aasg102
NssS'creon'
p703
(dp704
g20
(lp705
(lp706
V[
aVCHARACTER
p707
aV]
aV-
aVantigone
p708
aV's
p709
aVuncle
p710
aV.
aa(lp711
V[
aVCHARACTER
p712
aV]
aVis
p713
aVpowerfully
p714
aVbuilt
p715
aV,
aVbut
p716
aVa
aVweary
p717
aVand
p718
aVwrinkled
p719
aVman
p720
aVsuffering
p721
aVthe
p722
aVburdens
p723
aVof
p724
aVrule
p725
aV.
aa(lp726
Va
aVpractical
p727
aVman
p728
aV,
aVhe
p729
aVfirmly
p730
aVdistances
p731
aVhimself
p732
aVfrom
p733
aVthe
p734
aVtragic
p735
aVaspirations
p736
aVof
p737
aVoedipus
p738
aVand
p739
aVhis
p740
aVline
p741
aV.
aa(lp742
Vas
p743
aVhe
p744
aVtells
p745
aVantigone
p746
aV,
aVhis
p747
aVonly
p748
aVinterest
p749
aVis
p750
aVin
p751
aVpolitical
p752
aVand
p753
aVsocial
p754
aVorder
p755
aV.
aa(lp756
V[
aVCHARACTER
p757
aV]
aVis
p758
aVbound
p759
aVto
p760
aVideas
p761
aVof
p762
aVgood
p763
aVsense
p764
aV,
aVsimplicity
p765
aV,
aVand
p766
aVthe
p767
aVbanal
p768
aVhappiness
p769
aVof
p770
aVeveryday
p771
aVlife
p772
aV.
aasg102
(lp773
(lp774
V[
aVCHARACTER
p775
aV]
aVantigone
p776
aV's
p777
aVuncle
p778
aV,
aVthe
p779
aVpowerfully
p780
aVbuilt
p781
aVking
p782
aV[
aVCHARACTER
p783
aV]
aVis
p784
aVa
aVweary
p785
aV,
aVwrinkled
p786
aVman
p787
aVsuffering
p788
aVthe
p789
aVburdens
p790
aVof
p791
aVrule
p792
aV.
aa(lp793
Vbefore
p794
aVthe
p795
aVdeaths
p796
aVof
p797
aVoedipus
p798
aVand
p799
aVhis
p800
aVsons
p801
aV,
aVhe
p802
aVdedicated
p803
aVhimself
p804
aVto
p805
aVart
p806
aVpatronage
p807
aVbut
p808
aVhas
p809
aVnow
p810
aVsurrendered
p811
aVhimself
p812
aVentirely
p813
aVto
p814
aVthe
p815
aVthrone
p816
aV.
aa(lp817
Va
aVpractical
p818
aVman
p819
aV,
aVhe
p820
aVfirmly
p821
aVdistances
p822
aVhimself
p823
aVfrom
p824
aVthe
p825
aVtragic
p826
aVaspirations
p827
aVof
p828
aVoedipus
p829
aVand
p830
aVhis
p831
aVline
p832
aV.
aa(lp833
Vas
p834
aVhe
p835
aVtells
p836
aVantigone
p837
aV,
aVhis
p838
aVonly
p839
aVinterest
p840
aVis
p841
aVin
p842
aVpolitical
p843
aVand
p844
aVsocial
p845
aVorder
p846
aV.
aa(lp847
V[
aVCHARACTER
p848
aV]
aVis
p849
aVbound
p850
aVto
p851
aVideas
p852
aVof
p853
aVgood
p854
aVsense
p855
aV,
aVsimplicity
p856
aV,
aVand
p857
aVthe
p858
aVbanal
p859
aVhappiness
p860
aVof
p861
aVeveryday
p862
aVlife
p863
aV.
aa(lp864
Vto
p865
aV[
aVCHARACTER
p866
aV]
aV,
aVlife
p867
aVis
p868
aVbut
p869
aVthe
p870
aVhappiness
p871
aVone
p872
aVmakes
p873
aV,
aVthe
p874
aVhappiness
p875
aVthat
p876
aVinheres
p877
aVin
p878
aVa
aVgrasped
p879
aVtool
p880
aV,
aVa
aVgarden
p881
aVbench
p882
aV,
aVa
aVchild
p883
aVplaying
p884
aVat
p885
aVone
p886
aV's
p887
aVfeet
p888
aV.
aa(lp889
Vuninterested
p890
aVin
p891
aVplaying
p892
aVthe
p893
aVvillain
p894
aVin
p895
aVhis
p896
aVniece
p897
aV's
p898
aVtragedy
p899
aV,
aV[
aVCHARACTER
p900
aV]
aVhas
p901
aVno
p902
aVdesire
p903
aVto
p904
aVsentence
p905
aVantigone
p906
aVto
p907
aVdeath
p908
aV.
aa(lp909
Vantigone
p910
aVis
p911
aVfar
p912
aVmore
p913
aVuseful
p914
aVto
p915
aVthebes
p916
aVas
p917
aVmother
p918
aVto
p919
aVits
p920
aVheir
p921
aVthan
p922
aVas
p923
aVits
p924
aVmartyr
p925
aV,
aVand
p926
aVhe
p927
aVorders
p928
aVher
p929
aVcrime
p930
aVcovered-up
p931
aV.
aa(lp932
Vthough
p933
aVfond
p934
aVof
p935
aVantigone
p936
aV,
aV[
aVCHARACTER
p937
aV]
aVwill
p938
aVhave
p939
aVno
p940
aVchoice
p941
aVbut
p942
aVto
p943
aVbut
p944
aVto
p945
aVexecute
p946
aVher
p947
aV.
aa(lp948
Vas
p949
aVthe
p950
aVrecalcitrant
p951
aVantigone
p952
aVmakes
p953
aVclear
p954
aV,
aVby
p955
aVsaying
p956
aV``
p957
aVyes
p958
aV''
p959
aVto
p960
aVstate
p961
aVpower
p962
aV,
aV[
aVCHARACTER
p963
aV]
aVhas
p964
aVcommitted
p965
aVhimself
p966
aVto
p967
aVacts
p968
aVhe
p969
aVfinds
p970
aVloathsome
p971
aVif
p972
aVthe
p973
aVorder
p974
aVof
p975
aVthe
p976
aVstate
p977
aVdemands
p978
aVit
p979
aV.
aa(lp980
Vantigone
p981
aV's
p982
aVinsistence
p983
aVon
p984
aVher
p985
aVdesire
p986
aVin
p987
aVface
p988
aVof
p989
aVstate
p990
aVpower
p991
aVbrings
p992
aVruin
p993
aVinto
p994
aVthebes
p995
aVand
p996
aVto
p997
aV[
aVCHARACTER
p998
aV]
aVspecifically
p999
aV.
aa(lp1000
Vwith
p1001
aVthe
p1002
aVdeath
p1003
aVof
p1004
aVhis
p1005
aVfamily
p1006
aV,
aV[
aVCHARACTER
p1007
aV]
aVis
p1008
aVleft
p1009
aVutterly
p1010
aValone
p1011
aVin
p1012
aVthe
p1013
aVpalace
p1014
aV.
aa(lp1015
Vhis
p1016
aVthrone
p1017
aVeven
p1018
aVrobs
p1019
aVhim
p1020
aVof
p1021
aVhis
p1022
aVmourning
p1023
aV,
aVthe
p1024
aVking
p1025
aVand
p1026
aVhis
p1027
aVpace
p1028
aVsadly
p1029
aVshuttling
p1030
aVoff
p1031
aVto
p1032
aVa
aVcabinet
p1033
aVmeeting
p1034
aVafter
p1035
aVthe
p1036
aVannouncement
p1037
aVof
p1038
aVthe
p1039
aVfamily
p1040
aV's
p1041
aVdeaths
p1042
aV.
aassS'third guard'
p1043
(dp1044
g20
(lp1045
(lp1046
V[
aVCHARACTER
p1047
aV]
aV-
aVthe
p1048
aVlast
p1049
aVof
p1050
aVthe
p1051
aVindifferent
p1052
aVguardsmen
p1053
aV,
aVhe
p1054
aVis
p1055
aValso
p1056
aVlargely
p1057
aVindistinguishable
p1058
aVfrom
p1059
aVhis
p1060
aVcohorts
p1061
aV.
aasg102
NssS'jonas'
p1062
(dp1063
g20
(lp1064
(lp1065
V[
aVCHARACTER
p1066
aV]
aV-
aVthe
p1067
aVthree
p1068
aVguardsmen
p1069
aVare
p1070
aVinterpolations
p1071
aVinto
p1072
aVthe
p1073
aVantigone
p1074
aVlegend
p1075
aV,
aVdoubles
p1076
aVfor
p1077
aVthe
p1078
aVrank-and-file
p1079
aVfascist
p1080
aVcollaborators
p1081
aVor
p1082
aVcollabos
p1083
aVof
p1084
aVanouilh
p1085
aV's
p1086
aVday
p1087
aV.
aa(lp1088
Vthe
p1089
aVcard-playing
p1090
aVtrio
p1091
aV,
aVmade
p1092
aVall
p1093
aVthe
p1094
aVmore
p1095
aVmindless
p1096
aVand
p1097
aVindistinguishable
p1098
aVin
p1099
aVbeing
p1100
aVgrouped
p1101
aVin
p1102
aVthree
p1103
aV,
aVemerges
p1104
aVfrom
p1105
aVa
aVlong
p1106
aVstage
p1107
aVtradition
p1108
aVof
p1109
aVthe
p1110
aVdull-witted
p1111
aVpolice
p1112
aVofficer
p1113
aV.
aa(lp1114
Vthey
p1115
aVare
p1116
aVeternally
p1117
aVindifferent
p1118
aV,
aVinnocent
p1119
aV,
aVand
p1120
aVready
p1121
aVto
p1122
aVserve..
p1123
aasg102
NssS'messenger'
p1124
(dp1125
g20
(lp1126
(lp1127
V[
aVCHARACTER
p1128
aV]
aV-
aVanother
p1129
aVtypical
p1130
aVfigure
p1131
aVof
p1132
aVgreek
p1133
aVdrama
p1134
aVwho
p1135
aValso
p1136
aVappears
p1137
aVin
p1138
aVsophocles
p1139
aV'
aVantigone
p1140
aV,
aVthe
p1141
aV[
aVCHARACTER
p1142
aV]
aVis
p1143
aVa
aVpale
p1144
aVand
p1145
aVsolitary
p1146
aVboy
p1147
aVwho
p1148
aVbears
p1149
aVthe
p1150
aVnews
p1151
aVof
p1152
aVdeath
p1153
aV.
aa(lp1154
Vin
p1155
aVthe
p1156
aVprologue
p1157
aV,
aVhe
p1158
aVcasts
p1159
aVa
aVmenacing
p1160
aVshadow
p1161
aV:
aVas
p1162
aVthe
p1163
aVchorus
p1164
aVnotes
p1165
aV,
aVhe
p1166
aVremains
p1167
aVapart
p1168
aVfrom
p1169
aVthe
p1170
aVothers
p1171
aVin
p1172
aVhis
p1173
aVpremonition
p1174
aVof
p1175
aVhaemon
p1176
aV's
p1177
aVdeath
p1178
aV.
aasg102
NssS'nurse'
p1179
(dp1180
g20
(lp1181
(lp1182
V[
aVCHARACTER
p1183
aV]
aV-
aVa
aVtraditional
p1184
aVfigure
p1185
aVin
p1186
aVgreek
p1187
aVdrama
p1188
aV,
aVthe
p1189
aV[
aVCHARACTER
p1190
aV]
aVis
p1191
aVan
p1192
aVaddition
p1193
aVto
p1194
aVthe
p1195
aVantigone
p1196
aVlegend
p1197
aV.
aa(lp1198
Vshe
p1199
aVintroduces
p1200
aVan
p1201
aVeveryday
p1202
aV,
aVmaternal
p1203
aVelement
p1204
aVinto
p1205
aVthe
p1206
aVplay
p1207
aVthat
p1208
aVheightens
p1209
aVthe
p1210
aVstrangeness
p1211
aVof
p1212
aVthe
p1213
aVtragic
p1214
aVworld
p1215
aV.
aa(lp1216
Vfussy
p1217
aV,
aVaffectionate
p1218
aV,
aVand
p1219
aVreassuring
p1220
aV,
aVshe
p1221
aVsuffers
p1222
aVno
p1223
aVdrama
p1224
aVor
p1225
aVtragedy
p1226
aVbut
p1227
aVexists
p1228
aVin
p1229
aVthe
p1230
aVday-to-day
p1231
aVtasks
p1232
aVof
p1233
aVcaring
p1234
aVfor
p1235
aVthe
p1236
aVtwo
p1237
aVsisters
p1238
aV.
aa(lp1239
Vher
p1240
aVcomforting
p1241
aVpresence
p1242
aVreturns
p1243
aVantigone
p1244
aVto
p1245
aVher
p1246
aVgirlhood
p1247
aV.
aa(lp1248
Vin
p1249
aVher
p1250
aVarms
p1251
aV,
aVantigone
p1252
aVsuperstitiously
p1253
aVinvests
p1254
aVthe
p1255
aV[
aVCHARACTER
p1256
aV]
aVwith
p1257
aVthe
p1258
aVpower
p1259
aVto
p1260
aVward
p1261
aVoff
p1262
aVevil
p1263
aVand
p1264
aVkeep
p1265
aVher
p1266
aVsafe
p1267
aV.
aasg102
NssS'page'
p1268
(dp1269
g20
(lp1270
(lp1271
V[
aVCHARACTER
p1272
aV]
aV-
aVcreon
p1273
aV's
p1274
aVattendant
p1275
aV.
aa(lp1276
Vthe
p1277
aV[
aVCHARACTER
p1278
aV]
aVis
p1279
aVa
aVfigure
p1280
aVof
p1281
aVyoung
p1282
aVinnocence
p1283
aV.
aa(lp1284
Vhe
p1285
aVsees
p1286
aVall
p1287
aV,
aVunderstands
p1288
aVnothing
p1289
aV,
aVand
p1290
aVis
p1291
aVno
p1292
aVhelp
p1293
aVto
p1294
aVanyone
p1295
aVbut
p1296
aVone
p1297
aVday
p1298
aVmay
p1299
aVbecome
p1300
aVeither
p1301
aVa
aVcreon
p1302
aVor
p1303
aVan
p1304
aVantigone
p1305
aVin
p1306
aVhis
p1307
aVown
p1308
aVright
p1309
aV.
aasg102
NssS'second guard'
p1310
(dp1311
g20
(lp1312
(lp1313
V[
aVCHARACTER
p1314
aV]
aV-
aVlargely
p1315
aVindistinguishable
p1316
aVfrom
p1317
aVhis
p1318
aVcohorts
p1319
aV,
aVthe
p1320
aV[
aVCHARACTER
p1321
aV]
aVjeeringly
p1322
aVcompares
p1323
aVantigone
p1324
aVto
p1325
aVan
p1326
aVexhibitionist
p1327
aVupon
p1328
aVher
p1329
aVarrest
p1330
aV.
aasg102
NsssS'mainText'
p1331
(lp1332
(lp1333
Vdramatis
p1334
aVpersonae
p1335
aVdaughters
p1336
aVof
p1337
aVoedipus
p1338
aV:
aVantigone
p1339
aVismene
p1340
aVcreon
p1341
aV,
aVking
p1342
aVof
p1343
aVthebes
p1344
aVeurydice
p1345
aV,
aVhis
p1346
aVwife
p1347
aVhaemon
p1348
aV,
aVhis
p1349
aVson
p1350
aVteiresias
p1351
aV,
aVthe
p1352
aVblind
p1353
aVprophet
p1354
aVguard
p1355
aV,
aVset
p1356
aVto
p1357
aVwatch
p1358
aVthe
p1359
aVcorpse
p1360
aVof
p1361
aVpolyneices
p1362
aVfirst
p1363
aVmessenger
p1364
aVsecond
p1365
aVmessenger
p1366
aV,
aVfrom
p1367
aVthe
p1368
aVhouse
p1369
aVchorus
p1370
aVof
p1371
aVtheban
p1372
aVelders
p1373
aVscene
p1374
aVthe
p1375
aVsame
p1376
aVas
p1377
aVin
p1378
aVoedipus
p1379
aVthe
p1380
aVking
p1381
aV,
aVan
p1382
aVopen
p1383
aVspace
p1384
aVbefore
p1385
aVthe
p1386
aVroyal
p1387
aVpalace
p1388
aV,
aVonce
p1389
aVthat
p1390
aVof
p1391
aVoedipus
p1392
aV,
aVat
p1393
aVthebes
p1394
aV.
aa(lp1395
Vthe
p1396
aVbackscene
p1397
aVrepresents
p1398
aVthe
p1399
aVfront
p1400
aVof
p1401
aVthe
p1402
aVpalace
p1403
aV,
aVwith
p1404
aVthree
p1405
aVdoors
p1406
aV,
aVof
p1407
aVwhich
p1408
aVthe
p1409
aVcentral
p1410
aVand
p1411
aVlargest
p1412
aVis
p1413
aVthe
p1414
aVprincipal
p1415
aVentrance
p1416
aVinto
p1417
aVthe
p1418
aVhouse
p1419
aV.
aa(lp1420
Vthe
p1421
aVtime
p1422
aVis
p1423
aVat
p1424
aVdaybreak
p1425
aVon
p1426
aVthe
p1427
aVmorning
p1428
aVafter
p1429
aVthe
p1430
aVfall
p1431
aVof
p1432
aVthe
p1433
aVtwo
p1434
aVbrothers
p1435
aV,
aVeteocles
p1436
aVand
p1437
aVpolyneices
p1438
aV,
aVand
p1439
aVthe
p1440
aVflight
p1441
aVof
p1442
aVthe
p1443
aVdefeated
p1444
aVargives
p1445
aV.
aa(lp1446
Vantigone
p1447
aVcalls
p1448
aVismene
p1449
aVforth
p1450
aVfrom
p1451
aVthe
p1452
aVpalace
p1453
aV,
aVin
p1454
aVorder
p1455
aVto
p1456
aVspeak
p1457
aVto
p1458
aVher
p1459
aValone
p1460
aV.
aa(lp1461
Vantigone
p1462
aVismene
p1463
aV,
aVsister
p1464
aV,
aVmine
p1465
aVown
p1466
aVdear
p1467
aVsister
p1468
aV,
aVknowest
p1469
aVthou
p1470
aVwhat
p1471
aVill
p1472
aVthere
p1473
aVis
p1474
aV,
aVof
p1475
aVall
p1476
aVbequeathed
p1477
aVby
p1478
aVoedipus
p1479
aV,
aVthat
p1480
aVzeus
p1481
aVfulfils
p1482
aVnot
p1483
aVfor
p1484
aVus
p1485
aVtwain
p1486
aVwhile
p1487
aVwe
p1488
aVlive
p1489
aV?
aa(lp1490
Vnothing
p1491
aVpainful
p1492
aVis
p1493
aVthere
p1494
aV,
aVnothing
p1495
aVfraught
p1496
aVwith
p1497
aVruin
p1498
aV,
aVno
p1499
aVshame
p1500
aV,
aVno
p1501
aVdishonour
p1502
aV,
aVthat
p1503
aVi
aVhave
p1504
aVnot
p1505
aVseen
p1506
aVin
p1507
aVthy
p1508
aVwoes
p1509
aVand
p1510
aVmine
p1511
aV.
aa(lp1512
Vand
p1513
aVnow
p1514
aVwhat
p1515
aVnew
p1516
aVedict
p1517
aVis
p1518
aVthis
p1519
aVof
p1520
aVwhich
p1521
aVthey
p1522
aVtell
p1523
aV,
aVthat
p1524
aVour
p1525
aVcaptain
p1526
aVhath
p1527
aVjust
p1528
aVpublished
p1529
aVto
p1530
aVall
p1531
aVthebes
p1532
aV?
aa(lp1533
Vknowest
p1534
aVthou
p1535
aVaught
p1536
aV?
aa(lp1537
Vhast
p1538
aVthou
p1539
aVheard
p1540
aV?
aa(lp1541
Vor
p1542
aVis
p1543
aVit
p1544
aVhidden
p1545
aVfrom
p1546
aVthee
p1547
aVthat
p1548
aVour
p1549
aVfriends
p1550
aVare
p1551
aVthreatened
p1552
aVwith
p1553
aVthe
p1554
aVdoom
p1555
aVof
p1556
aVour
p1557
aVfoes
p1558
aV?
aa(lp1559
Vismene
p1560
aVno
p1561
aVword
p1562
aVof
p1563
aVfriends
p1564
aV,
aVantigone
p1565
aV,
aVgladsome
p1566
aVor
p1567
aVpainful
p1568
aV,
aVhath
p1569
aVcome
p1570
aVto
p1571
aVme
p1572
aV,
aVsince
p1573
aVwe
p1574
aVtwo
p1575
aVsisters
p1576
aVwere
p1577
aVbereft
p1578
aVof
p1579
aVbrothers
p1580
aVtwain
p1581
aV,
aVkilled
p1582
aVin
p1583
aVone
p1584
aVday
p1585
aVby
p1586
aVtwofold
p1587
aVblow
p1588
aV;
aVand
p1589
aVsince
p1590
aVin
p1591
aVthis
p1592
aVlast
p1593
aVnight
p1594
aVthe
p1595
aVargive
p1596
aVhost
p1597
aVhath
p1598
aVfled
p1599
aV,
aVknow
p1600
aVno
p1601
aVmore
p1602
aV,
aVwhether
p1603
aVmy
p1604
aVfortune
p1605
aVbe
p1606
aVbrighter
p1607
aV,
aVor
p1608
aVmore
p1609
aVgrievous
p1610
aV.
aa(lp1611
Vantigone
p1612
aVi
aVknew
p1613
aVit
p1614
aVwell
p1615
aV,
aVand
p1616
aVtherefore
p1617
aVsought
p1618
aVto
p1619
aVbring
p1620
aVthee
p1621
aVbeyond
p1622
aVthe
p1623
aVgates
p1624
aVof
p1625
aVthe
p1626
aVcourt
p1627
aV,
aVthat
p1628
aVthou
p1629
aVmightest
p1630
aVhear
p1631
aValone
p1632
aV.
aa(lp1633
Vismene
p1634
aVwhat
p1635
aVis
p1636
aVit
p1637
aV?
aa(lp1638
V't
p1639
aVis
p1640
aVplain
p1641
aVthat
p1642
aVthou
p1643
aVart
p1644
aVbrooding
p1645
aVon
p1646
aVsome
p1647
aVdark
p1648
aVtidings
p1649
aV.
aa(lp1650
Vantigone
p1651
aVwhat
p1652
aV,
aVhath
p1653
aVnot
p1654
aVcreon
p1655
aVdestined
p1656
aVour
p1657
aVbrothers
p1658
aV,
aVthe
p1659
aVone
p1660
aVto
p1661
aVhonoured
p1662
aVburial
p1663
aV,
aVthe
p1664
aVother
p1665
aVto
p1666
aVunburied
p1667
aVshame
p1668
aV?
aa(lp1669
Veteocles
p1670
aV,
aVthey
p1671
aVsay
p1672
aV,
aVwith
p1673
aVdue
p1674
aVobservance
p1675
aVof
p1676
aVright
p1677
aVand
p1678
aVcustom
p1679
aV,
aVhe
p1680
aVhath
p1681
aVlaid
p1682
aVin
p1683
aVthe
p1684
aVearth
p1685
aV,
aVfor
p1686
aVhis
p1687
aVhonour
p1688
aVamong
p1689
aVthe
p1690
aVdead
p1691
aVbelow
p1692
aV.
aa(lp1693
Vbut
p1694
aVthe
p1695
aVhapless
p1696
aVcorpse
p1697
aVof
p1698
aVpolyneices-as
p1699
aVrumour
p1700
aVsaith
p1701
aV,
aVit
p1702
aVhath
p1703
aVbeen
p1704
aVpublished
p1705
aVto
p1706
aVthe
p1707
aVtown
p1708
aVthat
p1709
aVnone
p1710
aVshall
p1711
aVentomb
p1712
aVhim
p1713
aVor
p1714
aVmourn
p1715
aV,
aVbut
p1716
aVleave
p1717
aVunwept
p1718
aV,
aVunsepulchred
p1719
aV,
aVa
aVwelcome
p1720
aVstore
p1721
aVfor
p1722
aVthe
p1723
aVbirds
p1724
aV,
aVas
p1725
aVthey
p1726
aVespy
p1727
aVhim
p1728
aV,
aVto
p1729
aVfeast
p1730
aVon
p1731
aVat
p1732
aVwill
p1733
aV.
aa(lp1734
Vsuch
p1735
aV,
aV't
p1736
aVis
p1737
aVsaid
p1738
aV,
aVis
p1739
aVthe
p1740
aVedict
p1741
aVthat
p1742
aVthe
p1743
aVgood
p1744
aVcreon
p1745
aVhath
p1746
aVset
p1747
aVforth
p1748
aVfor
p1749
aVthee
p1750
aVand
p1751
aVfor
p1752
aVme
p1753
aV,
aV-yes
p1754
aV,
aVfor
p1755
aVme
p1756
aV,
aV-and
p1757
aVis
p1758
aVcoming
p1759
aVhither
p1760
aVto
p1761
aVproclaim
p1762
aVit
p1763
aVclearly
p1764
aVto
p1765
aVthose
p1766
aVwho
p1767
aVknow
p1768
aVit
p1769
aVnot
p1770
aV;
aVnor
p1771
aVcounts
p1772
aVthe
p1773
aVmatter
p1774
aVlight
p1775
aV,
aVbut
p1776
aV,
aVwhoso
p1777
aVdisobeys
p1778
aVin
p1779
aVaught
p1780
aV,
aVhis
p1781
aVdoom
p1782
aVis
p1783
aVdeath
p1784
aVby
p1785
aVstoning
p1786
aVbefore
p1787
aVall
p1788
aVthe
p1789
aVfolk
p1790
aV.
aa(lp1791
Vthou
p1792
aVknowest
p1793
aVit
p1794
aVnow
p1795
aV;
aVand
p1796
aVthou
p1797
aVwilt
p1798
aVsoon
p1799
aVshow
p1800
aVwhether
p1801
aVthou
p1802
aVart
p1803
aVnobly
p1804
aVbred
p1805
aV,
aVor
p1806
aVthe
p1807
aVbase
p1808
aVdaughter
p1809
aVof
p1810
aVa
aVnoble
p1811
aVline
p1812
aV.
aa(lp1813
Vismene
p1814
aVpoor
p1815
aVsister
p1816
aV,
aV-and
p1817
aVif
p1818
aVthings
p1819
aVstand
p1820
aVthus
p1821
aV,
aVwhat
p1822
aVcould
p1823
aVi
aVhelp
p1824
aVto
p1825
aVdo
p1826
aVor
p1827
aVundo
p1828
aV?
aa(lp1829
Vantigone
p1830
aVconsider
p1831
aVif
p1832
aVthou
p1833
aVwilt
p1834
aVshare
p1835
aVthe
p1836
aVtoil
p1837
aVand
p1838
aVthe
p1839
aVdeed
p1840
aV.
aa(lp1841
Vismene
p1842
aVin
p1843
aVwhat
p1844
aVventure
p1845
aV?
aa(lp1846
Vwhat
p1847
aVcan
p1848
aVbe
p1849
aVthy
p1850
aVmeaning
p1851
aV?
aa(lp1852
Vantigone
p1853
aVwilt
p1854
aVthou
p1855
aVaid
p1856
aVthis
p1857
aVhand
p1858
aVto
p1859
aVlift
p1860
aVthe
p1861
aVdead
p1862
aV?
aa(lp1863
Vismene
p1864
aVthou
p1865
aVwouldst
p1866
aVbury
p1867
aVhim
p1868
aV,
aV-when
p1869
aV't
p1870
aVis
p1871
aVforbidden
p1872
aVto
p1873
aVthebes
p1874
aV?
aa(lp1875
Vantigone
p1876
aVi
aVwill
p1877
aVdo
p1878
aVmy
p1879
aVpart
p1880
aV,
aV-and
p1881
aVthine
p1882
aV,
aVif
p1883
aVthou
p1884
aVwilt
p1885
aVnot
p1886
aV,
aV-to
p1887
aVa
aVbrother
p1888
aV.
aa(lp1889
Vfalse
p1890
aVto
p1891
aVhim
p1892
aVwill
p1893
aVi
aVnever
p1894
aVbe
p1895
aVfound
p1896
aV.
aa(lp1897
Vismene
p1898
aVah
p1899
aV,
aVover-bold
p1900
aV!
aa(lp1901
Vwhen
p1902
aVcreon
p1903
aVhath
p1904
aVforbidden
p1905
aV?
aa(lp1906
Vantigone
p1907
aVnay
p1908
aV,
aVhe
p1909
aVhath
p1910
aVno
p1911
aVright
p1912
aVto
p1913
aVkeep
p1914
aVme
p1915
aVfrom
p1916
aVmine
p1917
aVown
p1918
aV.
aa(lp1919
Vismene
p1920
aVah
p1921
aVme
p1922
aV!
aa(lp1923
Vthink
p1924
aV,
aVsister
p1925
aV,
aVhow
p1926
aVour
p1927
aVfather
p1928
aVperished
p1929
aV,
aVamid
p1930
aVhate
p1931
aVand
p1932
aVscorn
p1933
aV,
aVwhen
p1934
aVsins
p1935
aVbared
p1936
aVby
p1937
aVhis
p1938
aVown
p1939
aVsearch
p1940
aVhad
p1941
aVmoved
p1942
aVhim
p1943
aVto
p1944
aVstrike
p1945
aVboth
p1946
aVeyes
p1947
aVwith
p1948
aVself-blinding
p1949
aVhand
p1950
aV;
aVthen
p1951
aVthe
p1952
aVmother
p1953
aVwife
p1954
aV,
aVtwo
p1955
aVnames
p1956
aVin
p1957
aVone
p1958
aV,
aVwith
p1959
aVtwisted
p1960
aVnoose
p1961
aVdid
p1962
aVdespite
p1963
aVunto
p1964
aVher
p1965
aVlife
p1966
aV;
aVand
p1967
aVlast
p1968
aV,
aVour
p1969
aVtwo
p1970
aVbrothers
p1971
aVin
p1972
aVone
p1973
aVday
p1974
aV,
aV-each
p1975
aVshedding
p1976
aV,
aVhapless
p1977
aVone
p1978
aV,
aVa
aVkinsman
p1979
aV's
p1980
aVblood
p1981
aV,
aV-wrought
p1982
aVout
p1983
aVwith
p1984
aVmutual
p1985
aVhands
p1986
aVtheir
p1987
aVcommon
p1988
aVdoom
p1989
aV.
aa(lp1990
Vand
p1991
aVnow
p1992
aVwe
p1993
aVin
p1994
aVturn-we
p1995
aVtwo
p1996
aVleft
p1997
aVall
p1998
aValone
p1999
aVthink
p2000
aVhow
p2001
aVwe
p2002
aVshall
p2003
aVperish
p2004
aV,
aVmore
p2005
aVmiserably
p2006
aVthan
p2007
aVall
p2008
aVthe
p2009
aVrest
p2010
aV,
aVif
p2011
aV,
aVin
p2012
aVdefiance
p2013
aVof
p2014
aVthe
p2015
aVlaw
p2016
aV,
aVwe
p2017
aVbrave
p2018
aVa
aVking
p2019
aV's
p2020
aVdecree
p2021
aVor
p2022
aVhis
p2023
aVpowers
p2024
aV.
aa(lp2025
Vnay
p2026
aV,
aVwe
p2027
aVmust
p2028
aVremember
p2029
aV,
aVfirst
p2030
aV,
aVthat
p2031
aVwe
p2032
aVwere
p2033
aVborn
p2034
aVwomen
p2035
aV,
aVas
p2036
aVwho
p2037
aVshould
p2038
aVnot
p2039
aVstrive
p2040
aVwith
p2041
aVmen
p2042
aV;
aVnext
p2043
aV,
aVthat
p2044
aVwe
p2045
aVare
p2046
aVruled
p2047
aVof
p2048
aVthe
p2049
aVstronger
p2050
aV,
aVso
p2051
aVthat
p2052
aVwe
p2053
aVmust
p2054
aVobey
p2055
aVin
p2056
aVthese
p2057
aVthings
p2058
aV,
aVand
p2059
aVin
p2060
aVthings
p2061
aVyet
p2062
aVsorer
p2063
aV.
aa(lp2064
Vi
aV,
aVtherefore
p2065
aV,
aVasking
p2066
aVthe
p2067
aVspirits
p2068
aVinfernal
p2069
aVto
p2070
aVpardon
p2071
aV,
aVseeing
p2072
aVthat
p2073
aVforce
p2074
aVis
p2075
aVput
p2076
aVon
p2077
aVme
p2078
aVherein
p2079
aV,
aVwill
p2080
aVhearken
p2081
aVto
p2082
aVour
p2083
aVrulers
p2084
aV.
aa(lp2085
Vfor
p2086
aV't
p2087
aVis
p2088
aVwitless
p2089
aVto
p2090
aVbe
p2091
aVover
p2092
aVbusy
p2093
aV.
aa(lp2094
Vantigone
p2095
aVi
aVwill
p2096
aVnot
p2097
aVurge
p2098
aVthee
p2099
aV,
aV-no
p2100
aVnor
p2101
aV,
aVif
p2102
aVthou
p2103
aVyet
p2104
aVshouldst
p2105
aVhave
p2106
aVthe
p2107
aVmind
p2108
aV,
aVwouldst
p2109
aVthou
p2110
aVbe
p2111
aVwelcome
p2112
aVas
p2113
aVa
aVworker
p2114
aVwith
p2115
aVme
p2116
aV.
aa(lp2117
Vnay
p2118
aV,
aVbe
p2119
aVwhat
p2120
aVthou
p2121
aVwilt
p2122
aV;
aVbut
p2123
aVi
aVwill
p2124
aVbury
p2125
aVhim
p2126
aV:
aVwell
p2127
aVfor
p2128
aVme
p2129
aVto
p2130
aVdie
p2131
aVin
p2132
aVdoing
p2133
aVthat
p2134
aV.
aa(lp2135
Vi
aVshall
p2136
aVrest
p2137
aV,
aVa
aVloved
p2138
aVone
p2139
aVwith
p2140
aVhim
p2141
aVwhom
p2142
aVi
aVhave
p2143
aVloved
p2144
aV,
aVsinless
p2145
aVin
p2146
aVmy
p2147
aVcrime
p2148
aV;
aVfor
p2149
aVi
aVowe
p2150
aVa
aVlonger
p2151
aVallegiance
p2152
aVto
p2153
aVthe
p2154
aVdead
p2155
aVthan
p2156
aVto
p2157
aVthe
p2158
aVliving
p2159
aV:
aVin
p2160
aVthat
p2161
aVworld
p2162
aVi
aVshall
p2163
aVabide
p2164
aVfor
p2165
aVever
p2166
aV.
aa(lp2167
Vbut
p2168
aVif
p2169
aVthou
p2170
aVwilt
p2171
aV,
aVbe
p2172
aVguilty
p2173
aVof
p2174
aVdishonouring
p2175
aVlaws
p2176
aVwhich
p2177
aVthe
p2178
aVgods
p2179
aVhave
p2180
aVstablished
p2181
aVin
p2182
aVhonour
p2183
aV.
aa(lp2184
Vismene
p2185
aVi
aVdo
p2186
aVthem
p2187
aVno
p2188
aVdishonour
p2189
aV;
aVbut
p2190
aVto
p2191
aVdefy
p2192
aVthe
p2193
aVstate
p2194
aV,
aV-i
p2195
aVhave
p2196
aVno
p2197
aVstrength
p2198
aVfor
p2199
aVthat
p2200
aV.
aa(lp2201
Vantigone
p2202
aVsuch
p2203
aVbe
p2204
aVthy
p2205
aVplea
p2206
aV:
aV-i
p2207
aV,
aVthen
p2208
aV,
aVwill
p2209
aVgo
p2210
aVto
p2211
aVheap
p2212
aVthe
p2213
aVearth
p2214
aVabove
p2215
aVthe
p2216
aVbrother
p2217
aVwhom
p2218
aVi
aVlove
p2219
aV.
aa(lp2220
Vismene
p2221
aValas
p2222
aV,
aVunhappy
p2223
aVone
p2224
aV!
aa(lp2225
Vhow
p2226
aVi
aVfear
p2227
aVfor
p2228
aVthee
p2229
aV!
aa(lp2230
Vantigone
p2231
aVfear
p2232
aVnot
p2233
aVfor
p2234
aVme
p2235
aV:
aVguide
p2236
aVthine
p2237
aVown
p2238
aVfate
p2239
aVaright
p2240
aV.
aa(lp2241
Vismene
p2242
aV:
aVat
p2243
aVleast
p2244
aV,
aVthen
p2245
aV,
aVdisclose
p2246
aVthis
p2247
aVplan
p2248
aVto
p2249
aVnone
p2250
aV,
aVbut
p2251
aVhide
p2252
aVit
p2253
aVclosely
p2254
aV,
aV-and
p2255
aVso
p2256
aV,
aVtoo
p2257
aV,
aVwill
p2258
aVi.
p2259
aVantigone
p2260
aVoh
p2261
aV,
aVdenounce
p2262
aVit
p2263
aV!
aa(lp2264
Vthou
p2265
aVwilt
p2266
aVbe
p2267
aVfar
p2268
aVmore
p2269
aVhateful
p2270
aVfor
p2271
aVthy
p2272
aVsilence
p2273
aV,
aVif
p2274
aVthou
p2275
aVproclaim
p2276
aVnot
p2277
aVthese
p2278
aVthings
p2279
aVto
p2280
aVall
p2281
aV.
aa(lp2282
Vismene
p2283
aVthou
p2284
aVhast
p2285
aVa
aVhot
p2286
aVheart
p2287
aVfor
p2288
aVchilling
p2289
aVdeeds
p2290
aV.
aa(lp2291
Vantigone
p2292
aVi
aVknow
p2293
aVthat
p2294
aVi
aVplease
p2295
aVwhere
p2296
aVi
aVam
p2297
aVmost
p2298
aVbound
p2299
aVto
p2300
aVplease
p2301
aV.
aa(lp2302
Vismene
p2303
aVaye
p2304
aV,
aVif
p2305
aVthou
p2306
aVcanst
p2307
aV;
aVbut
p2308
aVthou
p2309
aVwouldst
p2310
aVwhat
p2311
aVthou
p2312
aVcanst
p2313
aVnot
p2314
aV.
aa(lp2315
Vantigone
p2316
aVwhy
p2317
aV,
aVthen
p2318
aV,
aVwhen
p2319
aVmy
p2320
aVstrength
p2321
aVfails
p2322
aV,
aVi
aVshall
p2323
aVhave
p2324
aVdone
p2325
aV.
aa(lp2326
Vismene
p2327
aVa
aVhopeless
p2328
aVquest
p2329
aVshould
p2330
aVnot
p2331
aVbe
p2332
aVmade
p2333
aVat
p2334
aVall
p2335
aV.
aa(lp2336
Vantigone
p2337
aVif
p2338
aVthus
p2339
aVthou
p2340
aVspeakest
p2341
aV,
aVthou
p2342
aVwilt
p2343
aVhave
p2344
aVhatred
p2345
aVfrom
p2346
aVme
p2347
aV,
aVand
p2348
aVwill
p2349
aVjustly
p2350
aVbe
p2351
aVsubject
p2352
aVto
p2353
aVthe
p2354
aVlasting
p2355
aVhatred
p2356
aVof
p2357
aVthe
p2358
aVdead
p2359
aV.
aa(lp2360
Vbut
p2361
aVleave
p2362
aVme
p2363
aV,
aVand
p2364
aVthe
p2365
aVfolly
p2366
aVthat
p2367
aVis
p2368
aVmine
p2369
aValone
p2370
aV,
aVto
p2371
aVsuffer
p2372
aVthis
p2373
aVdread
p2374
aVthing
p2375
aV;
aVfor
p2376
aVi
aVshall
p2377
aVnot
p2378
aVsuffer
p2379
aVaught
p2380
aVso
p2381
aVdreadful
p2382
aVas
p2383
aVan
p2384
aVignoble
p2385
aVdeath
p2386
aV.
aa(lp2387
Vismene
p2388
aVgo
p2389
aV,
aVthen
p2390
aV,
aVif
p2391
aVthou
p2392
aVmust
p2393
aV;
aVand
p2394
aVof
p2395
aVthis
p2396
aVbe
p2397
aVsure
p2398
aV,
aV-that
p2399
aVthough
p2400
aVthine
p2401
aVerrand
p2402
aVis
p2403
aVfoolish
p2404
aV,
aVto
p2405
aVthy
p2406
aVdear
p2407
aVones
p2408
aVthou
p2409
aVart
p2410
aVtruly
p2411
aVdear
p2412
aV.
aa(lp2413
Vexit
p2414
aVantigone
p2415
aVon
p2416
aVthe
p2417
aVspectators
p2418
aV'
aVleft
p2419
aV.
aa(lp2420
Vismene
p2421
aVretires
p2422
aVinto
p2423
aVthe
p2424
aVpalace
p2425
aVby
p2426
aVone
p2427
aVof
p2428
aVthe
p2429
aVtwo
p2430
aVside-doors
p2431
aV.
aa(lp2432
Vwhen
p2433
aVthey
p2434
aVhave
p2435
aVdeparted
p2436
aV,
aVthe
p2437
aVchorus
p2438
aVof
p2439
aVtheban
p2440
aVelders
p2441
aVenters
p2442
aV.
aa(lp2443
Vchorus
p2444
aVsinging
p2445
aVstrophe
p2446
aV1
aVbeam
p2447
aVof
p2448
aVthe
p2449
aVsun
p2450
aV,
aVfairest
p2451
aVlight
p2452
aVthat
p2453
aVever
p2454
aVdawned
p2455
aVon
p2456
aVthebe
p2457
aVof
p2458
aVthe
p2459
aVseven
p2460
aVgates
p2461
aV,
aVthou
p2462
aVhast
p2463
aVshone
p2464
aVforth
p2465
aVat
p2466
aVlast
p2467
aV,
aVeye
p2468
aVof
p2469
aVgolden
p2470
aVday
p2471
aV,
aVarisen
p2472
aVabove
p2473
aVdirce
p2474
aV's
p2475
aVstreams
p2476
aV!
aa(lp2477
Vthe
p2478
aVwarrior
p2479
aVof
p2480
aVthe
p2481
aVwhite
p2482
aVshield
p2483
aV,
aVwho
p2484
aVcame
p2485
aVfrom
p2486
aVargos
p2487
aVin
p2488
aVhis
p2489
aVpanoply
p2490
aV,
aVhath
p2491
aVbeen
p2492
aVstirred
p2493
aVby
p2494
aVthee
p2495
aVto
p2496
aVheadlong
p2497
aVflight
p2498
aV,
aVin
p2499
aVswifter
p2500
aVcareer
p2501
aV;
aVleader
p2502
aVof
p2503
aVthe
p2504
aVchorus
p2505
aVsystema
p2506
aV1
aVwho
p2507
aVset
p2508
aVforth
p2509
aVagainst
p2510
aVour
p2511
aVland
p2512
aVby
p2513
aVreason
p2514
aVof
p2515
aVthe
p2516
aVvexed
p2517
aVclaims
p2518
aVof
p2519
aVpolyneices
p2520
aV;
aVand
p2521
aV,
aVlike
p2522
aVshrill-screaming
p2523
aVeagle
p2524
aV,
aVhe
p2525
aVflew
p2526
aVover
p2527
aVinto
p2528
aVour
p2529
aVland
p2530
aV,
aVin
p2531
aVsnow-white
p2532
aVpinion
p2533
aVsheathed
p2534
aV,
aVwith
p2535
aVan
p2536
aVarmed
p2537
aVthrong
p2538
aV,
aVand
p2539
aVwith
p2540
aVplumage
p2541
aVof
p2542
aVhelms
p2543
aV.
aa(lp2544
Vchorus
p2545
aVantistrophe
p2546
aV1
aVhe
p2547
aVpaused
p2548
aVabove
p2549
aVour
p2550
aVdwellings
p2551
aV;
aVhe
p2552
aVravened
p2553
aVaround
p2554
aVour
p2555
aVsevenfold
p2556
aVportals
p2557
aVwith
p2558
aVspears
p2559
aVathirst
p2560
aVfor
p2561
aVblood
p2562
aV;
aVbut
p2563
aVhe
p2564
aVwent
p2565
aVhence
p2566
aV,
aVor
p2567
aVever
p2568
aVhis
p2569
aVjaws
p2570
aVwere
p2571
aVglutted
p2572
aVwith
p2573
aVour
p2574
aVgore
p2575
aV,
aVor
p2576
aVthe
p2577
aVfire-god
p2578
aV's
p2579
aVpine-fed
p2580
aVflame
p2581
aVhad
p2582
aVseized
p2583
aVour
p2584
aVcrown
p2585
aVof
p2586
aVtowers
p2587
aV.
aa(lp2588
Vso
p2589
aVfierce
p2590
aVwas
p2591
aVthe
p2592
aVnoise
p2593
aVof
p2594
aVbattle
p2595
aVraised
p2596
aVbehind
p2597
aVhim
p2598
aV,
aVa
aVthing
p2599
aVtoo
p2600
aVhard
p2601
aVfor
p2602
aVhim
p2603
aVto
p2604
aVconquer
p2605
aV,
aVas
p2606
aVhe
p2607
aVwrestled
p2608
aVwith
p2609
aVhis
p2610
aVdragon
p2611
aVfoe
p2612
aV.
aa(lp2613
Vleader
p2614
aVsystema
p2615
aV2
aVfor
p2616
aVzeus
p2617
aVutterly
p2618
aVabhors
p2619
aVthe
p2620
aVboasts
p2621
aVof
p2622
aVa
aVproud
p2623
aVtongue
p2624
aV;
aVand
p2625
aVwhen
p2626
aVhe
p2627
aVbeheld
p2628
aVthem
p2629
aVcoming
p2630
aVon
p2631
aVin
p2632
aVa
aVgreat
p2633
aVstream
p2634
aV,
aVin
p2635
aVthe
p2636
aVhaughty
p2637
aVpride
p2638
aVof
p2639
aVclanging
p2640
aVgold
p2641
aV,
aVhe
p2642
aVsmote
p2643
aVwith
p2644
aVbrandished
p2645
aVfire
p2646
aVone
p2647
aVwho
p2648
aVwas
p2649
aVnow
p2650
aVhasting
p2651
aVto
p2652
aVshout
p2653
aVvictory
p2654
aVat
p2655
aVhis
p2656
aVgoal
p2657
aVupon
p2658
aVour
p2659
aVramparts
p2660
aV.
aa(lp2661
Vchorus
p2662
aVstrophe
p2663
aV2
aVswung
p2664
aVdown
p2665
aV,
aVhe
p2666
aVfell
p2667
aVon
p2668
aVthe
p2669
aVearth
p2670
aVwith
p2671
aVa
aVcrash
p2672
aV,
aVtorch
p2673
aVin
p2674
aVhand
p2675
aV,
aVhe
p2676
aVwho
p2677
aVso
p2678
aVlately
p2679
aV,
aVin
p2680
aVthe
p2681
aVfrenzy
p2682
aVof
p2683
aVthe
p2684
aVmad
p2685
aVonset
p2686
aV,
aVwas
p2687
aVraging
p2688
aVagainst
p2689
aVus
p2690
aVwith
p2691
aVthe
p2692
aVblasts
p2693
aVof
p2694
aVhis
p2695
aVtempestuous
p2696
aVhate
p2697
aV.
aa(lp2698
Vbut
p2699
aVthose
p2700
aVthreats
p2701
aVfared
p2702
aVnot
p2703
aVas
p2704
aVhe
p2705
aVhoped
p2706
aV;
aVand
p2707
aVto
p2708
aVother
p2709
aVfoes
p2710
aVthe
p2711
aVmighty
p2712
aVwar-god
p2713
aVdispensed
p2714
aVtheir
p2715
aVseveral
p2716
aVdooms
p2717
aV,
aVdealing
p2718
aVhavoc
p2719
aVaround
p2720
aV,
aVa
aVmighty
p2721
aVhelper
p2722
aVat
p2723
aVour
p2724
aVneed
p2725
aV.
aa(lp2726
Vleader
p2727
aVsystema
p2728
aV3
aVfor
p2729
aVseven
p2730
aVcaptains
p2731
aVat
p2732
aVseven
p2733
aVgates
p2734
aV,
aVmatched
p2735
aVagainst
p2736
aVseven
p2737
aV,
aVleft
p2738
aVthe
p2739
aVtribute
p2740
aVof
p2741
aVtheir
p2742
aVpanoplies
p2743
aVto
p2744
aVzeus
p2745
aVwho
p2746
aVturns
p2747
aVthe
p2748
aVbattle
p2749
aV;
aVsave
p2750
aVthose
p2751
aVtwo
p2752
aVof
p2753
aVcruel
p2754
aVfate
p2755
aV,
aVwho
p2756
aV,
aVborn
p2757
aVof
p2758
aVone
p2759
aVsire
p2760
aVand
p2761
aVone
p2762
aVmother
p2763
aV,
aVset
p2764
aVagainst
p2765
aVeach
p2766
aVother
p2767
aVtheir
p2768
aVtwain
p2769
aVconquering
p2770
aVspears
p2771
aV,
aVand
p2772
aVare
p2773
aVsharers
p2774
aVin
p2775
aVa
aVcommon
p2776
aVdeath
p2777
aV.
aa(lp2778
Vchorus
p2779
aVantistrophe
p2780
aV2
aVbut
p2781
aVsince
p2782
aVvictory
p2783
aVof
p2784
aVglorious
p2785
aVname
p2786
aVhath
p2787
aVcome
p2788
aVto
p2789
aVus
p2790
aV,
aVwith
p2791
aVjoy
p2792
aVresponsive
p2793
aVto
p2794
aVthe
p2795
aVjoy
p2796
aVof
p2797
aVthebe
p2798
aVwhose
p2799
aVchariots
p2800
aVare
p2801
aVmany
p2802
aV,
aVlet
p2803
aVus
p2804
aVenjoy
p2805
aVforgetfulness
p2806
aVafter
p2807
aVthe
p2808
aVlate
p2809
aVwars
p2810
aV,
aVand
p2811
aVvisit
p2812
aVall
p2813
aVthe
p2814
aVtemples
p2815
aVof
p2816
aVthe
p2817
aVgods
p2818
aVwith
p2819
aVnight-long
p2820
aVdance
p2821
aVand
p2822
aVsong
p2823
aV;
aVand
p2824
aVmay
p2825
aVbacchus
p2826
aVbe
p2827
aVour
p2828
aVleader
p2829
aV,
aVwhose
p2830
aVdancing
p2831
aVshakes
p2832
aVthe
p2833
aVland
p2834
aVof
p2835
aVthebe
p2836
aV.
aa(lp2837
Vleader
p2838
aVsystema
p2839
aV4
aVbut
p2840
aVlo
p2841
aV,
aVthe
p2842
aVking
p2843
aVof
p2844
aVthe
p2845
aVland
p2846
aVcomes
p2847
aVyonder
p2848
aV,
aVcreon
p2849
aV,
aVson
p2850
aVof
p2851
aVmenoeceus
p2852
aV,
aVour
p2853
aVnew
p2854
aVruler
p2855
aVby
p2856
aVthe
p2857
aVnew
p2858
aVfortunes
p2859
aVthat
p2860
aVthe
p2861
aVgods
p2862
aVhave
p2863
aVgiven
p2864
aV;
aVwhat
p2865
aVcounsel
p2866
aVis
p2867
aVhe
p2868
aVpondering
p2869
aV,
aVthat
p2870
aVhe
p2871
aVhath
p2872
aVproposed
p2873
aVthis
p2874
aVspecial
p2875
aVconference
p2876
aVof
p2877
aVelders
p2878
aV,
aVsummoned
p2879
aVby
p2880
aVhis
p2881
aVgeneral
p2882
aVmandate
p2883
aV?
aa(lp2884
Venter
p2885
aVcreon
p2886
aV,
aVfrom
p2887
aVthe
p2888
aVcentral
p2889
aVdoors
p2890
aVof
p2891
aVthe
p2892
aVpalace
p2893
aV,
aVin
p2894
aVthe
p2895
aVgarb
p2896
aVof
p2897
aVking
p2898
aV,
aVwith
p2899
aVtwo
p2900
aVattendants
p2901
aV.
aa(lp2902
Vcreon
p2903
aVsirs
p2904
aV,
aVthe
p2905
aVvessel
p2906
aVof
p2907
aVour
p2908
aVstate
p2909
aV,
aVafter
p2910
aVbeing
p2911
aVtossed
p2912
aVon
p2913
aVwild
p2914
aVwaves
p2915
aV,
aVhath
p2916
aVonce
p2917
aVmore
p2918
aVbeen
p2919
aVsafely
p2920
aVsteadied
p2921
aVby
p2922
aVthe
p2923
aVgods
p2924
aV:
aVand
p2925
aVye
p2926
aV,
aVout
p2927
aVof
p2928
aVall
p2929
aVthe
p2930
aVfolk
p2931
aV,
aVhave
p2932
aVbeen
p2933
aVcalled
p2934
aVapart
p2935
aVby
p2936
aVmy
p2937
aVsummons
p2938
aV,
aVbecause
p2939
aVi
aVknew
p2940
aV,
aVfirst
p2941
aVof
p2942
aVall
p2943
aV,
aVhow
p2944
aVtrue
p2945
aVand
p2946
aVconstant
p2947
aVwas
p2948
aVyour
p2949
aVreverence
p2950
aVfor
p2951
aVthe
p2952
aVroyal
p2953
aVpower
p2954
aVof
p2955
aVlaius
p2956
aV;
aVhow
p2957
aV,
aVagain
p2958
aV,
aVwhen
p2959
aVoedipus
p2960
aVwas
p2961
aVruler
p2962
aVof
p2963
aVour
p2964
aVland
p2965
aV,
aVand
p2966
aVwhen
p2967
aVhe
p2968
aVhad
p2969
aVperished
p2970
aV,
aVyour
p2971
aVsteadfast
p2972
aVloyalty
p2973
aVstill
p2974
aVupheld
p2975
aVtheir
p2976
aVchildren
p2977
aV.
aa(lp2978
Vsince
p2979
aV,
aVthen
p2980
aV,
aVhis
p2981
aVsons
p2982
aVhave
p2983
aVfallen
p2984
aVin
p2985
aVone
p2986
aVday
p2987
aVby
p2988
aVa
aVtwofold
p2989
aVdoom
p2990
aV,
aV-each
p2991
aVsmitten
p2992
aVby
p2993
aVthe
p2994
aVother
p2995
aV,
aVeach
p2996
aVstained
p2997
aVwith
p2998
aVa
aVbrother
p2999
aV's
p3000
aVblood
p3001
aV,
aV-i
p3002
aVnow
p3003
aVpossess
p3004
aVthe
p3005
aVthrone
p3006
aVand
p3007
aVall
p3008
aVits
p3009
aVpowers
p3010
aV,
aVby
p3011
aVnearness
p3012
aVof
p3013
aVkinship
p3014
aVto
p3015
aVthe
p3016
aVdead
p3017
aV.
aa(lp3018
Vno
p3019
aVman
p3020
aVcan
p3021
aVbe
p3022
aVfully
p3023
aVknown
p3024
aV,
aVin
p3025
aVsoul
p3026
aVand
p3027
aVspirit
p3028
aVand
p3029
aVmind
p3030
aV,
aVuntil
p3031
aVhe
p3032
aVhath
p3033
aVbeen
p3034
aVseen
p3035
aVversed
p3036
aVin
p3037
aVrule
p3038
aVand
p3039
aVlaw-giving
p3040
aV.
aa(lp3041
Vfor
p3042
aVif
p3043
aVany
p3044
aV,
aVbeing
p3045
aVsupreme
p3046
aVguide
p3047
aVof
p3048
aVthe
p3049
aVstate
p3050
aV,
aVcleaves
p3051
aVnot
p3052
aVto
p3053
aVthe
p3054
aVbest
p3055
aVcounsels
p3056
aV,
aVbut
p3057
aV,
aVthrough
p3058
aVsome
p3059
aVfear
p3060
aV,
aVkeeps
p3061
aVhis
p3062
aVlips
p3063
aVlocked
p3064
aV,
aVi
aVhold
p3065
aV,
aVand
p3066
aVhave
p3067
aVever
p3068
aVheld
p3069
aV,
aVhim
p3070
aVmost
p3071
aVbase
p3072
aV;
aVand
p3073
aVif
p3074
aVany
p3075
aVmakes
p3076
aVa
aVfriend
p3077
aVof
p3078
aVmore
p3079
aVaccount
p3080
aVthan
p3081
aVhis
p3082
aVfatherland
p3083
aV,
aVthat
p3084
aVman
p3085
aVhath
p3086
aVno
p3087
aVplace
p3088
aVin
p3089
aVmy
p3090
aVregard
p3091
aV.
aa(lp3092
Vfor
p3093
aVi-be
p3094
aVzeus
p3095
aVmy
p3096
aVwitness
p3097
aV,
aVwho
p3098
aVsees
p3099
aVall
p3100
aVthings
p3101
aValways-would
p3102
aVnot
p3103
aVbe
p3104
aVsilent
p3105
aVif
p3106
aVi
aVsaw
p3107
aVruin
p3108
aV,
aVinstead
p3109
aVof
p3110
aVsafety
p3111
aV,
aVcoming
p3112
aVto
p3113
aVthe
p3114
aVcitizens
p3115
aV;
aVnor
p3116
aVwould
p3117
aVi
aVever
p3118
aVdeem
p3119
aVthe
p3120
aVcountry
p3121
aV's
p3122
aVfoe
p3123
aVa
aVfriend
p3124
aVto
p3125
aVmyself
p3126
aV;
aVremembering
p3127
aVthis
p3128
aV,
aVthat
p3129
aVour
p3130
aVcountry
p3131
aVis
p3132
aVthe
p3133
aVship
p3134
aVthat
p3135
aVbears
p3136
aVus
p3137
aVsafe
p3138
aV,
aVand
p3139
aVthat
p3140
aVonly
p3141
aVwhile
p3142
aVshe
p3143
aVprospers
p3144
aVin
p3145
aVour
p3146
aVvoyage
p3147
aVcan
p3148
aVwe
p3149
aVmake
p3150
aVtrue
p3151
aVfriends
p3152
aV.
aa(lp3153
Vsuch
p3154
aVare
p3155
aVthe
p3156
aVrules
p3157
aVby
p3158
aVwhich
p3159
aVi
aVguard
p3160
aVthis
p3161
aVcity
p3162
aV's
p3163
aVgreatness
p3164
aV.
aa(lp3165
Vand
p3166
aVin
p3167
aVaccord
p3168
aVwith
p3169
aVthem
p3170
aVis
p3171
aVthe
p3172
aVedict
p3173
aVwhich
p3174
aVi
aVhave
p3175
aVnow
p3176
aVpublished
p3177
aVto
p3178
aVthe
p3179
aVfolk
p3180
aVtouching
p3181
aVthe
p3182
aVsons
p3183
aVof
p3184
aVoedipus
p3185
aV;
aV-that
p3186
aVeteocles
p3187
aV,
aVwho
p3188
aVhath
p3189
aVfallen
p3190
aVfighting
p3191
aVfor
p3192
aVour
p3193
aVcity
p3194
aV,
aVin
p3195
aVall
p3196
aVrenown
p3197
aVof
p3198
aVarms
p3199
aV,
aVshall
p3200
aVbe
p3201
aVentombed
p3202
aV,
aVand
p3203
aVcrowned
p3204
aVwith
p3205
aVevery
p3206
aVrite
p3207
aVthat
p3208
aVfollows
p3209
aVthe
p3210
aVnoblest
p3211
aVdead
p3212
aVto
p3213
aVtheir
p3214
aVrest
p3215
aV.
aa(lp3216
Vbut
p3217
aVfor
p3218
aVhis
p3219
aVbrother
p3220
aV,
aVpolyneices
p3221
aV,
aV-who
p3222
aVcame
p3223
aVback
p3224
aVfrom
p3225
aVexile
p3226
aV,
aVand
p3227
aVsought
p3228
aVto
p3229
aVconsume
p3230
aVutterly
p3231
aVwith
p3232
aVfire
p3233
aVthe
p3234
aVcity
p3235
aVof
p3236
aVhis
p3237
aVfathers
p3238
aVand
p3239
aVthe
p3240
aVshrines
p3241
aVof
p3242
aVhis
p3243
aVfathers
p3244
aV'
aVgods
p3245
aV,
aV-sought
p3246
aVto
p3247
aVtaste
p3248
aVof
p3249
aVkindred
p3250
aVblood
p3251
aV,
aVand
p3252
aVto
p3253
aVlead
p3254
aVthe
p3255
aVremnant
p3256
aVinto
p3257
aVslavery
p3258
aV;
aV-touching
p3259
aVthis
p3260
aVman
p3261
aV,
aVit
p3262
aVhath
p3263
aVbeen
p3264
aVproclaimed
p3265
aVto
p3266
aVour
p3267
aVpeople
p3268
aVthat
p3269
aVnone
p3270
aVshall
p3271
aVgrace
p3272
aVhim
p3273
aVwith
p3274
aVsepulture
p3275
aVor
p3276
aVlament
p3277
aV,
aVbut
p3278
aVleave
p3279
aVhim
p3280
aVunburied
p3281
aV,
aVa
aVcorpse
p3282
aVfor
p3283
aVbirds
p3284
aVand
p3285
aVdogs
p3286
aVto
p3287
aVeat
p3288
aV,
aVa
aVghastly
p3289
aVsight
p3290
aVof
p3291
aVshame
p3292
aV.
aa(lp3293
Vsuch
p3294
aVthe
p3295
aVspirit
p3296
aVof
p3297
aVmy
p3298
aVdealing
p3299
aV;
aVand
p3300
aVnever
p3301
aV,
aVby
p3302
aVdeed
p3303
aVof
p3304
aVmine
p3305
aV,
aVshall
p3306
aVthe
p3307
aVwicked
p3308
aVstand
p3309
aVin
p3310
aVhonour
p3311
aVbefore
p3312
aVthe
p3313
aVjust
p3314
aV;
aVbut
p3315
aVwhoso
p3316
aVhath
p3317
aVgood
p3318
aVwill
p3319
aVto
p3320
aVthebes
p3321
aV,
aVhe
p3322
aVshall
p3323
aVbe
p3324
aVhonoured
p3325
aVof
p3326
aVme
p3327
aV,
aVin
p3328
aVhis
p3329
aVlife
p3330
aVand
p3331
aVin
p3332
aVhis
p3333
aVdeath
p3334
aV.
aa(lp3335
Vleader
p3336
aVof
p3337
aVthe
p3338
aVchorus
p3339
aVsuch
p3340
aVis
p3341
aVthy
p3342
aVpleasure
p3343
aV,
aVcreon
p3344
aV,
aVson
p3345
aVof
p3346
aVmenoeceus
p3347
aV,
aVtouching
p3348
aVthis
p3349
aVcity
p3350
aV's
p3351
aVfoe
p3352
aV,
aVand
p3353
aVits
p3354
aVfriend
p3355
aV;
aVand
p3356
aVthou
p3357
aVhast
p3358
aVpower
p3359
aV,
aVi
aVween
p3360
aV,
aVto
p3361
aVtake
p3362
aVwhat
p3363
aVorder
p3364
aVthou
p3365
aVwilt
p3366
aV,
aVboth
p3367
aVfor
p3368
aVthe
p3369
aVdead
p3370
aV,
aVand
p3371
aVfor
p3372
aVall
p3373
aVus
p3374
aVwho
p3375
aVlive
p3376
aV.
aa(lp3377
Vcreon
p3378
aVsee
p3379
aV,
aVthen
p3380
aV,
aVthat
p3381
aVye
p3382
aVbe
p3383
aVguardians
p3384
aVof
p3385
aVthe
p3386
aVmandate
p3387
aV.
aa(lp3388
Vleader
p3389
aVlay
p3390
aVthe
p3391
aVburden
p3392
aVof
p3393
aVthis
p3394
aVtask
p3395
aVon
p3396
aVsome
p3397
aVyounger
p3398
aVman
p3399
aV.
aa(lp3400
Vcreon
p3401
aVnay
p3402
aV,
aVwatchers
p3403
aVof
p3404
aVthe
p3405
aVcorpse
p3406
aVhave
p3407
aVbeen
p3408
aVfound
p3409
aV.
aa(lp3410
Vleader
p3411
aVwhat
p3412
aV,
aVthen
p3413
aV,
aVis
p3414
aVthis
p3415
aVfurther
p3416
aVcharge
p3417
aVthat
p3418
aVthou
p3419
aVwouldst
p3420
aVgive
p3421
aV?
aa(lp3422
Vcreon
p3423
aVthat
p3424
aVye
p3425
aVside
p3426
aVnot
p3427
aVwith
p3428
aVthe
p3429
aVbreakers
p3430
aVof
p3431
aVthese
p3432
aVcommands
p3433
aV.
aa(lp3434
Vleader
p3435
aVno
p3436
aVman
p3437
aVis
p3438
aVso
p3439
aVfoolish
p3440
aVthat
p3441
aVhe
p3442
aVis
p3443
aVenamoured
p3444
aVof
p3445
aVdeath
p3446
aV.
aa(lp3447
Vcreon
p3448
aVin
p3449
aVsooth
p3450
aV,
aVthat
p3451
aVis
p3452
aVthe
p3453
aVmeed
p3454
aV;
aVyet
p3455
aVlucre
p3456
aVhath
p3457
aVoft
p3458
aVruined
p3459
aVmen
p3460
aVthrough
p3461
aVtheir
p3462
aVhopes
p3463
aV.
aa(lp3464
Va
aVguard
p3465
aVenters
p3466
aVfrom
p3467
aVthe
p3468
aVspectators
p3469
aV'
aVleft
p3470
aV.
aa(lp3471
Vguard
p3472
aVmy
p3473
aVliege
p3474
aV,
aVi
aVwill
p3475
aVnot
p3476
aVsay
p3477
aVthat
p3478
aVi
aVcome
p3479
aVbreathless
p3480
aVfrom
p3481
aVspeed
p3482
aV,
aVor
p3483
aVthat
p3484
aVhave
p3485
aVplied
p3486
aVa
aVnimble
p3487
aVfoot
p3488
aV;
aVfor
p3489
aVoften
p3490
aVdid
p3491
aVmy
p3492
aVthoughts
p3493
aVmake
p3494
aVme
p3495
aVpause
p3496
aV,
aVand
p3497
aVwheel
p3498
aVround
p3499
aVin
p3500
aVmy
p3501
aVpath
p3502
aV,
aVto
p3503
aVreturn
p3504
aV.
aa(lp3505
Vmy
p3506
aVmind
p3507
aVwas
p3508
aVholding
p3509
aVlarge
p3510
aVdiscourse
p3511
aVwith
p3512
aVme
p3513
aV;
aV'fool
p3514
aV,
aVwhy
p3515
aVgoest
p3516
aVthou
p3517
aVto
p3518
aVthy
p3519
aVcertain
p3520
aVdoom
p3521
aV?
aV'
aa(lp3522
V'wretch
p3523
aV,
aVtarrying
p3524
aVagain
p3525
aV?
aa(lp3526
Vand
p3527
aVif
p3528
aVcreon
p3529
aVhears
p3530
aVthis
p3531
aVfrom
p3532
aVanother
p3533
aV,
aVmust
p3534
aVnot
p3535
aVthou
p3536
aVsmart
p3537
aVfor
p3538
aVit
p3539
aV?
aV'
aa(lp3540
Vso
p3541
aVdebating
p3542
aV,
aVi
aVwent
p3543
aVon
p3544
aVmy
p3545
aVway
p3546
aVwith
p3547
aVlagging
p3548
aVsteps
p3549
aV,
aVand
p3550
aVthus
p3551
aVa
aVshort
p3552
aVroad
p3553
aVwas
p3554
aVmade
p3555
aVlong
p3556
aV.
aa(lp3557
Vat
p3558
aVlast
p3559
aV,
aVhowever
p3560
aV,
aVit
p3561
aVcarried
p3562
aVthe
p3563
aVday
p3564
aVthat
p3565
aVi
aVshould
p3566
aVcome
p3567
aVhither-to
p3568
aVthee
p3569
aV;
aVand
p3570
aV,
aVthough
p3571
aVmy
p3572
aVtale
p3573
aVbe
p3574
aVnought
p3575
aV,
aVyet
p3576
aVwill
p3577
aVi
aVtell
p3578
aVit
p3579
aV;
aVfor
p3580
aVi
aVcome
p3581
aVwith
p3582
aVa
aVgood
p3583
aVgrip
p3584
aVon
p3585
aVone
p3586
aVhope
p3587
aV,
aV-that
p3588
aVi
aVcan
p3589
aVsuffer
p3590
aVnothing
p3591
aVbut
p3592
aVwhat
p3593
aVis
p3594
aVmy
p3595
aVfate
p3596
aV.
aa(lp3597
Vcreon
p3598
aVand
p3599
aVwhat
p3600
aVis
p3601
aVit
p3602
aVthat
p3603
aVdisquiets
p3604
aVthee
p3605
aVthus
p3606
aV?
aa(lp3607
Vguard
p3608
aVi
aVwish
p3609
aVto
p3610
aVtell
p3611
aVthee
p3612
aVfirst
p3613
aVabout
p3614
aVmyself-i
p3615
aVdid
p3616
aVnot
p3617
aVdo
p3618
aVthe
p3619
aVdeed-i
p3620
aVdid
p3621
aVnot
p3622
aVsee
p3623
aVthe
p3624
aVdoer-it
p3625
aVwere
p3626
aVnot
p3627
aVright
p3628
aVthat
p3629
aVi
aVshould
p3630
aVcome
p3631
aVto
p3632
aVany
p3633
aVharm
p3634
aV.
aa(lp3635
Vcreon
p3636
aVthou
p3637
aVhast
p3638
aVa
aVshrewd
p3639
aVeye
p3640
aVfor
p3641
aVthy
p3642
aVmark
p3643
aV;
aVwell
p3644
aVdost
p3645
aVthou
p3646
aVfence
p3647
aVthyself
p3648
aVround
p3649
aVagainst
p3650
aVthe
p3651
aVblame
p3652
aV;
aVclearly
p3653
aVthou
p3654
aVhast
p3655
aVsome
p3656
aVstrange
p3657
aVthing
p3658
aVto
p3659
aVtell
p3660
aV.
aa(lp3661
Vguard
p3662
aVaye
p3663
aV,
aVtruly
p3664
aV;
aVdread
p3665
aVnews
p3666
aVmakes
p3667
aVone
p3668
aVpause
p3669
aVlong
p3670
aV.
aa(lp3671
Vcreon
p3672
aVthen
p3673
aVtell
p3674
aVit
p3675
aV,
aVwilt
p3676
aVthou
p3677
aV,
aVand
p3678
aVso
p3679
aVget
p3680
aVthee
p3681
aVgone
p3682
aV?
aa(lp3683
Vguard
p3684
aVwell
p3685
aV,
aVthis
p3686
aVis
p3687
aVit.-the
p3688
aVcorpse-some
p3689
aVone
p3690
aVhath
p3691
aVjust
p3692
aVgiven
p3693
aVit
p3694
aVburial
p3695
aV,
aVand
p3696
aVgone
p3697
aVaway
p3698
aV,
aV-after
p3699
aVsprinkling
p3700
aVthirsty
p3701
aVdust
p3702
aVon
p3703
aVthe
p3704
aVflesh
p3705
aV,
aVwith
p3706
aVsuch
p3707
aVother
p3708
aVrites
p3709
aVas
p3710
aVpiety
p3711
aVenjoins
p3712
aV.
aa(lp3713
Vcreon
p3714
aVwhat
p3715
aVsayest
p3716
aVthou
p3717
aV?
aa(lp3718
Vwhat
p3719
aVliving
p3720
aVman
p3721
aVhath
p3722
aVdared
p3723
aVthis
p3724
aVdeed
p3725
aV?
aa(lp3726
Vguard
p3727
aVi
aVknow
p3728
aVnot
p3729
aV;
aVno
p3730
aVstroke
p3731
aVof
p3732
aVpickaxe
p3733
aVwas
p3734
aVseen
p3735
aVthere
p3736
aV,
aVno
p3737
aVearth
p3738
aVthrown
p3739
aVup
p3740
aVby
p3741
aVmattock
p3742
aV;
aVthe
p3743
aVground
p3744
aVwas
p3745
aVhard
p3746
aVand
p3747
aVdry
p3748
aV,
aVunbroken
p3749
aV,
aVwithout
p3750
aVtrack
p3751
aVof
p3752
aVwheels
p3753
aV;
aVthe
p3754
aVdoer
p3755
aVwas
p3756
aVone
p3757
aVwho
p3758
aVhad
p3759
aVleft
p3760
aVno
p3761
aVtrace
p3762
aV.
aa(lp3763
Vand
p3764
aVwhen
p3765
aVthe
p3766
aVfirst
p3767
aVday-watchman
p3768
aVshowed
p3769
aVit
p3770
aVto
p3771
aVus
p3772
aV,
aVsore
p3773
aVwonder
p3774
aVfell
p3775
aVon
p3776
aVall
p3777
aV.
aa(lp3778
Vthe
p3779
aVdead
p3780
aVman
p3781
aVwas
p3782
aVveiled
p3783
aVfrom
p3784
aVus
p3785
aV;
aVnot
p3786
aVshut
p3787
aVwithin
p3788
aVa
aVtomb
p3789
aV,
aVbut
p3790
aVlightly
p3791
aVstrewn
p3792
aVwith
p3793
aVdust
p3794
aV,
aVas
p3795
aVby
p3796
aVthe
p3797
aVhand
p3798
aVof
p3799
aVone
p3800
aVwho
p3801
aVshunned
p3802
aVa
aVcurse
p3803
aV.
aa(lp3804
Vand
p3805
aVno
p3806
aVsign
p3807
aVmet
p3808
aVthe
p3809
aVeye
p3810
aVas
p3811
aVthough
p3812
aVany
p3813
aVbeast
p3814
aVof
p3815
aVprey
p3816
aVor
p3817
aVany
p3818
aVdog
p3819
aVhad
p3820
aVcome
p3821
aVnigh
p3822
aVto
p3823
aVhim
p3824
aV,
aVor
p3825
aVtorn
p3826
aVhim
p3827
aV.
aa(lp3828
Vthen
p3829
aVevil
p3830
aVwords
p3831
aVflew
p3832
aVfast
p3833
aVand
p3834
aVloud
p3835
aVamong
p3836
aVus
p3837
aV,
aVguard
p3838
aVaccusing
p3839
aVguard
p3840
aV;
aVund
p3841
aVit
p3842
aVwould
p3843
aVe'en
p3844
aVhave
p3845
aVcome
p3846
aVto
p3847
aVblows
p3848
aVat
p3849
aVlast
p3850
aV,
aVnor
p3851
aVwas
p3852
aVthere
p3853
aVany
p3854
aVto
p3855
aVhinder
p3856
aV.
aa(lp3857
Vevery
p3858
aVman
p3859
aVwas
p3860
aVthe
p3861
aVculprit
p3862
aV,
aVand
p3863
aVno
p3864
aVone
p3865
aVwas
p3866
aVconvicted
p3867
aV,
aVbut
p3868
aVall
p3869
aVdisclaimed
p3870
aVknowledge
p3871
aVof
p3872
aVthe
p3873
aVdeed
p3874
aV.
aa(lp3875
Vand
p3876
aVwe
p3877
aVwere
p3878
aVready
p3879
aVto
p3880
aVtake
p3881
aVred-hot
p3882
aViron
p3883
aVin
p3884
aVour
p3885
aVhands
p3886
aV;
aV-to
p3887
aVwalk
p3888
aVthrough
p3889
aVfire
p3890
aV;
aV-to
p3891
aVmake
p3892
aVoath
p3893
aVby
p3894
aVthe
p3895
aVgods
p3896
aVthat
p3897
aVwe
p3898
aVhad
p3899
aVnot
p3900
aVdone
p3901
aVthe
p3902
aVdeed
p3903
aV,
aV-that
p3904
aVwe
p3905
aVwere
p3906
aVnot
p3907
aVprivy
p3908
aVto
p3909
aVthe
p3910
aVplanning
p3911
aVor
p3912
aVthe
p3913
aVdoing
p3914
aV.
aa(lp3915
Vat
p3916
aVlast
p3917
aV,
aVwhen
p3918
aVall
p3919
aVour
p3920
aVsearching
p3921
aVwas
p3922
aVfruitless
p3923
aV,
aVone
p3924
aVspake
p3925
aV,
aVwho
p3926
aVmade
p3927
aVus
p3928
aVall
p3929
aVbend
p3930
aVour
p3931
aVfaces
p3932
aVon
p3933
aVthe
p3934
aVearth
p3935
aVin
p3936
aVfear
p3937
aV;
aVfor
p3938
aVwe
p3939
aVsaw
p3940
aVnot
p3941
aVhow
p3942
aVwe
p3943
aVcould
p3944
aVgainsay
p3945
aVhim
p3946
aV,
aVor
p3947
aVescape
p3948
aVmischance
p3949
aVif
p3950
aVwe
p3951
aVobeyed
p3952
aV.
aa(lp3953
Vhis
p3954
aVcounsel
p3955
aVwas
p3956
aVthat
p3957
aVthis
p3958
aVdeed
p3959
aVmust
p3960
aVbe
p3961
aVreported
p3962
aVto
p3963
aVthee
p3964
aV,
aVand
p3965
aVnot
p3966
aVhidden
p3967
aV.
aa(lp3968
Vand
p3969
aVthis
p3970
aVseemed
p3971
aVbest
p3972
aV;
aVand
p3973
aVthe
p3974
aVlot
p3975
aVdoomed
p3976
aVmy
p3977
aVhapless
p3978
aVself
p3979
aVto
p3980
aVwin
p3981
aVthis
p3982
aVprize
p3983
aV.
aa(lp3984
Vso
p3985
aVhere
p3986
aVi
aVstand
p3987
aV,
aV-as
p3988
aVunwelcome
p3989
aVas
p3990
aVunwilling
p3991
aV,
aVwell
p3992
aVi
aVwot
p3993
aV;
aVfor
p3994
aVno
p3995
aVman
p3996
aVdelights
p3997
aVin
p3998
aVthe
p3999
aVbearer
p4000
aVof
p4001
aVbad
p4002
aVnews
p4003
aV.
aa(lp4004
Vleader
p4005
aVo
aVking
p4006
aV,
aVmy
p4007
aVthoughts
p4008
aVhave
p4009
aVlong
p4010
aVbeen
p4011
aVwhispering
p4012
aV,
aVcan
p4013
aVthis
p4014
aVdeed
p4015
aV,
aVperchance
p4016
aV,
aVbe
p4017
aVe'en
p4018
aVthe
p4019
aVwork
p4020
aVof
p4021
aVgods
p4022
aV?
aa(lp4023
Vcreon
p4024
aVcease
p4025
aV,
aVere
p4026
aVthy
p4027
aVwords
p4028
aVfill
p4029
aVme
p4030
aVutterly
p4031
aVwith
p4032
aVwrath
p4033
aV,
aVlest
p4034
aVthou
p4035
aVbe
p4036
aVfound
p4037
aVat
p4038
aVonce
p4039
aVan
p4040
aVold
p4041
aVman
p4042
aVand
p4043
aVfoolish
p4044
aV.
aa(lp4045
Vfor
p4046
aVthou
p4047
aVsayest
p4048
aVwhat
p4049
aVis
p4050
aVnot
p4051
aVto
p4052
aVbe
p4053
aVborne
p4054
aV,
aVin
p4055
aVsaying
p4056
aVthat
p4057
aVthe
p4058
aVgods
p4059
aVhave
p4060
aVcare
p4061
aVfor
p4062
aVthis
p4063
aVcorpse
p4064
aV.
aa(lp4065
Vwas
p4066
aVit
p4067
aVfor
p4068
aVhigh
p4069
aVreward
p4070
aVof
p4071
aVtrusty
p4072
aVservice
p4073
aVthat
p4074
aVthey
p4075
aVsought
p4076
aVto
p4077
aVhide
p4078
aVhis
p4079
aVnakedness
p4080
aV,
aVwho
p4081
aVcame
p4082
aVto
p4083
aVburn
p4084
aVtheir
p4085
aVpillared
p4086
aVshrines
p4087
aVand
p4088
aVsacred
p4089
aVtreasures
p4090
aV,
aVto
p4091
aVburn
p4092
aVtheir
p4093
aVland
p4094
aV,
aVand
p4095
aVscatter
p4096
aVits
p4097
aVlaws
p4098
aVto
p4099
aVthe
p4100
aVwinds
p4101
aV?
aa(lp4102
Vor
p4103
aVdost
p4104
aVthou
p4105
aVbehold
p4106
aVthe
p4107
aVgods
p4108
aVhonouring
p4109
aVthe
p4110
aVwicked
p4111
aV?
aa(lp4112
Vit
p4113
aVcan
p4114
aVnot
p4115
aVbe
p4116
aV.
aa(lp4117
Vno
p4118
aV!
aa(lp4119
Vfrom
p4120
aVthe
p4121
aVfirst
p4122
aVthere
p4123
aVwere
p4124
aVcertain
p4125
aVin
p4126
aVthe
p4127
aVtown
p4128
aVthat
p4129
aVmuttered
p4130
aVagainst
p4131
aVme
p4132
aV,
aVchafing
p4133
aVat
p4134
aVthis
p4135
aVedict
p4136
aV,
aVwagging
p4137
aVtheir
p4138
aVheads
p4139
aVin
p4140
aVsecret
p4141
aV;
aVand
p4142
aVkept
p4143
aVnot
p4144
aVtheir
p4145
aVnecks
p4146
aVduly
p4147
aVunder
p4148
aVthe
p4149
aVyoke
p4150
aV,
aVlike
p4151
aVmen
p4152
aVcontented
p4153
aVwith
p4154
aVmy
p4155
aVsway
p4156
aV.
aa(lp4157
V't
p4158
aVis
p4159
aVby
p4160
aVthem
p4161
aV,
aVwell
p4162
aVi
aVknow
p4163
aV,
aVthat
p4164
aVthese
p4165
aVhave
p4166
aVbeen
p4167
aVbeguiled
p4168
aVand
p4169
aVbribed
p4170
aVto
p4171
aVdo
p4172
aVthis
p4173
aVdeed
p4174
aV.
aa(lp4175
Vnothing
p4176
aVso
p4177
aVevil
p4178
aVas
p4179
aVmoney
p4180
aVever
p4181
aVgrew
p4182
aVto
p4183
aVbe
p4184
aVcurrent
p4185
aVamong
p4186
aVmen
p4187
aV.
aa(lp4188
Vthis
p4189
aVlays
p4190
aVcities
p4191
aVlow
p4192
aV,
aVthis
p4193
aVdrives
p4194
aVmen
p4195
aVfrom
p4196
aVtheir
p4197
aVhomes
p4198
aV,
aVthis
p4199
aVtrains
p4200
aVand
p4201
aVwarps
p4202
aVhonest
p4203
aVsouls
p4204
aVtill
p4205
aVthey
p4206
aVset
p4207
aVthemselves
p4208
aVto
p4209
aVworks
p4210
aVof
p4211
aVshame
p4212
aV;
aVthis
p4213
aVstill
p4214
aVteaches
p4215
aVfolk
p4216
aVto
p4217
aVpractise
p4218
aVvillainies
p4219
aV,
aVand
p4220
aVto
p4221
aVknow
p4222
aVevery
p4223
aVgodless
p4224
aVdeed
p4225
aV.
aa(lp4226
Vbut
p4227
aVall
p4228
aVthe
p4229
aVmen
p4230
aVwho
p4231
aVwrought
p4232
aVthis
p4233
aVthing
p4234
aVfor
p4235
aVhire
p4236
aVhave
p4237
aVmade
p4238
aVit
p4239
aVsure
p4240
aVthat
p4241
aV,
aVsoon
p4242
aVor
p4243
aVlate
p4244
aV,
aVthey
p4245
aVshall
p4246
aVpay
p4247
aVthe
p4248
aVprice
p4249
aV.
aa(lp4250
Vnow
p4251
aV,
aVas
p4252
aVzeus
p4253
aVstill
p4254
aVhath
p4255
aVmy
p4256
aVreverence
p4257
aV,
aVknow
p4258
aVthis-i
p4259
aVtell
p4260
aVit
p4261
aVthee
p4262
aVon
p4263
aVmy
p4264
aVoath
p4265
aV:
aV-if
p4266
aVye
p4267
aVfind
p4268
aVnot
p4269
aVthe
p4270
aVvery
p4271
aVauthor
p4272
aVof
p4273
aVthis
p4274
aVburial
p4275
aV,
aVand
p4276
aVproduce
p4277
aVhim
p4278
aVbefore
p4279
aVmine
p4280
aVeyes
p4281
aV,
aVdeath
p4282
aValone
p4283
aVshall
p4284
aVnot
p4285
aVbe
p4286
aVenough
p4287
aVfor
p4288
aVyou
p4289
aV,
aVtill
p4290
aVfirst
p4291
aV,
aVhung
p4292
aVup
p4293
aValive
p4294
aV,
aVye
p4295
aVhave
p4296
aVrevealed
p4297
aVthis
p4298
aVoutrage
p4299
aV,
aV-that
p4300
aVhenceforth
p4301
aVye
p4302
aVmay
p4303
aVthieve
p4304
aVwith
p4305
aVbetter
p4306
aVknowledge
p4307
aVwhence
p4308
aVlucre
p4309
aVshould
p4310
aVbe
p4311
aVwon
p4312
aV,
aVand
p4313
aVlearn
p4314
aVthat
p4315
aVit
p4316
aVis
p4317
aVnot
p4318
aVwell
p4319
aVto
p4320
aVlove
p4321
aVgain
p4322
aVfrom
p4323
aVevery
p4324
aVsource
p4325
aV.
aa(lp4326
Vfor
p4327
aVthou
p4328
aVwilt
p4329
aVfind
p4330
aVthat
p4331
aVill-gotten
p4332
aVpelf
p4333
aVbrings
p4334
aVmore
p4335
aVmen
p4336
aVto
p4337
aVruin
p4338
aVthan
p4339
aVto
p4340
aVweal
p4341
aV.
aa(lp4342
Vguard
p4343
aVmay
p4344
aVi
aVspeak
p4345
aV?
aa(lp4346
Vor
p4347
aVshall
p4348
aVi
aVjust
p4349
aVturn
p4350
aVand
p4351
aVgo
p4352
aV?
aa(lp4353
Vcreon
p4354
aVknowest
p4355
aVthou
p4356
aVnot
p4357
aVthat
p4358
aVeven
p4359
aVnow
p4360
aVthy
p4361
aVvoice
p4362
aVoffends
p4363
aV?
aa(lp4364
Vguard
p4365
aVis
p4366
aVthy
p4367
aVsmart
p4368
aVin
p4369
aVthe
p4370
aVears
p4371
aV,
aVor
p4372
aVin
p4373
aVthe
p4374
aVsoul
p4375
aV?
aa(lp4376
Vcreon
p4377
aVand
p4378
aVwhy
p4379
aVwouldst
p4380
aVthou
p4381
aVdefine
p4382
aVthe
p4383
aVseat
p4384
aVof
p4385
aVmy
p4386
aVpain
p4387
aV?
aa(lp4388
Vguard
p4389
aVthe
p4390
aVdoer
p4391
aVvexes
p4392
aVthy
p4393
aVmind
p4394
aV,
aVbut
p4395
aVi
aV,
aVthine
p4396
aVears
p4397
aV.
aa(lp4398
Vcreon
p4399
aVah
p4400
aV,
aVthou
p4401
aVart
p4402
aVa
aVborn
p4403
aVbabbler
p4404
aV,
aV't
p4405
aVis
p4406
aVwell
p4407
aVseen
p4408
aV.
aa(lp4409
Vguard
p4410
aVmay
p4411
aVbe
p4412
aV,
aVbut
p4413
aVnever
p4414
aVthe
p4415
aVdoer
p4416
aVof
p4417
aVthis
p4418
aVdeed
p4419
aV.
aa(lp4420
Vcreon
p4421
aVyea
p4422
aV,
aVand
p4423
aVmore
p4424
aV,
aV-the
p4425
aVseller
p4426
aVof
p4427
aVthy
p4428
aVlife
p4429
aVfor
p4430
aVsilver
p4431
aV.
aa(lp4432
Vguard
p4433
aValas
p4434
aV!
aa(lp4435
V't
p4436
aVis
p4437
aVsad
p4438
aV,
aVtruly
p4439
aV,
aVthat
p4440
aVhe
p4441
aVwho
p4442
aVjudges
p4443
aVshould
p4444
aVmisjudge
p4445
aV.
aa(lp4446
Vcreon
p4447
aVlet
p4448
aVthy
p4449
aVfancy
p4450
aVplay
p4451
aVwith
p4452
aV'judgment
p4453
aV'
aVas
p4454
aVit
p4455
aVwill
p4456
aV;
aV-but
p4457
aV,
aVif
p4458
aVye
p4459
aVshow
p4460
aVme
p4461
aVnot
p4462
aVthe
p4463
aVdoers
p4464
aVof
p4465
aVthese
p4466
aVthings
p4467
aV,
aVye
p4468
aVshall
p4469
aVavow
p4470
aVthat
p4471
aVdastardly
p4472
aVgains
p4473
aVwork
p4474
aVsorrows
p4475
aV.
aa(lp4476
Vcreon
p4477
aVgoes
p4478
aVinto
p4479
aVthe
p4480
aVpalace
p4481
aV.
aa(lp4482
Vguard
p4483
aVwell
p4484
aV,
aVmay
p4485
aVhe
p4486
aVbe
p4487
aVfound
p4488
aV!
aa(lp4489
Vso
p4490
aV'twere
p4491
aVbest
p4492
aV.
aa(lp4493
Vbut
p4494
aV,
aVbe
p4495
aVhe
p4496
aVcaught
p4497
aVor
p4498
aVbe
p4499
aVhe
p4500
aVnot-fortune
p4501
aVmust
p4502
aVsettle
p4503
aVthat-truly
p4504
aVthou
p4505
aVwilt
p4506
aVnot
p4507
aVsee
p4508
aVme
p4509
aVhere
p4510
aVagain
p4511
aV.
aa(lp4512
Vsaved
p4513
aV,
aVeven
p4514
aVnow
p4515
aV,
aVbeyond
p4516
aVhope
p4517
aVand
p4518
aVthought
p4519
aV,
aVi
aVowe
p4520
aVthe
p4521
aVgods
p4522
aVgreat
p4523
aVthanks
p4524
aV.
aa(lp4525
Vthe
p4526
aVguard
p4527
aVgoes
p4528
aVout
p4529
aVon
p4530
aVthe
p4531
aVspectators
p4532
aV'
aVleft
p4533
aV.
aa(lp4534
Vchorus
p4535
aVsinging
p4536
aVstrophe
p4537
aV1
aVwonders
p4538
aVare
p4539
aVmany
p4540
aV,
aVand
p4541
aVnone
p4542
aVis
p4543
aVmore
p4544
aVwonderful
p4545
aVthan
p4546
aVman
p4547
aV;
aVthe
p4548
aVpower
p4549
aVthat
p4550
aVcrosses
p4551
aVthe
p4552
aVwhite
p4553
aVsea
p4554
aV,
aVdriven
p4555
aVby
p4556
aVthe
p4557
aVstormy
p4558
aVsouth-wind
p4559
aV,
aVmaking
p4560
aVa
aVpath
p4561
aVunder
p4562
aVsurges
p4563
aVthat
p4564
aVthreaten
p4565
aVto
p4566
aVengulf
p4567
aVhim
p4568
aV;
aVand
p4569
aVearth
p4570
aV,
aVthe
p4571
aVeldest
p4572
aVof
p4573
aVthe
p4574
aVgods
p4575
aV,
aVthe
p4576
aVimmortal
p4577
aV,
aVthe
p4578
aVunwearied
p4579
aV,
aVdoth
p4580
aVhe
p4581
aVwear
p4582
aV,
aVturning
p4583
aVthe
p4584
aVsoil
p4585
aVwith
p4586
aVthe
p4587
aVoffspring
p4588
aVof
p4589
aVhorses
p4590
aV,
aVas
p4591
aVthe
p4592
aVploughs
p4593
aVgo
p4594
aVto
p4595
aVand
p4596
aVfro
p4597
aVfrom
p4598
aVyear
p4599
aVto
p4600
aVyear
p4601
aV.
aa(lp4602
Vantistrophe
p4603
aV1
aVand
p4604
aVthe
p4605
aVlight-hearted
p4606
aVrace
p4607
aVof
p4608
aVbirds
p4609
aV,
aVand
p4610
aVthe
p4611
aVtribes
p4612
aVof
p4613
aVsavage
p4614
aVbeasts
p4615
aV,
aVand
p4616
aVthe
p4617
aVsea-brood
p4618
aVof
p4619
aVthe
p4620
aVdeep
p4621
aV,
aVhe
p4622
aVsnares
p4623
aVin
p4624
aVthe
p4625
aVmeshes
p4626
aVof
p4627
aVhis
p4628
aVwoven
p4629
aVtoils
p4630
aV,
aVhe
p4631
aVleads
p4632
aVcaptive
p4633
aV,
aVman
p4634
aVexcellent
p4635
aVin
p4636
aVwit
p4637
aV.
aa(lp4638
Vand
p4639
aVhe
p4640
aVmasters
p4641
aVby
p4642
aVhis
p4643
aVarts
p4644
aVthe
p4645
aVbeast
p4646
aVwhose
p4647
aVlair
p4648
aVis
p4649
aVin
p4650
aVthe
p4651
aVwilds
p4652
aV,
aVwho
p4653
aVroams
p4654
aVthe
p4655
aVhills
p4656
aV;
aVhe
p4657
aVtames
p4658
aVthe
p4659
aVhorse
p4660
aVof
p4661
aVshaggy
p4662
aVmane
p4663
aV,
aVhe
p4664
aVputs
p4665
aVthe
p4666
aVyoke
p4667
aVupon
p4668
aVits
p4669
aVneck
p4670
aV,
aVhe
p4671
aVtames
p4672
aVthe
p4673
aVtireless
p4674
aVmountain
p4675
aVbull
p4676
aV.
aa(lp4677
Vstrophe
p4678
aV2
aVand
p4679
aVspeech
p4680
aV,
aVand
p4681
aVwind-swift
p4682
aVthought
p4683
aV,
aVand
p4684
aVall
p4685
aVthe
p4686
aVmoods
p4687
aVthat
p4688
aVmould
p4689
aVa
aVstate
p4690
aV,
aVhath
p4691
aVhe
p4692
aVtaught
p4693
aVhimself
p4694
aV;
aVand
p4695
aVhow
p4696
aVto
p4697
aVflee
p4698
aVthe
p4699
aVarrows
p4700
aVof
p4701
aVthe
p4702
aVfrost
p4703
aV,
aVwhen
p4704
aV't
p4705
aVis
p4706
aVhard
p4707
aVlodging
p4708
aVunder
p4709
aVthe
p4710
aVclear
p4711
aVsky
p4712
aV,
aVand
p4713
aVthe
p4714
aVarrows
p4715
aVof
p4716
aVthe
p4717
aVrushing
p4718
aVrain
p4719
aV;
aVyea
p4720
aV,
aVhe
p4721
aVhath
p4722
aVresource
p4723
aVfor
p4724
aVall
p4725
aV;
aVwithout
p4726
aVresource
p4727
aVhe
p4728
aVmeets
p4729
aVnothing
p4730
aVthat
p4731
aVmust
p4732
aVcome
p4733
aV:
aVonly
p4734
aVagainst
p4735
aVdeath
p4736
aVshall
p4737
aVhe
p4738
aVcall
p4739
aVfor
p4740
aVaid
p4741
aVin
p4742
aVvain
p4743
aV;
aVbut
p4744
aVfrom
p4745
aVbaffling
p4746
aVmaladies
p4747
aVhe
p4748
aVhath
p4749
aVdevised
p4750
aVescapes
p4751
aV.
aa(lp4752
Vantistrophe
p4753
aV2
aVcunning
p4754
aVbeyond
p4755
aVfancy
p4756
aV's
p4757
aVdream
p4758
aVis
p4759
aVthe
p4760
aVfertile
p4761
aVskill
p4762
aVwhich
p4763
aVbrings
p4764
aVhim
p4765
aV,
aVnow
p4766
aVto
p4767
aVevil
p4768
aV,
aVnow
p4769
aVto
p4770
aVgood
p4771
aV.
aa(lp4772
Vwhen
p4773
aVhe
p4774
aVhonours
p4775
aVthe
p4776
aVlaws
p4777
aVof
p4778
aVthe
p4779
aVland
p4780
aV,
aVand
p4781
aVthat
p4782
aVjustice
p4783
aVwhich
p4784
aVhe
p4785
aVhath
p4786
aVsworn
p4787
aVby
p4788
aVthe
p4789
aVgods
p4790
aVto
p4791
aVuphold
p4792
aV,
aVproudly
p4793
aVstands
p4794
aVhis
p4795
aVcity
p4796
aV:
aVno
p4797
aVcity
p4798
aVhath
p4799
aVhe
p4800
aVwho
p4801
aV,
aVfor
p4802
aVhis
p4803
aVrashness
p4804
aV,
aVdwells
p4805
aVwith
p4806
aVsin
p4807
aV.
aa(lp4808
Vnever
p4809
aVmay
p4810
aVhe
p4811
aVshare
p4812
aVmy
p4813
aVhearth
p4814
aV,
aVnever
p4815
aVthink
p4816
aVmy
p4817
aVthoughts
p4818
aV,
aVwho
p4819
aVdoth
p4820
aVthese
p4821
aVthings
p4822
aV!
aa(lp4823
Venter
p4824
aVthe
p4825
aVguard
p4826
aVon
p4827
aVthe
p4828
aVspectators
p4829
aV'
aVleft
p4830
aV,
aVleading
p4831
aVin
p4832
aVantigone
p4833
aV.
aa(lp4834
Vleader
p4835
aVof
p4836
aVthe
p4837
aVchorus
p4838
aVwhat
p4839
aVportent
p4840
aVfrom
p4841
aVthe
p4842
aVgods
p4843
aVis
p4844
aVthis
p4845
aV?
aV-my
p4846
aVsoul
p4847
aVis
p4848
aVamazed
p4849
aV.
aa(lp4850
Vi
aVknow
p4851
aVher-how
p4852
aVcan
p4853
aVi
aVdeny
p4854
aVthat
p4855
aVyon
p4856
aVmaiden
p4857
aVis
p4858
aVantigone
p4859
aV?
aa(lp4860
Vo
aVhapless
p4861
aV,
aVand
p4862
aVchild
p4863
aVof
p4864
aVhapless
p4865
aVsire
p4866
aV,
aV-of
p4867
aVoedipus
p4868
aV!
aa(lp4869
Vwhat
p4870
aVmeans
p4871
aVthis
p4872
aV?
aa(lp4873
Vthou
p4874
aVbrought
p4875
aVa
aVprisoner
p4876
aV?
aV-thou
p4877
aV,
aVdisloyal
p4878
aVto
p4879
aVthe
p4880
aVking
p4881
aV's
p4882
aVlaws
p4883
aV,
aVand
p4884
aVtaken
p4885
aVin
p4886
aVfolly
p4887
aV?
aa(lp4888
Vguard
p4889
aVhere
p4890
aVshe
p4891
aVis
p4892
aV,
aVthe
p4893
aVdoer
p4894
aVof
p4895
aVthe
p4896
aVdeed
p4897
aV:
aV-caught
p4898
aVthis
p4899
aVgirl
p4900
aVburying
p4901
aVhim
p4902
aV:
aV-but
p4903
aVwhere
p4904
aVis
p4905
aVcreon
p4906
aV?
aa(lp4907
Vcreon
p4908
aVenters
p4909
aVhurriedly
p4910
aVfrom
p4911
aVthe
p4912
aVpalace
p4913
aV.
aa(lp4914
Vleader
p4915
aVlo
p4916
aV,
aVhe
p4917
aVcomes
p4918
aVforth
p4919
aVagain
p4920
aVfrom
p4921
aVthe
p4922
aVhouse
p4923
aV,
aVat
p4924
aVour
p4925
aVneed
p4926
aV.
aa(lp4927
Vcreon
p4928
aVwhat
p4929
aVis
p4930
aVit
p4931
aV?
aa(lp4932
Vwhat
p4933
aVhath
p4934
aVchanced
p4935
aV,
aVthat
p4936
aVmakes
p4937
aVmy
p4938
aVcoming
p4939
aVtimely
p4940
aV?
aa(lp4941
Vguard
p4942
aVo
aVking
p4943
aV,
aVagainst
p4944
aVnothing
p4945
aVshould
p4946
aVmen
p4947
aVpledge
p4948
aVtheir
p4949
aVword
p4950
aV;
aVfor
p4951
aVthe
p4952
aVafter-thought
p4953
aVbelies
p4954
aVthe
p4955
aVfirst
p4956
aVintent
p4957
aV.
aa(lp4958
Vi
aVcould
p4959
aVhave
p4960
aVvowed
p4961
aVthat
p4962
aVi
aVshould
p4963
aVnot
p4964
aVsoon
p4965
aVbe
p4966
aVhere
p4967
aVagain
p4968
aV,
aV-scared
p4969
aVby
p4970
aVthy
p4971
aVthreats
p4972
aV,
aVwith
p4973
aVwhich
p4974
aVi
aVhad
p4975
aVjust
p4976
aVbeen
p4977
aVlashed
p4978
aV:
aVbut
p4979
aV,
aV-since
p4980
aVthe
p4981
aVjoy
p4982
aVthat
p4983
aVsurprises
p4984
aVand
p4985
aVtranscends
p4986
aVour
p4987
aVhopes
p4988
aVis
p4989
aVlike
p4990
aVin
p4991
aVfulness
p4992
aVto
p4993
aVno
p4994
aVother
p4995
aVpleasure
p4996
aV,
aV-i
p4997
aVhave
p4998
aVcome
p4999
aV,
aVthough
p5000
aV't
p5001
aVis
p5002
aVin
p5003
aVbreach
p5004
aVof
p5005
aVmy
p5006
aVsworn
p5007
aVoath
p5008
aV,
aVbringing
p5009
aVthis
p5010
aVmaid
p5011
aV;
aVwho
p5012
aVwas
p5013
aVtaken
p5014
aVshowing
p5015
aVgrace
p5016
aVto
p5017
aVthe
p5018
aVdead
p5019
aV.
aa(lp5020
Vthis
p5021
aVtime
p5022
aVthere
p5023
aVwas
p5024
aVno
p5025
aVcasting
p5026
aVof
p5027
aVlots
p5028
aV;
aVno
p5029
aV,
aVthis
p5030
aVluck
p5031
aVhath
p5032
aVfallen
p5033
aVto
p5034
aVme
p5035
aV,
aVand
p5036
aVto
p5037
aVnone
p5038
aVelse
p5039
aV.
aa(lp5040
Vand
p5041
aVnow
p5042
aV,
aVsire
p5043
aV,
aVtake
p5044
aVher
p5045
aVthyself
p5046
aV,
aVquestion
p5047
aVher
p5048
aV,
aVexamine
p5049
aVher
p5050
aV,
aVas
p5051
aVthou
p5052
aVwilt
p5053
aV;
aVbut
p5054
aVi
aVhave
p5055
aVa
aVright
p5056
aVto
p5057
aVfree
p5058
aVand
p5059
aVfinal
p5060
aVquittance
p5061
aVof
p5062
aVthis
p5063
aVtrouble
p5064
aV.
aa(lp5065
Vcreon
p5066
aVand
p5067
aVthy
p5068
aVprisoner
p5069
aVhere-how
p5070
aVand
p5071
aVwhence
p5072
aVhast
p5073
aVthou
p5074
aVtaken
p5075
aVher
p5076
aV?
aa(lp5077
Vguard
p5078
aVshe
p5079
aVwas
p5080
aVburying
p5081
aVthe
p5082
aVman
p5083
aV;
aVthou
p5084
aVknowest
p5085
aVall
p5086
aV.
aa(lp5087
Vcreon
p5088
aVdost
p5089
aVthou
p5090
aVmean
p5091
aVwhat
p5092
aVthou
p5093
aVsayest
p5094
aV?
aa(lp5095
Vdost
p5096
aVthou
p5097
aVspeak
p5098
aVaright
p5099
aV?
aa(lp5100
Vguard
p5101
aVi
aVsaw
p5102
aVher
p5103
aVburying
p5104
aVthe
p5105
aVcorpse
p5106
aVthat
p5107
aVthou
p5108
aVhadst
p5109
aVforbidden
p5110
aVto
p5111
aVbury
p5112
aV.
aa(lp5113
Vis
p5114
aVthat
p5115
aVplain
p5116
aVand
p5117
aVclear
p5118
aV?
aa(lp5119
Vcreon
p5120
aVand
p5121
aVhow
p5122
aVwas
p5123
aVshe
p5124
aVseen
p5125
aV?
aa(lp5126
Vhow
p5127
aVtaken
p5128
aVin
p5129
aVthe
p5130
aVact
p5131
aV?
aa(lp5132
Vguard
p5133
aVit
p5134
aVbefell
p5135
aVon
p5136
aVthis
p5137
aVwise
p5138
aV.
aa(lp5139
Vwhen
p5140
aVwe
p5141
aVhad
p5142
aVcome
p5143
aVto
p5144
aVthe
p5145
aVplace
p5146
aV,
aV-with
p5147
aVthose
p5148
aVdread
p5149
aVmenaces
p5150
aVof
p5151
aVthine
p5152
aVupon
p5153
aVus
p5154
aV,
aV-we
p5155
aVswept
p5156
aVaway
p5157
aVall
p5158
aVthe
p5159
aVdust
p5160
aVthat
p5161
aVcovered
p5162
aVthe
p5163
aVcorpse
p5164
aV,
aVand
p5165
aVbared
p5166
aVthe
p5167
aVdank
p5168
aVbody
p5169
aVwell
p5170
aV;
aVand
p5171
aVthen
p5172
aVsat
p5173
aVus
p5174
aVdown
p5175
aVon
p5176
aVthe
p5177
aVbrow
p5178
aVof
p5179
aVthe
p5180
aVhill
p5181
aV,
aVto
p5182
aVwindward
p5183
aV,
aVheedful
p5184
aVthat
p5185
aVthe
p5186
aVsmell
p5187
aVfrom
p5188
aVhim
p5189
aVshould
p5190
aVnot
p5191
aVstrike
p5192
aVus
p5193
aV;
aVevery
p5194
aVman
p5195
aVwas
p5196
aVwide
p5197
aVawake
p5198
aV,
aVand
p5199
aVkept
p5200
aVhis
p5201
aVneighbour
p5202
aValert
p5203
aVwith
p5204
aVtorrents
p5205
aVof
p5206
aVthreats
p5207
aV,
aVif
p5208
aVanyone
p5209
aVshould
p5210
aVbe
p5211
aVcareless
p5212
aVof
p5213
aVthis
p5214
aVtask
p5215
aV.
aa(lp5216
Vso
p5217
aVwent
p5218
aVit
p5219
aV,
aVuntil
p5220
aVthe
p5221
aVsun
p5222
aV's
p5223
aVbright
p5224
aVorb
p5225
aVstood
p5226
aVin
p5227
aVmid
p5228
aVheaven
p5229
aV,
aVand
p5230
aVthe
p5231
aVheat
p5232
aVbegan
p5233
aVto
p5234
aVburn
p5235
aV:
aVand
p5236
aVthen
p5237
aVsuddenly
p5238
aVa
aVwhirlwind
p5239
aVlifted
p5240
aVfrom
p5241
aVthe
p5242
aVearth
p5243
aVstorm
p5244
aVof
p5245
aVdust
p5246
aV,
aVa
aVtrouble
p5247
aVin
p5248
aVthe
p5249
aVsky
p5250
aVthe
p5251
aVplain
p5252
aV,
aVmarring
p5253
aVall
p5254
aVthe
p5255
aVleafage
p5256
aVof
p5257
aVits
p5258
aVwoods
p5259
aV;
aVand
p5260
aVthe
p5261
aVwide
p5262
aVair
p5263
aVwas
p5264
aVchoked
p5265
aVtherewith
p5266
aV:
aVwe
p5267
aVclosed
p5268
aVour
p5269
aVeyes
p5270
aV,
aVand
p5271
aVbore
p5272
aVthe
p5273
aVplague
p5274
aVfrom
p5275
aVthe
p5276
aVgods
p5277
aV.
aa(lp5278
Vand
p5279
aVwhen
p5280
aV,
aVafter
p5281
aVa
aVlong
p5282
aVwhile
p5283
aV,
aVthis
p5284
aVstorm
p5285
aVhad
p5286
aVpassed
p5287
aV,
aVthe
p5288
aVmaid
p5289
aVwas
p5290
aVseen
p5291
aV;
aVand
p5292
aVshe
p5293
aVcried
p5294
aValoud
p5295
aVwith
p5296
aVthe
p5297
aVsharp
p5298
aVcry
p5299
aVof
p5300
aVa
aVbird
p5301
aVin
p5302
aVits
p5303
aVbitterness
p5304
aV,
aV-even
p5305
aVas
p5306
aVwhen
p5307
aV,
aVwithin
p5308
aVthe
p5309
aVempty
p5310
aVnest
p5311
aV,
aVit
p5312
aVsees
p5313
aVthe
p5314
aVbed
p5315
aVstripped
p5316
aVof
p5317
aVits
p5318
aVnestlings
p5319
aV.
aa(lp5320
Vso
p5321
aVshe
p5322
aValso
p5323
aV,
aVwhen
p5324
aVshe
p5325
aVsaw
p5326
aVthe
p5327
aVcorpse
p5328
aVbare
p5329
aV,
aVlifted
p5330
aVup
p5331
aVa
aVvoice
p5332
aVof
p5333
aVwailing
p5334
aV,
aVand
p5335
aVcalled
p5336
aVdown
p5337
aVcurses
p5338
aVon
p5339
aVthe
p5340
aVdoers
p5341
aVof
p5342
aVthat
p5343
aVdeed
p5344
aV.
aa(lp5345
Vand
p5346
aVstraightway
p5347
aVshe
p5348
aVbrought
p5349
aVthirsty
p5350
aVdust
p5351
aVin
p5352
aVher
p5353
aVhands
p5354
aV;
aVand
p5355
aVfrom
p5356
aVa
aVshapely
p5357
aVewer
p5358
aVof
p5359
aVbronze
p5360
aV,
aVheld
p5361
aVhigh
p5362
aV,
aVwith
p5363
aVthrice-poured
p5364
aVdrink-offering
p5365
aVshe
p5366
aVcrowned
p5367
aVthe
p5368
aVdead
p5369
aV.
aa(lp5370
Vwe
p5371
aVrushed
p5372
aVforward
p5373
aVwhen
p5374
aVwe
p5375
aVsaw
p5376
aVit
p5377
aV,
aVand
p5378
aVat
p5379
aVonce
p5380
aVdosed
p5381
aVupon
p5382
aVour
p5383
aVquarry
p5384
aV,
aVwho
p5385
aVwas
p5386
aVin
p5387
aVno
p5388
aVwise
p5389
aVdismayed
p5390
aV.
aa(lp5391
Vthen
p5392
aVwe
p5393
aVtaxed
p5394
aVher
p5395
aVwith
p5396
aVher
p5397
aVpast
p5398
aVand
p5399
aVpresent
p5400
aVdoings
p5401
aV;
aVand
p5402
aVshe
p5403
aVstood
p5404
aVnot
p5405
aVon
p5406
aVdenial
p5407
aVof
p5408
aVaught
p5409
aV,
aV-at
p5410
aVonce
p5411
aVto
p5412
aVmy
p5413
aVjoy
p5414
aVand
p5415
aVto
p5416
aVmy
p5417
aVpain
p5418
aV.
aa(lp5419
Vto
p5420
aVhave
p5421
aVescaped
p5422
aVfrom
p5423
aVills
p5424
aVone
p5425
aV's
p5426
aVself
p5427
aVis
p5428
aVa
aVgreat
p5429
aVjoy
p5430
aV;
aVbut
p5431
aV't
p5432
aVis
p5433
aVpainful
p5434
aVto
p5435
aVbring
p5436
aVfriends
p5437
aVto
p5438
aVill.
p5439
aVhowbeit
p5440
aV,
aVall
p5441
aVsuch
p5442
aVthings
p5443
aVare
p5444
aVof
p5445
aVless
p5446
aVaccount
p5447
aVto
p5448
aVme
p5449
aVthan
p5450
aVmine
p5451
aVown
p5452
aVsafety
p5453
aV.
aa(lp5454
Vcreon
p5455
aVthou-thou
p5456
aVwhose
p5457
aVface
p5458
aVis
p5459
aVbent
p5460
aVto
p5461
aVearth-dost
p5462
aVthou
p5463
aVavow
p5464
aV,
aVor
p5465
aVdisavow
p5466
aV,
aVthis
p5467
aVdeed
p5468
aV?
aa(lp5469
Vantigone
p5470
aVi
aVavow
p5471
aVit
p5472
aV;
aVi
aVmake
p5473
aVno
p5474
aVdenial
p5475
aV.
aa(lp5476
Vcreon
p5477
aVto
p5478
aVguard
p5479
aVthou
p5480
aVcanst
p5481
aVbetake
p5482
aVthee
p5483
aVwhither
p5484
aVthou
p5485
aVwilt
p5486
aV,
aVfree
p5487
aVand
p5488
aVclear
p5489
aVof
p5490
aVa
aVgrave
p5491
aVcharge
p5492
aV.
aa(lp5493
Vexit
p5494
aVguard
p5495
aVto
p5496
aVantigone
p5497
aVnow
p5498
aV,
aVtell
p5499
aVme
p5500
aVthou-not
p5501
aVin
p5502
aVmany
p5503
aVwords
p5504
aV,
aVbut
p5505
aVbriefly-knewest
p5506
aVthou
p5507
aVthat
p5508
aVan
p5509
aVedict
p5510
aVhad
p5511
aVforbidden
p5512
aVthis
p5513
aV?
aa(lp5514
Vantigone
p5515
aVi
aVknew
p5516
aVit
p5517
aV:
aVcould
p5518
aVi
aVhelp
p5519
aVit
p5520
aV?
aa(lp5521
Vit
p5522
aVwas
p5523
aVpublic
p5524
aV.
aa(lp5525
Vcreon
p5526
aVand
p5527
aVthou
p5528
aVdidst
p5529
aVindeed
p5530
aVdare
p5531
aVto
p5532
aVtransgress
p5533
aVthat
p5534
aVlaw
p5535
aV?
aa(lp5536
Vantigone
p5537
aVyes
p5538
aV;
aVfor
p5539
aVit
p5540
aVwas
p5541
aVnot
p5542
aVzeus
p5543
aVthat
p5544
aVhad
p5545
aVpublished
p5546
aVme
p5547
aVthat
p5548
aVedict
p5549
aV;
aVnot
p5550
aVsuch
p5551
aVare
p5552
aVthe
p5553
aVlaws
p5554
aVset
p5555
aVamong
p5556
aVmen
p5557
aVby
p5558
aVthe
p5559
aVjustice
p5560
aVwho
p5561
aVdwells
p5562
aVwith
p5563
aVthe
p5564
aVgods
p5565
aVbelow
p5566
aV;
aVnor
p5567
aVdeemed
p5568
aVi
aVthat
p5569
aVthy
p5570
aVdecrees
p5571
aVwere
p5572
aVof
p5573
aVsuch
p5574
aVforce
p5575
aV,
aVthat
p5576
aVa
aVmortal
p5577
aVcould
p5578
aVoverride
p5579
aVthe
p5580
aVunwritten
p5581
aVand
p5582
aVunfailing
p5583
aVstatutes
p5584
aVof
p5585
aVheaven
p5586
aV.
aa(lp5587
Vfor
p5588
aVtheir
p5589
aVlife
p5590
aVis
p5591
aVnot
p5592
aVof
p5593
aVto-day
p5594
aVor
p5595
aVyesterday
p5596
aV,
aVbut
p5597
aVfrom
p5598
aVall
p5599
aVtime
p5600
aV,
aVand
p5601
aVno
p5602
aVman
p5603
aVknows
p5604
aVwhen
p5605
aVthey
p5606
aVwere
p5607
aVfirst
p5608
aVput
p5609
aVforth
p5610
aV.
aa(lp5611
Vnot
p5612
aVthrough
p5613
aVdread
p5614
aVof
p5615
aVany
p5616
aVhuman
p5617
aVpride
p5618
aVcould
p5619
aVi
aVanswer
p5620
aVto
p5621
aVthe
p5622
aVgods
p5623
aVfor
p5624
aVbreaking
p5625
aVthese
p5626
aV.
aa(lp5627
Vdie
p5628
aVi
aVmust
p5629
aV,
aV-i
p5630
aVknew
p5631
aVthat
p5632
aVwell
p5633
aV(
aVhow
p5634
aVshould
p5635
aVi
aVnot
p5636
aV?
aa(lp5637
V)
aV-even
p5638
aVwithout
p5639
aVthy
p5640
aVedicts
p5641
aV.
aa(lp5642
Vbut
p5643
aVif
p5644
aVi
aVam
p5645
aVto
p5646
aVdie
p5647
aVbefore
p5648
aVmy
p5649
aVtime
p5650
aV,
aVi
aVcount
p5651
aVthat
p5652
aVa
aVgain
p5653
aV:
aVfor
p5654
aVwhen
p5655
aVany
p5656
aVone
p5657
aVlives
p5658
aV,
aVas
p5659
aVi
aVdo
p5660
aV,
aVcompassed
p5661
aVabout
p5662
aVwith
p5663
aVevils
p5664
aV,
aVcan
p5665
aVsuch
p5666
aVan
p5667
aVone
p5668
aVfind
p5669
aVaught
p5670
aVbut
p5671
aVgain
p5672
aVin
p5673
aVdeath
p5674
aV?
aa(lp5675
Vso
p5676
aVfor
p5677
aVme
p5678
aVto
p5679
aVmeet
p5680
aVthis
p5681
aVdoom
p5682
aVis
p5683
aVtrifling
p5684
aVgrief
p5685
aV;
aVbut
p5686
aVif
p5687
aVi
aVhad
p5688
aVsuffered
p5689
aVmy
p5690
aVmother
p5691
aV's
p5692
aVson
p5693
aVto
p5694
aVlie
p5695
aVin
p5696
aVdeath
p5697
aVan
p5698
aVunburied
p5699
aVcorpse
p5700
aV,
aVthat
p5701
aVwould
p5702
aVhave
p5703
aVgrieved
p5704
aVme
p5705
aV;
aVfor
p5706
aVthis
p5707
aV,
aVi
aVam
p5708
aVnot
p5709
aVgrieved
p5710
aV.
aa(lp5711
Vand
p5712
aVif
p5713
aVmy
p5714
aVpresent
p5715
aVdeeds
p5716
aVare
p5717
aVfoolish
p5718
aVin
p5719
aVthy
p5720
aVsight
p5721
aV,
aVit
p5722
aVmay
p5723
aVbe
p5724
aVthat
p5725
aVa
aVfoolish
p5726
aVjudge
p5727
aVarraigns
p5728
aVmy
p5729
aVfolly
p5730
aV.
aa(lp5731
Vleader
p5732
aVof
p5733
aVthe
p5734
aVchorus
p5735
aVthe
p5736
aVmaid
p5737
aVshows
p5738
aVherself
p5739
aVpassionate
p5740
aVchild
p5741
aVof
p5742
aVpassionate
p5743
aVsire
p5744
aV,
aVand
p5745
aVknows
p5746
aVnot
p5747
aVhow
p5748
aVto
p5749
aVbend
p5750
aVbefore
p5751
aVtroubles
p5752
aV.
aa(lp5753
Vcreon
p5754
aVyet
p5755
aVi
aVwould
p5756
aVhave
p5757
aVthee
p5758
aVknow
p5759
aVthat
p5760
aVo'er-stubborn
p5761
aVspirits
p5762
aVare
p5763
aVmost
p5764
aVoften
p5765
aVhumbled
p5766
aV;
aV't
p5767
aVis
p5768
aVthe
p5769
aVstiffest
p5770
aViron
p5771
aV,
aVbaked
p5772
aVto
p5773
aVhardness
p5774
aVin
p5775
aVthe
p5776
aVfire
p5777
aV,
aVthat
p5778
aVthou
p5779
aVshalt
p5780
aVoftenest
p5781
aVsee
p5782
aVsnapped
p5783
aVand
p5784
aVshivered
p5785
aV;
aVand
p5786
aVi
aVhave
p5787
aVknown
p5788
aVhorses
p5789
aVthat
p5790
aVshow
p5791
aVtemper
p5792
aVbrought
p5793
aVto
p5794
aVorder
p5795
aVby
p5796
aVa
aVlittle
p5797
aVcurb
p5798
aV;
aVthere
p5799
aVis
p5800
aVno
p5801
aVroom
p5802
aVfor
p5803
aVpride
p5804
aVwhen
p5805
aVthou
p5806
aVart
p5807
aVthy
p5808
aVneighbour
p5809
aV's
p5810
aVslave.-this
p5811
aVgirl
p5812
aVwas
p5813
aValready
p5814
aVversed
p5815
aVin
p5816
aVinsolence
p5817
aVwhen
p5818
aVshe
p5819
aVtransgressed
p5820
aVthe
p5821
aVlaws
p5822
aVthat
p5823
aVhad
p5824
aVbeen
p5825
aVset
p5826
aVforth
p5827
aV;
aVand
p5828
aV,
aVthat
p5829
aVdone
p5830
aV,
aVlo
p5831
aV,
aVa
aVsecond
p5832
aVinsult
p5833
aV,
aV-to
p5834
aVvaunt
p5835
aVof
p5836
aVthis
p5837
aV,
aVand
p5838
aVexult
p5839
aVin
p5840
aVher
p5841
aVdeed
p5842
aV.
aa(lp5843
Vnow
p5844
aVverily
p5845
aVi
aVam
p5846
aVno
p5847
aVman
p5848
aV,
aVshe
p5849
aVis
p5850
aVthe
p5851
aVman
p5852
aV,
aVif
p5853
aVthis
p5854
aVvictory
p5855
aVshall
p5856
aVrest
p5857
aVwith
p5858
aVher
p5859
aV,
aVand
p5860
aVbring
p5861
aVno
p5862
aVpenalty
p5863
aV.
aa(lp5864
Vno
p5865
aV!
aa(lp5866
Vbe
p5867
aVshe
p5868
aVsister
p5869
aV's
p5870
aVchild
p5871
aV,
aVor
p5872
aVnearer
p5873
aVto
p5874
aVme
p5875
aVin
p5876
aVblood
p5877
aVthan
p5878
aVany
p5879
aVthat
p5880
aVworships
p5881
aVzeus
p5882
aVat
p5883
aVthe
p5884
aValtar
p5885
aVof
p5886
aVour
p5887
aVhouse
p5888
aV,
aV-she
p5889
aVand
p5890
aVher
p5891
aVkinsfolk
p5892
aVshall
p5893
aVnot
p5894
aVavoid
p5895
aVa
aVdoom
p5896
aVmost
p5897
aVdire
p5898
aV;
aVfor
p5899
aVindeed
p5900
aVi
aVcharge
p5901
aVthat
p5902
aVother
p5903
aVwith
p5904
aVa
aVlike
p5905
aVshare
p5906
aVin
p5907
aVthe
p5908
aVplotting
p5909
aVof
p5910
aVthis
p5911
aVburial
p5912
aV.
aa(lp5913
Vand
p5914
aVsummon
p5915
aVher-for
p5916
aVi
aVsaw
p5917
aVher
p5918
aVe'en
p5919
aVnow
p5920
aVwithin
p5921
aV,
aV-raving
p5922
aV,
aVand
p5923
aVnot
p5924
aVmistress
p5925
aVof
p5926
aVher
p5927
aVwits
p5928
aV.
aa(lp5929
Vso
p5930
aVoft
p5931
aV,
aVbefore
p5932
aVthe
p5933
aVdeed
p5934
aV,
aVthe
p5935
aVmind
p5936
aVstands
p5937
aVself-convicted
p5938
aVin
p5939
aVits
p5940
aVtreason
p5941
aV,
aVwhen
p5942
aVfolks
p5943
aVare
p5944
aVplotting
p5945
aVmischief
p5946
aVin
p5947
aVthe
p5948
aVdark
p5949
aV.
aa(lp5950
Vbut
p5951
aVverily
p5952
aVthis
p5953
aV,
aVtoo
p5954
aV,
aVis
p5955
aVhateful
p5956
aV,
aV-when
p5957
aVone
p5958
aVwho
p5959
aVhath
p5960
aVbeen
p5961
aVcaught
p5962
aVin
p5963
aVwickednes
p5964
aVthen
p5965
aVseeks
p5966
aVto
p5967
aVmake
p5968
aVthe
p5969
aVcrime
p5970
aVa
aVglory
p5971
aV.
aa(lp5972
Vantigone
p5973
aVwouldst
p5974
aVthou
p5975
aVdo
p5976
aVmore
p5977
aVthan
p5978
aVtake
p5979
aVand
p5980
aVslay
p5981
aVme
p5982
aV?
aa(lp5983
Vcreon
p5984
aVno
p5985
aVmore
p5986
aV,
aVindeed
p5987
aV;
aVhaving
p5988
aVthat
p5989
aV,
aVi
aVhave
p5990
aVall
p5991
aV.
aa(lp5992
Vantigone
p5993
aVwhy
p5994
aVthen
p5995
aVdost
p5996
aVthou
p5997
aVdelay
p5998
aV?
aa(lp5999
Vin
p6000
aVthy
p6001
aVdiscourse
p6002
aVthere
p6003
aVis
p6004
aVnought
p6005
aVthat
p6006
aVpleases
p6007
aVme
p6008
aV,
aV-never
p6009
aVmay
p6010
aVthere
p6011
aVbe
p6012
aV!
aV-and
p6013
aVso
p6014
aVmy
p6015
aVwords
p6016
aVmust
p6017
aVneeds
p6018
aVbe
p6019
aVunpleasing
p6020
aVto
p6021
aVthee
p6022
aV.
aa(lp6023
Vand
p6024
aVyet
p6025
aV,
aVfor
p6026
aVglory-whence
p6027
aVcould
p6028
aVi
aVhave
p6029
aVwon
p6030
aVa
aVnobler
p6031
aV,
aVthan
p6032
aVby
p6033
aVgiving
p6034
aVburial
p6035
aVto
p6036
aVmine
p6037
aVown
p6038
aVbrother
p6039
aV?
aa(lp6040
Vall
p6041
aVhere
p6042
aVwould
p6043
aVown
p6044
aVthat
p6045
aVthey
p6046
aVthought
p6047
aVit
p6048
aVwell
p6049
aV,
aVwere
p6050
aVnot
p6051
aVtheir
p6052
aVlips
p6053
aVsealed
p6054
aVby
p6055
aVfear
p6056
aV.
aa(lp6057
Vbut
p6058
aVroyalty
p6059
aV,
aVblest
p6060
aVin
p6061
aVso
p6062
aVmuch
p6063
aVbesides
p6064
aV,
aVhath
p6065
aVthe
p6066
aVpower
p6067
aVto
p6068
aVdo
p6069
aVand
p6070
aVsay
p6071
aVwhat
p6072
aVit
p6073
aVwill
p6074
aV.
aa(lp6075
Vcreon
p6076
aVthou
p6077
aVdifferest
p6078
aVfrom
p6079
aVall
p6080
aVthese
p6081
aVthebans
p6082
aVin
p6083
aVthat
p6084
aVview
p6085
aV.
aa(lp6086
Vantigone
p6087
aVthese
p6088
aValso
p6089
aVshare
p6090
aVit
p6091
aV;
aVbut
p6092
aVthey
p6093
aVcurb
p6094
aVtheir
p6095
aVtongues
p6096
aVfor
p6097
aVthee
p6098
aV.
aa(lp6099
Vcreon
p6100
aVand
p6101
aVart
p6102
aVthou
p6103
aVnot
p6104
aVashamed
p6105
aVto
p6106
aVact
p6107
aVapart
p6108
aVfrom
p6109
aVthem
p6110
aV?
aa(lp6111
Vantigone
p6112
aVno
p6113
aV;
aVthere
p6114
aVis
p6115
aVnothing
p6116
aVshameful
p6117
aVin
p6118
aVpiety
p6119
aVto
p6120
aVa
aVbrother
p6121
aV.
aa(lp6122
Vcreon
p6123
aVwas
p6124
aVit
p6125
aVnot
p6126
aVa
aVbrother
p6127
aV,
aVtoo
p6128
aV,
aVthat
p6129
aVdied
p6130
aVin
p6131
aVthe
p6132
aVopposite
p6133
aVcause
p6134
aV?
aa(lp6135
Vantigone
p6136
aVbrother
p6137
aVby
p6138
aVthe
p6139
aVsame
p6140
aVmother
p6141
aVand
p6142
aVthe
p6143
aVsame
p6144
aVsire
p6145
aV.
aa(lp6146
Vcreon
p6147
aVwhy
p6148
aV,
aVthen
p6149
aV,
aVdost
p6150
aVthou
p6151
aVrender
p6152
aVa
aVgrace
p6153
aVthat
p6154
aVis
p6155
aVimpious
p6156
aVin
p6157
aVhis
p6158
aVsight
p6159
aV?
aa(lp6160
Vantigone
p6161
aVthe
p6162
aVdead
p6163
aVman
p6164
aVwill
p6165
aVnot
p6166
aVsay
p6167
aVthat
p6168
aVhe
p6169
aVso
p6170
aVdeems
p6171
aVit
p6172
aV.
aa(lp6173
Vcreon
p6174
aVyea
p6175
aV,
aVif
p6176
aVthou
p6177
aVmakest
p6178
aVhim
p6179
aVbut
p6180
aVequal
p6181
aVin
p6182
aVhonour
p6183
aVwith
p6184
aVthe
p6185
aVwicked
p6186
aV.
aa(lp6187
Vantigone
p6188
aVit
p6189
aVwas
p6190
aVhis
p6191
aVbrother
p6192
aV,
aVnot
p6193
aVhis
p6194
aVslave
p6195
aV,
aVthat
p6196
aVperished
p6197
aV.
aa(lp6198
Vcreon
p6199
aVwasting
p6200
aVthis
p6201
aVland
p6202
aV;
aVwhile
p6203
aVhe
p6204
aVfell
p6205
aVas
p6206
aVits
p6207
aVchampion
p6208
aV.
aa(lp6209
Vantigone
p6210
aVnevertheless
p6211
aV,
aVhades
p6212
aVdesires
p6213
aVthese
p6214
aVrites
p6215
aV.
aa(lp6216
Vcreon
p6217
aVbut
p6218
aVthe
p6219
aVgood
p6220
aVdesires
p6221
aVnot
p6222
aVa
aVlike
p6223
aVportion
p6224
aVwith
p6225
aVthe
p6226
aVevil
p6227
aV.
aa(lp6228
Vantigone
p6229
aVwho
p6230
aVknows
p6231
aVbut
p6232
aVthis
p6233
aVseems
p6234
aVblameless
p6235
aVin
p6236
aVthe
p6237
aVworld
p6238
aVbelow
p6239
aV?
aa(lp6240
Vcreon
p6241
aVa
aVfoe
p6242
aVis
p6243
aVnever
p6244
aVa
aVfriend-not
p6245
aVeven
p6246
aVin
p6247
aVdeath
p6248
aV.
aa(lp6249
Vantigone
p6250
aVtis
p6251
aVnot
p6252
aVmy
p6253
aVnature
p6254
aVto
p6255
aVjoin
p6256
aVin
p6257
aVhating
p6258
aV,
aVbut
p6259
aVin
p6260
aVloving
p6261
aV.
aa(lp6262
Vcreon
p6263
aVpass
p6264
aV,
aVthen
p6265
aV,
aVto
p6266
aVthe
p6267
aVworld
p6268
aVof
p6269
aVthe
p6270
aVdead
p6271
aV,
aVand
p6272
aV,
aVit
p6273
aVthou
p6274
aVmust
p6275
aVneeds
p6276
aVlove
p6277
aV,
aVlove
p6278
aVthem
p6279
aV.
aa(lp6280
Vwhile
p6281
aVi
aVlive
p6282
aV,
aVno
p6283
aVwoman
p6284
aVshall
p6285
aVrule
p6286
aVme
p6287
aV.
aa(lp6288
Venter
p6289
aVismene
p6290
aVfrom
p6291
aVthe
p6292
aVhouse
p6293
aV,
aVled
p6294
aVin
p6295
aVby
p6296
aVtwo
p6297
aVattendants
p6298
aV.
aa(lp6299
Vchorus
p6300
aVchanting
p6301
aVlo
p6302
aV,
aVyonder
p6303
aVismene
p6304
aVcomes
p6305
aVforth
p6306
aV,
aVshedding
p6307
aVsuch
p6308
aVtears
p6309
aVas
p6310
aVfond
p6311
aVsisters
p6312
aVweep
p6313
aV;
aVa
aVcloud
p6314
aVupon
p6315
aVher
p6316
aVbrow
p6317
aVcasts
p6318
aVits
p6319
aVshadow
p6320
aVover
p6321
aVher
p6322
aVdarkly-flushing
p6323
aVface
p6324
aV,
aVand
p6325
aVbreaks
p6326
aVin
p6327
aVrain
p6328
aVon
p6329
aVher
p6330
aVfair
p6331
aVcheek
p6332
aV.
aa(lp6333
Vcreon
p6334
aVand
p6335
aVthou
p6336
aV,
aVwho
p6337
aV,
aVlurking
p6338
aVlike
p6339
aVa
aVviper
p6340
aVin
p6341
aVmy
p6342
aVhouse
p6343
aV,
aVwast
p6344
aVsecretly
p6345
aVdraining
p6346
aVmy
p6347
aVlife-blood
p6348
aV,
aVwhile
p6349
aVi
aVknew
p6350
aVnot
p6351
aVthat
p6352
aVi
aVwas
p6353
aVnurturing
p6354
aVtwo
p6355
aVpests
p6356
aV,
aVto
p6357
aVrise
p6358
aVagainst
p6359
aVmy
p6360
aVthrone-come
p6361
aV,
aVtell
p6362
aVme
p6363
aVnow
p6364
aV,
aVwilt
p6365
aVthou
p6366
aValso
p6367
aVconfess
p6368
aVthy
p6369
aVpart
p6370
aVin
p6371
aVthis
p6372
aVburial
p6373
aV,
aVor
p6374
aVwilt
p6375
aVthou
p6376
aVforswear
p6377
aVall
p6378
aVknowledge
p6379
aVof
p6380
aVit
p6381
aV?
aa(lp6382
Vismene
p6383
aVi
aVhave
p6384
aVdone
p6385
aVthe
p6386
aVdeed
p6387
aV,
aV-if
p6388
aVshe
p6389
aVallows
p6390
aVmy
p6391
aVclaim
p6392
aV,
aV-and
p6393
aVshare
p6394
aVthe
p6395
aVburden
p6396
aVof
p6397
aVthe
p6398
aVcharge
p6399
aV.
aa(lp6400
Vantigone
p6401
aVnay
p6402
aV,
aVjustice
p6403
aVwill
p6404
aVnot
p6405
aVsuffer
p6406
aVthee
p6407
aVto
p6408
aVdo
p6409
aVthat
p6410
aV:
aVthou
p6411
aVdidst
p6412
aVnot
p6413
aVconsent
p6414
aVto
p6415
aVthe
p6416
aVdeed
p6417
aV,
aVnor
p6418
aVdid
p6419
aVi
aVgive
p6420
aVthee
p6421
aVpart
p6422
aVin
p6423
aVit
p6424
aV.
aa(lp6425
Vismene
p6426
aVbut
p6427
aV,
aVnow
p6428
aVthat
p6429
aVills
p6430
aVbeset
p6431
aVthee
p6432
aV,
aVi
aVam
p6433
aVnot
p6434
aVashamed
p6435
aVto
p6436
aVsail
p6437
aVthe
p6438
aVsea
p6439
aVof
p6440
aVtrouble
p6441
aVat
p6442
aVthy
p6443
aVside
p6444
aV.
aa(lp6445
Vantigone
p6446
aVwhose
p6447
aVwas
p6448
aVthe
p6449
aVdeed
p6450
aV,
aVhades
p6451
aVand
p6452
aVthe
p6453
aVdead
p6454
aVare
p6455
aVwitnesses
p6456
aV:
aVa
aVfriend
p6457
aVin
p6458
aVwords
p6459
aVis
p6460
aVnot
p6461
aVthe
p6462
aVfriend
p6463
aVthat
p6464
aVi
aVlove
p6465
aV.
aa(lp6466
Vismene
p6467
aVnay
p6468
aV,
aVsister
p6469
aV,
aVreject
p6470
aVme
p6471
aVnot
p6472
aV,
aVbut
p6473
aVlet
p6474
aVme
p6475
aVdie
p6476
aVwith
p6477
aVthee
p6478
aV,
aVand
p6479
aVduly
p6480
aVhonour
p6481
aVthe
p6482
aVdead
p6483
aV.
aa(lp6484
Vantigone
p6485
aVshare
p6486
aVnot
p6487
aVthou
p6488
aVmy
p6489
aVdeath
p6490
aV,
aVnor
p6491
aVclaim
p6492
aVdeeds
p6493
aVto
p6494
aVwhich
p6495
aVthou
p6496
aVhast
p6497
aVnot
p6498
aVput
p6499
aVthy
p6500
aVhand
p6501
aV:
aVmy
p6502
aVdeath
p6503
aVwill
p6504
aVsuffice
p6505
aV.
aa(lp6506
Vismene
p6507
aVand
p6508
aVwhat
p6509
aVlife
p6510
aVis
p6511
aVdear
p6512
aVto
p6513
aVme
p6514
aV,
aVbereft
p6515
aVof
p6516
aVthee
p6517
aV?
aa(lp6518
Vantigone
p6519
aVask
p6520
aVcreon
p6521
aV;
aVall
p6522
aVthy
p6523
aVcare
p6524
aVis
p6525
aVfor
p6526
aVhim
p6527
aV.
aa(lp6528
Vismene
p6529
aVwhy
p6530
aVvex
p6531
aVme
p6532
aVthus
p6533
aV,
aVwhen
p6534
aVit
p6535
aVavails
p6536
aVthee
p6537
aVnought
p6538
aV?
aa(lp6539
Vantigone
p6540
aVindeed
p6541
aV,
aVif
p6542
aVi
aVmock
p6543
aV,
aV't
p6544
aVis
p6545
aVwith
p6546
aVpain
p6547
aVthat
p6548
aVi
aVmock
p6549
aVthee
p6550
aV.
aa(lp6551
Vismene
p6552
aVtell
p6553
aVme
p6554
aV,
aV-how
p6555
aVcan
p6556
aVi
aVserve
p6557
aVthee
p6558
aV,
aVeven
p6559
aVnow
p6560
aV?
aa(lp6561
Vantigone
p6562
aVsave
p6563
aVthyself
p6564
aV:
aVi
aVgrudge
p6565
aVnot
p6566
aVthy
p6567
aVescape
p6568
aV.
aa(lp6569
Vismene
p6570
aVah
p6571
aV,
aVwoe
p6572
aVis
p6573
aVme
p6574
aV!
aa(lp6575
Vand
p6576
aVshall
p6577
aVi
aVhave
p6578
aVno
p6579
aVshare
p6580
aVin
p6581
aVthy
p6582
aVfate
p6583
aV?
aa(lp6584
Vantigone
p6585
aVthy
p6586
aVchoice
p6587
aVwas
p6588
aVto
p6589
aVlive
p6590
aV;
aVmine
p6591
aV,
aVto
p6592
aVdie
p6593
aV.
aa(lp6594
Vismene
p6595
aVat
p6596
aVleast
p6597
aVthy
p6598
aVchoice
p6599
aVwas
p6600
aVnot
p6601
aVmade
p6602
aVwithout
p6603
aVmy
p6604
aVprotest
p6605
aV.
aa(lp6606
Vantigone
p6607
aVone
p6608
aVworld
p6609
aVapproved
p6610
aVthy
p6611
aVwisdom
p6612
aV;
aVanother
p6613
aV,
aVmine
p6614
aV.
aa(lp6615
Vismene
p6616
aVhowbeit
p6617
aV,
aVthe
p6618
aVoffence
p6619
aVis
p6620
aVthe
p6621
aVsame
p6622
aVfor
p6623
aVboth
p6624
aVof
p6625
aVus
p6626
aV.
aa(lp6627
Vantigone
p6628
aVbe
p6629
aVof
p6630
aVgood
p6631
aVcheer
p6632
aV;
aVthou
p6633
aVlivest
p6634
aV;
aVbut
p6635
aVmy
p6636
aVlife
p6637
aVhath
p6638
aVlong
p6639
aVbeen
p6640
aVgiven
p6641
aVto
p6642
aVdeath
p6643
aV,
aVthat
p6644
aVso
p6645
aVi
aVmight
p6646
aVserve
p6647
aVthe
p6648
aVdead
p6649
aV.
aa(lp6650
Vcreon
p6651
aVlo
p6652
aV,
aVone
p6653
aVof
p6654
aVthese
p6655
aVmaidens
p6656
aVhath
p6657
aVnewly
p6658
aVshown
p6659
aVherself
p6660
aVfoolish
p6661
aV,
aVas
p6662
aVthe
p6663
aVother
p6664
aVhath
p6665
aVbeen
p6666
aVsince
p6667
aVher
p6668
aVlife
p6669
aVbegan
p6670
aV.
aa(lp6671
Vismene
p6672
aVyea
p6673
aV,
aVo
aVking
p6674
aV,
aVsuch
p6675
aVreason
p6676
aVas
p6677
aVnature
p6678
aVmay
p6679
aVhave
p6680
aVgiven
p6681
aVabides
p6682
aVnot
p6683
aVwith
p6684
aVthe
p6685
aVunfortunate
p6686
aV,
aVbut
p6687
aVgoes
p6688
aVastray
p6689
aV.
aa(lp6690
Vcreon
p6691
aVthine
p6692
aVdid
p6693
aV,
aVwhen
p6694
aVthou
p6695
aVchosest
p6696
aVvile
p6697
aVdeeds
p6698
aVwith
p6699
aVthe
p6700
aVvile
p6701
aV.
aa(lp6702
Vismene
p6703
aVwhat
p6704
aVlife
p6705
aVcould
p6706
aVi
aVendure
p6707
aV,
aVwithout
p6708
aVher
p6709
aVpresence
p6710
aV?
aa(lp6711
Vcreon
p6712
aVnay
p6713
aV,
aVspeak
p6714
aVnot
p6715
aVof
p6716
aVher
p6717
aV'presence
p6718
aV'
aV;
aVshe
p6719
aVlives
p6720
aVno
p6721
aVmore
p6722
aV.
aa(lp6723
Vismene
p6724
aVbut
p6725
aVwilt
p6726
aVthou
p6727
aVslay
p6728
aVthe
p6729
aVbetrothed
p6730
aVof
p6731
aVthine
p6732
aVown
p6733
aVson
p6734
aV?
aa(lp6735
Vcreon
p6736
aVnay
p6737
aV,
aVthere
p6738
aVare
p6739
aVother
p6740
aVfields
p6741
aVfor
p6742
aVhim
p6743
aVto
p6744
aVplough
p6745
aV.
aa(lp6746
Vismene
p6747
aVbut
p6748
aVthere
p6749
aVcan
p6750
aVnever
p6751
aVbe
p6752
aVsuch
p6753
aVlove
p6754
aVas
p6755
aVbound
p6756
aVhim
p6757
aVto
p6758
aVher
p6759
aV.
aa(lp6760
Vcreon
p6761
aVi
aVlike
p6762
aVnot
p6763
aVan
p6764
aVevil
p6765
aVwife
p6766
aVfor
p6767
aVmy
p6768
aVson
p6769
aV.
aa(lp6770
Vantigone
p6771
aVhaemon
p6772
aV,
aVbeloved
p6773
aV!
aa(lp6774
Vhow
p6775
aVthy
p6776
aVfather
p6777
aVwrongs
p6778
aVthee
p6779
aV!
aa(lp6780
Vcreon
p6781
aVenough
p6782
aV,
aVenough
p6783
aVof
p6784
aVthee
p6785
aVand
p6786
aVof
p6787
aVthy
p6788
aVmarriage
p6789
aV!
aa(lp6790
Vleader
p6791
aVof
p6792
aVthe
p6793
aVchorus
p6794
aVwilt
p6795
aVthou
p6796
aVindeed
p6797
aVrob
p6798
aVthy
p6799
aVson
p6800
aVof
p6801
aVthis
p6802
aVmaiden
p6803
aV?
aa(lp6804
Vcreon
p6805
aV'tis
p6806
aVdeath
p6807
aVthat
p6808
aVshall
p6809
aVstay
p6810
aVthese
p6811
aVbridals
p6812
aVfor
p6813
aVme
p6814
aV.
aa(lp6815
Vleader
p6816
aV'tis
p6817
aVdetermined
p6818
aV,
aVit
p6819
aVseems
p6820
aV,
aVthat
p6821
aVshe
p6822
aVshall
p6823
aVdie
p6824
aV.
aa(lp6825
Vcreon
p6826
aVdetermined
p6827
aV,
aVyes
p6828
aV,
aVfor
p6829
aVthee
p6830
aVand
p6831
aVfor
p6832
aVme.-
p6833
aVto
p6834
aVthe
p6835
aVtwo
p6836
aVattendants
p6837
aVno
p6838
aVmore
p6839
aVdelay-servants
p6840
aV,
aVtake
p6841
aVthem
p6842
aVwithin
p6843
aV!
aa(lp6844
Vhenceforth
p6845
aVthey
p6846
aVmust
p6847
aVbe
p6848
aVwomen
p6849
aV,
aVand
p6850
aVnot
p6851
aVrange
p6852
aVat
p6853
aVlarge
p6854
aV;
aVfor
p6855
aVverily
p6856
aVeven
p6857
aVthe
p6858
aVbold
p6859
aVseek
p6860
aVto
p6861
aVfly
p6862
aV,
aVwhen
p6863
aVthey
p6864
aVsee
p6865
aVdeath
p6866
aVnow
p6867
aVclosing
p6868
aVon
p6869
aVtheir
p6870
aVlife
p6871
aV.
aa(lp6872
Vexeunt
p6873
aVattendants
p6874
aV,
aVguarding
p6875
aVantigone
p6876
aVand
p6877
aVismene.-creon
p6878
aVremains
p6879
aV.
aa(lp6880
Vchorus
p6881
aVsinging
p6882
aVstrophe
p6883
aV1
aVblest
p6884
aVare
p6885
aVthey
p6886
aVwhose
p6887
aVdays
p6888
aVhave
p6889
aVnot
p6890
aVtasted
p6891
aVof
p6892
aVevil
p6893
aV.
aa(lp6894
Vfor
p6895
aVwhen
p6896
aVa
aVhouse
p6897
aVhath
p6898
aVonce
p6899
aVbeen
p6900
aVshaken
p6901
aVfrom
p6902
aVheaven
p6903
aV,
aVthere
p6904
aVthe
p6905
aVcurse
p6906
aVfails
p6907
aVnevermore
p6908
aV,
aVpassing
p6909
aVfrom
p6910
aVlife
p6911
aVto
p6912
aVlife
p6913
aVof
p6914
aVthe
p6915
aVrace
p6916
aV;
aVeven
p6917
aVas
p6918
aV,
aVwhen
p6919
aVthe
p6920
aVsurge
p6921
aVis
p6922
aVdriven
p6923
aVover
p6924
aVthe
p6925
aVdarkness
p6926
aVof
p6927
aVthe
p6928
aVdeep
p6929
aVby
p6930
aVthe
p6931
aVfierce
p6932
aVbreath
p6933
aVof
p6934
aVthracian
p6935
aVsea-winds
p6936
aV,
aVit
p6937
aVrolls
p6938
aVup
p6939
aVthe
p6940
aVblack
p6941
aVsand
p6942
aVfrom
p6943
aVthe
p6944
aVdepths
p6945
aV,
aVand
p6946
aVthere
p6947
aVis
p6948
aVsullen
p6949
aVroar
p6950
aVfrom
p6951
aVwind-vexed
p6952
aVheadlands
p6953
aVthat
p6954
aVfront
p6955
aVthe
p6956
aVblows
p6957
aVof
p6958
aVthe
p6959
aVstorm
p6960
aV.
aa(lp6961
Vantistrophe
p6962
aV1
aVi
aVsee
p6963
aVthat
p6964
aVfrom
p6965
aVolden
p6966
aVtime
p6967
aVthe
p6968
aVsorrows
p6969
aVin
p6970
aVthe
p6971
aVhouse
p6972
aVof
p6973
aVthe
p6974
aVlabdacidae
p6975
aVare
p6976
aVheaped
p6977
aVupon
p6978
aVthe
p6979
aVsorrows
p6980
aVof
p6981
aVthe
p6982
aVdead
p6983
aV;
aVand
p6984
aVgeneration
p6985
aVis
p6986
aVnot
p6987
aVfreed
p6988
aVby
p6989
aVgeneration
p6990
aV,
aVbut
p6991
aVsome
p6992
aVgod
p6993
aVstrikes
p6994
aVthem
p6995
aVdown
p6996
aV,
aVand
p6997
aVthe
p6998
aVrace
p6999
aVhath
p7000
aVno
p7001
aVdeliverance
p7002
aV.
aa(lp7003
Vfor
p7004
aVnow
p7005
aVthat
p7006
aVhope
p7007
aVof
p7008
aVwhich
p7009
aVthe
p7010
aVlight
p7011
aVhad
p7012
aVbeen
p7013
aVspread
p7014
aVabove
p7015
aVthe
p7016
aVlast
p7017
aVroot
p7018
aVof
p7019
aVthe
p7020
aVhouse
p7021
aVof
p7022
aVoedipus-that
p7023
aVhope
p7024
aV,
aVin
p7025
aVturn
p7026
aV,
aVis
p7027
aVbrought
p7028
aVlow
p7029
aV--
p7030
aVby
p7031
aVthe
p7032
aVblood-stained
p7033
aVdust
p7034
aVdue
p7035
aVto
p7036
aVthe
p7037
aVgods
p7038
aVinfernal
p7039
aV,
aVand
p7040
aVby
p7041
aVfolly
p7042
aVin
p7043
aVspeech
p7044
aV,
aVand
p7045
aVfrenzy
p7046
aVat
p7047
aVthe
p7048
aVheart
p7049
aV.
aa(lp7050
Vstrophe
p7051
aV2
aVthy
p7052
aVpower
p7053
aV,
aVo
aVzeus
p7054
aV,
aVwhat
p7055
aVhuman
p7056
aVtrespass
p7057
aVcan
p7058
aVlimit
p7059
aV?
aa(lp7060
Vthat
p7061
aVpower
p7062
aVwhich
p7063
aVneither
p7064
aVsleep
p7065
aV,
aVthe
p7066
aVall-ensnaring
p7067
aV,
aVnor
p7068
aVthe
p7069
aVuntiring
p7070
aVmonths
p7071
aVof
p7072
aVthe
p7073
aVgods
p7074
aVcan
p7075
aVmaster
p7076
aV;
aVbut
p7077
aVthou
p7078
aV,
aVa
aVruler
p7079
aVto
p7080
aVwhom
p7081
aVtime
p7082
aVbrings
p7083
aVnot
p7084
aVold
p7085
aVage
p7086
aV,
aVdwellest
p7087
aVin
p7088
aVthe
p7089
aVdazzling
p7090
aVsplendour
p7091
aVof
p7092
aVolympus
p7093
aV.
aa(lp7094
Vand
p7095
aVthrough
p7096
aVthe
p7097
aVfuture
p7098
aV,
aVnear
p7099
aVand
p7100
aVfar
p7101
aV,
aVas
p7102
aVthrough
p7103
aVthe
p7104
aVpast
p7105
aV,
aVshall
p7106
aVthis
p7107
aVlaw
p7108
aVhold
p7109
aVgood
p7110
aV:
aVnothing
p7111
aVthat
p7112
aVis
p7113
aVvast
p7114
aVenters
p7115
aVinto
p7116
aVthe
p7117
aVlife
p7118
aVof
p7119
aVmortals
p7120
aVwithout
p7121
aVa
aVcurse
p7122
aV.
aa(lp7123
Vantistrophe
p7124
aV2
aVfor
p7125
aVthat
p7126
aVhope
p7127
aVwhose
p7128
aVwanderings
p7129
aVare
p7130
aVso
p7131
aVwide
p7132
aVis
p7133
aVto
p7134
aVmany
p7135
aVmen
p7136
aVa
aVcomfort
p7137
aV,
aVbut
p7138
aVto
p7139
aVmany
p7140
aVa
aVfalse
p7141
aVlure
p7142
aVof
p7143
aVgiddy
p7144
aVdesires
p7145
aV;
aVand
p7146
aVthe
p7147
aVdisappointment
p7148
aVcomes
p7149
aVon
p7150
aVone
p7151
aVwho
p7152
aVknoweth
p7153
aVnought
p7154
aVtill
p7155
aVhe
p7156
aVburn
p7157
aVhis
p7158
aVfoot
p7159
aVagainst
p7160
aVthe
p7161
aVhot
p7162
aVfire
p7163
aV.
aa(lp7164
Vfor
p7165
aVwith
p7166
aVwisdom
p7167
aVhath
p7168
aVsome
p7169
aVone
p7170
aVgiven
p7171
aVforth
p7172
aVthe
p7173
aVfamous
p7174
aVsaying
p7175
aV,
aVthat
p7176
aVevil
p7177
aVseems
p7178
aVgood
p7179
aV,
aVsoon
p7180
aVor
p7181
aVlate
p7182
aV,
aVto
p7183
aVhim
p7184
aVwhose
p7185
aVmind
p7186
aVthe
p7187
aVgod
p7188
aVdraws
p7189
aVto
p7190
aVmischief
p7191
aV;
aVand
p7192
aVbut
p7193
aVfor
p7194
aVthe
p7195
aVbriefest
p7196
aVspace
p7197
aVdoth
p7198
aVhe
p7199
aVfare
p7200
aVfree
p7201
aVof
p7202
aVwoe
p7203
aV.
aa(lp7204
Vleader
p7205
aVof
p7206
aVthe
p7207
aVchorus
p7208
aVbut
p7209
aVlo
p7210
aV,
aVhaemon
p7211
aV,
aVthe
p7212
aVlast
p7213
aVof
p7214
aVthy
p7215
aVsons
p7216
aV;
aV-comes
p7217
aVhe
p7218
aVgrieving
p7219
aVfor
p7220
aVthe
p7221
aVdoom
p7222
aVof
p7223
aVhis
p7224
aVpromised
p7225
aVbride
p7226
aV,
aVantigone
p7227
aV,
aVand
p7228
aVbitter
p7229
aVfor
p7230
aVthe
p7231
aVbaffled
p7232
aVhope
p7233
aVof
p7234
aVhis
p7235
aVmarriage
p7236
aV?
aa(lp7237
Venter
p7238
aVhaemon
p7239
aVcreon
p7240
aVwe
p7241
aVshall
p7242
aVknow
p7243
aVsoon
p7244
aV,
aVbetter
p7245
aVthan
p7246
aVseers
p7247
aVcould
p7248
aVtell
p7249
aVus.-my
p7250
aVson
p7251
aV,
aVhearing
p7252
aVthe
p7253
aVfixed
p7254
aVdoom
p7255
aVof
p7256
aVthy
p7257
aVbetrothed
p7258
aV,
aVart
p7259
aVthou
p7260
aVcome
p7261
aVin
p7262
aVrage
p7263
aVagainst
p7264
aVthy
p7265
aVfather
p7266
aV?
aa(lp7267
Vor
p7268
aVhave
p7269
aVi
aVthy
p7270
aVgood
p7271
aVwill
p7272
aV,
aVact
p7273
aVhow
p7274
aVi
aVmay
p7275
aV?
aa(lp7276
Vhaemon
p7277
aVfather
p7278
aV,
aVi
aVam
p7279
aVthine
p7280
aV;
aVand
p7281
aVthou
p7282
aV,
aVin
p7283
aVthy
p7284
aVwisdom
p7285
aV,
aVtracest
p7286
aVfor
p7287
aVme
p7288
aVrules
p7289
aVwhich
p7290
aVi
aVshall
p7291
aVfollow
p7292
aV.
aa(lp7293
Vno
p7294
aVmarriage
p7295
aVshall
p7296
aVbe
p7297
aVdeemed
p7298
aVby
p7299
aVme
p7300
aVa
aVgreater
p7301
aVgain
p7302
aVthan
p7303
aVthy
p7304
aVgood
p7305
aVguidance
p7306
aV.
aa(lp7307
Vcreon
p7308
aVyea
p7309
aV,
aVthis
p7310
aV,
aVmy
p7311
aVson
p7312
aV,
aVshould
p7313
aVbe
p7314
aVthy
p7315
aVheart
p7316
aV's
p7317
aVfixed
p7318
aVlaw
p7319
aV,
aV-in
p7320
aVall
p7321
aVthings
p7322
aVto
p7323
aVobey
p7324
aVthy
p7325
aVfather
p7326
aV's
p7327
aVwill
p7328
aV.
aa(lp7329
V't
p7330
aVis
p7331
aVfor
p7332
aVthis
p7333
aVthat
p7334
aVmen
p7335
aVpray
p7336
aVto
p7337
aVsee
p7338
aVdutiful
p7339
aVchildren
p7340
aVgrow
p7341
aVup
p7342
aVaround
p7343
aVthem
p7344
aVin
p7345
aVtheir
p7346
aVhomes
p7347
aV,
aV-that
p7348
aVsuch
p7349
aVmay
p7350
aVrequite
p7351
aVtheir
p7352
aVfather
p7353
aV's
p7354
aVfoe
p7355
aVwith
p7356
aVevil
p7357
aV,
aVand
p7358
aVhonour
p7359
aV,
aVas
p7360
aVtheir
p7361
aVfather
p7362
aVdoth
p7363
aV,
aVhis
p7364
aVfriend
p7365
aV.
aa(lp7366
Vbut
p7367
aVhe
p7368
aVwho
p7369
aVbegets
p7370
aVunprofitable
p7371
aVchildren-what
p7372
aVshall
p7373
aVwe
p7374
aVsay
p7375
aVthat
p7376
aVhe
p7377
aVhath
p7378
aVsown
p7379
aV,
aVbut
p7380
aVtroubles
p7381
aVfor
p7382
aVhimself
p7383
aV,
aVand
p7384
aVmuch
p7385
aVtriumph
p7386
aVfor
p7387
aVhis
p7388
aVfoes
p7389
aV?
aa(lp7390
Vthen
p7391
aVdo
p7392
aVnot
p7393
aVthou
p7394
aV,
aVmy
p7395
aVson
p7396
aV,
aVat
p7397
aVpleasure
p7398
aV's
p7399
aVbeck
p7400
aV,
aVdethrone
p7401
aVthy
p7402
aVreason
p7403
aVfor
p7404
aVa
aVwoman
p7405
aV's
p7406
aVsake
p7407
aV;
aVknowing
p7408
aVthat
p7409
aVthis
p7410
aVis
p7411
aVa
aVjoy
p7412
aVthat
p7413
aVsoon
p7414
aVgrows
p7415
aVcold
p7416
aVin
p7417
aVclasping
p7418
aVarms
p7419
aV,
aV-an
p7420
aVevil
p7421
aVwoman
p7422
aVto
p7423
aVshare
p7424
aVthy
p7425
aVbed
p7426
aVand
p7427
aVthy
p7428
aVhome
p7429
aV.
aa(lp7430
Vfor
p7431
aVwhat
p7432
aVwound
p7433
aVcould
p7434
aVstrike
p7435
aVdeeper
p7436
aVthan
p7437
aVa
aVfalse
p7438
aVfriend
p7439
aV?
aa(lp7440
Vnay
p7441
aV,
aVwith
p7442
aVloathing
p7443
aV,
aVand
p7444
aVas
p7445
aVif
p7446
aVshe
p7447
aVwere
p7448
aVthine
p7449
aVenemy
p7450
aV,
aVlet
p7451
aVthis
p7452
aVgirl
p7453
aVgo
p7454
aVto
p7455
aVfind
p7456
aVa
aVhusband
p7457
aVin
p7458
aVthe
p7459
aVhouse
p7460
aVof
p7461
aVhades
p7462
aV.
aa(lp7463
Vfor
p7464
aVsince
p7465
aVi
aVhave
p7466
aVtaken
p7467
aVher
p7468
aV,
aValone
p7469
aVof
p7470
aVall
p7471
aVthe
p7472
aVcity
p7473
aV,
aVin
p7474
aVopen
p7475
aVdisobedience
p7476
aV,
aVi
aVwill
p7477
aVnot
p7478
aVmake
p7479
aVmyself
p7480
aVa
aVliar
p7481
aVto
p7482
aVmy
p7483
aVpeople-i
p7484
aVwill
p7485
aVslay
p7486
aVher
p7487
aV.
aa(lp7488
Vso
p7489
aVlet
p7490
aVher
p7491
aVappeal
p7492
aVas
p7493
aVshe
p7494
aVwill
p7495
aVto
p7496
aVthe
p7497
aVmajesty
p7498
aVof
p7499
aVkindred
p7500
aVblood
p7501
aV.
aa(lp7502
Vif
p7503
aVi
aVam
p7504
aVto
p7505
aVnurture
p7506
aVmine
p7507
aVown
p7508
aVkindred
p7509
aVin
p7510
aVnaughtiness
p7511
aV,
aVneeds
p7512
aVmust
p7513
aVi
aVbear
p7514
aVwith
p7515
aVit
p7516
aVin
p7517
aValiens
p7518
aV.
aa(lp7519
Vhe
p7520
aVwho
p7521
aVdoes
p7522
aVhis
p7523
aVduty
p7524
aVin
p7525
aVhis
p7526
aVown
p7527
aVhousehold
p7528
aVwill
p7529
aVbe
p7530
aVfound
p7531
aVrighteous
p7532
aVin
p7533
aVthe
p7534
aVstate
p7535
aValso
p7536
aV.
aa(lp7537
Vbut
p7538
aVif
p7539
aVany
p7540
aVone
p7541
aVtransgresses
p7542
aV,
aVand
p7543
aVdoes
p7544
aVviolence
p7545
aVto
p7546
aVthe
p7547
aVlaws
p7548
aV,
aVor
p7549
aVthinks
p7550
aVto
p7551
aVdictate
p7552
aVto
p7553
aVhis
p7554
aVrulers
p7555
aV,
aVsuch
p7556
aVan
p7557
aVone
p7558
aVcan
p7559
aVwin
p7560
aVno
p7561
aVpraise
p7562
aVfrom
p7563
aVme
p7564
aV.
aa(lp7565
Vno
p7566
aV,
aVwhomsoever
p7567
aVthe
p7568
aVcity
p7569
aVmay
p7570
aVappoint
p7571
aV,
aVthat
p7572
aVman
p7573
aVmust
p7574
aVbe
p7575
aVobeyed
p7576
aV,
aVin
p7577
aVlittle
p7578
aVthings
p7579
aVand
p7580
aVgreat
p7581
aV,
aVin
p7582
aVjust
p7583
aVthings
p7584
aVand
p7585
aVunjust
p7586
aV;
aVand
p7587
aVi
aVshould
p7588
aVfeel
p7589
aVsure
p7590
aVthat
p7591
aVone
p7592
aVwho
p7593
aVthus
p7594
aVobeys
p7595
aVwould
p7596
aVbe
p7597
aVa
aVgood
p7598
aVruler
p7599
aVno
p7600
aVless
p7601
aVthan
p7602
aVa
aVgood
p7603
aVsubject
p7604
aV,
aVand
p7605
aVin
p7606
aVthe
p7607
aVstorm
p7608
aVof
p7609
aVspears
p7610
aVwould
p7611
aVstand
p7612
aVhis
p7613
aVground
p7614
aVwhere
p7615
aVhe
p7616
aVwas
p7617
aVset
p7618
aV,
aVloyal
p7619
aVand
p7620
aVdauntless
p7621
aVat
p7622
aVhis
p7623
aVcomrade
p7624
aV's
p7625
aVside
p7626
aV.
aa(lp7627
Vbut
p7628
aVdisobedience
p7629
aVis
p7630
aVthe
p7631
aVworst
p7632
aVof
p7633
aVevils
p7634
aV.
aa(lp7635
Vthis
p7636
aVit
p7637
aVis
p7638
aVthat
p7639
aVruins
p7640
aVcities
p7641
aV;
aVthis
p7642
aVmakes
p7643
aVhomes
p7644
aVdesolate
p7645
aV;
aVby
p7646
aVthis
p7647
aV,
aVthe
p7648
aVranks
p7649
aVof
p7650
aVallies
p7651
aVare
p7652
aVbroken
p7653
aVinto
p7654
aVhead-long
p7655
aVrout
p7656
aV;
aVbut
p7657
aV,
aVof
p7658
aVthe
p7659
aVlives
p7660
aVwhose
p7661
aVcourse
p7662
aVis
p7663
aVfair
p7664
aV,
aVthe
p7665
aVgreater
p7666
aVpart
p7667
aVowes
p7668
aVsafety
p7669
aVto
p7670
aVobedience
p7671
aV.
aa(lp7672
Vtherefore
p7673
aVwe
p7674
aVmust
p7675
aVsupport
p7676
aVthe
p7677
aVcause
p7678
aVof
p7679
aVorder
p7680
aV,
aVand
p7681
aVin
p7682
aVno
p7683
aVwise
p7684
aVsuffer
p7685
aVa
aVwoman
p7686
aVto
p7687
aVworst
p7688
aVus
p7689
aV.
aa(lp7690
Vbetter
p7691
aVto
p7692
aVfall
p7693
aVfrom
p7694
aVpower
p7695
aV,
aVif
p7696
aVwe
p7697
aVmust
p7698
aV,
aVby
p7699
aVa
aVman
p7700
aV's
p7701
aVhand
p7702
aV;
aVthen
p7703
aVwe
p7704
aVshould
p7705
aVnot
p7706
aVbe
p7707
aVcalled
p7708
aVweaker
p7709
aVthan
p7710
aVa
aVwoman
p7711
aV.
aa(lp7712
Vleader
p7713
aVto
p7714
aVus
p7715
aV,
aVunless
p7716
aVour
p7717
aVyears
p7718
aVhave
p7719
aVstolen
p7720
aVour
p7721
aVwit
p7722
aV,
aVthou
p7723
aVseemest
p7724
aVto
p7725
aVsay
p7726
aVwisely
p7727
aVwhat
p7728
aVthou
p7729
aVsayest
p7730
aV.
aa(lp7731
Vhaemon
p7732
aVfather
p7733
aV,
aVthe
p7734
aVgods
p7735
aVimplant
p7736
aVreason
p7737
aVin
p7738
aVmen
p7739
aV,
aVthe
p7740
aVhighest
p7741
aVof
p7742
aVall
p7743
aVthings
p7744
aVthat
p7745
aVwe
p7746
aVcall
p7747
aVour
p7748
aVown
p7749
aV.
aa(lp7750
Vnot
p7751
aVmine
p7752
aVthe
p7753
aVskill-far
p7754
aVfrom
p7755
aVme
p7756
aVbe
p7757
aVthe
p7758
aVquest
p7759
aV!
aV-to
p7760
aVsay
p7761
aVwherein
p7762
aVthou
p7763
aVspeakest
p7764
aVnot
p7765
aVaright
p7766
aV;
aVand
p7767
aVyet
p7768
aVanother
p7769
aVman
p7770
aV,
aVtoo
p7771
aV,
aVmight
p7772
aVhave
p7773
aVsome
p7774
aVuseful
p7775
aVthought
p7776
aV.
aa(lp7777
Vat
p7778
aVleast
p7779
aV,
aVit
p7780
aVis
p7781
aVmy
p7782
aVnatural
p7783
aVoffice
p7784
aVto
p7785
aVwatch
p7786
aV,
aVon
p7787
aVthy
p7788
aVbehalf
p7789
aV,
aVall
p7790
aVthat
p7791
aVmen
p7792
aVsay
p7793
aV,
aVor
p7794
aVdo
p7795
aV,
aVor
p7796
aVfind
p7797
aVto
p7798
aVblame
p7799
aV.
aa(lp7800
Vfor
p7801
aVthe
p7802
aVdread
p7803
aVof
p7804
aVthy
p7805
aVfrown
p7806
aVforbids
p7807
aVthe
p7808
aVcitizen
p7809
aVto
p7810
aVspeak
p7811
aVsuch
p7812
aVwords
p7813
aVas
p7814
aVwould
p7815
aVoffend
p7816
aVthine
p7817
aVear
p7818
aV;
aVbut
p7819
aVcan
p7820
aVhear
p7821
aVthese
p7822
aVmurmurs
p7823
aVin
p7824
aVthe
p7825
aVdark
p7826
aV,
aVthese
p7827
aVmoanings
p7828
aVof
p7829
aVthe
p7830
aVcity
p7831
aVfor
p7832
aVthis
p7833
aVmaiden
p7834
aV;
aV'no
p7835
aVwoman
p7836
aV,
aV'
aVthey
p7837
aVsay
p7838
aV,
aV'ever
p7839
aVmerited
p7840
aVher
p7841
aVdoom
p7842
aVless
p7843
aV,
aV-none
p7844
aVever
p7845
aVwas
p7846
aVto
p7847
aVdie
p7848
aVso
p7849
aVshamefully
p7850
aVfor
p7851
aVdeeds
p7852
aVso
p7853
aVglorious
p7854
aVas
p7855
aVhers
p7856
aV;
aVwho
p7857
aV,
aVwhen
p7858
aVher
p7859
aVown
p7860
aVbrother
p7861
aVhad
p7862
aVfallen
p7863
aVin
p7864
aVbloody
p7865
aVstrife
p7866
aV,
aVwould
p7867
aVnot
p7868
aVleave
p7869
aVhim
p7870
aVunburied
p7871
aV,
aVto
p7872
aVbe
p7873
aVdevoured
p7874
aVby
p7875
aVcarrion
p7876
aVdogs
p7877
aV,
aVor
p7878
aVby
p7879
aVany
p7880
aVbird
p7881
aV:
aV-deserves
p7882
aVnot
p7883
aVshe
p7884
aVthe
p7885
aVmeed
p7886
aVof
p7887
aVgolden
p7888
aVhonour
p7889
aV?
aV'
aa(lp7890
Vsuch
p7891
aVis
p7892
aVthe
p7893
aVdarkling
p7894
aVrumour
p7895
aVthat
p7896
aVspreads
p7897
aVin
p7898
aVsecret
p7899
aV.
aa(lp7900
Vfor
p7901
aVme
p7902
aV,
aVmy
p7903
aVfather
p7904
aV,
aVno
p7905
aVtreasure
p7906
aVis
p7907
aVso
p7908
aVprecious
p7909
aVas
p7910
aVthy
p7911
aVwelfare
p7912
aV.
aa(lp7913
Vwhat
p7914
aV,
aVindeed
p7915
aV,
aVis
p7916
aVa
aVnobler
p7917
aVornament
p7918
aVfor
p7919
aVchildren
p7920
aVthan
p7921
aVa
aVprospering
p7922
aVsire
p7923
aV's
p7924
aVfair
p7925
aVfame
p7926
aV,
aVor
p7927
aVfor
p7928
aVsire
p7929
aVthan
p7930
aVson
p7931
aV's
p7932
aV?
aa(lp7933
Vwear
p7934
aVnot
p7935
aV,
aVthen
p7936
aV,
aVone
p7937
aVmood
p7938
aVonly
p7939
aVin
p7940
aVthyself
p7941
aV;
aVthink
p7942
aVnot
p7943
aVthat
p7944
aVthy
p7945
aVword
p7946
aV,
aVand
p7947
aVthine
p7948
aValone
p7949
aV,
aVmust
p7950
aVbe
p7951
aVright
p7952
aV.
aa(lp7953
Vfor
p7954
aVif
p7955
aVany
p7956
aVman
p7957
aVthinks
p7958
aVthat
p7959
aVhe
p7960
aValone
p7961
aVis
p7962
aVwise
p7963
aV,
aV-that
p7964
aVin
p7965
aVspeech
p7966
aV,
aVor
p7967
aVin
p7968
aVmind
p7969
aV,
aVhe
p7970
aVhath
p7971
aVno
p7972
aVpeer
p7973
aV,
aV-such
p7974
aVa
aVsoul
p7975
aV,
aVwhen
p7976
aVlaid
p7977
aVopen
p7978
aV,
aVis
p7979
aVever
p7980
aVfound
p7981
aVempty
p7982
aV.
aa(lp7983
Vno
p7984
aV,
aVthough
p7985
aVa
aVman
p7986
aVbe
p7987
aVwise
p7988
aV,
aV't
p7989
aVis
p7990
aVno
p7991
aVshame
p7992
aVfor
p7993
aVhim
p7994
aVto
p7995
aVlearn
p7996
aVmany
p7997
aVthings
p7998
aV,
aVand
p7999
aVto
p8000
aVbend
p8001
aVin
p8002
aVseason
p8003
aV.
aa(lp8004
Vseest
p8005
aVthou
p8006
aV,
aVbeside
p8007
aVthe
p8008
aVwintry
p8009
aVtorrent
p8010
aV's
p8011
aVcourse
p8012
aV,
aVhow
p8013
aVthe
p8014
aVtrees
p8015
aVthat
p8016
aVyield
p8017
aVto
p8018
aVit
p8019
aVsave
p8020
aVevery
p8021
aVtwig
p8022
aV,
aVwhile
p8023
aVthe
p8024
aVstiff-necked
p8025
aVperish
p8026
aVroot
p8027
aVand
p8028
aVbranch
p8029
aV?
aa(lp8030
Vand
p8031
aVeven
p8032
aVthus
p8033
aVhe
p8034
aVwho
p8035
aVkeeps
p8036
aVthe
p8037
aVsheet
p8038
aVof
p8039
aVhis
p8040
aVsail
p8041
aVtaut
p8042
aV,
aVand
p8043
aVnever
p8044
aVslackens
p8045
aVit
p8046
aV,
aVupsets
p8047
aVhis
p8048
aVboat
p8049
aV,
aVand
p8050
aVfinishes
p8051
aVhis
p8052
aVvoyage
p8053
aVwith
p8054
aVkeel
p8055
aVuppermost
p8056
aV.
aa(lp8057
Vnay
p8058
aV,
aVforego
p8059
aVthy
p8060
aVwrath
p8061
aV;
aVpermit
p8062
aVthyself
p8063
aVto
p8064
aVchange
p8065
aV.
aa(lp8066
Vfor
p8067
aVif
p8068
aVi
aV,
aVa
aVyounger
p8069
aVman
p8070
aV,
aVmay
p8071
aVoffer
p8072
aVmy
p8073
aVthought
p8074
aV,
aVit
p8075
aVwere
p8076
aVfar
p8077
aVbest
p8078
aV,
aVi
aVween
p8079
aV,
aVthat
p8080
aVmen
p8081
aVshould
p8082
aVbe
p8083
aVall-wise
p8084
aVby
p8085
aVnature
p8086
aV;
aVbut
p8087
aV,
aVotherwise-and
p8088
aVoft
p8089
aVthe
p8090
aVscale
p8091
aVinclines
p8092
aVnot
p8093
aVso-'tis
p8094
aVgood
p8095
aValso
p8096
aVto
p8097
aVlearn
p8098
aVfrom
p8099
aVthose
p8100
aVwho
p8101
aVspeak
p8102
aVaright
p8103
aV.
aa(lp8104
Vleader
p8105
aVsire
p8106
aV,
aV't
p8107
aVis
p8108
aVmeet
p8109
aVthat
p8110
aVthou
p8111
aVshouldest
p8112
aVprofit
p8113
aVby
p8114
aVhis
p8115
aVwords
p8116
aV,
aVif
p8117
aVhe
p8118
aVspeaks
p8119
aVaught
p8120
aVin
p8121
aVseason
p8122
aV,
aVand
p8123
aVthou
p8124
aV,
aVhaemon
p8125
aV,
aVby
p8126
aVthy
p8127
aVfather
p8128
aV's
p8129
aV;
aVfor
p8130
aVon
p8131
aVboth
p8132
aVparts
p8133
aVthere
p8134
aVhath
p8135
aVbeen
p8136
aVwise
p8137
aVspeech
p8138
aV.
aa(lp8139
Vcreon
p8140
aVmen
p8141
aVof
p8142
aVmy
p8143
aVage
p8144
aVare
p8145
aVwe
p8146
aVindeed
p8147
aVto
p8148
aVbe
p8149
aVschooled
p8150
aV,
aVthen
p8151
aV,
aVby
p8152
aVmen
p8153
aVof
p8154
aVhis
p8155
aV?
aa(lp8156
Vhaemon
p8157
aVin
p8158
aVnothing
p8159
aVthat
p8160
aVis
p8161
aVnot
p8162
aVright
p8163
aV;
aVbut
p8164
aVif
p8165
aVi
aVam
p8166
aVyoung
p8167
aV,
aVthou
p8168
aVshouldest
p8169
aVlook
p8170
aVto
p8171
aVmy
p8172
aVmerits
p8173
aV,
aVnot
p8174
aVto
p8175
aVmy
p8176
aVyears
p8177
aV.
aa(lp8178
Vcreon
p8179
aVis
p8180
aVit
p8181
aVa
aVmerit
p8182
aVto
p8183
aVhonour
p8184
aVthe
p8185
aVunruly
p8186
aV?
aa(lp8187
Vhaemon
p8188
aVi
aVcould
p8189
aVwish
p8190
aVno
p8191
aVone
p8192
aVto
p8193
aVshow
p8194
aVrespect
p8195
aVfor
p8196
aVevil-doers
p8197
aV.
aa(lp8198
Vcreon
p8199
aVthen
p8200
aVis
p8201
aVnot
p8202
aVshe
p8203
aVtainted
p8204
aVwith
p8205
aVthat
p8206
aVmalady
p8207
aV?
aa(lp8208
Vhaemon
p8209
aVour
p8210
aVtheban
p8211
aVfolk
p8212
aV,
aVwith
p8213
aVone
p8214
aVvoice
p8215
aV,
aVdenies
p8216
aVit
p8217
aV.
aa(lp8218
Vcreon
p8219
aVshall
p8220
aVthebes
p8221
aVprescribe
p8222
aVto
p8223
aVme
p8224
aVhow
p8225
aVi
aVmust
p8226
aVrule
p8227
aV?
aa(lp8228
Vhaemon
p8229
aVsee
p8230
aV,
aVthere
p8231
aVthou
p8232
aVhast
p8233
aVspoken
p8234
aVlike
p8235
aVa
aVyouth
p8236
aVindeed
p8237
aV.
aa(lp8238
Vcreon
p8239
aVam
p8240
aVi
aVto
p8241
aVrule
p8242
aVthis
p8243
aVland
p8244
aVby
p8245
aVother
p8246
aVjudgment
p8247
aVthan
p8248
aVmine
p8249
aVown
p8250
aV?
aa(lp8251
Vhaemon
p8252
aVthat
p8253
aVis
p8254
aVno
p8255
aVcity
p8256
aVwhich
p8257
aVbelongs
p8258
aVto
p8259
aVone
p8260
aVman
p8261
aV.
aa(lp8262
Vcreon
p8263
aVis
p8264
aVnot
p8265
aVthe
p8266
aVcity
p8267
aVheld
p8268
aVto
p8269
aVbe
p8270
aVthe
p8271
aVruler
p8272
aV's
p8273
aV?
aa(lp8274
Vhaemon
p8275
aVthou
p8276
aVwouldst
p8277
aVmake
p8278
aVa
aVgood
p8279
aVmonarch
p8280
aVof
p8281
aVa
aVdesert
p8282
aV.
aa(lp8283
Vcreon
p8284
aVthis
p8285
aVboy
p8286
aV,
aVit
p8287
aVseems
p8288
aV,
aVis
p8289
aVthe
p8290
aVwoman
p8291
aV's
p8292
aVchampion
p8293
aV.
aa(lp8294
Vhaemon
p8295
aVif
p8296
aVthou
p8297
aVart
p8298
aVa
aVwoman
p8299
aV;
aVindeed
p8300
aV,
aVmy
p8301
aVcare
p8302
aVis
p8303
aVfor
p8304
aVthee
p8305
aV.
aa(lp8306
Vcreon
p8307
aVshameless
p8308
aV,
aVat
p8309
aVopen
p8310
aVfeud
p8311
aVwith
p8312
aVthy
p8313
aVfather
p8314
aV!
aa(lp8315
Vhaemon
p8316
aVnay
p8317
aV,
aVi
aVsee
p8318
aVthee
p8319
aVoffending
p8320
aVagainst
p8321
aVjustice
p8322
aV.
aa(lp8323
Vcreon
p8324
aVdo
p8325
aVi
aVoffend
p8326
aV,
aVwhen
p8327
aVi
aVrespect
p8328
aVmine
p8329
aVown
p8330
aVprerogatives
p8331
aV?
aa(lp8332
Vhaemon
p8333
aVthou
p8334
aVdost
p8335
aVnot
p8336
aVrespect
p8337
aVthem
p8338
aV,
aVwhen
p8339
aVthou
p8340
aVtramplest
p8341
aVon
p8342
aVthe
p8343
aVgods
p8344
aV'
aVhonours
p8345
aV,
aVcreon
p8346
aVo
aVdastard
p8347
aVnature
p8348
aV,
aVyielding
p8349
aVplace
p8350
aVto
p8351
aVwoman
p8352
aV!
aa(lp8353
Vhaemon
p8354
aVthou
p8355
aVwilt
p8356
aVnever
p8357
aVfind
p8358
aVme
p8359
aVyield
p8360
aVto
p8361
aVbaseness
p8362
aV.
aa(lp8363
Vcreon
p8364
aVall
p8365
aVthy
p8366
aVwords
p8367
aV,
aVat
p8368
aVleast
p8369
aV,
aVplead
p8370
aVfor
p8371
aVthat
p8372
aVgirl
p8373
aV.
aa(lp8374
Vhaemon
p8375
aVand
p8376
aVfor
p8377
aVthee
p8378
aV,
aVand
p8379
aVfor
p8380
aVme
p8381
aV,
aVand
p8382
aVfor
p8383
aVthe
p8384
aVgods
p8385
aVbelow
p8386
aV.
aa(lp8387
Vcreon
p8388
aVthou
p8389
aVcanst
p8390
aVnever
p8391
aVmarry
p8392
aVher
p8393
aV,
aVon
p8394
aVthis
p8395
aVside
p8396
aVthe
p8397
aVgrave
p8398
aV.
aa(lp8399
Vhaemon
p8400
aVthen
p8401
aVshe
p8402
aVmust
p8403
aVdie
p8404
aV,
aVand
p8405
aVin
p8406
aVdeath
p8407
aVdestroy
p8408
aVanother
p8409
aV.
aa(lp8410
Vcreon
p8411
aVhow
p8412
aV!
aa(lp8413
Vdoth
p8414
aVthy
p8415
aVboldness
p8416
aVrun
p8417
aVto
p8418
aVopen
p8419
aVthreats
p8420
aV?
aa(lp8421
Vhaemon
p8422
aVwhat
p8423
aVthreat
p8424
aVis
p8425
aVit
p8426
aV,
aVto
p8427
aVcombat
p8428
aVvain
p8429
aVresolves
p8430
aV?
aa(lp8431
Vcreon
p8432
aVthou
p8433
aVshalt
p8434
aVrue
p8435
aVthy
p8436
aVwitless
p8437
aVteaching
p8438
aVof
p8439
aVwisdom
p8440
aV.
aa(lp8441
Vhaemon
p8442
aVwert
p8443
aVthou
p8444
aVnot
p8445
aVmy
p8446
aVfather
p8447
aV,
aVi
aVwould
p8448
aVhave
p8449
aVcalled
p8450
aVthee
p8451
aVunwise
p8452
aV.
aa(lp8453
Vcreon
p8454
aVthou
p8455
aVwoman
p8456
aV's
p8457
aVslave
p8458
aV,
aVuse
p8459
aVnot
p8460
aVwheedling
p8461
aVspeech
p8462
aVwith
p8463
aVme
p8464
aV.
aa(lp8465
Vhaemon
p8466
aVthou
p8467
aVwouldest
p8468
aVspeak
p8469
aV,
aVand
p8470
aVthen
p8471
aVhear
p8472
aVno
p8473
aVreply
p8474
aV?
aa(lp8475
Vcreon
p8476
aVsayest
p8477
aVthou
p8478
aVso
p8479
aV?
aa(lp8480
Vnow
p8481
aV,
aVby
p8482
aVthe
p8483
aVheaven
p8484
aVabove
p8485
aVus-be
p8486
aVsure
p8487
aVof
p8488
aVit-thou
p8489
aVshalt
p8490
aVsmart
p8491
aVfor
p8492
aVtaunting
p8493
aVme
p8494
aVin
p8495
aVthis
p8496
aVopprobrious
p8497
aVstrain
p8498
aV.
aa(lp8499
Vbring
p8500
aVforth
p8501
aVthat
p8502
aVhated
p8503
aVthing
p8504
aV,
aVthat
p8505
aVshe
p8506
aVmay
p8507
aVdie
p8508
aVforthwith
p8509
aVin
p8510
aVhis
p8511
aVpresence-before
p8512
aVhis
p8513
aVeyes-at
p8514
aVher
p8515
aVbridegroom
p8516
aV's
p8517
aVside
p8518
aV!
aa(lp8519
Vhaemon
p8520
aVno
p8521
aV,
aVnot
p8522
aVat
p8523
aVmy
p8524
aVside-never
p8525
aVthink
p8526
aVit-shall
p8527
aVshe
p8528
aVperish
p8529
aV;
aVnor
p8530
aVshalt
p8531
aVthou
p8532
aVever
p8533
aVset
p8534
aVeyes
p8535
aVmore
p8536
aVupon
p8537
aVmy
p8538
aVface
p8539
aV:
aV-rave
p8540
aV,
aVthen
p8541
aV,
aVwith
p8542
aVsuch
p8543
aVfriends
p8544
aVas
p8545
aVcan
p8546
aVendure
p8547
aVthee
p8548
aV.
aa(lp8549
Vexit
p8550
aVhaemon
p8551
aVleader
p8552
aVthe
p8553
aVman
p8554
aVis
p8555
aVgone
p8556
aV,
aVo
aVking
p8557
aV,
aVin
p8558
aVangry
p8559
aVhaste
p8560
aV;
aVa
aVyouthful
p8561
aVmind
p8562
aV,
aVwhen
p8563
aVstung
p8564
aV,
aVis
p8565
aVfierce
p8566
aV.
aa(lp8567
Vcreon
p8568
aVlet
p8569
aVhim
p8570
aVdo
p8571
aV,
aVor
p8572
aVdream
p8573
aV,
aVmore
p8574
aVthan
p8575
aVman-good
p8576
aVspeed
p8577
aVto
p8578
aVhim
p8579
aV!
aV-but
p8580
aVhe
p8581
aVshall
p8582
aVnot
p8583
aVsave
p8584
aVthese
p8585
aVtwo
p8586
aVgirls
p8587
aVfrom
p8588
aVtheir
p8589
aVdoom
p8590
aV.
aa(lp8591
Vleader
p8592
aVdost
p8593
aVthou
p8594
aVindeed
p8595
aVpurpose
p8596
aVto
p8597
aVslay
p8598
aVboth
p8599
aV?
aa(lp8600
Vcreon
p8601
aVnot
p8602
aVher
p8603
aVwhose
p8604
aVhands
p8605
aVare
p8606
aVpure
p8607
aV:
aVthou
p8608
aVsayest
p8609
aVwell
p8610
aV.
aa(lp8611
Vleader
p8612
aVand
p8613
aVby
p8614
aVwhat
p8615
aVdoom
p8616
aVmean'st
p8617
aVthou
p8618
aVto
p8619
aVslay
p8620
aVthe
p8621
aVother
p8622
aV?
aa(lp8623
Vcreon
p8624
aVi
aVwill
p8625
aVtake
p8626
aVher
p8627
aVwhere
p8628
aVthe
p8629
aVpath
p8630
aVis
p8631
aVloneliest
p8632
aV,
aVand
p8633
aVhide
p8634
aVher
p8635
aV,
aVliving
p8636
aV,
aVin
p8637
aVrocky
p8638
aVvault
p8639
aV,
aVwith
p8640
aVso
p8641
aVmuch
p8642
aVfood
p8643
aVset
p8644
aVforth
p8645
aVas
p8646
aVpiety
p8647
aVprescribes
p8648
aV,
aVthat
p8649
aVthe
p8650
aVcity
p8651
aVmay
p8652
aVavoid
p8653
aVa
aVpublic
p8654
aVstain
p8655
aV.
aa(lp8656
Vand
p8657
aVthere
p8658
aV,
aVpraying
p8659
aVto
p8660
aVhades
p8661
aV,
aVthe
p8662
aVonly
p8663
aVgod
p8664
aVwhom
p8665
aVshe
p8666
aVworships
p8667
aV,
aVperchance
p8668
aVshe
p8669
aVwill
p8670
aVobtain
p8671
aVrelease
p8672
aVfrom
p8673
aVdeath
p8674
aV;
aVor
p8675
aVelse
p8676
aVwill
p8677
aVlearn
p8678
aV,
aVat
p8679
aVlast
p8680
aV,
aVthough
p8681
aVlate
p8682
aV,
aVthat
p8683
aVit
p8684
aVis
p8685
aVlost
p8686
aVlabour
p8687
aVto
p8688
aVrevere
p8689
aVthe
p8690
aVdead
p8691
aV.
aa(lp8692
Vcreon
p8693
aVgoes
p8694
aVinto
p8695
aVthe
p8696
aVpalace
p8697
aV.
aa(lp8698
Vchorus
p8699
aVsinging
p8700
aVstrophe
p8701
aVlove
p8702
aV,
aVunconquered
p8703
aVin
p8704
aVthe
p8705
aVfight
p8706
aV,
aVlove
p8707
aV,
aVwho
p8708
aVmakest
p8709
aVhavoc
p8710
aVof
p8711
aVwealth
p8712
aV,
aVwho
p8713
aVkeepest
p8714
aVthy
p8715
aVvigil
p8716
aVon
p8717
aVthe
p8718
aVsoft
p8719
aVcheek
p8720
aVof
p8721
aVa
aVmaiden
p8722
aV;
aVthou
p8723
aVroamest
p8724
aVover
p8725
aVthe
p8726
aVsea
p8727
aV,
aVand
p8728
aVamong
p8729
aVthe
p8730
aVhomes
p8731
aVof
p8732
aVdwellers
p8733
aVin
p8734
aVthe
p8735
aVwilds
p8736
aV;
aVno
p8737
aVimmortal
p8738
aVcan
p8739
aVescape
p8740
aVthee
p8741
aV,
aVnor
p8742
aVany
p8743
aVamong
p8744
aVmen
p8745
aVwhose
p8746
aVlife
p8747
aVis
p8748
aVfor
p8749
aVa
aVday
p8750
aV;
aVand
p8751
aVhe
p8752
aVto
p8753
aVwhom
p8754
aVthou
p8755
aVhast
p8756
aVcome
p8757
aVis
p8758
aVmad
p8759
aV.
aa(lp8760
Vantistrophe
p8761
aVthe
p8762
aVjust
p8763
aVthemselves
p8764
aVhave
p8765
aVtheir
p8766
aVminds
p8767
aVwarped
p8768
aVby
p8769
aVthee
p8770
aVto
p8771
aVwrong
p8772
aV,
aVfor
p8773
aVtheir
p8774
aVruin
p8775
aV:
aV't
p8776
aVis
p8777
aVthou
p8778
aVthat
p8779
aVhast
p8780
aVstirred
p8781
aVup
p8782
aVthis
p8783
aVpresent
p8784
aVstrife
p8785
aVof
p8786
aVkinsmen
p8787
aV;
aVvictorious
p8788
aVis
p8789
aVthe
p8790
aVlove-kindling
p8791
aVlight
p8792
aVfrom
p8793
aVthe
p8794
aVeyes
p8795
aVof
p8796
aVthe
p8797
aVfair
p8798
aVbride
p8799
aV;
aVit
p8800
aVis
p8801
aVa
aVpower
p8802
aVenthroned
p8803
aVin
p8804
aVsway
p8805
aVbeside
p8806
aVthe
p8807
aVeternal
p8808
aVlaws
p8809
aV;
aVfor
p8810
aVthere
p8811
aVthe
p8812
aVgoddess
p8813
aVaphrodite
p8814
aVis
p8815
aVworking
p8816
aVher
p8817
aVunconquerable
p8818
aVwill
p8819
aV.
aa(lp8820
Vantigone
p8821
aVis
p8822
aVled
p8823
aVout
p8824
aVof
p8825
aVthe
p8826
aVpalace
p8827
aVby
p8828
aVtwo
p8829
aVof
p8830
aVcreon
p8831
aV's
p8832
aVattendants
p8833
aVwho
p8834
aVare
p8835
aVabout
p8836
aVto
p8837
aVconduct
p8838
aVher
p8839
aVto
p8840
aVher
p8841
aVdoom
p8842
aV.
aa(lp8843
Vbut
p8844
aVnow
p8845
aVi
aValso
p8846
aVam
p8847
aVcarried
p8848
aVbeyond
p8849
aVthe
p8850
aVbounds
p8851
aVof
p8852
aVloyalty
p8853
aV,
aVand
p8854
aVcan
p8855
aVno
p8856
aVmore
p8857
aVkeep
p8858
aVback
p8859
aVthe
p8860
aVstreaming
p8861
aVtears
p8862
aV,
aVwhen
p8863
aVi
aVsee
p8864
aVantigone
p8865
aVthus
p8866
aVpassing
p8867
aVto
p8868
aVthe
p8869
aVbridal
p8870
aVchamber
p8871
aVwhere
p8872
aVall
p8873
aVare
p8874
aVlaid
p8875
aVto
p8876
aVrest
p8877
aV.
aa(lp8878
Vthe
p8879
aVfollowing
p8880
aVlines
p8881
aVbetween
p8882
aVantigone
p8883
aVand
p8884
aVthe
p8885
aVchorus
p8886
aVare
p8887
aVchanted
p8888
aVresponsively
p8889
aV.
aa(lp8890
Vantigone
p8891
aVstrophe
p8892
aV1
aVsee
p8893
aVme
p8894
aV,
aVcitizens
p8895
aVof
p8896
aVmy
p8897
aVfatherland
p8898
aV,
aVsetting
p8899
aVforth
p8900
aVon
p8901
aVmy
p8902
aVlast
p8903
aVway
p8904
aV,
aVlooking
p8905
aVmy
p8906
aVlast
p8907
aVon
p8908
aVthe
p8909
aVsunlight
p8910
aVthat
p8911
aVis
p8912
aVfor
p8913
aVme
p8914
aVno
p8915
aVmore
p8916
aV;
aVno
p8917
aV,
aVhades
p8918
aVwho
p8919
aVgives
p8920
aVsleep
p8921
aVto
p8922
aVall
p8923
aVleads
p8924
aVme
p8925
aVliving
p8926
aVto
p8927
aVacheron
p8928
aV's
p8929
aVshore
p8930
aV;
aVwho
p8931
aVhave
p8932
aVhad
p8933
aVno
p8934
aVportion
p8935
aVin
p8936
aVthe
p8937
aVchant
p8938
aVthat
p8939
aVbrings
p8940
aVthe
p8941
aVbride
p8942
aV,
aVnor
p8943
aVhath
p8944
aVany
p8945
aVsong
p8946
aVbeen
p8947
aVmine
p8948
aVfor
p8949
aVthe
p8950
aVcrowning
p8951
aVof
p8952
aVbridals
p8953
aV;
aVwhom
p8954
aVthe
p8955
aVlord
p8956
aVof
p8957
aVthe
p8958
aVdark
p8959
aVlake
p8960
aVshall
p8961
aVwed.
p8962
aVchorus
p8963
aVsystema
p8964
aV1
aVglorious
p8965
aV,
aVtherefore
p8966
aV,
aVand
p8967
aVwith
p8968
aVpraise
p8969
aV,
aVthou
p8970
aVdepartest
p8971
aVto
p8972
aVthat
p8973
aVdeep
p8974
aVplace
p8975
aVof
p8976
aVthe
p8977
aVdead
p8978
aV:
aVwasting
p8979
aVsickness
p8980
aVhath
p8981
aVnot
p8982
aVsmitten
p8983
aVthee
p8984
aV;
aVthou
p8985
aVhast
p8986
aVnot
p8987
aVfound
p8988
aVthe
p8989
aVwages
p8990
aVof
p8991
aVthe
p8992
aVsword
p8993
aV;
aVno
p8994
aV,
aVmistress
p8995
aVof
p8996
aVthine
p8997
aVown
p8998
aVfate
p8999
aV,
aVand
p9000
aVstill
p9001
aValive
p9002
aV,
aVthou
p9003
aVshalt
p9004
aVpass
p9005
aVto
p9006
aVhades
p9007
aV,
aVas
p9008
aVno
p9009
aVother
p9010
aVof
p9011
aVmortal
p9012
aVkind
p9013
aVhath
p9014
aVpassed
p9015
aV.
aa(lp9016
Vantigone
p9017
aVantistrophe
p9018
aV1
aVi
aVhave
p9019
aVheard
p9020
aVin
p9021
aVother
p9022
aVdays
p9023
aVhow
p9024
aVdread
p9025
aVa
aVdoom
p9026
aVbefell
p9027
aVour
p9028
aVphrygian
p9029
aVguest
p9030
aV,
aVthe
p9031
aVdaughter
p9032
aVof
p9033
aVtantalus
p9034
aV,
aVon
p9035
aVthe
p9036
aVsipylian
p9037
aVheights
p9038
aV;
aVi
aVhow
p9039
aV,
aVlike
p9040
aVclinging
p9041
aVivy
p9042
aV,
aVthe
p9043
aVgrowth
p9044
aVof
p9045
aVstone
p9046
aVsubdued
p9047
aVher
p9048
aV;
aVand
p9049
aVthe
p9050
aVrains
p9051
aVfail
p9052
aVnot
p9053
aV,
aVas
p9054
aVmen
p9055
aVtell
p9056
aV,
aVfrom
p9057
aVher
p9058
aVwasting
p9059
aVform
p9060
aV,
aVnor
p9061
aVfails
p9062
aVthe
p9063
aVsnow
p9064
aV,
aVwhile
p9065
aVbeneath
p9066
aVher
p9067
aVweeping
p9068
aVlids
p9069
aVthe
p9070
aVtears
p9071
aVbedew
p9072
aVher
p9073
aVbosom
p9074
aV;
aVand
p9075
aVmost
p9076
aVlike
p9077
aVto
p9078
aVhers
p9079
aVis
p9080
aVthe
p9081
aVfate
p9082
aVthat
p9083
aVbrings
p9084
aVme
p9085
aVto
p9086
aVmy
p9087
aVrest
p9088
aV.
aa(lp9089
Vchorus
p9090
aVsystema
p9091
aV2
aVyet
p9092
aVshe
p9093
aVwas
p9094
aVa
aVgoddess
p9095
aV,
aVthou
p9096
aVknowest
p9097
aV,
aVand
p9098
aVborn
p9099
aVof
p9100
aVgods
p9101
aV;
aVwe
p9102
aVare
p9103
aVmortals
p9104
aV,
aVand
p9105
aVof
p9106
aVmortal
p9107
aVrace
p9108
aV.
aa(lp9109
Vbut
p9110
aV't
p9111
aVis
p9112
aVgreat
p9113
aVrenown
p9114
aVfor
p9115
aVa
aVwoman
p9116
aVwho
p9117
aVhath
p9118
aVperished
p9119
aVthat
p9120
aVshe
p9121
aVshould
p9122
aVhave
p9123
aVshared
p9124
aVthe
p9125
aVdoom
p9126
aVof
p9127
aVthe
p9128
aVgodlike
p9129
aV,
aVin
p9130
aVher
p9131
aVlife
p9132
aV,
aVand
p9133
aVafterward
p9134
aVin
p9135
aVdeath
p9136
aV.
aa(lp9137
Vantigone
p9138
aVstrophe
p9139
aV2
aVah
p9140
aV,
aVi
aVam
p9141
aVmocked
p9142
aV!
aa(lp9143
Vin
p9144
aVthe
p9145
aVname
p9146
aVof
p9147
aVour
p9148
aVfathers
p9149
aV'
aVgods
p9150
aV,
aVcan
p9151
aVye
p9152
aVnot
p9153
aVwait
p9154
aVtill
p9155
aVi
aVam
p9156
aVgone
p9157
aV,
aV-must
p9158
aVye
p9159
aVtaunt
p9160
aVme
p9161
aVto
p9162
aVmy
p9163
aVface
p9164
aV,
aVo
aVmy
p9165
aVcity
p9166
aV,
aVand
p9167
aVye
p9168
aV,
aVher
p9169
aVwealthy
p9170
aVsons
p9171
aV?
aa(lp9172
Vah
p9173
aV,
aVfount
p9174
aVof
p9175
aVdirce
p9176
aV,
aVand
p9177
aVthou
p9178
aVholy
p9179
aVground
p9180
aVof
p9181
aVthebe
p9182
aVwhose
p9183
aVchariots
p9184
aVare
p9185
aVmany
p9186
aV;
aVye
p9187
aV,
aVat
p9188
aVleast
p9189
aV,
aVwill
p9190
aVbear
p9191
aVme
p9192
aVwitness
p9193
aV,
aVin
p9194
aVwhat
p9195
aVsort
p9196
aV,
aVunwept
p9197
aVof
p9198
aVfriends
p9199
aV,
aVand
p9200
aVby
p9201
aVwhat
p9202
aVlaws
p9203
aVi
aVpass
p9204
aVto
p9205
aVthe
p9206
aVrock-closed
p9207
aVprison
p9208
aVof
p9209
aVmy
p9210
aVstrange
p9211
aVtomb
p9212
aV,
aVah
p9213
aVme
p9214
aVunhappy
p9215
aV!
aa(lp9216
Vwho
p9217
aVhave
p9218
aVno
p9219
aVhome
p9220
aVon
p9221
aVthe
p9222
aVearth
p9223
aVor
p9224
aVin
p9225
aVthe
p9226
aVshades
p9227
aV,
aVno
p9228
aVhome
p9229
aVwith
p9230
aVthe
p9231
aVliving
p9232
aVor
p9233
aVwith
p9234
aVthe
p9235
aVdead
p9236
aV.
aa(lp9237
Vchorus
p9238
aVstrophe
p9239
aV3
aVthou
p9240
aVhast
p9241
aVrushed
p9242
aVforward
p9243
aVto
p9244
aVthe
p9245
aVutmost
p9246
aVverge
p9247
aVof
p9248
aVdaring
p9249
aV;
aVand
p9250
aVagainst
p9251
aVthat
p9252
aVthrone
p9253
aVwhere
p9254
aVjustice
p9255
aVsits
p9256
aVon
p9257
aVhigh
p9258
aVthou
p9259
aVhast
p9260
aVfallen
p9261
aV,
aVmy
p9262
aVdaughter
p9263
aV,
aVwith
p9264
aVa
aVgrievous
p9265
aVfall
p9266
aV.
aa(lp9267
Vbut
p9268
aVin
p9269
aVthis
p9270
aVordeal
p9271
aVthou
p9272
aVart
p9273
aVpaying
p9274
aV,
aVhaply
p9275
aV,
aVfor
p9276
aVthy
p9277
aVfather
p9278
aV's
p9279
aVsin
p9280
aV.
aa(lp9281
Vantigone
p9282
aVantistrophe
p9283
aV2
aVthou
p9284
aVhast
p9285
aVtouched
p9286
aVon
p9287
aVmy
p9288
aVbitterest
p9289
aVthought
p9290
aV,
aV-awaking
p9291
aVthe
p9292
aVever-new
p9293
aVlament
p9294
aVfor
p9295
aVmy
p9296
aVsire
p9297
aVand
p9298
aVfor
p9299
aVall
p9300
aVthe
p9301
aVdoom
p9302
aVgiven
p9303
aVto
p9304
aVus
p9305
aV,
aVthe
p9306
aVfamed
p9307
aVhouse
p9308
aVof
p9309
aVlabdacus
p9310
aV.
aa(lp9311
Valas
p9312
aVfor
p9313
aVthe
p9314
aVhorrors
p9315
aVof
p9316
aVthe
p9317
aVmother
p9318
aV's
p9319
aVbed
p9320
aV!
aa(lp9321
Valas
p9322
aVfor
p9323
aVthe
p9324
aVwretched
p9325
aVmother
p9326
aV's
p9327
aVslumber
p9328
aVat
p9329
aVthe
p9330
aVside
p9331
aVof
p9332
aVher
p9333
aVown
p9334
aVson
p9335
aV,
aV-and
p9336
aVmy
p9337
aVsire
p9338
aV!
aa(lp9339
Vfrom
p9340
aVwhat
p9341
aVmanner
p9342
aVof
p9343
aVparents
p9344
aVdid
p9345
aVi
aVtake
p9346
aVmy
p9347
aVmiserable
p9348
aVbeing
p9349
aV!
aa(lp9350
Vand
p9351
aVto
p9352
aVthem
p9353
aVi
aVgo
p9354
aVthus
p9355
aV,
aVaccursed
p9356
aV,
aVunwed
p9357
aV,
aVto
p9358
aVshare
p9359
aVtheir
p9360
aVhome
p9361
aV.
aa(lp9362
Valas
p9363
aV,
aVmy
p9364
aVbrother
p9365
aV,
aVill-starred
p9366
aVin
p9367
aVthy
p9368
aVmarriage
p9369
aV,
aVin
p9370
aVthy
p9371
aVdeath
p9372
aVthou
p9373
aVhast
p9374
aVundone
p9375
aVmy
p9376
aVlife
p9377
aV!
aa(lp9378
Vchorus
p9379
aVantistrophe
p9380
aV3
aVreverent
p9381
aVaction
p9382
aVclaims
p9383
aVa
aVcertain
p9384
aVpraise
p9385
aVfor
p9386
aVreverence
p9387
aV;
aVbut
p9388
aVan
p9389
aVoffence
p9390
aVagainst
p9391
aVpower
p9392
aVcan
p9393
aVnot
p9394
aVbe
p9395
aVbrooked
p9396
aVby
p9397
aVhim
p9398
aVwho
p9399
aVhath
p9400
aVpower
p9401
aVin
p9402
aVhis
p9403
aVkeeping
p9404
aV.
aa(lp9405
Vthy
p9406
aVself-willed
p9407
aVtemper
p9408
aVhath
p9409
aVwrought
p9410
aVthy
p9411
aVruin
p9412
aV.
aa(lp9413
Vantigone
p9414
aVepode
p9415
aVunwept
p9416
aV,
aVunfriended
p9417
aV,
aVwithout
p9418
aVmarriage-song
p9419
aV,
aVi
aVam
p9420
aVled
p9421
aVforth
p9422
aVin
p9423
aVmy
p9424
aVsorrow
p9425
aVon
p9426
aVthis
p9427
aVjourney
p9428
aVthat
p9429
aVcan
p9430
aVbe
p9431
aVdelayed
p9432
aVno
p9433
aVmore
p9434
aV.
aa(lp9435
Vno
p9436
aVlonger
p9437
aV,
aVhapless
p9438
aVone
p9439
aV,
aVmay
p9440
aVi
aVbehold
p9441
aVyon
p9442
aVday-star
p9443
aV's
p9444
aVsacred
p9445
aVeye
p9446
aV;
aVbut
p9447
aVfor
p9448
aVmy
p9449
aVfate
p9450
aVno
p9451
aVtear
p9452
aVis
p9453
aVshed
p9454
aV,
aVno
p9455
aVfriend
p9456
aVmakes
p9457
aVmoan
p9458
aV.
aa(lp9459
Vcreon
p9460
aVenters
p9461
aVfrom
p9462
aVthe
p9463
aVpalace
p9464
aV.
aa(lp9465
Vcreon
p9466
aVknow
p9467
aVye
p9468
aVnot
p9469
aVthat
p9470
aVsongs
p9471
aVand
p9472
aVwailings
p9473
aVbefore
p9474
aVdeath
p9475
aVwould
p9476
aVnever
p9477
aVcease
p9478
aV,
aVif
p9479
aVit
p9480
aVprofited
p9481
aVto
p9482
aVutter
p9483
aVthem
p9484
aV?
aa(lp9485
Vaway
p9486
aVwith
p9487
aVher-away
p9488
aV!
aa(lp9489
Vand
p9490
aVwhen
p9491
aVye
p9492
aVhave
p9493
aVenclosed
p9494
aVher
p9495
aV,
aVaccording
p9496
aVto
p9497
aVmy
p9498
aVword
p9499
aV,
aVin
p9500
aVher
p9501
aVvaulted
p9502
aVgrave
p9503
aV,
aVleave
p9504
aVher
p9505
aValone
p9506
aV,
aVforlorn-whether
p9507
aVshe
p9508
aVwishes
p9509
aVto
p9510
aVdie
p9511
aV,
aVor
p9512
aVto
p9513
aVlive
p9514
aVa
aVburied
p9515
aVlife
p9516
aVin
p9517
aVsuch
p9518
aVa
aVhome
p9519
aV.
aa(lp9520
Vour
p9521
aVhands
p9522
aVare
p9523
aVclean
p9524
aVas
p9525
aVtouching
p9526
aVthis
p9527
aVmaiden
p9528
aV.
aa(lp9529
Vbut
p9530
aVthis
p9531
aVis
p9532
aVcertain-she
p9533
aVshall
p9534
aVbe
p9535
aVdeprived
p9536
aVof
p9537
aVher
p9538
aVsojourn
p9539
aVin
p9540
aVthe
p9541
aVlight
p9542
aV.
aa(lp9543
Vantigone
p9544
aVtomb
p9545
aV,
aVbridal-chamber
p9546
aV,
aVeternal
p9547
aVprison
p9548
aVin
p9549
aVthe
p9550
aVcaverned
p9551
aVrock
p9552
aV,
aVwhither
p9553
aVgo
p9554
aVto
p9555
aVfind
p9556
aVmine
p9557
aVown
p9558
aV,
aVthose
p9559
aVmany
p9560
aVwho
p9561
aVhave
p9562
aVperished
p9563
aV,
aVand
p9564
aVwhom
p9565
aVpersephone
p9566
aVhath
p9567
aVreceived
p9568
aVamong
p9569
aVthe
p9570
aVdead
p9571
aV!
aa(lp9572
Vlast
p9573
aVof
p9574
aVall
p9575
aVshall
p9576
aVi
aVpass
p9577
aVthither
p9578
aV,
aVand
p9579
aVfar
p9580
aVmost
p9581
aVmiserably
p9582
aVof
p9583
aVall
p9584
aV,
aVbefore
p9585
aVthe
p9586
aVterm
p9587
aVof
p9588
aVmy
p9589
aVlife
p9590
aVis
p9591
aVspent
p9592
aV.
aa(lp9593
Vbut
p9594
aVi
aVcherish
p9595
aVgood
p9596
aVhope
p9597
aVthat
p9598
aVmy
p9599
aVcoming
p9600
aVwill
p9601
aVbe
p9602
aVwelcome
p9603
aVto
p9604
aVmy
p9605
aVfather
p9606
aV,
aVand
p9607
aVpleasant
p9608
aVto
p9609
aVthee
p9610
aV,
aVmy
p9611
aVmother
p9612
aV,
aVand
p9613
aVwelcome
p9614
aV,
aVbrother
p9615
aV,
aVto
p9616
aVthee
p9617
aV;
aVfor
p9618
aV,
aVwhen
p9619
aVye
p9620
aVdied
p9621
aV,
aVwith
p9622
aVmine
p9623
aVown
p9624
aVhands
p9625
aVi
aVwashed
p9626
aVand
p9627
aVdressed
p9628
aVyou
p9629
aV,
aVand
p9630
aVpoured
p9631
aVdrink-offerings
p9632
aVat
p9633
aVyour
p9634
aVgraves
p9635
aV;
aVand
p9636
aVnow
p9637
aV,
aVpolyneices
p9638
aV,
aV't
p9639
aVis
p9640
aVfor
p9641
aVtending
p9642
aVthy
p9643
aVcorpse
p9644
aVthat
p9645
aVi
aVwin
p9646
aVsuch
p9647
aVrecompense
p9648
aVas
p9649
aVthis
p9650
aV.
aa(lp9651
Vand
p9652
aVyet
p9653
aVi
aVhonoured
p9654
aVthee
p9655
aV,
aVas
p9656
aVthe
p9657
aVwise
p9658
aVwill
p9659
aVdeem
p9660
aV,
aVrightly
p9661
aV.
aa(lp9662
Vnever
p9663
aV,
aVhad
p9664
aVbeen
p9665
aVa
aVmother
p9666
aVof
p9667
aVchildren
p9668
aV,
aVor
p9669
aVif
p9670
aVa
aVhusband
p9671
aVhad
p9672
aVbeen
p9673
aVmouldering
p9674
aVin
p9675
aVdeath
p9676
aV,
aVwould
p9677
aVi
aVhave
p9678
aVtaken
p9679
aVthis
p9680
aVtask
p9681
aVupon
p9682
aVme
p9683
aVin
p9684
aVthe
p9685
aVcity
p9686
aV's
p9687
aVdespite
p9688
aV.
aa(lp9689
Vwhat
p9690
aVlaw
p9691
aV,
aVye
p9692
aVask
p9693
aV,
aVis
p9694
aVmy
p9695
aVwarrant
p9696
aVfor
p9697
aVthat
p9698
aVword
p9699
aV?
aa(lp9700
Vthe
p9701
aVhusband
p9702
aVlost
p9703
aV,
aVanother
p9704
aVmight
p9705
aVhave
p9706
aVbeen
p9707
aVfound
p9708
aV,
aVand
p9709
aVchild
p9710
aVfrom
p9711
aVanother
p9712
aV,
aVto
p9713
aVreplace
p9714
aVthe
p9715
aVfirst-born
p9716
aV:
aVbut
p9717
aV,
aVfather
p9718
aVand
p9719
aVmother
p9720
aVhidden
p9721
aVwith
p9722
aVhades
p9723
aV,
aVno
p9724
aVbrother
p9725
aV's
p9726
aVlife
p9727
aVcould
p9728
aVever
p9729
aVbloom
p9730
aVfor
p9731
aVme
p9732
aVagain
p9733
aV.
aa(lp9734
Vsuch
p9735
aVwas
p9736
aVthe
p9737
aVlaw
p9738
aVwhereby
p9739
aVi
aVheld
p9740
aVthee
p9741
aVfirst
p9742
aVin
p9743
aVhonour
p9744
aV;
aVbut
p9745
aVcreon
p9746
aVdeemed
p9747
aVme
p9748
aVguilty
p9749
aVof
p9750
aVerror
p9751
aVtherein
p9752
aV,
aVand
p9753
aVof
p9754
aVoutrage
p9755
aV,
aVah
p9756
aVbrother
p9757
aVmine
p9758
aV!
aa(lp9759
Vand
p9760
aVnow
p9761
aVhe
p9762
aVleads
p9763
aVme
p9764
aVthus
p9765
aV,
aVa
aVcaptive
p9766
aVin
p9767
aVhis
p9768
aVhands
p9769
aV;
aVno
p9770
aVbridal
p9771
aVbed
p9772
aV,
aVno
p9773
aVbridal
p9774
aVsong
p9775
aVhath
p9776
aVbeen
p9777
aVmine
p9778
aV,
aVno
p9779
aVjoy
p9780
aVof
p9781
aVmarriage
p9782
aV,
aVno
p9783
aVportion
p9784
aVin
p9785
aVthe
p9786
aVnurture
p9787
aVof
p9788
aVchildren
p9789
aV;
aVbut
p9790
aVthus
p9791
aV,
aVforlorn
p9792
aVof
p9793
aVfriends
p9794
aV,
aVunhappy
p9795
aVone
p9796
aV,
aVi
aVgo
p9797
aVliving
p9798
aVto
p9799
aVthe
p9800
aVvaults
p9801
aVof
p9802
aVdeath
p9803
aV.
aa(lp9804
Vand
p9805
aVwhat
p9806
aVlaw
p9807
aVof
p9808
aVheaven
p9809
aVhave
p9810
aVi
aVtransgressed
p9811
aV?
aa(lp9812
Vwhy
p9813
aV,
aVhapless
p9814
aVone
p9815
aV,
aVshould
p9816
aVi
aVlook
p9817
aVto
p9818
aVthe
p9819
aVgods
p9820
aVany
p9821
aVmore
p9822
aV,
aV-what
p9823
aVally
p9824
aVshould
p9825
aVi
aVinvoke
p9826
aV,
aV-when
p9827
aVby
p9828
aVpiety
p9829
aVi
aVhave
p9830
aVearned
p9831
aVthe
p9832
aVname
p9833
aVof
p9834
aVimpious
p9835
aV?
aa(lp9836
Vnay
p9837
aV,
aVthen
p9838
aV,
aVif
p9839
aVthese
p9840
aVthings
p9841
aVare
p9842
aVpleasing
p9843
aVto
p9844
aVthe
p9845
aVgods
p9846
aV,
aVwhen
p9847
aVi
aVhave
p9848
aVsuffered
p9849
aVmy
p9850
aVdoom
p9851
aV,
aVi
aVshall
p9852
aVcome
p9853
aVto
p9854
aVknow
p9855
aVmy
p9856
aVsin
p9857
aV;
aVbut
p9858
aVif
p9859
aVthe
p9860
aVsin
p9861
aVis
p9862
aVwith
p9863
aVmy
p9864
aVjudges
p9865
aV,
aVi
aVcould
p9866
aVwish
p9867
aVthem
p9868
aVno
p9869
aVfuller
p9870
aVmeasure
p9871
aVof
p9872
aVevil
p9873
aVthan
p9874
aVthey
p9875
aV,
aVon
p9876
aVtheir
p9877
aVpart
p9878
aV,
aVmete
p9879
aVwrongfully
p9880
aVto
p9881
aVme
p9882
aV.
aa(lp9883
Vchorus
p9884
aVstill
p9885
aVthe
p9886
aVsame
p9887
aVtempest
p9888
aVof
p9889
aVthe
p9890
aVsoul
p9891
aVvexes
p9892
aVthis
p9893
aVmaiden
p9894
aVwith
p9895
aVthe
p9896
aVsame
p9897
aVfierce
p9898
aVgusts
p9899
aV.
aa(lp9900
Vcreon
p9901
aVthen
p9902
aVfor
p9903
aVthis
p9904
aVshall
p9905
aVher
p9906
aVguards
p9907
aVhave
p9908
aVcause
p9909
aVto
p9910
aVrue
p9911
aVtheir
p9912
aVslowness
p9913
aV.
aa(lp9914
Vantigone
p9915
aVah
p9916
aVme
p9917
aV!
aa(lp9918
Vthat
p9919
aVword
p9920
aVhath
p9921
aVcome
p9922
aVvery
p9923
aVnear
p9924
aVto
p9925
aVdeath
p9926
aV.
aa(lp9927
Vcreon
p9928
aVi
aVcan
p9929
aVcheer
p9930
aVthee
p9931
aVwith
p9932
aVno
p9933
aVhope
p9934
aVthat
p9935
aVthis
p9936
aVdoom
p9937
aVis
p9938
aVnot
p9939
aVthus
p9940
aVto
p9941
aVbe
p9942
aVfulfilled
p9943
aV.
aa(lp9944
Vantigone
p9945
aVo
aVcity
p9946
aVof
p9947
aVmy
p9948
aVfathers
p9949
aVin
p9950
aVthe
p9951
aVland
p9952
aVof
p9953
aVthebe
p9954
aV!
aa(lp9955
Vo
aVye
p9956
aVgods
p9957
aV,
aVeldest
p9958
aVof
p9959
aVour
p9960
aVrace
p9961
aV!
aV-they
p9962
aVlead
p9963
aVme
p9964
aVhenc
p9965
aV--
p9966
aVnow
p9967
aV,
aVnow-they
p9968
aVtarry
p9969
aVnot
p9970
aV!
aa(lp9971
Vbehold
p9972
aVme
p9973
aV,
aVprinces
p9974
aVof
p9975
aVthebes
p9976
aV,
aVthe
p9977
aVlast
p9978
aVdaughter
p9979
aVof
p9980
aVthe
p9981
aVhouse
p9982
aVof
p9983
aVyour
p9984
aVkings
p9985
aV,
aV-see
p9986
aVwhat
p9987
aVi
aVsuffer
p9988
aV,
aVand
p9989
aVfrom
p9990
aVwhom
p9991
aV,
aVbecause
p9992
aVi
aVfeared
p9993
aVto
p9994
aVcast
p9995
aVaway
p9996
aVthe
p9997
aVfear
p9998
aVof
p9999
aVheaven
p10000
aV!
aa(lp10001
Vantigone
p10002
aVis
p10003
aVled
p10004
aVaway
p10005
aVby
p10006
aVthe
p10007
aVguards
p10008
aV.
aa(lp10009
Vchorus
p10010
aVsinging
p10011
aVstrophe
p10012
aV1
aVeven
p10013
aVthus
p10014
aVendured
p10015
aVdanae
p10016
aVin
p10017
aVher
p10018
aVbeauty
p10019
aVto
p10020
aVchange
p10021
aVthe
p10022
aVlight
p10023
aVof
p10024
aVday
p10025
aVfor
p10026
aVbrass-bound
p10027
aVwalls
p10028
aV;
aVand
p10029
aVin
p10030
aVthat
p10031
aVchamber
p10032
aV,
aVsecret
p10033
aVas
p10034
aVthe
p10035
aVgrave
p10036
aV,
aVshe
p10037
aVwas
p10038
aVheld
p10039
aVclose
p10040
aVprisoner
p10041
aV;
aVyet
p10042
aVwas
p10043
aVshe
p10044
aVof
p10045
aVa
aVproud
p10046
aVlineage
p10047
aV,
aVo
aVmy
p10048
aVdaughter
p10049
aV,
aVand
p10050
aVcharged
p10051
aVwith
p10052
aVthe
p10053
aVkeeping
p10054
aVof
p10055
aVthe
p10056
aVseed
p10057
aVof
p10058
aVzeus
p10059
aV,
aVthat
p10060
aVfell
p10061
aVin
p10062
aVthe
p10063
aVgolden
p10064
aVrain
p10065
aV.
aa(lp10066
Vbut
p10067
aVdreadful
p10068
aVis
p10069
aVthe
p10070
aVmysterious
p10071
aVpower
p10072
aVof
p10073
aVfate
p10074
aV:
aVthere
p10075
aVis
p10076
aVno
p10077
aVdeliverance
p10078
aVfrom
p10079
aVit
p10080
aVby
p10081
aVwealth
p10082
aVor
p10083
aVby
p10084
aVwar
p10085
aV,
aVby
p10086
aVfenced
p10087
aVcity
p10088
aV,
aVor
p10089
aVdark
p10090
aV,
aVsea-beaten
p10091
aVships
p10092
aV.
aa(lp10093
Vantistrophe
p10094
aV1
aVand
p10095
aVbonds
p10096
aVtamed
p10097
aVthe
p10098
aVson
p10099
aVof
p10100
aVdryas
p10101
aV,
aVswift
p10102
aVto
p10103
aVwrath
p10104
aV,
aVthat
p10105
aVking
p10106
aVof
p10107
aVthe
p10108
aVedonians
p10109
aV;
aVso
p10110
aVpaid
p10111
aVhe
p10112
aVfor
p10113
aVhis
p10114
aVfrenzied
p10115
aVtaunts
p10116
aV,
aVwhen
p10117
aV,
aVby
p10118
aVthe
p10119
aVwill
p10120
aVof
p10121
aVdionysus
p10122
aV,
aVhe
p10123
aVwas
p10124
aVpent
p10125
aVin
p10126
aVa
aVrocky
p10127
aVprison
p10128
aV.
aa(lp10129
Vthere
p10130
aVthe
p10131
aVfierce
p10132
aVexuberance
p10133
aVof
p10134
aVhis
p10135
aVmadness
p10136
aVslowly
p10137
aVpassed
p10138
aVaway
p10139
aV.
aa(lp10140
Vthat
p10141
aVman
p10142
aVlearned
p10143
aVto
p10144
aVknow
p10145
aVthe
p10146
aVgod
p10147
aV,
aVwhom
p10148
aVin
p10149
aVhis
p10150
aVfrenzy
p10151
aVhe
p10152
aVhad
p10153
aVprovoked
p10154
aVwith
p10155
aVmockeries
p10156
aV;
aVfor
p10157
aVhe
p10158
aVhad
p10159
aVsought
p10160
aVto
p10161
aVquell
p10162
aVthe
p10163
aVgod-possessed
p10164
aVwomen
p10165
aV,
aVand
p10166
aVthe
p10167
aVbacchanalian
p10168
aVfire
p10169
aV;
aVand
p10170
aVhe
p10171
aVangered
p10172
aVthe
p10173
aVmuses
p10174
aVthat
p10175
aVlove
p10176
aVthe
p10177
aVflute
p10178
aV.
aa(lp10179
Vstrophe
p10180
aV2
aVand
p10181
aVby
p10182
aVthe
p10183
aVwaters
p10184
aVof
p10185
aVthe
p10186
aVdark
p10187
aVrocks
p10188
aV,
aVthe
p10189
aVwaters
p10190
aVof
p10191
aVthe
p10192
aVtwofold
p10193
aVsea
p10194
aV,
aVare
p10195
aVthe
p10196
aVshores
p10197
aVof
p10198
aVbosporus
p10199
aV,
aVand
p10200
aVthracian
p10201
aVsalmydessus
p10202
aV;
aVwhere
p10203
aVares
p10204
aV,
aVneighbour
p10205
aVto
p10206
aVthe
p10207
aVcity
p10208
aV,
aVsaw
p10209
aVthe
p10210
aVaccurst
p10211
aV,
aVblinding
p10212
aVwound
p10213
aVdealt
p10214
aVto
p10215
aVthe
p10216
aVtwo
p10217
aVsons
p10218
aVof
p10219
aVphineus
p10220
aVby
p10221
aVhis
p10222
aVfierce
p10223
aVwife
p10224
aV,
aV-the
p10225
aVwound
p10226
aVthat
p10227
aVbrought
p10228
aVdarkness
p10229
aVto
p10230
aVthose
p10231
aVvengeance-craving
p10232
aVorbs
p10233
aV,
aVsmitten
p10234
aVwith
p10235
aVher
p10236
aVbloody
p10237
aVhands
p10238
aV,
aVsmitten
p10239
aVwith
p10240
aVher
p10241
aVshuttle
p10242
aVfor
p10243
aVa
aVdagger
p10244
aV.
aa(lp10245
Vantistrophe
p10246
aV2
aVpining
p10247
aVin
p10248
aVtheir
p10249
aVmisery
p10250
aV,
aVthey
p10251
aVbewailed
p10252
aVtheir
p10253
aVcruel
p10254
aVdoom
p10255
aV,
aVthose
p10256
aVsons
p10257
aVof
p10258
aVa
aVmother
p10259
aVhapless
p10260
aVin
p10261
aVher
p10262
aVmarriage
p10263
aV;
aVbut
p10264
aVshe
p10265
aVtraced
p10266
aVher
p10267
aVdescent
p10268
aVfrom
p10269
aVthe
p10270
aVancient
p10271
aVline
p10272
aVof
p10273
aVthe
p10274
aVerechtheidae
p10275
aV;
aVand
p10276
aVin
p10277
aVfar-distant
p10278
aVcaves
p10279
aVshe
p10280
aVwas
p10281
aVnursed
p10282
aVamid
p10283
aVher
p10284
aVfather
p10285
aV's
p10286
aVstorms
p10287
aV,
aVthat
p10288
aVchild
p10289
aVof
p10290
aVboreas
p10291
aV,
aVswift
p10292
aVas
p10293
aVa
aVsteed
p10294
aVover
p10295
aVthe
p10296
aVsteep
p10297
aVhills
p10298
aV,
aVa
aVdaughter
p10299
aVof
p10300
aVgods
p10301
aV;
aVyet
p10302
aVupon
p10303
aVher
p10304
aValso
p10305
aVthe
p10306
aVgray
p10307
aVfates
p10308
aVbore
p10309
aVhard
p10310
aV,
aVmy
p10311
aVdaughter
p10312
aV.
aa(lp10313
Venter
p10314
aVteiresias
p10315
aV,
aVled
p10316
aVby
p10317
aVa
aVboy
p10318
aV,
aVon
p10319
aVthe
p10320
aVspectators
p10321
aV'
aVright
p10322
aV.
aa(lp10323
Vteiresias
p10324
aVprinces
p10325
aVof
p10326
aVthebes
p10327
aV,
aVwe
p10328
aVhave
p10329
aVcome
p10330
aVwith
p10331
aVlinked
p10332
aVsteps
p10333
aV,
aVboth
p10334
aVserved
p10335
aVby
p10336
aVthe
p10337
aVeyes
p10338
aVof
p10339
aVone
p10340
aV;
aVfor
p10341
aVthus
p10342
aV,
aVby
p10343
aVa
aVguide
p10344
aV's
p10345
aVhelp
p10346
aV,
aVthe
p10347
aVblind
p10348
aVmust
p10349
aVwalk
p10350
aV.
aa(lp10351
Vcreon
p10352
aVand
p10353
aVwhat
p10354
aV,
aVaged
p10355
aVteiresias
p10356
aV,
aVare
p10357
aVthy
p10358
aVtidings
p10359
aV?
aa(lp10360
Vteiresias
p10361
aVi
aVwill
p10362
aVtell
p10363
aVthee
p10364
aV;
aVand
p10365
aVdo
p10366
aVthou
p10367
aVhearken
p10368
aVto
p10369
aVthe
p10370
aVseer
p10371
aV.
aa(lp10372
Vcreon
p10373
aVindeed
p10374
aV,
aVit
p10375
aVhas
p10376
aVnot
p10377
aVbeen
p10378
aVmy
p10379
aVwont
p10380
aVto
p10381
aVslight
p10382
aVthy
p10383
aVcounsel
p10384
aV.
aa(lp10385
Vteiresias
p10386
aVtherefore
p10387
aVdidst
p10388
aVthou
p10389
aVsteer
p10390
aVour
p10391
aVcity
p10392
aV's
p10393
aVcourse
p10394
aVaright
p10395
aV.
aa(lp10396
Vcreon
p10397
aVi
aVhave
p10398
aVfelt
p10399
aV,
aVand
p10400
aVcan
p10401
aVattest
p10402
aV,
aVthy
p10403
aVbenefits
p10404
aV.
aa(lp10405
Vteiresias
p10406
aVmark
p10407
aVthat
p10408
aVnow
p10409
aV,
aVonce
p10410
aVmore
p10411
aV,
aVthou
p10412
aVstandest
p10413
aVon
p10414
aVfate
p10415
aV's
p10416
aVfine
p10417
aVedge
p10418
aV.
aa(lp10419
Vcreon
p10420
aVwhat
p10421
aVmeans
p10422
aVthis
p10423
aV?
aa(lp10424
Vhow
p10425
aVi
aVshudder
p10426
aVat
p10427
aVthy
p10428
aVmessage
p10429
aV!
aa(lp10430
Vteiresias
p10431
aVthou
p10432
aVwilt
p10433
aVlearn
p10434
aV,
aVwhen
p10435
aVthou
p10436
aVhearest
p10437
aVthe
p10438
aVwarnings
p10439
aVof
p10440
aVmine
p10441
aVart
p10442
aV.
aa(lp10443
Vas
p10444
aVi
aVtook
p10445
aVmy
p10446
aVplace
p10447
aVon
p10448
aVmine
p10449
aVold
p10450
aVseat
p10451
aVof
p10452
aVaugury
p10453
aV,
aVwhere
p10454
aVall
p10455
aVbirds
p10456
aVhave
p10457
aVbeen
p10458
aVwont
p10459
aVto
p10460
aVgather
p10461
aVwithin
p10462
aVmy
p10463
aVken
p10464
aV,
aVi
aVheard
p10465
aVa
aVstrange
p10466
aVvoice
p10467
aVamong
p10468
aVthem
p10469
aV;
aVthey
p10470
aVwere
p10471
aVscreaming
p10472
aVwith
p10473
aVdire
p10474
aV,
aVfeverish
p10475
aVrage
p10476
aV,
aVthat
p10477
aVdrowned
p10478
aVtheir
p10479
aVlanguage
p10480
aVin
p10481
aVjargon
p10482
aV;
aVand
p10483
aVi
aVknew
p10484
aVthat
p10485
aVthey
p10486
aVwere
p10487
aVrending
p10488
aVeach
p10489
aVother
p10490
aVwith
p10491
aVtheir
p10492
aVtalons
p10493
aV,
aVmurderously
p10494
aV;
aVthe
p10495
aVwhirr
p10496
aVof
p10497
aVwings
p10498
aVtold
p10499
aVno
p10500
aVdoubtful
p10501
aVtale
p10502
aV.
aa(lp10503
Vforthwith
p10504
aV,
aVin
p10505
aVfear
p10506
aV,
aVi
aVessayed
p10507
aVburnt-sacrifice
p10508
aVon
p10509
aVa
aVduly
p10510
aVkindled
p10511
aValtar
p10512
aV:
aVbut
p10513
aVfrom
p10514
aVmy
p10515
aVofferings
p10516
aVthe
p10517
aVfire-god
p10518
aVshowed
p10519
aVno
p10520
aVflame
p10521
aV;
aVa
aVdank
p10522
aVmoisture
p10523
aV,
aVoozing
p10524
aVfrom
p10525
aVthe
p10526
aVthigh-flesh
p10527
aV,
aVtrickled
p10528
aVforth
p10529
aVupon
p10530
aVthe
p10531
aVembers
p10532
aV,
aVand
p10533
aVsmoked
p10534
aV,
aVand
p10535
aVsputtered
p10536
aV;
aVthe
p10537
aVgall
p10538
aVwas
p10539
aVscattered
p10540
aVto
p10541
aVthe
p10542
aVair
p10543
aV;
aVand
p10544
aVthe
p10545
aVstreaming
p10546
aVthighs
p10547
aVlay
p10548
aVbared
p10549
aVof
p10550
aVthe
p10551
aVfat
p10552
aVthat
p10553
aVhad
p10554
aVbeen
p10555
aVwrapped
p10556
aVround
p10557
aVthem
p10558
aV.
aa(lp10559
Vsuch
p10560
aVwas
p10561
aVthe
p10562
aVfailure
p10563
aVof
p10564
aVthe
p10565
aVrites
p10566
aVby
p10567
aVwhich
p10568
aVi
aVvainly
p10569
aVasked
p10570
aVa
aVsign
p10571
aV,
aVas
p10572
aVfrom
p10573
aVthis
p10574
aVboy
p10575
aVi
aVlearned
p10576
aV;
aVfor
p10577
aVhe
p10578
aVis
p10579
aVmy
p10580
aVguide
p10581
aV,
aVas
p10582
aVi
aVam
p10583
aVguide
p10584
aVto
p10585
aVothers
p10586
aV.
aa(lp10587
Vand
p10588
aV't
p10589
aVis
p10590
aVthy
p10591
aVcounsel
p10592
aVthat
p10593
aVhath
p10594
aVbrought
p10595
aVthis
p10596
aVsickness
p10597
aVon
p10598
aVour
p10599
aVstate
p10600
aV.
aa(lp10601
Vfor
p10602
aVthe
p10603
aValtars
p10604
aVof
p10605
aVour
p10606
aVcity
p10607
aVand
p10608
aVof
p10609
aVour
p10610
aVhearths
p10611
aVhave
p10612
aVbeen
p10613
aVtainted
p10614
aV,
aVone
p10615
aVand
p10616
aVall
p10617
aV,
aVby
p10618
aVbirds
p10619
aVand
p10620
aVdogs
p10621
aV,
aVwith
p10622
aVcarrion
p10623
aVfrom
p10624
aVthe
p10625
aVhapless
p10626
aVcorpse
p10627
aV,
aVthe
p10628
aVson
p10629
aVof
p10630
aVoedipus
p10631
aV:
aVand
p10632
aVtherefore
p10633
aVthe
p10634
aVgods
p10635
aVno
p10636
aVmore
p10637
aVaccept
p10638
aVprayer
p10639
aVand
p10640
aVsacrifice
p10641
aVat
p10642
aVour
p10643
aVhands
p10644
aV,
aVor
p10645
aVthe
p10646
aVflame
p10647
aVof
p10648
aVmeat-offering
p10649
aV;
aVnor
p10650
aVdoth
p10651
aVany
p10652
aVbird
p10653
aVgive
p10654
aVa
aVclear
p10655
aVsign
p10656
aVby
p10657
aVits
p10658
aVshrill
p10659
aVcry
p10660
aV,
aVfor
p10661
aVthey
p10662
aVhave
p10663
aVtasted
p10664
aVthe
p10665
aVfatness
p10666
aVof
p10667
aVa
aVslain
p10668
aVman
p10669
aV's
p10670
aVblood
p10671
aV.
aa(lp10672
Vthink
p10673
aV,
aVthen
p10674
aV,
aVon
p10675
aVthese
p10676
aVthings
p10677
aV,
aVmy
p10678
aVson
p10679
aV.
aa(lp10680
Vall
p10681
aVmen
p10682
aVare
p10683
aVliable
p10684
aVto
p10685
aVerr
p10686
aV;
aVbut
p10687
aVwhen
p10688
aVan
p10689
aVerror
p10690
aVhath
p10691
aVbeen
p10692
aVmade
p10693
aV,
aVthat
p10694
aVman
p10695
aVis
p10696
aVno
p10697
aVlonger
p10698
aVwitless
p10699
aVor
p10700
aVunblest
p10701
aVwho
p10702
aVheals
p10703
aVthe
p10704
aVill
p10705
aVinto
p10706
aVwhich
p10707
aVhe
p10708
aVhath
p10709
aVfallen
p10710
aV,
aVand
p10711
aVremains
p10712
aVnot
p10713
aVstubborn
p10714
aV.
aa(lp10715
Vself-will
p10716
aV,
aVwe
p10717
aVknow
p10718
aV,
aVincurs
p10719
aVthe
p10720
aVcharge
p10721
aVof
p10722
aVfolly
p10723
aV.
aa(lp10724
Vnay
p10725
aV,
aVallow
p10726
aVthe
p10727
aVclaim
p10728
aVof
p10729
aVthe
p10730
aVdead
p10731
aV;
aVstab
p10732
aVnot
p10733
aVthe
p10734
aVfallen
p10735
aV;
aVwhat
p10736
aVprowess
p10737
aVis
p10738
aVit
p10739
aVto
p10740
aVslay
p10741
aVthe
p10742
aVslain
p10743
aVanew
p10744
aV?
aa(lp10745
Vi
aVhave
p10746
aVsought
p10747
aVthy
p10748
aVgood
p10749
aV,
aVand
p10750
aVfor
p10751
aVthy
p10752
aVgood
p10753
aVi
aVspeak
p10754
aV:
aVand
p10755
aVnever
p10756
aVis
p10757
aVit
p10758
aVsweeter
p10759
aVto
p10760
aVlearn
p10761
aVfrom
p10762
aVa
aVgood
p10763
aVcounsellor
p10764
aVthan
p10765
aVwhen
p10766
aVhe
p10767
aVcounsels
p10768
aVfor
p10769
aVthine
p10770
aVown
p10771
aVgain
p10772
aV.
aa(lp10773
Vcreon
p10774
aVold
p10775
aVman
p10776
aV,
aVye
p10777
aVall
p10778
aVshoot
p10779
aVyour
p10780
aVshafts
p10781
aVat
p10782
aVme
p10783
aV,
aVas
p10784
aVarchers
p10785
aVat
p10786
aVthe
p10787
aVbutts
p10788
aV;
aV-ye
p10789
aVmust
p10790
aVneeds
p10791
aVpractise
p10792
aVon
p10793
aVme
p10794
aVwith
p10795
aVseer-craft
p10796
aValso
p10797
aV;
aV-aye
p10798
aV,
aVthe
p10799
aVseer-tribe
p10800
aVhath
p10801
aVlong
p10802
aVtrafficked
p10803
aVin
p10804
aVme
p10805
aV,
aVand
p10806
aVmade
p10807
aVme
p10808
aVtheir
p10809
aVmerchandise
p10810
aV.
aa(lp10811
Vgain
p10812
aVyour
p10813
aVgains
p10814
aV,
aVdrive
p10815
aVyour
p10816
aVtrade
p10817
aV,
aVif
p10818
aVye
p10819
aVlist
p10820
aV,
aVin
p10821
aVthe
p10822
aVsilver-gold
p10823
aVof
p10824
aVsardis
p10825
aVand
p10826
aVthe
p10827
aVgold
p10828
aVof
p10829
aVindia
p10830
aV;
aVbut
p10831
aVye
p10832
aVshall
p10833
aVnot
p10834
aVhide
p10835
aVthat
p10836
aVman
p10837
aVin
p10838
aVthe
p10839
aVgrave
p10840
aV,
aV-no
p10841
aV,
aVthough
p10842
aVthe
p10843
aVeagles
p10844
aVof
p10845
aVzeus
p10846
aVshould
p10847
aVbear
p10848
aVthe
p10849
aVcarrion
p10850
aVmorsels
p10851
aVto
p10852
aVtheir
p10853
aVmaster
p10854
aV's
p10855
aVthrone-no
p10856
aV,
aVnot
p10857
aVfor
p10858
aVdread
p10859
aVof
p10860
aVthat
p10861
aVdefilement
p10862
aVwill
p10863
aVi
aVsuffer
p10864
aVhis
p10865
aVburial
p10866
aV:
aV-for
p10867
aVwell
p10868
aVi
aVknow
p10869
aVthat
p10870
aVno
p10871
aVmortal
p10872
aVcan
p10873
aVdefile
p10874
aVthe
p10875
aVgods.-but
p10876
aV,
aVaged
p10877
aVteiresias
p10878
aV,
aVthe
p10879
aVwisest
p10880
aVfall
p10881
aVwith
p10882
aVshameful
p10883
aVfall
p10884
aV,
aVwhen
p10885
aVthey
p10886
aVclothe
p10887
aVshameful
p10888
aVthoughts
p10889
aVin
p10890
aVfair
p10891
aVwords
p10892
aV,
aVfor
p10893
aVlucre
p10894
aV's
p10895
aVsake
p10896
aV.
aa(lp10897
Vteiresias
p10898
aValas
p10899
aV!
aa(lp10900
Vdoth
p10901
aVany
p10902
aVman
p10903
aVknow
p10904
aV,
aVdoth
p10905
aVany
p10906
aVconsider
p10907
aV...
p10908
aVcreon
p10909
aVwhereof
p10910
aV?
aa(lp10911
Vwhat
p10912
aVgeneral
p10913
aVtruth
p10914
aVdost
p10915
aVthou
p10916
aVannounce
p10917
aV?
aa(lp10918
Vteiresias
p10919
aVhow
p10920
aVprecious
p10921
aV,
aVabove
p10922
aVall
p10923
aVwealth
p10924
aV,
aVis
p10925
aVgood
p10926
aVcounsel
p10927
aV.
aa(lp10928
Vcreon
p10929
aVas
p10930
aVfolly
p10931
aV,
aVi
aVthink
p10932
aV,
aVis
p10933
aVthe
p10934
aVworst
p10935
aVmischief
p10936
aV.
aa(lp10937
Vteiresias
p10938
aVyet
p10939
aVthou
p10940
aVart
p10941
aVtainted
p10942
aVwith
p10943
aVthat
p10944
aVdistemper
p10945
aV.
aa(lp10946
Vcreon
p10947
aVi
aVwould
p10948
aVnot
p10949
aVanswer
p10950
aVthe
p10951
aVseer
p10952
aVwith
p10953
aVa
aVtaunt
p10954
aV.
aa(lp10955
Vteiresias
p10956
aVbut
p10957
aVthou
p10958
aVdost
p10959
aV,
aVin
p10960
aVsaying
p10961
aVthat
p10962
aVi
aVprophesy
p10963
aVfalsely
p10964
aV.
aa(lp10965
Vcreon
p10966
aVwell
p10967
aV,
aVthe
p10968
aVprophet-tribe
p10969
aVwas
p10970
aVever
p10971
aVfond
p10972
aVof
p10973
aVmoney
p10974
aV.
aa(lp10975
Vteiresias
p10976
aVand
p10977
aVthe
p10978
aVrace
p10979
aVbred
p10980
aVof
p10981
aVtyrants
p10982
aVloves
p10983
aVbase
p10984
aVgain
p10985
aV.
aa(lp10986
Vcreon
p10987
aVknowest
p10988
aVthou
p10989
aVthat
p10990
aVthy
p10991
aVspeech
p10992
aVis
p10993
aVspoken
p10994
aVof
p10995
aVthy
p10996
aVking
p10997
aV?
aa(lp10998
Vteiresias
p10999
aVi
aVknow
p11000
aVit
p11001
aV;
aVfor
p11002
aVthrough
p11003
aVme
p11004
aVthou
p11005
aVhast
p11006
aVsaved
p11007
aVthebes
p11008
aV.
aa(lp11009
Vcreon
p11010
aVthou
p11011
aVart
p11012
aVa
aVwise
p11013
aVseer
p11014
aV;
aVbut
p11015
aVthou
p11016
aVlovest
p11017
aVevil
p11018
aVdeeds
p11019
aV.
aa(lp11020
Vteiresias
p11021
aVthou
p11022
aVwilt
p11023
aVrouse
p11024
aVme
p11025
aVto
p11026
aVutter
p11027
aVthe
p11028
aVdread
p11029
aVsecret
p11030
aVin
p11031
aVmy
p11032
aVsoul
p11033
aV.
aa(lp11034
Vcreon
p11035
aVout
p11036
aVwith
p11037
aVit
p11038
aV!
aV-only
p11039
aVspeak
p11040
aVit
p11041
aVnot
p11042
aVfor
p11043
aVgain
p11044
aV.
aa(lp11045
Vteiresias
p11046
aVindeed
p11047
aV,
aVmethinks
p11048
aV,
aVi
aVshall
p11049
aVnot
p11050
aV,
aV-as
p11051
aVtouching
p11052
aVthee
p11053
aV.
aa(lp11054
Vcreon
p11055
aVknow
p11056
aVthat
p11057
aVthou
p11058
aVshalt
p11059
aVnot
p11060
aVtrade
p11061
aVon
p11062
aVmy
p11063
aVresolve
p11064
aV.
aa(lp11065
Vteiresias
p11066
aVthen
p11067
aVknow
p11068
aVthou-aye
p11069
aV,
aVknow
p11070
aVit
p11071
aVwell-that
p11072
aVthou
p11073
aVshalt
p11074
aVnot
p11075
aVlive
p11076
aVthrough
p11077
aVmany
p11078
aVmore
p11079
aVcourses
p11080
aVof
p11081
aVthe
p11082
aVsun
p11083
aV's
p11084
aVswift
p11085
aVchariot
p11086
aV,
aVere
p11087
aVone
p11088
aVbegotten
p11089
aVof
p11090
aVthine
p11091
aVown
p11092
aVloins
p11093
aVshall
p11094
aVhave
p11095
aVbeen
p11096
aVgiven
p11097
aVby
p11098
aVthee
p11099
aV,
aVa
aVcorpse
p11100
aVfor
p11101
aVcorpses
p11102
aV;
aVbecause
p11103
aVthou
p11104
aVhast
p11105
aVthrust
p11106
aVchildren
p11107
aVof
p11108
aVthe
p11109
aVsunlight
p11110
aVto
p11111
aVthe
p11112
aVshades
p11113
aV,
aVand
p11114
aVruthlessly
p11115
aVlodged
p11116
aVa
aVliving
p11117
aVsoul
p11118
aVin
p11119
aVthe
p11120
aVgrave
p11121
aV;
aVbut
p11122
aVkeepest
p11123
aVin
p11124
aVthis
p11125
aVworld
p11126
aVone
p11127
aVwho
p11128
aVbelongs
p11129
aVto
p11130
aVthe
p11131
aVgods
p11132
aVinfernal
p11133
aV,
aVa
aVcorpse
p11134
aVunburied
p11135
aV,
aVunhonoured
p11136
aV,
aVall
p11137
aVunhallowed
p11138
aV.
aa(lp11139
Vin
p11140
aVsuch
p11141
aVthou
p11142
aVhast
p11143
aVno
p11144
aVpart
p11145
aV,
aVnor
p11146
aVhave
p11147
aVthe
p11148
aVgods
p11149
aVabove
p11150
aV,
aVbut
p11151
aVthis
p11152
aVis
p11153
aVa
aVviolence
p11154
aVdone
p11155
aVto
p11156
aVthem
p11157
aVby
p11158
aVthee
p11159
aV.
aa(lp11160
Vtherefore
p11161
aVthe
p11162
aVavenging
p11163
aVdestroyers
p11164
aVlie
p11165
aVin
p11166
aVwait
p11167
aVfor
p11168
aVthee
p11169
aV,
aVthe
p11170
aVfuries
p11171
aVof
p11172
aVhades
p11173
aVand
p11174
aVof
p11175
aVthe
p11176
aVgods
p11177
aV,
aVthat
p11178
aVthou
p11179
aVmayest
p11180
aVbe
p11181
aVtaken
p11182
aVin
p11183
aVthese
p11184
aVsame
p11185
aVills
p11186
aV.
aa(lp11187
Vand
p11188
aVmark
p11189
aVwell
p11190
aVif
p11191
aVi
aVspeak
p11192
aVthese
p11193
aVthings
p11194
aVas
p11195
aVa
aVhireling
p11196
aV.
aa(lp11197
Va
aVtime
p11198
aVnot
p11199
aVlong
p11200
aVto
p11201
aVbe
p11202
aVdelayed
p11203
aVshall
p11204
aVawaken
p11205
aVthe
p11206
aVwailing
p11207
aVof
p11208
aVmen
p11209
aVand
p11210
aVof
p11211
aVwomen
p11212
aVin
p11213
aVthy
p11214
aVhouse
p11215
aV.
aa(lp11216
Vand
p11217
aVa
aVtumult
p11218
aVof
p11219
aVhatred
p11220
aVagainst
p11221
aVthee
p11222
aVstirs
p11223
aVall
p11224
aVthe
p11225
aVcities
p11226
aVwhose
p11227
aVmangled
p11228
aVsons
p11229
aVhad
p11230
aVthe
p11231
aVburial-rite
p11232
aVfrom
p11233
aVdogs
p11234
aV,
aVor
p11235
aVfrom
p11236
aVwild
p11237
aVbeasts
p11238
aV,
aVor
p11239
aVfrom
p11240
aVsome
p11241
aVwinged
p11242
aVbird
p11243
aVthat
p11244
aVbore
p11245
aVa
aVpolluting
p11246
aVbreath
p11247
aVto
p11248
aVeach
p11249
aVcity
p11250
aVthat
p11251
aVcontains
p11252
aVthe
p11253
aVhearths
p11254
aVof
p11255
aVthe
p11256
aVdead
p11257
aV.
aa(lp11258
Vsuch
p11259
aVarrows
p11260
aVfor
p11261
aVthy
p11262
aVheart-since
p11263
aVthou
p11264
aVprovokest
p11265
aVme-have
p11266
aVi
aVlaunched
p11267
aVat
p11268
aVthee
p11269
aV,
aVarcher-like
p11270
aV,
aVin
p11271
aVmy
p11272
aVanger
p11273
aV,
aV-sure
p11274
aVarrows
p11275
aV,
aVof
p11276
aVwhich
p11277
aVthou
p11278
aVshalt
p11279
aVnot
p11280
aVescape
p11281
aVthe
p11282
aVsmart.-boy
p11283
aV,
aVlead
p11284
aVme
p11285
aVhome
p11286
aV,
aVthat
p11287
aVhe
p11288
aVmay
p11289
aVspend
p11290
aVhis
p11291
aVrage
p11292
aVon
p11293
aVyounger
p11294
aVmen
p11295
aV,
aVand
p11296
aVlearn
p11297
aVto
p11298
aVkeep
p11299
aVa
aVtongue
p11300
aVmore
p11301
aVtemperate
p11302
aV,
aVand
p11303
aVto
p11304
aVbear
p11305
aVwithin
p11306
aVhis
p11307
aVbreast
p11308
aVa
aVbetter
p11309
aVmind
p11310
aVthan
p11311
aVnow
p11312
aVhe
p11313
aVbears
p11314
aV.
aa(lp11315
Vthe
p11316
aVboy
p11317
aVleads
p11318
aVteiresias
p11319
aVout
p11320
aV.
aa(lp11321
Vleader
p11322
aVof
p11323
aVthe
p11324
aVchorus
p11325
aVthe
p11326
aVman
p11327
aVhath
p11328
aVgone
p11329
aV,
aVo
aVking
p11330
aV,
aVwith
p11331
aVdread
p11332
aVprophecies
p11333
aV.
aa(lp11334
Vand
p11335
aV,
aVsince
p11336
aVthe
p11337
aVhair
p11338
aVon
p11339
aVthis
p11340
aVhead
p11341
aV,
aVonce
p11342
aVdark
p11343
aV,
aVhath
p11344
aVbeen
p11345
aVwhite
p11346
aV,
aVi
aVknow
p11347
aVthat
p11348
aVhe
p11349
aVhath
p11350
aVnever
p11351
aVbeen
p11352
aVa
aVfalse
p11353
aVprophet
p11354
aVto
p11355
aVour
p11356
aVcity
p11357
aV.
aa(lp11358
Vcreon
p11359
aVi
aV,
aVtoo
p11360
aV,
aVknow
p11361
aVit
p11362
aVwell
p11363
aV,
aVand
p11364
aVam
p11365
aVtroubled
p11366
aVin
p11367
aVsoul
p11368
aV.
aa(lp11369
V't
p11370
aVis
p11371
aVdire
p11372
aVto
p11373
aVyield
p11374
aV;
aVbut
p11375
aV,
aVby
p11376
aVresistance
p11377
aV,
aVto
p11378
aVsmite
p11379
aVmy
p11380
aVpride
p11381
aVwith
p11382
aVruin-this
p11383
aV,
aVtoo
p11384
aV,
aVis
p11385
aVa
aVdire
p11386
aVchoice
p11387
aV.
aa(lp11388
Vleader
p11389
aVson
p11390
aVof
p11391
aVmenoeceus
p11392
aV,
aVit
p11393
aVbehoves
p11394
aVthee
p11395
aVto
p11396
aVtake
p11397
aVwise
p11398
aVcounsel
p11399
aV.
aa(lp11400
Vcreon
p11401
aVwhat
p11402
aVshould
p11403
aVi
aVdo
p11404
aVthen
p11405
aV?
aa(lp11406
Vspeak
p11407
aVand
p11408
aVi
aVwill
p11409
aVobey
p11410
aV.
aa(lp11411
Vleader
p11412
aVgo
p11413
aVthou
p11414
aV,
aVand
p11415
aVfree
p11416
aVthe
p11417
aVmaiden
p11418
aVfrom
p11419
aVher
p11420
aVrocky
p11421
aVchamber
p11422
aV,
aVand
p11423
aVmake
p11424
aVa
aVtomb
p11425
aVfor
p11426
aVthe
p11427
aVunburied
p11428
aVdead
p11429
aV.
aa(lp11430
Vcreon
p11431
aVand
p11432
aVthis
p11433
aVis
p11434
aVthy
p11435
aVcounsel
p11436
aV?
aa(lp11437
Vthou
p11438
aVwouldst
p11439
aVhave
p11440
aVme
p11441
aVyield
p11442
aV?
aa(lp11443
Vleader
p11444
aVyea
p11445
aV,
aVking
p11446
aV,
aVand
p11447
aVwith
p11448
aVall
p11449
aVspeed
p11450
aV;
aVfor
p11451
aVswift
p11452
aVharms
p11453
aVfrom
p11454
aVthe
p11455
aVgods
p11456
aVcut
p11457
aVshort
p11458
aVthe
p11459
aVfolly
p11460
aVof
p11461
aVmen
p11462
aV.
aa(lp11463
Vcreon
p11464
aVah
p11465
aVme
p11466
aV,
aV't
p11467
aVis
p11468
aVhard
p11469
aV,
aVbut
p11470
aVi
aVresign
p11471
aVmy
p11472
aVcherished
p11473
aVresolve
p11474
aV,
aV-i
p11475
aVobey
p11476
aV.
aa(lp11477
Vwe
p11478
aVmust
p11479
aVnot
p11480
aVwage
p11481
aVa
aVvain
p11482
aVwar
p11483
aVwith
p11484
aVdestiny
p11485
aV.
aa(lp11486
Vleader
p11487
aVgo
p11488
aV,
aVthou
p11489
aV,
aVand
p11490
aVdo
p11491
aVthese
p11492
aVthings
p11493
aV;
aVleave
p11494
aVthem
p11495
aVnot
p11496
aVto
p11497
aVothers
p11498
aV.
aa(lp11499
Vcreon
p11500
aVeven
p11501
aVas
p11502
aVi
aVam
p11503
aVi
aV'll
p11504
aVgo
p11505
aV:
aV-on
p11506
aV,
aVon
p11507
aV,
aVmy
p11508
aVservants
p11509
aV,
aVeach
p11510
aVand
p11511
aVall
p11512
aVof
p11513
aVyou
p11514
aV,
aV-take
p11515
aVaxes
p11516
aVin
p11517
aVyour
p11518
aVhands
p11519
aV,
aVand
p11520
aVhasten
p11521
aVto
p11522
aVthe
p11523
aVground
p11524
aVthat
p11525
aVye
p11526
aVsee
p11527
aVyonder
p11528
aV!
aa(lp11529
Vsince
p11530
aVour
p11531
aVjudgment
p11532
aVhath
p11533
aVtaken
p11534
aVthis
p11535
aVturn
p11536
aV,
aVi
aVwill
p11537
aVbe
p11538
aVpresent
p11539
aVto
p11540
aVunloose
p11541
aVher
p11542
aV,
aVas
p11543
aVmyself
p11544
aVbound
p11545
aVher
p11546
aV.
aa(lp11547
Vmy
p11548
aVheart
p11549
aVmisgives
p11550
aVme
p11551
aV,
aV't
p11552
aVis
p11553
aVbest
p11554
aVto
p11555
aVkeep
p11556
aVthe
p11557
aVestablished
p11558
aVlaws
p11559
aV,
aVeven
p11560
aVto
p11561
aVlife
p11562
aV's
p11563
aVend
p11564
aV.
aa(lp11565
Vcreon
p11566
aVand
p11567
aVhis
p11568
aVservants
p11569
aVhasten
p11570
aVout
p11571
aVon
p11572
aVthe
p11573
aVspectators
p11574
aV'
aVleft
p11575
aV.
aa(lp11576
Vchorus
p11577
aVsinging
p11578
aVstrophe
p11579
aV1
aVo
aVthou
p11580
aVof
p11581
aVmany
p11582
aVnames
p11583
aV,
aVglory
p11584
aVof
p11585
aVthe
p11586
aVcadmeian
p11587
aVbride
p11588
aV,
aVoffspring
p11589
aVof
p11590
aVloud-thundering
p11591
aVzeus
p11592
aV!
aa(lp11593
Vthou
p11594
aVwho
p11595
aVwatchest
p11596
aVover
p11597
aVfamed
p11598
aVitalia
p11599
aV,
aVand
p11600
aVreignest
p11601
aV,
aVwhere
p11602
aVall
p11603
aVguests
p11604
aVare
p11605
aVwelcomed
p11606
aV,
aVin
p11607
aVthe
p11608
aVsheltered
p11609
aVplain
p11610
aVof
p11611
aVeleusinian
p11612
aVdeo
p11613
aV!
aa(lp11614
Vo
aVbacchus
p11615
aV,
aVdweller
p11616
aVin
p11617
aVthebe
p11618
aV,
aVmother-city
p11619
aVof
p11620
aVbacchants
p11621
aV,
aVby
p11622
aVthe
p11623
aVsoftly-gliding
p11624
aVstream
p11625
aVof
p11626
aVismenus
p11627
aV,
aVon
p11628
aVthe
p11629
aVsoil
p11630
aVwhere
p11631
aVthe
p11632
aVfierce
p11633
aVdragon
p11634
aV's
p11635
aVteeth
p11636
aVwere
p11637
aVsown
p11638
aV!
aa(lp11639
Vantistrophe
p11640
aV1
aVthou
p11641
aVhast
p11642
aVbeen
p11643
aVseen
p11644
aVwhere
p11645
aVtorch-flames
p11646
aVglare
p11647
aVthrough
p11648
aVsmoke
p11649
aV,
aVabove
p11650
aVthe
p11651
aVcrests
p11652
aVof
p11653
aVthe
p11654
aVtwin
p11655
aVpeaks
p11656
aV,
aVwhere
p11657
aVmove
p11658
aVthe
p11659
aVcorycian
p11660
aVnymphs
p11661
aV,
aVthy
p11662
aVvotaries
p11663
aV,
aVhard
p11664
aVby
p11665
aVcastalia
p11666
aV's
p11667
aVstream
p11668
aV.
aa(lp11669
Vthou
p11670
aVcomest
p11671
aVfrom
p11672
aVthe
p11673
aVivy-mantled
p11674
aVslopes
p11675
aVof
p11676
aVnysa
p11677
aV's
p11678
aVhills
p11679
aV,
aVand
p11680
aVfrom
p11681
aVthe
p11682
aVshore
p11683
aVgreen
p11684
aVwith
p11685
aVmany-clustered
p11686
aVvines
p11687
aV,
aVwhile
p11688
aVthy
p11689
aVname
p11690
aVis
p11691
aVlifted
p11692
aVup
p11693
aVon
p11694
aVstrains
p11695
aVof
p11696
aVmore
p11697
aVthan
p11698
aVmortal
p11699
aVpower
p11700
aV,
aVas
p11701
aVthou
p11702
aVvisitest
p11703
aVthe
p11704
aVways
p11705
aVof
p11706
aVthebe
p11707
aV:
aVstrophe
p11708
aV2
aVthebe
p11709
aV,
aVof
p11710
aVall
p11711
aVcities
p11712
aV,
aVthou
p11713
aVholdest
p11714
aVfirst
p11715
aVin
p11716
aVhonour
p11717
aV,
aVthou
p11718
aVand
p11719
aVthy
p11720
aVmother
p11721
aVwhom
p11722
aVthe
p11723
aVlightning
p11724
aVsmote
p11725
aV;
aVand
p11726
aVnow
p11727
aV,
aVwhen
p11728
aVall
p11729
aVour
p11730
aVpeople
p11731
aVis
p11732
aVcaptive
p11733
aVto
p11734
aVa
aVviolent
p11735
aVplague
p11736
aV,
aVcome
p11737
aVthou
p11738
aVwith
p11739
aVhealing
p11740
aVfeet
p11741
aVover
p11742
aVthe
p11743
aVparnassian
p11744
aVheight
p11745
aV,
aVor
p11746
aVover
p11747
aVthe
p11748
aVmoaning
p11749
aVstrait
p11750
aV!
aa(lp11751
Vantistrophe
p11752
aV2
aVo
aVthou
p11753
aVwith
p11754
aVwhom
p11755
aVthe
p11756
aVstars
p11757
aVrejoice
p11758
aVas
p11759
aVthey
p11760
aVmove
p11761
aV,
aVthe
p11762
aVstars
p11763
aVwhose
p11764
aVbreath
p11765
aVis
p11766
aVfire
p11767
aV;
aVo
aVmaster
p11768
aVof
p11769
aVthe
p11770
aVvoices
p11771
aVof
p11772
aVthe
p11773
aVnight
p11774
aV;
aVson
p11775
aVbegotten
p11776
aVof
p11777
aVzeus
p11778
aV;
aVappear
p11779
aV,
aVo
aVking
p11780
aV,
aVwith
p11781
aVthine
p11782
aVattendant
p11783
aVthyiads
p11784
aV,
aVwho
p11785
aVin
p11786
aVnight-long
p11787
aVfrenzy
p11788
aVdance
p11789
aVbefore
p11790
aVthee
p11791
aV,
aVthe
p11792
aVgiver
p11793
aVof
p11794
aVgood
p11795
aVgifts
p11796
aV,
aViacchus
p11797
aV!
aa(lp11798
Venter
p11799
aVmessenger
p11800
aV,
aVon
p11801
aVthe
p11802
aVspectators
p11803
aV'
aVleft
p11804
aV.
aa(lp11805
Vmessenger
p11806
aVdwellers
p11807
aVby
p11808
aVthe
p11809
aVhouse
p11810
aVof
p11811
aVcadmus
p11812
aVand
p11813
aVof
p11814
aVamphion
p11815
aV,
aVthere
p11816
aVis
p11817
aVno
p11818
aVestate
p11819
aVof
p11820
aVmortal
p11821
aVlife
p11822
aVthat
p11823
aVi
aVwould
p11824
aVever
p11825
aVpraise
p11826
aVor
p11827
aVblame
p11828
aVas
p11829
aVsettled
p11830
aV.
aa(lp11831
Vfortune
p11832
aVraises
p11833
aVand
p11834
aVfortune
p11835
aVhumbles
p11836
aVthe
p11837
aVlucky
p11838
aVor
p11839
aVunlucky
p11840
aVfrom
p11841
aVday
p11842
aVto
p11843
aVday
p11844
aV,
aVand
p11845
aVno
p11846
aVone
p11847
aVcan
p11848
aVprophesy
p11849
aVto
p11850
aVmen
p11851
aVconcerning
p11852
aVthose
p11853
aVthings
p11854
aVwhich
p11855
aVare
p11856
aVestablished
p11857
aV.
aa(lp11858
Vfor
p11859
aVcreon
p11860
aVwas
p11861
aVblest
p11862
aVonce
p11863
aV,
aVas
p11864
aVi
aVcount
p11865
aVbliss
p11866
aV;
aVhe
p11867
aVhad
p11868
aVsaved
p11869
aVthis
p11870
aVland
p11871
aVof
p11872
aVcadmus
p11873
aVfrom
p11874
aVits
p11875
aVfoes
p11876
aV;
aVhe
p11877
aVwas
p11878
aVclothed
p11879
aVwith
p11880
aVsole
p11881
aVdominion
p11882
aVin
p11883
aVthe
p11884
aVland
p11885
aV;
aVhe
p11886
aVreigned
p11887
aV,
aVthe
p11888
aVglorious
p11889
aVsire
p11890
aVof
p11891
aVprincely
p11892
aVchildren
p11893
aV.
aa(lp11894
Vand
p11895
aVnow
p11896
aVall
p11897
aVhath
p11898
aVbeen
p11899
aVlost
p11900
aV.
aa(lp11901
Vfor
p11902
aVwhen
p11903
aVa
aVman
p11904
aVhath
p11905
aVforfeited
p11906
aVhis
p11907
aVpleasures
p11908
aV,
aVi
aVcount
p11909
aVhim
p11910
aVnot
p11911
aVas
p11912
aVliving
p11913
aV,
aV-i
p11914
aVhold
p11915
aVhim
p11916
aVbut
p11917
aVa
aVbreathing
p11918
aVcorpse
p11919
aV.
aa(lp11920
Vheap
p11921
aVup
p11922
aVriches
p11923
aVin
p11924
aVthy
p11925
aVhouse
p11926
aV,
aVif
p11927
aVthou
p11928
aVwilt
p11929
aV;
aVlive
p11930
aVin
p11931
aVkingly
p11932
aVstate
p11933
aV;
aVyet
p11934
aV,
aVif
p11935
aVthere
p11936
aVbe
p11937
aVno
p11938
aVgladness
p11939
aVtherewith
p11940
aV,
aVi
aVwould
p11941
aVnot
p11942
aVgive
p11943
aVthe
p11944
aVshadow
p11945
aVof
p11946
aVa
aVvapour
p11947
aVfor
p11948
aVall
p11949
aVthe
p11950
aVrest
p11951
aV,
aVcompared
p11952
aVwith
p11953
aVjoy
p11954
aV.
aa(lp11955
Vleader
p11956
aVof
p11957
aVthe
p11958
aVchorus
p11959
aVand
p11960
aVwhat
p11961
aVis
p11962
aVthis
p11963
aVnew
p11964
aVgrief
p11965
aVthat
p11966
aVthou
p11967
aVhast
p11968
aVto
p11969
aVtell
p11970
aVfor
p11971
aVour
p11972
aVprinces
p11973
aV?
aa(lp11974
Vmessenger
p11975
aVdeath
p11976
aV;
aVand
p11977
aVthe
p11978
aVliving
p11979
aVare
p11980
aVguilty
p11981
aVfor
p11982
aVthe
p11983
aVdead
p11984
aV.
aa(lp11985
Vleader
p11986
aVand
p11987
aVwho
p11988
aVis
p11989
aVthe
p11990
aVslayer
p11991
aV?
aa(lp11992
Vwho
p11993
aVthe
p11994
aVstricken
p11995
aV?
aa(lp11996
Vspeak
p11997
aV.
aa(lp11998
Vmessenger
p11999
aVhaemon
p12000
aVhath
p12001
aVperished
p12002
aV;
aVhis
p12003
aVblood
p12004
aVhath
p12005
aVbeen
p12006
aVshed
p12007
aVby
p12008
aVno
p12009
aVstranger
p12010
aV.
aa(lp12011
Vleader
p12012
aVby
p12013
aVhis
p12014
aVfather
p12015
aV's
p12016
aVhand
p12017
aV,
aVor
p12018
aVby
p12019
aVhis
p12020
aVown
p12021
aV?
aa(lp12022
Vmessenger
p12023
aVby
p12024
aVhis
p12025
aVown
p12026
aV,
aVin
p12027
aVwrath
p12028
aVwith
p12029
aVhis
p12030
aVsire
p12031
aVfor
p12032
aVthe
p12033
aVmurder
p12034
aV.
aa(lp12035
Vleader
p12036
aVo
aVprophet
p12037
aV,
aVhow
p12038
aVtrue
p12039
aV,
aVthen
p12040
aV,
aVhast
p12041
aVthou
p12042
aVproved
p12043
aVthy
p12044
aVword
p12045
aV!
aa(lp12046
Vmessenger
p12047
aVthese
p12048
aVthings
p12049
aVstand
p12050
aVthus
p12051
aV;
aVye
p12052
aVmust
p12053
aVconsider
p12054
aVof
p12055
aVthe
p12056
aVrest
p12057
aV.
aa(lp12058
Vleader
p12059
aVlo
p12060
aV,
aVi
aVsee
p12061
aVthe
p12062
aVhapless
p12063
aVeurydice
p12064
aV,
aVcreon
p12065
aV's
p12066
aVwife
p12067
aV,
aVapproaching
p12068
aV;
aVshe
p12069
aVcomes
p12070
aVfrom
p12071
aVthe
p12072
aVhouse
p12073
aVby
p12074
aVchance
p12075
aV,
aVhaply
p12076
aV,
aV-or
p12077
aVbecause
p12078
aVshe
p12079
aVknows
p12080
aVthe
p12081
aVtidings
p12082
aVof
p12083
aVher
p12084
aVson
p12085
aV.
aa(lp12086
Venter
p12087
aVeurydice
p12088
aVfrom
p12089
aVthe
p12090
aVpalace
p12091
aV.
aa(lp12092
Veurydice
p12093
aVpeople
p12094
aVof
p12095
aVthebes
p12096
aV,
aVi
aVheard
p12097
aVyour
p12098
aVwords
p12099
aVas
p12100
aVi
aVwas
p12101
aVgoing
p12102
aVforth
p12103
aV,
aVto
p12104
aVsalute
p12105
aVthe
p12106
aVgoddess
p12107
aVpallas
p12108
aVwith
p12109
aVmy
p12110
aVprayers
p12111
aV.
aa(lp12112
Veven
p12113
aVas
p12114
aVi
aVwas
p12115
aVloosing
p12116
aVthe
p12117
aVfastenings
p12118
aVof
p12119
aVthe
p12120
aVgate
p12121
aV,
aVto
p12122
aVopen
p12123
aVit
p12124
aV,
aVthe
p12125
aVmessage
p12126
aVof
p12127
aVa
aVhousehold
p12128
aVwoe
p12129
aVsmote
p12130
aVon
p12131
aVmine
p12132
aVear
p12133
aV:
aVi
aVsank
p12134
aVback
p12135
aV,
aVterror-stricken
p12136
aV,
aVinto
p12137
aVthe
p12138
aVarms
p12139
aVof
p12140
aVmy
p12141
aVhandmaids
p12142
aV,
aVand
p12143
aVmy
p12144
aVsenses
p12145
aVfled
p12146
aV.
aa(lp12147
Vbut
p12148
aVsay
p12149
aVagain
p12150
aVwhat
p12151
aVthe
p12152
aVtidings
p12153
aVwere
p12154
aV;
aVi
aVshall
p12155
aVhear
p12156
aVthem
p12157
aVas
p12158
aVone
p12159
aVwho
p12160
aVis
p12161
aVno
p12162
aVstranger
p12163
aVto
p12164
aVsorrow
p12165
aV.
aa(lp12166
Vmessenger
p12167
aVdear
p12168
aVlady
p12169
aV,
aVi
aVwill
p12170
aVwitness
p12171
aVof
p12172
aVwhat
p12173
aVi
aVsaw
p12174
aV,
aVand
p12175
aVwill
p12176
aVleave
p12177
aVno
p12178
aVword
p12179
aVof
p12180
aVthe
p12181
aVtruth
p12182
aVuntold
p12183
aV.
aa(lp12184
Vwhy
p12185
aV,
aVindeed
p12186
aV,
aVshould
p12187
aVi
aVsoothe
p12188
aVthee
p12189
aVwith
p12190
aVwords
p12191
aVin
p12192
aVwhich
p12193
aVmust
p12194
aVpresently
p12195
aVbe
p12196
aVfound
p12197
aVfalse
p12198
aV?
aa(lp12199
Vtruth
p12200
aVis
p12201
aVever
p12202
aVbest.-i
p12203
aVattended
p12204
aVthy
p12205
aVlord
p12206
aVas
p12207
aVhis
p12208
aVguide
p12209
aVto
p12210
aVthe
p12211
aVfurthest
p12212
aVpart
p12213
aVof
p12214
aVthe
p12215
aVplain
p12216
aV,
aVwhere
p12217
aVthe
p12218
aVbody
p12219
aVof
p12220
aVpolyneices
p12221
aV,
aVtorn
p12222
aVby
p12223
aVdogs
p12224
aV,
aVstill
p12225
aVlay
p12226
aVunpitied
p12227
aV.
aa(lp12228
Vwe
p12229
aVprayed
p12230
aVthe
p12231
aVgoddess
p12232
aVof
p12233
aVthe
p12234
aVroads
p12235
aV,
aVand
p12236
aVpluto
p12237
aV,
aVin
p12238
aVmercy
p12239
aVto
p12240
aVrestrain
p12241
aVtheir
p12242
aVwrath
p12243
aV;
aVwe
p12244
aVwashed
p12245
aVthe
p12246
aVdead
p12247
aVwith
p12248
aVholy
p12249
aVwashing
p12250
aV;
aVand
p12251
aVwith
p12252
aVfreshly-plucked
p12253
aVboughs
p12254
aVwe
p12255
aVsolemnly
p12256
aVburned
p12257
aVsuch
p12258
aVrelics
p12259
aVas
p12260
aVthere
p12261
aVwere
p12262
aV.
aa(lp12263
Vwe
p12264
aVraised
p12265
aVa
aVhigh
p12266
aVmound
p12267
aVof
p12268
aVhis
p12269
aVnative
p12270
aVearth
p12271
aV;
aVand
p12272
aVthen
p12273
aVwe
p12274
aVturned
p12275
aVaway
p12276
aVto
p12277
aVenter
p12278
aVthe
p12279
aVmaiden
p12280
aV's
p12281
aVnuptial
p12282
aVchamber
p12283
aVwith
p12284
aVrocky
p12285
aVcouch
p12286
aV,
aVthe
p12287
aVcaverned
p12288
aVmansion
p12289
aVof
p12290
aVthe
p12291
aVbride
p12292
aVof
p12293
aVdeath
p12294
aV.
aa(lp12295
Vand
p12296
aV,
aVfrom
p12297
aVafar
p12298
aVoff
p12299
aV,
aVone
p12300
aVof
p12301
aVus
p12302
aVheard
p12303
aVa
aVvoice
p12304
aVof
p12305
aVloud
p12306
aVwailing
p12307
aVat
p12308
aVthat
p12309
aVbride
p12310
aV's
p12311
aVunhallowed
p12312
aVbower
p12313
aV;
aVand
p12314
aVcame
p12315
aVto
p12316
aVtell
p12317
aVour
p12318
aVmaster
p12319
aVcreon
p12320
aV.
aa(lp12321
Vand
p12322
aVas
p12323
aVthe
p12324
aVking
p12325
aVdrew
p12326
aVnearer
p12327
aV,
aVdoubtful
p12328
aVsounds
p12329
aVof
p12330
aVa
aVbitter
p12331
aVcry
p12332
aVfloated
p12333
aVaround
p12334
aVhim
p12335
aV;
aVhe
p12336
aVgroaned
p12337
aV,
aVand
p12338
aVsaid
p12339
aVin
p12340
aVaccents
p12341
aVof
p12342
aVanguish
p12343
aV,
aV'wretched
p12344
aVthat
p12345
aVi
aVam
p12346
aV,
aVcan
p12347
aVmy
p12348
aVforeboding
p12349
aVbe
p12350
aVtrue
p12351
aV?
aa(lp12352
Vam
p12353
aVi
aVgoing
p12354
aVon
p12355
aVthe
p12356
aVwofullest
p12357
aVway
p12358
aVthat
p12359
aVever
p12360
aVi
aVwent
p12361
aV?
aa(lp12362
Vmy
p12363
aVson
p12364
aV's
p12365
aVvoice
p12366
aVgreets
p12367
aVme.-go
p12368
aV,
aVmy
p12369
aVservants
p12370
aV,
aV-haste
p12371
aVye
p12372
aVnearer
p12373
aV,
aVand
p12374
aVwhen
p12375
aVye
p12376
aVhave
p12377
aVreached
p12378
aVthe
p12379
aVtomb
p12380
aV,
aVpass
p12381
aVthrough
p12382
aVthe
p12383
aVgap
p12384
aV,
aVwhere
p12385
aVthe
p12386
aVstones
p12387
aVhave
p12388
aVbeen
p12389
aVwrenched
p12390
aVaway
p12391
aV,
aVto
p12392
aVthe
p12393
aVcell
p12394
aV's
p12395
aVvery
p12396
aVmouth
p12397
aV,
aV-and
p12398
aVlook
p12399
aV.
aa(lp12400
Vand
p12401
aVsee
p12402
aVif
p12403
aV't
p12404
aVis
p12405
aVhaemon
p12406
aV's
p12407
aVvoice
p12408
aVthat
p12409
aVi
aVknow
p12410
aV,
aVor
p12411
aVif
p12412
aVmine
p12413
aVear
p12414
aVis
p12415
aVcheated
p12416
aVby
p12417
aVthe
p12418
aVgods
p12419
aV.
aV'
aa(lp12420
Vthis
p12421
aVsearch
p12422
aV,
aVat
p12423
aVour
p12424
aVdespairing
p12425
aVmaster
p12426
aV's
p12427
aVword
p12428
aV,
aVwe
p12429
aVwent
p12430
aVto
p12431
aVmake
p12432
aV;
aVand
p12433
aVin
p12434
aVthe
p12435
aVfurthest
p12436
aVpart
p12437
aVof
p12438
aVthe
p12439
aVtomb
p12440
aVwe
p12441
aVdescried
p12442
aVher
p12443
aVhanging
p12444
aVby
p12445
aVthe
p12446
aVneck
p12447
aV,
aVslung
p12448
aVby
p12449
aVa
aVthread-wrought
p12450
aVhalter
p12451
aVof
p12452
aVfine
p12453
aVlinen
p12454
aV:
aVwhile
p12455
aVhe
p12456
aVwas
p12457
aVembracing
p12458
aVher
p12459
aVwith
p12460
aVarms
p12461
aVthrown
p12462
aVaround
p12463
aVher
p12464
aVwaist
p12465
aV,
aVbewailing
p12466
aVthe
p12467
aVloss
p12468
aVof
p12469
aVhis
p12470
aVbride
p12471
aVwho
p12472
aVis
p12473
aVwith
p12474
aVthe
p12475
aVdead
p12476
aV,
aVand
p12477
aVhis
p12478
aVfather
p12479
aV's
p12480
aVdeeds
p12481
aV,
aVand
p12482
aVhis
p12483
aVown
p12484
aVill-starred
p12485
aVlove
p12486
aV.
aa(lp12487
Vbut
p12488
aVhis
p12489
aVfather
p12490
aV,
aVwhen
p12491
aVhe
p12492
aVsaw
p12493
aVhim
p12494
aV,
aVcried
p12495
aValoud
p12496
aVwith
p12497
aVa
aVdread
p12498
aVcry
p12499
aVand
p12500
aVwent
p12501
aVin
p12502
aV,
aVand
p12503
aVcalled
p12504
aVto
p12505
aVhim
p12506
aVwith
p12507
aVa
aVvoice
p12508
aVof
p12509
aVwailing
p12510
aV:
aV-'unhappy
p12511
aV,
aVwhat
p12512
aVdeed
p12513
aVhast
p12514
aVthou
p12515
aVdone
p12516
aV!
aa(lp12517
Vwhat
p12518
aVthought
p12519
aVhath
p12520
aVcome
p12521
aVto
p12522
aVthee
p12523
aV?
aa(lp12524
Vwhat
p12525
aVmanner
p12526
aVof
p12527
aVmischance
p12528
aVhath
p12529
aVmarred
p12530
aVthy
p12531
aVreason
p12532
aV?
aa(lp12533
Vcome
p12534
aVforth
p12535
aV,
aVmy
p12536
aVchild
p12537
aV!
aa(lp12538
Vi
aVpray
p12539
aVthee-i
p12540
aVimplore
p12541
aV!
aV'
aa(lp12542
Vbut
p12543
aVthe
p12544
aVboy
p12545
aVglared
p12546
aVat
p12547
aVhim
p12548
aVwith
p12549
aVfierce
p12550
aVeyes
p12551
aV,
aVspat
p12552
aVin
p12553
aVhis
p12554
aVface
p12555
aV,
aVand
p12556
aV,
aVwithout
p12557
aVa
aVword
p12558
aVof
p12559
aVanswer
p12560
aV,
aVdrew
p12561
aVhis
p12562
aVcross-hilted
p12563
aVsword
p12564
aV:
aV-as
p12565
aVhis
p12566
aVfather
p12567
aVrushed
p12568
aVforth
p12569
aVin
p12570
aVflight
p12571
aV,
aVhe
p12572
aVmissed
p12573
aVhis
p12574
aVaim
p12575
aV;
aV-then
p12576
aV,
aVhapless
p12577
aVone
p12578
aV,
aVwroth
p12579
aVwith
p12580
aVhimself
p12581
aV,
aVhe
p12582
aVstraightway
p12583
aVleaned
p12584
aVwith
p12585
aVall
p12586
aVhis
p12587
aVweight
p12588
aVagainst
p12589
aVhis
p12590
aVsword
p12591
aV,
aVand
p12592
aVdrove
p12593
aVit
p12594
aV,
aVhalf
p12595
aVits
p12596
aVlength
p12597
aV,
aVinto
p12598
aVhis
p12599
aVside
p12600
aV;
aVand
p12601
aV,
aVwhile
p12602
aVsense
p12603
aVlingered
p12604
aV,
aVhe
p12605
aVclasped
p12606
aVthe
p12607
aVmaiden
p12608
aVto
p12609
aVhis
p12610
aVfaint
p12611
aVembrace
p12612
aV,
aVand
p12613
aV,
aVas
p12614
aVhe
p12615
aVgasped
p12616
aV,
aVsent
p12617
aVforth
p12618
aVon
p12619
aVher
p12620
aVpale
p12621
aVcheek
p12622
aVthe
p12623
aVswift
p12624
aVstream
p12625
aVof
p12626
aVthe
p12627
aVoozing
p12628
aVblood
p12629
aV.
aa(lp12630
Vcorpse
p12631
aVenfolding
p12632
aVcorpse
p12633
aVhe
p12634
aVlies
p12635
aV;
aVhe
p12636
aVhath
p12637
aVwon
p12638
aVhis
p12639
aVnuptial
p12640
aVrites
p12641
aV,
aVpoor
p12642
aVyouth
p12643
aV,
aVnot
p12644
aVhere
p12645
aV,
aVyet
p12646
aVin
p12647
aVthe
p12648
aVhalls
p12649
aVof
p12650
aVdeath
p12651
aV;
aVand
p12652
aVhe
p12653
aVhath
p12654
aVwitnessed
p12655
aVto
p12656
aVmankind
p12657
aVthat
p12658
aV,
aVof
p12659
aVall
p12660
aVcurses
p12661
aVwhich
p12662
aVcleave
p12663
aVto
p12664
aVman
p12665
aV,
aVill
p12666
aVcounsel
p12667
aVis
p12668
aVthe
p12669
aVsovereign
p12670
aVcurse
p12671
aV.
aa(lp12672
Veurydice
p12673
aVretires
p12674
aVinto
p12675
aVthe
p12676
aVhouse
p12677
aV.
aa(lp12678
Vleader
p12679
aVwhat
p12680
aVwouldst
p12681
aVthou
p12682
aVaugur
p12683
aVfrom
p12684
aVthis
p12685
aV?
aa(lp12686
Vthe
p12687
aVlady
p12688
aVhath
p12689
aVturned
p12690
aVback
p12691
aV,
aVand
p12692
aVis
p12693
aVgone
p12694
aV,
aVwithout
p12695
aVa
aVword
p12696
aV,
aVgood
p12697
aVor
p12698
aVevil
p12699
aV.
aa(lp12700
Vmessenger
p12701
aVi
aV,
aVtoo
p12702
aV,
aVam
p12703
aVstartled
p12704
aV;
aVyet
p12705
aVi
aVnourish
p12706
aVthe
p12707
aVhope
p12708
aVthat
p12709
aV,
aVat
p12710
aVthese
p12711
aVsore
p12712
aVtidings
p12713
aVof
p12714
aVher
p12715
aVson
p12716
aV,
aVshe
p12717
aVcan
p12718
aVnot
p12719
aVdeign
p12720
aVto
p12721
aVgive
p12722
aVher
p12723
aVsorrow
p12724
aVpublic
p12725
aVvent
p12726
aV,
aVbut
p12727
aVin
p12728
aVthe
p12729
aVprivacy
p12730
aVof
p12731
aVthe
p12732
aVhouse
p12733
aVwill
p12734
aVset
p12735
aVher
p12736
aVhandmaids
p12737
aVto
p12738
aVmourn
p12739
aVthe
p12740
aVhousehold
p12741
aVgrief
p12742
aV.
aa(lp12743
Vfor
p12744
aVshe
p12745
aVis
p12746
aVnot
p12747
aVuntaught
p12748
aVof
p12749
aVdiscretion
p12750
aV,
aVthat
p12751
aVshe
p12752
aVshould
p12753
aVerr
p12754
aV.
aa(lp12755
Vleader
p12756
aVi
aVknow
p12757
aVnot
p12758
aV;
aVbut
p12759
aVto
p12760
aVme
p12761
aV,
aVat
p12762
aVleast
p12763
aV,
aVa
aVstrained
p12764
aVsilence
p12765
aVseems
p12766
aVto
p12767
aVportend
p12768
aVperil
p12769
aV,
aVno
p12770
aVless
p12771
aVthan
p12772
aVvain
p12773
aVabundance
p12774
aVof
p12775
aVlament
p12776
aV.
aa(lp12777
Vmessenger
p12778
aVwell
p12779
aV,
aVi
aVwill
p12780
aVenter
p12781
aVthe
p12782
aVhouse
p12783
aV,
aVand
p12784
aVlearn
p12785
aVwhether
p12786
aVindeed
p12787
aVshe
p12788
aVis
p12789
aVnot
p12790
aVhiding
p12791
aVsome
p12792
aVrepressed
p12793
aVpurpose
p12794
aVin
p12795
aVthe
p12796
aVdepths
p12797
aVof
p12798
aVa
aVpassionate
p12799
aVheart
p12800
aV.
aa(lp12801
Vyea
p12802
aV,
aVthou
p12803
aVsayest
p12804
aVwell
p12805
aV:
aVexcess
p12806
aVof
p12807
aVsilence
p12808
aV,
aVtoo
p12809
aV,
aVmay
p12810
aVhave
p12811
aVa
aVperilous
p12812
aVmeaning
p12813
aV.
aa(lp12814
Vthe
p12815
aVmessenger
p12816
aVgoes
p12817
aVinto
p12818
aVthe
p12819
aVpalace
p12820
aV.
aa(lp12821
Venter
p12822
aVcreon
p12823
aV,
aVon
p12824
aVthe
p12825
aVspectators
p12826
aV'
aVleft
p12827
aV,
aVwith
p12828
aVattendants
p12829
aV,
aVcarrying
p12830
aVthe
p12831
aVshrouded
p12832
aVbody
p12833
aVof
p12834
aVhaemon
p12835
aVon
p12836
aVbier
p12837
aV.
aa(lp12838
Vthe
p12839
aVfollowing
p12840
aVlines
p12841
aVbetween
p12842
aVcreon
p12843
aVand
p12844
aVthe
p12845
aVchorus
p12846
aVare
p12847
aVchanted
p12848
aVresponsively
p12849
aV.
aa(lp12850
Vchorus
p12851
aVlo
p12852
aV,
aVyonder
p12853
aVthe
p12854
aVking
p12855
aVhimself
p12856
aVdraws
p12857
aVnear
p12858
aV,
aVbearing
p12859
aVthat
p12860
aVwhich
p12861
aVtells
p12862
aVtoo
p12863
aVclear
p12864
aVa
aVtale
p12865
aV,
aV-the
p12866
aVwork
p12867
aVof
p12868
aVno
p12869
aVstranger
p12870
aV's
p12871
aVmadness
p12872
aV,
aV-if
p12873
aVwe
p12874
aVmay
p12875
aVsay
p12876
aVit
p12877
aV,
aV-but
p12878
aVof
p12879
aVhis
p12880
aVown
p12881
aVmisdeeds
p12882
aV.
aa(lp12883
Vcreon
p12884
aVstrophe
p12885
aV1
aVwoe
p12886
aVfor
p12887
aVthe
p12888
aVsins
p12889
aVof
p12890
aVa
aVdarkened
p12891
aVsoul
p12892
aV,
aVstubborn
p12893
aVsins
p12894
aV,
aVfraught
p12895
aVwith
p12896
aVdeath
p12897
aV!
aa(lp12898
Vah
p12899
aV,
aVye
p12900
aVbehold
p12901
aVus
p12902
aV,
aVthe
p12903
aVsire
p12904
aVwho
p12905
aVhath
p12906
aVslain
p12907
aV,
aVthe
p12908
aVson
p12909
aVwho
p12910
aVhath
p12911
aVperished
p12912
aV!
aa(lp12913
Vwoe
p12914
aVis
p12915
aVme
p12916
aV,
aVfor
p12917
aVthe
p12918
aVwretched
p12919
aVblindness
p12920
aVof
p12921
aVmy
p12922
aVcounsels
p12923
aV!
aa(lp12924
Valas
p12925
aV,
aVmy
p12926
aVson
p12927
aV,
aVthou
p12928
aVhast
p12929
aVdied
p12930
aVin
p12931
aVthy
p12932
aVyouth
p12933
aV,
aVby
p12934
aVa
aVtimeless
p12935
aVdoom
p12936
aV,
aVwoe
p12937
aVis
p12938
aVme
p12939
aV!
aV-thy
p12940
aVspirit
p12941
aVhath
p12942
aVfled
p12943
aV,
aV-not
p12944
aVby
p12945
aVthy
p12946
aVfolly
p12947
aV,
aVbut
p12948
aVby
p12949
aVmine
p12950
aVown
p12951
aV!
aa(lp12952
Vchorus
p12953
aVstrophe
p12954
aV2
aVah
p12955
aVme
p12956
aV,
aVhow
p12957
aVall
p12958
aVtoo
p12959
aVlate
p12960
aVthou
p12961
aVseemest
p12962
aVto
p12963
aVsee
p12964
aVthe
p12965
aVright
p12966
aV!
aa(lp12967
Vcreon
p12968
aVah
p12969
aVme
p12970
aV,
aVi
aVhave
p12971
aVlearned
p12972
aVthe
p12973
aVbitter
p12974
aVlesson
p12975
aV!
aa(lp12976
Vbut
p12977
aVthen
p12978
aV,
aVmethinks
p12979
aV,
aVoh
p12980
aVthen
p12981
aV,
aVsome
p12982
aVgod
p12983
aVsmote
p12984
aVme
p12985
aVfrom
p12986
aVabove
p12987
aVwith
p12988
aVcrushing
p12989
aVweight
p12990
aV,
aVand
p12991
aVhurled
p12992
aVme
p12993
aVinto
p12994
aVways
p12995
aVof
p12996
aVcruelty
p12997
aV,
aVwoe
p12998
aVis
p12999
aVme
p13000
aV,
aV-overthrowing
p13001
aVand
p13002
aVtrampling
p13003
aVon
p13004
aVmy
p13005
aVjoy
p13006
aV!
aa(lp13007
Vwoe
p13008
aV,
aVwoe
p13009
aV,
aVfor
p13010
aVthe
p13011
aVtroublous
p13012
aVtoils
p13013
aVof
p13014
aVmen
p13015
aV!
aa(lp13016
Venter
p13017
aVmessenger
p13018
aVfrom
p13019
aVthe
p13020
aVhouse
p13021
aV.
aa(lp13022
Vmessenger
p13023
aVsire
p13024
aV,
aVthou
p13025
aVhast
p13026
aVcome
p13027
aV,
aVmethinks
p13028
aV,
aVas
p13029
aVone
p13030
aVwhose
p13031
aVhands
p13032
aVare
p13033
aVnot
p13034
aVempty
p13035
aV,
aVbut
p13036
aVwho
p13037
aVhath
p13038
aVstore
p13039
aVlaid
p13040
aVup
p13041
aVbesides
p13042
aV;
aVthou
p13043
aVbearest
p13044
aVyonder
p13045
aVburden
p13046
aVwith
p13047
aVthee-and
p13048
aVthou
p13049
aVart
p13050
aVsoon
p13051
aVto
p13052
aVlook
p13053
aVupon
p13054
aVthe
p13055
aVwoes
p13056
aVwithin
p13057
aVthy
p13058
aVhouse
p13059
aV.
aa(lp13060
Vcreon
p13061
aVand
p13062
aVwhat
p13063
aVworse
p13064
aVill
p13065
aVis
p13066
aVyet
p13067
aVto
p13068
aVfollow
p13069
aVupon
p13070
aVills
p13071
aV?
aa(lp13072
Vmessenger
p13073
aVthy
p13074
aVqueen
p13075
aVhath
p13076
aVdied
p13077
aV,
aVtrue
p13078
aVmother
p13079
aVof
p13080
aVyon
p13081
aVcorpse-ah
p13082
aV,
aVhapless
p13083
aVlady
p13084
aVby
p13085
aVblows
p13086
aVnewly
p13087
aVdealt
p13088
aV.
aa(lp13089
Vcreon
p13090
aVantistrophe
p13091
aV1
aVoh
p13092
aVhades
p13093
aV,
aVall-receiving
p13094
aVwhom
p13095
aVno
p13096
aVsacrifice
p13097
aVcan
p13098
aVappease
p13099
aV!
aa(lp13100
Vhast
p13101
aVthou
p13102
aV,
aVthen
p13103
aV,
aVno
p13104
aVmercy
p13105
aVfor
p13106
aVme
p13107
aV?
aa(lp13108
Vo
aVthou
p13109
aVherald
p13110
aVof
p13111
aVevil
p13112
aV,
aVbitter
p13113
aVtidings
p13114
aV,
aVwhat
p13115
aVword
p13116
aVdost
p13117
aVthou
p13118
aVutter
p13119
aV?
aa(lp13120
Valas
p13121
aV,
aVi
aVwas
p13122
aValready
p13123
aVas
p13124
aVdead
p13125
aV,
aVand
p13126
aVthou
p13127
aVhast
p13128
aVsmitten
p13129
aVme
p13130
aVanew
p13131
aV!
aa(lp13132
Vwhat
p13133
aVsayest
p13134
aVthou
p13135
aV,
aVmy
p13136
aVson
p13137
aV?
aa(lp13138
Vwhat
p13139
aVis
p13140
aVthis
p13141
aVnew
p13142
aVmessage
p13143
aVthat
p13144
aVthou
p13145
aVbringest-woe
p13146
aV,
aVwoe
p13147
aVis
p13148
aVme
p13149
aV!
aV-of
p13150
aVa
aVwife
p13151
aV's
p13152
aVdoom-of
p13153
aVslaughter
p13154
aVheaded
p13155
aVon
p13156
aVslaughter
p13157
aV?
aa(lp13158
Vchorus
p13159
aVthou
p13160
aVcanst
p13161
aVbehold
p13162
aV:
aV't
p13163
aVis
p13164
aVno
p13165
aVlonger
p13166
aVhidden
p13167
aVwithin
p13168
aV.
aa(lp13169
Vthe
p13170
aVdoors
p13171
aVof
p13172
aVthe
p13173
aVpalace
p13174
aVare
p13175
aVopened
p13176
aV,
aVand
p13177
aVthe
p13178
aVcorpse
p13179
aVof
p13180
aVeurydice
p13181
aVis
p13182
aVdisclosed
p13183
aV.
aa(lp13184
Vcreon
p13185
aVantistrophe
p13186
aV2
aVah
p13187
aVme
p13188
aV,
aV-yonder
p13189
aVi
aVbehold
p13190
aVa
aVnew
p13191
aV,
aVa
aVsecond
p13192
aVwoe
p13193
aV!
aa(lp13194
Vwhat
p13195
aVdestiny
p13196
aV,
aVah
p13197
aVwhat
p13198
aV,
aVcan
p13199
aVyet
p13200
aVawait
p13201
aVme
p13202
aV?
aa(lp13203
Vi
aVhave
p13204
aVbut
p13205
aVnow
p13206
aVraised
p13207
aVmy
p13208
aVson
p13209
aVin
p13210
aVmy
p13211
aVarms
p13212
aV,
aV-and
p13213
aVthere
p13214
aV,
aVagain
p13215
aV,
aVi
aVsee
p13216
aVa
aVcorpse
p13217
aVbefore
p13218
aVme
p13219
aV!
aa(lp13220
Valas
p13221
aV,
aValas
p13222
aV,
aVunhappy
p13223
aVmother
p13224
aV!
aa(lp13225
Valas
p13226
aV,
aVmy
p13227
aVchild
p13228
aV!
aa(lp13229
Vmessenger
p13230
aVthere
p13231
aV,
aVat
p13232
aVthe
p13233
aValtar
p13234
aV,
aVself-stabbed
p13235
aVwith
p13236
aVa
aVkeen
p13237
aVknife
p13238
aV,
aVshe
p13239
aVsuffered
p13240
aVher
p13241
aVdarkening
p13242
aVeyes
p13243
aVto
p13244
aVclose
p13245
aV,
aVwhen
p13246
aVshe
p13247
aVhad
p13248
aVwailed
p13249
aVfor
p13250
aVthe
p13251
aVnoble
p13252
aVfate
p13253
aVof
p13254
aVmegareus
p13255
aVwho
p13256
aVdied
p13257
aVbefore
p13258
aV,
aVand
p13259
aVthen
p13260
aVfor
p13261
aVhis
p13262
aVfate
p13263
aVwho
p13264
aVlies
p13265
aVthere
p13266
aV,
aV-and
p13267
aVwhen
p13268
aV,
aVwith
p13269
aVher
p13270
aVlast
p13271
aVbreath
p13272
aV,
aVshe
p13273
aVhad
p13274
aVinvoked
p13275
aVevil
p13276
aVfortunes
p13277
aVupon
p13278
aVthee
p13279
aV,
aVthe
p13280
aVslayer
p13281
aVof
p13282
aVthy
p13283
aVsons
p13284
aV.
aa(lp13285
Vcreon
p13286
aVstrophe
p13287
aV3
aVwoe
p13288
aV,
aVwoe
p13289
aV!
aa(lp13290
Vi
aVthrill
p13291
aVwith
p13292
aVdread
p13293
aV.
aa(lp13294
Vis
p13295
aVthere
p13296
aVnone
p13297
aVto
p13298
aVstrike
p13299
aVme
p13300
aVto
p13301
aVthe
p13302
aVheart
p13303
aVwith
p13304
aVtwo-edged
p13305
aVsword
p13306
aV?
aV-o
p13307
aVmiserable
p13308
aVthat
p13309
aVi
aVam
p13310
aV,
aVand
p13311
aVsteeped
p13312
aVin
p13313
aVmiserable
p13314
aVanguish
p13315
aV!
aa(lp13316
Vmessenger
p13317
aVyea
p13318
aV,
aVboth
p13319
aVthis
p13320
aVson
p13321
aV's
p13322
aVdoom
p13323
aV,
aVand
p13324
aVthat
p13325
aVother
p13326
aV's
p13327
aV,
aVwere
p13328
aVlaid
p13329
aVto
p13330
aVthy
p13331
aVcharge
p13332
aVby
p13333
aVher
p13334
aVwhose
p13335
aVcorpse
p13336
aVthou
p13337
aVseest
p13338
aV.
aa(lp13339
Vcreon
p13340
aVand
p13341
aVwhat
p13342
aVwas
p13343
aVthe
p13344
aVmanner
p13345
aVof
p13346
aVthe
p13347
aVviolent
p13348
aVdeed
p13349
aVby
p13350
aVwhich
p13351
aVshe
p13352
aVpassed
p13353
aVaway
p13354
aV?
aa(lp13355
Vmessenger
p13356
aVher
p13357
aVown
p13358
aVhand
p13359
aVstruck
p13360
aVher
p13361
aVto
p13362
aVthe
p13363
aVheart
p13364
aV,
aVwhen
p13365
aVshe
p13366
aVhad
p13367
aVlearned
p13368
aVher
p13369
aVson
p13370
aV's
p13371
aVsorely
p13372
aVlamented
p13373
aVfate
p13374
aV.
aa(lp13375
Vcreon
p13376
aVstrophe
p13377
aV4
aVah
p13378
aVme
p13379
aV,
aVthis
p13380
aVguilt
p13381
aVcan
p13382
aVnever
p13383
aVbe
p13384
aVfixed
p13385
aVon
p13386
aVany
p13387
aVother
p13388
aVof
p13389
aVmortal
p13390
aVkind
p13391
aV,
aVfor
p13392
aVmy
p13393
aVacquittal
p13394
aV!
aa(lp13395
Vi
aV,
aVeven
p13396
aVi
aV,
aVwas
p13397
aVthy
p13398
aVslayer
p13399
aV,
aVwretched
p13400
aVthat
p13401
aVi
aVam-i
p13402
aVown
p13403
aVthe
p13404
aVtruth
p13405
aV.
aa(lp13406
Vlead
p13407
aVme
p13408
aVaway
p13409
aV,
aVo
aVmy
p13410
aVservants
p13411
aV,
aVlead
p13412
aVme
p13413
aVhence
p13414
aVwith
p13415
aVall
p13416
aVspeed
p13417
aV,
aVwhose
p13418
aVlife
p13419
aVis
p13420
aVbut
p13421
aVas
p13422
aVdeath
p13423
aV!
aa(lp13424
Vchorus
p13425
aVthy
p13426
aVcounsels
p13427
aVare
p13428
aVgood
p13429
aV,
aVif
p13430
aVthere
p13431
aVcan
p13432
aVbe
p13433
aVgood
p13434
aVwith
p13435
aVills
p13436
aV;
aVbriefest
p13437
aVis
p13438
aVbest
p13439
aV,
aVwhen
p13440
aVtrouble
p13441
aVis
p13442
aVin
p13443
aVour
p13444
aVpath
p13445
aV.
aa(lp13446
Vcreon
p13447
aVantistrophe
p13448
aV3
aVoh
p13449
aV,
aVlet
p13450
aVit
p13451
aVcome
p13452
aV,
aVlet
p13453
aVit
p13454
aVappear
p13455
aV,
aVthat
p13456
aVfairest
p13457
aVof
p13458
aVfates
p13459
aVfor
p13460
aVme
p13461
aV,
aVthat
p13462
aVbrings
p13463
aVmy
p13464
aVlast
p13465
aVday
p13466
aV,
aV-aye
p13467
aV,
aVbest
p13468
aVfate
p13469
aVof
p13470
aVall
p13471
aV!
aa(lp13472
Voh
p13473
aV,
aVlet
p13474
aVit
p13475
aVcome
p13476
aV,
aVthat
p13477
aVi
aVmay
p13478
aVnever
p13479
aVlook
p13480
aVupon
p13481
aVto-morrow
p13482
aV's
p13483
aVlight
p13484
aV.
aa(lp13485
Vchorus
p13486
aVthese
p13487
aVthings
p13488
aVare
p13489
aVin
p13490
aVthe
p13491
aVfuture
p13492
aV;
aVpresent
p13493
aVtasks
p13494
aVclaim
p13495
aVour
p13496
aVcare
p13497
aV:
aVthe
p13498
aVordering
p13499
aVof
p13500
aVthe
p13501
aVfuture
p13502
aVrests
p13503
aVwhere
p13504
aVit
p13505
aVshould
p13506
aVrest
p13507
aV.
aa(lp13508
Vcreon
p13509
aVall
p13510
aVmy
p13511
aVdesires
p13512
aV,
aVat
p13513
aVleast
p13514
aV,
aVwere
p13515
aVsummed
p13516
aVin
p13517
aVthat
p13518
aVprayer
p13519
aV.
aa(lp13520
Vchorus
p13521
aVpray
p13522
aVthou
p13523
aVno
p13524
aVmore
p13525
aV;
aVfor
p13526
aVmortals
p13527
aVhave
p13528
aVno
p13529
aVescape
p13530
aVfrom
p13531
aVdestined
p13532
aVwoe
p13533
aV.
aa(lp13534
Vcreon
p13535
aVantistrophe
p13536
aV4
aVlead
p13537
aVme
p13538
aVaway
p13539
aV,
aVi
aVpray
p13540
aVyou
p13541
aV;
aVa
aVrash
p13542
aV,
aVfoolish
p13543
aVman
p13544
aV;
aVwho
p13545
aVhave
p13546
aVslain
p13547
aVthee
p13548
aV,
aVah
p13549
aVmy
p13550
aVson
p13551
aV,
aVunwittingly
p13552
aV,
aVand
p13553
aVthee
p13554
aV,
aVtoo
p13555
aV,
aVmy
p13556
aVwife-unhappy
p13557
aVthat
p13558
aVi
aVam
p13559
aV!
aa(lp13560
Vi
aVknow
p13561
aVnot
p13562
aVwhich
p13563
aVway
p13564
aVi
aVshould
p13565
aVbend
p13566
aVmy
p13567
aVgaze
p13568
aV,
aVor
p13569
aVwhere
p13570
aVi
aVshould
p13571
aVseek
p13572
aVsupport
p13573
aV;
aVfor
p13574
aVall
p13575
aVis
p13576
aVamiss
p13577
aVwith
p13578
aVthat
p13579
aVwhich
p13580
aVis
p13581
aVin
p13582
aVmy
p13583
aVhands
p13584
aV,
aV-and
p13585
aVyonder
p13586
aV,
aVagain
p13587
aV,
aVa
aVcrushing
p13588
aVfate
p13589
aVhath
p13590
aVleapt
p13591
aVupon
p13592
aVmy
p13593
aVhead
p13594
aV.
aa(lp13595
Vas
p13596
aVcreon
p13597
aVis
p13598
aVbeing
p13599
aVconducted
p13600
aVinto
p13601
aVthe
p13602
aVpalace
p13603
aV,
aVthe
p13604
aVleader
p13605
aVof
p13606
aVthe
p13607
aVchorus
p13608
aVspeaks
p13609
aVthe
p13610
aVclosing
p13611
aVverses
p13612
aV.
aa(lp13613
Vleader
p13614
aVwisdom
p13615
aVis
p13616
aVthe
p13617
aVsupreme
p13618
aVpart
p13619
aVof
p13620
aVhappiness
p13621
aV;
aVand
p13622
aVreverence
p13623
aVtowards
p13624
aVthe
p13625
aVgods
p13626
aVmust
p13627
aVbe
p13628
aVinviolate
p13629
aV.
aa(lp13630
Vgreat
p13631
aVwords
p13632
aVof
p13633
aVprideful
p13634
aVmen
p13635
aVare
p13636
aVever
p13637
aVpunished
p13638
aVwith
p13639
aVgreat
p13640
aVblows
p13641
aV,
aVand
p13642
aV,
aVin
p13643
aVold
p13644
aVage
p13645
aV,
aVteach
p13646
aVthe
p13647
aVchastened
p13648
aVto
p13649
aVbe
p13650
aVwise
p13651
aV.
aasb.