ccopy_reg
_reconstructor
p1
(cData.Book
Book
p2
c__builtin__
object
p3
NtRp4
(dp5
S'stored_object'
p6
S'Books/The_Fault_in_Our_Stars/Book_object.p'
p7
sS'title'
p8
S'The Fault in Our Stars'
p9
sS'main_text_path'
p10
S'Books/The_Fault_in_Our_Stars/main_cleaned.txt'
p11
sS'metadata_path'
p12
S'Books/The_Fault_in_Our_Stars/meta_data.csv'
p13
sS'book_path'
p14
S'Books/The_Fault_in_Our_Stars/'
p15
sS'characters'
p16
(dp17
S'monica'
p18
(dp19
S'list'
p20
(lp21
(lp22
V[
aVCHARACTER
p23
aV]
aV-
aVisaac
p24
aV's
p25
aVgirlfriend
p26
aVand
p27
aVthen
p28
aVex-girlfriend
p29
aV.
aa(lp30
V[
aVCHARACTER
p31
aV]
aVbreaks
p32
aVup
p33
aVwith
p34
aVisaac
p35
aVprior
p36
aVto
p37
aVhis
p38
aVsurgery
p39
aVto
p40
aVremove
p41
aVhis
p42
aVremaining
p43
aVeye
p44
aV.
aasS'relevant_text'
p45
(lp46
(lp47
(lp48
Vhan
p49
aVblind
p50
aVif
p51
aVi
aVhad
p52
aVthe
p53
aVchoice
p54
aV,
aVwhich
p55
aVi
aVrealize
p56
aVi
aVdo
p57
aVn't
p58
aVhave
p59
aV,
aV'
aVand
p60
aVhe
p61
aVsaid
p62
aV,
aV'well
p63
aV,
aVthe
p64
aVgood
p65
aVnews
p66
aVis
p67
aVthat
p68
aVyou
p69
aVwo
p70
aVn't
p71
aVbe
p72
aVdeaf
p73
aV,
aV'
aVand
p74
aVi
aVwas
p75
aVlike
p76
aV,
aV'thank
p77
aVyou
p78
aVfor
p79
aVexplaining
p80
aVthat
p81
aVmy
p82
aVeye
p83
aVcancer
p84
aVis
p85
aVn't
p86
aVgoing
p87
aVto
p88
aVmake
p89
aVme
p90
aVdeaf
p91
aV.
aa(lp92
Vi
aVfeel
p93
aVso
p94
aVfortunate
p95
aVthat
p96
aVan
p97
aVintellectual
p98
aVgiant
p99
aVlike
p100
aVyourself
p101
aVwould
p102
aVdeign
p103
aVto
p104
aVoperate
p105
aVon
p106
aVme
p107
aV.
aV'
aV''
p108
aa(lp109
V``
p110
aVhe
p111
aVsounds
p112
aVlike
p113
aVa
aVwinner
p114
aV,
aV''
p115
aVi
aVsaid
p116
aV.
aa(lp117
V``
p118
aVi
aV'm
p119
aVgon
p120
aVna
p121
aVtry
p122
aVto
p123
aVget
p124
aVme
p125
aVsome
p126
aVeye
p127
aVcancer
p128
aVjust
p129
aVso
p130
aVi
aVcan
p131
aVmake
p132
aVthis
p133
aVguy
p134
aV's
p135
aVacquain-
p136
aVtance
p137
aV.
aV''
p138
aa(lp139
V15
p140
aVjohn
p141
aVgreen
p142
aV''
p143
aVgood
p144
aVluck
p145
aVwith
p146
aVthat
p147
aV.
aa(lp148
Vall
p149
aVright
p150
aV,
aVi
aVshould
p151
aVgo
p152
aV.
aa(lp153
Vmonica's
p154
aVwaiting
p155
aVfor
p156
aVme
p157
aV.
aa(lp158
Vi
aVgot
p159
aVta
p160
aVlook
p161
aVat
p162
aVher
p163
aVa
aVlot
p164
aVwhile
p165
aVi
aVcan
p166
aV.
aV''
p167
aa(lp168
V``
p169
aVcounterinsurgence
p170
aVtomorrow
p171
aV?
aV''
p172
aa(lp173
Vaugustus
p174
aVasked
p175
aV.
aa(lp176
V``
p177
aVdefinitely
p178
aV.
aV''
p179
aa(lp180
Visaac
p181
aVturned
p182
aVand
p183
aVran
p184
aVup
p185
aVthe
p186
aVstairs
p187
aV,
aVtaking
p188
aVthem
p189
aVtwo
p190
aVat
p191
aVa
aVtime
p192
aV.
aa(lp193
Vaugustus
p194
aVwaters
p195
aVturned
p196
aVto
p197
aVme
p198
aV.
aa(lp199
V``
p200
aVliterally
p201
aV,
aV''
p202
aVhe
p203
aVsaid
p204
aV.
aa(lp205
V``
p206
aVliterally
p207
aV?
aV''
p208
aa(lp209
Vi
aVasked
p210
aV.
aa(lp211
V``
p212
aVwe
p213
aVare
p214
aVliterally
p215
aVin
p216
aVthe
p217
aVheart
p218
aVof
p219
aVjesus
p220
aV,
aV''
p221
aVhe
p222
aVsaid
p223
aV.
aa(lp224
V``
p225
aVi
aVthought
p226
aVwe
p227
aVwere
p228
aVin
p229
aVa
aVchurch
p230
aVbasement
p231
aV,
aVbut
p232
aVwe
p233
aVare
p234
aVliterally
p235
aVin
p236
aVthe
p237
aVheart
p238
aVof
p239
aVjesus
p240
aV.
aV''
p241
aa(lp242
V``
p243
aVsomeone
p244
aVshould
p245
aVtell
p246
aVjesus
p247
aV,
aV''
p248
aVi
aVsaid
p249
aV.
aa(lp250
V``
p251
aVi
aVmean
p252
aV,
aVit
p253
aV's
p254
aVgot
p255
aVta
p256
aVbe
p257
aVdangerous
p258
aV,
aVstoring
p259
aVchildren
p260
aVwith
p261
aVcancer
p262
aVi
aaa(lp263
(lp264
Vying
p265
aV,
aV``
p266
aValways
p267
aV,
aV''
p268
aVand
p269
aVher
p270
aVsaying
p271
aV,
aV``
p272
aValways
p273
aV,
aV''
p274
aVin
p275
aVreturn
p276
aV.
aa(lp277
Vsuddenly
p278
aVstanding
p279
aVnext
p280
aVto
p281
aVme
p282
aV,
aVaugustus
p283
aVhalf
p284
aVwhispered
p285
aV,
aV``
p286
aVthey
p287
aV're
p288
aVbig
p289
aVbelievers
p290
aVin
p291
aVpda
p292
aV.
aV''
p293
aa(lp294
V``
p295
aVwhat
p296
aV's
p297
aVwith
p298
aVthe
p299
aV'always
p300
aV'
aV?
aV''
p301
aa(lp302
Vthe
p303
aVslurping
p304
aVsounds
p305
aVintensified
p306
aV.
aa(lp307
V``
p308
aValways
p309
aVis
p310
aVtheir
p311
aVthing
p312
aV.
aa(lp313
Vthey
p314
aV'll
p315
aValways
p316
aVlove
p317
aVeach
p318
aVother
p319
aVand
p320
aVwhatever
p321
aV.
aa(lp322
Vi
aVwould
p323
aVconservatively
p324
aVestimate
p325
aVthey
p326
aVhave
p327
aVtexted
p328
aVeach
p329
aVother
p330
aVthe
p331
aVword
p332
aValways
p333
aVfour
p334
aVmillion
p335
aVtimes
p336
aVin
p337
aVthe
p338
aVlast
p339
aVyear
p340
aV.
aV''
p341
aa(lp342
Va
aVcouple
p343
aVmore
p344
aVcars
p345
aVdrove
p346
aVup
p347
aV,
aVtaking
p348
aVmichael
p349
aVand
p350
aValisa
p351
aVaway
p352
aV.
aa(lp353
Vit
p354
aVwas
p355
aVjust
p356
aVaugustus
p357
aVand
p358
aVme
p359
aVnow
p360
aV,
aVwatching
p361
aVisaac
p362
aVand
p363
aVmonica
p364
aV,
aVwho
p365
aVproceeded
p366
aVapace
p367
aVas
p368
aVif
p369
aVthey
p370
aVwere
p371
aVnot
p372
aVleaning
p373
aV18
p374
aVthe
p375
aVfault
p376
aVin
p377
aVour
p378
aVstars
p379
aVagainst
p380
aVa
aVplace
p381
aVof
p382
aVworship
p383
aV.
aa(lp384
Vhis
p385
aVhand
p386
aVreached
p387
aVfor
p388
aVher
p389
aVboob
p390
aVover
p391
aVher
p392
aVshirt
p393
aVand
p394
aVpawed
p395
aVat
p396
aVit
p397
aV,
aVhis
p398
aVpalm
p399
aVstill
p400
aVwhile
p401
aVhis
p402
aVfingers
p403
aVmoved
p404
aVaround
p405
aV.
aa(lp406
Vi
aVwondered
p407
aVif
p408
aVthat
p409
aVfelt
p410
aVgood
p411
aV.
aa(lp412
Vdid
p413
aVn't
p414
aVseem
p415
aVlike
p416
aVit
p417
aVwould
p418
aV,
aVbut
p419
aVi
aVdecided
p420
aVto
p421
aVforgive
p422
aVisaac
p423
aVon
p424
aVthe
p425
aVgrounds
p426
aVthat
p427
aVhe
p428
aVwas
p429
aVgoing
p430
aVblind
p431
aV.
aa(lp432
Vthe
p433
aVsenses
p434
aVmust
p435
aVfeast
p436
aVwhile
p437
aVthere
p438
aVis
p439
aVyet
p440
aVhunger
p441
aVand
p442
aVwhatever
p443
aV.
aa(lp444
V``
p445
aVimagine
p446
aVtaking
p447
aVthat
p448
aVlast
p449
aVdrive
p450
aVto
p451
aVthe
p452
aVhospital
p453
aV,
aV''
p454
aVi
aVsaid
p455
aVquietly
p456
aV.
aa(lp457
V``
p458
aVthe
p459
aVlast
p460
aVtime
p461
aVyou
p462
aV'll
p463
aaasS'analysis'
p464
NssS'peter van houten'
p465
(dp466
g20
(lp467
(lp468
V[
aVCHARACTER
p469
aV]
aV-
aVthe
p470
aVinfamous
p471
aVauthor
p472
aVof
p473
aVan
p474
aVimperial
p475
aVaffliction
p476
aV.
aa(lp477
Vhazel
p478
aVand
p479
aVaugustus
p480
aVlearn
p481
aVhe
p482
aVis
p483
aVa
aVverbose
p484
aVand
p485
aVbrash
p486
aVdrunkard
p487
aVwho
p488
aVpretentiously
p489
aVdeflects
p490
aVemotion
p491
aVwith
p492
aVwalls
p493
aVof
p494
aVintellectualism
p495
aVand
p496
aVcruelty
p497
aV.
aasg45
(lp498
(lp499
(lp500
Vall
p501
aVof
p502
aVthis
p503
aV''
p504
aV\u2014
aVi
aVgestured
p505
aVencompassingly\u2014
p506
aV``
p507
aVwill
p508
aVhave
p509
aVbeen
p510
aVfor
p511
aVnaught
p512
aV.
aa(lp513
Vmaybe
p514
aVthat
p515
aVtime
p516
aVis
p517
aVcoming
p518
aVsoon
p519
aVand
p520
aVmaybe
p521
aVit
p522
aVis
p523
aVmillions
p524
aVof
p525
aVyears
p526
aVaway
p527
aV,
aVbut
p528
aVeven
p529
aVif
p530
aVwe
p531
aVsurvive
p532
aVthe
p533
aVcollapse
p534
aVof
p535
aVour
p536
aVsun
p537
aV,
aVwe
p538
aVwill
p539
aVnot
p540
aVsurvive
p541
aVforever
p542
aV.
aa(lp543
Vthere
p544
aVwas
p545
aVtime
p546
aVbefore
p547
aVorganisms
p548
aVexperienced
p549
aVconsciousness
p550
aV,
aVand
p551
aVthere
p552
aVwill
p553
aVbe
p554
aVtime
p555
aVafter
p556
aV.
aa(lp557
Vand
p558
aVif
p559
aVthe
p560
aVinevitability
p561
aVof
p562
aVhuman
p563
aVoblivion
p564
aVworries
p565
aVyou
p566
aV,
aVi
aVencourage
p567
aVyou
p568
aVto
p569
aVignore
p570
aVit
p571
aV.
aa(lp572
Vgod
p573
aVknows
p574
aVthat
p575
aV's
p576
aVwhat
p577
aVeveryone
p578
aVelse
p579
aVdoes
p580
aV.
aV''
p581
aa(lp582
Vi
aV'd
p583
aVlearned
p584
aVthis
p585
aVfrom
p586
aVmy
p587
aVaforementioned
p588
aVthird
p589
aVbest
p590
aVfriend
p591
aV,
aVpeter
p592
aVvan
p593
aVhouten
p594
aV,
aVthe
p595
aVreclusive
p596
aVauthor
p597
aVof
p598
aVan
p599
aVimperial
p600
aVaffliction
p601
aV,
aVthe
p602
aVbook
p603
aVthat
p604
aVwas
p605
aVas
p606
aVclose
p607
aVa
aVthing
p608
aVas
p609
aVi
aVhad
p610
aVto
p611
aVa
aVbible
p612
aV.
aa(lp613
Vpeter
p614
aVvan
p615
aVhouten
p616
aVwas
p617
aVthe
p618
aVonly
p619
aVperson
p620
aVi
aV'd
p621
aVever
p622
aVcome
p623
aVacross
p624
aVwho
p625
aVseemed
p626
aVto
p627
aV(
aVa
aV)
aVunderstand
p628
aVwhat
p629
aVit
p630
aV's
p631
aVlike
p632
aVto
p633
aVbe
p634
aVdying
p635
aV,
aVand
p636
aV(
aVb
aV)
aVnot
p637
aVhave
p638
aVdied
p639
aV.
aa(lp640
Vafter
p641
aVi
aVfinished
p642
aV,
aVthere
p643
aVwas
p644
aVquite
p645
aVa
aVlong
p646
aVperiod
p647
aVof
p648
aVsilence
p649
aVas
p650
aVi
aVwatched
p651
aVa
aVsmile
p652
aVspread
p653
aVall
p654
aVthe
p655
aVway
p656
aVacross
p657
aVaugustus's
p658
aVface\u2014
p659
aVnot
p660
aVthe
p661
aVlittle
p662
aVcrooked
p663
aVsmile
p664
aVof
p665
aVthe
p666
aVboy
p667
aVtrying
p668
aVto
p669
aVbe
p670
aVsexy
p671
aVwhile
p672
aVhe
p673
aVstared
p674
aVat
p675
aVme
p676
aV,
aVbut
p677
aVhis
p678
aVreal
p679
aVsmile
p680
aV,
aVtoo
p681
aVbig
p682
aVfor
p683
aVhis
p684
aVface
p685
aV.
aa(lp686
V``
p687
aVgoddam
p688
aaasg464
NssS'kaitlyn'
p689
(dp690
g20
(lp691
(lp692
V[
aVCHARACTER
p693
aV]
aV-
aVhazel
p694
aV's
p695
aVfriend
p696
aVand
p697
aVformer
p698
aVschoolmate
p699
aV.
aa(lp700
Vshe
p701
aVis
p702
aVpretty
p703
aV,
aVpopular
p704
aV,
aVand
p705
aVexemplifies
p706
aVwhat
p707
aVhazel
p708
aVmight
p709
aVhave
p710
aVbeen
p711
aVlike
p712
aVif
p713
aVshe
p714
aVhad
p715
aVn't
p716
aVbeen
p717
aVdiagnosed
p718
aVwith
p719
aVcancer
p720
aVand
p721
aVleft
p722
aVschool
p723
aV.
aa(lp724
Vthough
p725
aVthey
p726
aVare
p727
aVstill
p728
aVfriends
p729
aV,
aVthere
p730
aVis
p731
aVa
aVpalpable
p732
aVdistance
p733
aVbetween
p734
aVthe
p735
aVtwo
p736
aVgirls
p737
aV,
aVwho
p738
aVoccupy
p739
aVsuch
p740
aVdivergent
p741
aVworlds
p742
aV.
aasg45
(lp743
(lp744
asg464
NssS'patrick'
p745
(dp746
g20
(lp747
(lp748
V[
aVCHARACTER
p749
aV]
aV-
aVthe
p750
aVleader
p751
aVand
p752
aVsole
p753
aVadult
p754
aVat
p755
aVsupport
p756
aVgroup
p757
aV.
aa(lp758
Vhe
p759
aVis
p760
aVnoted
p761
aVfor
p762
aVhis
p763
aVwarmth
p764
aVand
p765
aVunequivocal
p766
aVoptimism
p767
aV.
aa(lp768
Vas
p769
aVa
aVconsequence
p770
aVof
p771
aVcancer
p772
aV[
aVCHARACTER
p773
aV]
aVlost
p774
aVboth
p775
aVof
p776
aVhis
p777
aVtesticles
p778
aV,
aVwhich
p779
aVprovides
p780
aVsome
p781
aVof
p782
aVthe
p783
aVmore
p784
aVcynical
p785
aVgroup
p786
aVmembers
p787
aVwith
p788
aVa
aVbit
p789
aVof
p790
aVcomic
p791
aVrelief
p792
aV.
aasg45
(lp793
(lp794
(lp795
Vld
p796
aVattend
p797
aVa
aVweekly
p798
aVsupport
p799
aVgroup
p800
aV.
aa(lp801
Vthis
p802
aVsupport
p803
aVgroup
p804
aVfeatured
p805
aVa
aVrotating
p806
aVcast
p807
aVof
p808
aVcharac-
p809
aVters
p810
aVin
p811
aVvarious
p812
aVstates
p813
aVof
p814
aVtumor-driven
p815
aVunwellness
p816
aV.
aa(lp817
Vwhy
p818
aVdid
p819
aVthe
p820
aVcast
p821
aVrotate
p822
aV?
aa(lp823
Va
aVside
p824
aVeffect
p825
aVof
p826
aVdying
p827
aV.
aa(lp828
Vthe
p829
aVsupport
p830
aVgroup
p831
aV,
aVof
p832
aVcourse
p833
aV,
aVwas
p834
aVdepressing
p835
aVas
p836
aVhell
p837
aV.
aa(lp838
Vit
p839
aVmet
p840
aVevery
p841
aVwednesday
p842
aVin
p843
aVthe
p844
aVbasement
p845
aVof
p846
aVa
aVstone-walled
p847
aVepiscopal
p848
aVchurch
p849
aVshaped
p850
aVlike
p851
aVa
aVcross
p852
aV.
aa(lp853
Vwe
p854
aVall
p855
aVsat
p856
aVin
p857
aVa
aVcircle
p858
aVright
p859
aVin
p860
aVthe
p861
aVmiddle
p862
aVof
p863
aVthe
p864
aVcross
p865
aV,
aVwhere
p866
aVthe
p867
aVtwo
p868
aVboards
p869
aVwould
p870
aVhave
p871
aVmet
p872
aV,
aVwhere
p873
aVthe
p874
aVheart
p875
aVof
p876
aVjesus
p877
aVwould
p878
aVhave
p879
aVbeen
p880
aV.
aa(lp881
Vi
aVnoticed
p882
aVthis
p883
aVbecause
p884
aVpatrick
p885
aV,
aVthe
p886
aVsupport
p887
aVgroup
p888
aVleader
p889
aVand
p890
aVonly
p891
aVperson
p892
aVover
p893
aVeighteen
p894
aVin
p895
aVthe
p896
aVroom
p897
aV,
aVtalked
p898
aVabout
p899
aVthe
p900
aVheart
p901
aVof
p902
aVjesus
p903
aVevery
p904
aVfreaking
p905
aVmeeting
p906
aV,
aVall
p907
aVabout
p908
aVhow
p909
aVwe
p910
aV,
aVas
p911
aVyoung
p912
aVcancer
p913
aVsurvivors
p914
aV,
aVwere
p915
aVsitting
p916
aVright
p917
aVin
p918
aVchrist
p919
aV's
p920
aVvery
p921
aVsacred
p922
aVheart
p923
aVand
p924
aVwhatever
p925
aV.
aa(lp926
Vso
p927
aVhere
p928
aV's
p929
aVhow
p930
aVit
p931
aVwent
p932
aVin
p933
aVgod
p934
aV's
p935
aVheart
p936
aV:
aVthe
p937
aVsix
p938
aVor
p939
aVseven
p940
aVor
p941
aVten
p942
aVof
p943
aVus
p944
aVwalked/wheeled
p945
aVin
p946
aV,
aVgrazed
p947
aVat
p948
aVa
aVdecrepit
p949
aVselection
p950
aVof
p951
aVcookies
p952
aVand
p953
aVlemonade
p954
aV,
aVsat
p955
aVdown
p956
aVin
p957
aVthe
p958
aVcircle
p959
aVof
p960
aVtrust
p961
aV,
aVand
p962
aVlistened
p963
aVto
p964
aVpatrick
p965
aVrecount
p966
aVfor
p967
aVthe
p968
aVthousandth
p969
aVtime
p970
aVhis
p971
aVdepressingly
p972
aVmiserable
p973
aVlife
p974
aVs
aaa(lp975
(lp976
Vl
aVdo
p977
aV,
aVfor
p978
aVthe
p979
aVsword
p980
aVof
p981
aVdamocles
p982
aVto
p983
aVgive
p984
aVhim
p985
aVthe
p986
aVrelief
p987
aVthat
p988
aVhe
p989
aVescaped
p990
aVlo
p991
aVthose
p992
aVmany
p993
aVyears
p994
aVago
p995
aVwhen
p996
aVcancer
p997
aVtook
p998
aVboth
p999
aVof
p1000
aVhis
p1001
aVnuts
p1002
aVbut
p1003
aVspared
p1004
aVwhat
p1005
aVonly
p1006
aVthe
p1007
aVmost
p1008
aVgenerous
p1009
aVsoul
p1010
aVwould
p1011
aVcall
p1012
aVhis
p1013
aVlife
p1014
aV.
aa(lp1015
Vand
p1016
aVyou
p1017
aVtoo
p1018
aVmight
p1019
aVbe
p1020
aVso
p1021
aVlucky
p1022
aV!
aa(lp1023
Vthen
p1024
aVwe
p1025
aVintroduced
p1026
aVourselves
p1027
aV:
aVname
p1028
aV.
aa(lp1029
Vage
p1030
aV.
aa(lp1031
Vdiagnosis
p1032
aV.
aa(lp1033
Vand
p1034
aVhow
p1035
aVwe
p1036
aV're
p1037
aVdoing
p1038
aVtoday
p1039
aV.
aa(lp1040
Vi
aV'm
p1041
aVhazel
p1042
aV,
aVi
aV'd
p1043
aVsay
p1044
aVwhen
p1045
aVthey'd
p1046
aVget
p1047
aVto
p1048
aVme
p1049
aV.
aa(lp1050
Vsixteen
p1051
aV.
aa(lp1052
Vthyroid
p1053
aVoriginally
p1054
aVbut
p1055
aVwith
p1056
aVan
p1057
aVimpres-
p1058
aVsive
p1059
aVand
p1060
aVlong-settled
p1061
aVsatellite
p1062
aVcolony
p1063
aVin
p1064
aVmy
p1065
aVlungs
p1066
aV.
aa(lp1067
Vand
p1068
aVi'm
p1069
aVdoing
p1070
aVokay
p1071
aV.
aa(lp1072
Vonce
p1073
aVwe
p1074
aVgot
p1075
aVaround
p1076
aVthe
p1077
aVcircle
p1078
aV,
aVpatrick
p1079
aValways
p1080
aVasked
p1081
aVif
p1082
aVanyone
p1083
aVwanted
p1084
aVto
p1085
aVshare
p1086
aV.
aa(lp1087
Vand
p1088
aVthen
p1089
aVbegan
p1090
aVthe
p1091
aVcircle
p1092
aVjerk
p1093
aVof
p1094
aVsupport
p1095
aV:
aVeveryone
p1096
aVtalking
p1097
aVabout
p1098
aVfighting
p1099
aVand
p1100
aVbattling
p1101
aVand
p1102
aVwinning
p1103
aVand
p1104
aVshrinking
p1105
aVand
p1106
aVscanning
p1107
aV.
aa(lp1108
Vto
p1109
aVbe
p1110
aVfair
p1111
aVto
p1112
aVpatrick
p1113
aV,
aVhe
p1114
aVlet
p1115
aVus
p1116
aVtalk
p1117
aVabout
p1118
aVdying
p1119
aV,
aVtoo
p1120
aV.
aa(lp1121
Vbut
p1122
aVmost
p1123
aVof
p1124
aVthem
p1125
aVweren't
p1126
aVdying
p1127
aV.
aa(lp1128
Vmost
p1129
aVwould
p1130
aVlive
p1131
aVinto
p1132
aVadulthood
p1133
aV,
aVas
p1134
aVpatrick
p1135
aVhad
p1136
aV.
aa(lp1137
V(
aVwhich
p1138
aVmeant
p1139
aVthere
p1140
aVwas
p1141
aVquite
p1142
aVa
aVlot
p1143
aVof
p1144
aVcompetitiveness
p1145
aVabout
p1146
aVit
p1147
aV,
aVwith
p1148
aVeverybody
p1149
aVwanting
p1150
aVto
p1151
aVbeat
p1152
aVnot
p1153
aVonly
p1154
aVcancer
p1155
aVitself
p1156
aV,
aVbut
p1157
aValso
p1158
aVthe
p1159
aVother
p1160
aVpeople
p1161
aVin
p1162
aVthe
p1163
aVroom
p1164
aV.
aa(lp1165
Vlike
p1166
aV,
aVi
aVrealize
p1167
aVthat
p1168
aVthis
p1169
aVis
p1170
aVirratio
p1171
aaa(lp1172
(lp1173
Vstill
p1174
aVon
p1175
aVme
p1176
aV.
aa(lp1177
Vit
p1178
aVoccurred
p1179
aVto
p1180
aVme
p1181
aVwhy
p1182
aVthey
p1183
aVcall
p1184
aVit
p1185
aVeye
p1186
aVcontact
p1187
aV.
aa(lp1188
Vi
aVwalked
p1189
aVinto
p1190
aVthe
p1191
aVcircle
p1192
aVand
p1193
aVsat
p1194
aVdown
p1195
aVnext
p1196
aVto
p1197
aVisaac
p1198
aV,
aVtwo
p1199
aVseats
p1200
aVaway
p1201
aVfrom
p1202
aVthe
p1203
aVboy
p1204
aV.
aa(lp1205
Vi
aVglanced
p1206
aVagain
p1207
aV.
aa(lp1208
Vhe
p1209
aVwas
p1210
aVstill
p1211
aVwatching
p1212
aVme
p1213
aV.
aa(lp1214
Vlook
p1215
aV,
aVlet
p1216
aVme
p1217
aVjust
p1218
aVsay
p1219
aVit
p1220
aV:
aVhe
p1221
aVwas
p1222
aVhot
p1223
aV.
aa(lp1224
Va
aVnonhot
p1225
aVboy
p1226
aVstares
p1227
aVat
p1228
aVyou
p1229
aVrelentlessly
p1230
aVand
p1231
aVit
p1232
aVis
p1233
aV,
aVat
p1234
aVbest
p1235
aV,
aVawkward
p1236
aVand
p1237
aV,
aVat
p1238
aVworst
p1239
aV,
aVa
aVform
p1240
aVof
p1241
aVassault
p1242
aV.
aa(lp1243
Vbut
p1244
aVa
aVhot
p1245
aVboy
p1246
aV.
aa(lp1247
V.
aa(lp1248
V.
aa(lp1249
Vwell
p1250
aV.
aa(lp1251
Vi
aVpulled
p1252
aVout
p1253
aVmy
p1254
aVphone
p1255
aVand
p1256
aVclicked
p1257
aVit
p1258
aVso
p1259
aVit
p1260
aVwould
p1261
aVdis-
p1262
aVplay
p1263
aVthe
p1264
aVtime
p1265
aV:
aV4:59.
p1266
aVthe
p1267
aVcircle
p1268
aVfilled
p1269
aVin
p1270
aVwith
p1271
aVthe
p1272
aVunlucky
p1273
aVtwelve-to-eighteens
p1274
aV,
aVand
p1275
aVthen
p1276
aVpatrick
p1277
aVstarted
p1278
aVus
p1279
aVout
p1280
aVwith
p1281
aVthe
p1282
aVserenity
p1283
aVprayer
p1284
aV:
aVgod
p1285
aV,
aVgrant
p1286
aVme
p1287
aVthe
p1288
aVserenity
p1289
aVto
p1290
aVaccept
p1291
aVthe
p1292
aVthings
p1293
aV9
aVjohn
p1294
aVgreen
p1295
aVi
aVcan
p1296
aVnot
p1297
aVchange
p1298
aV,
aVthe
p1299
aVcourage
p1300
aVto
p1301
aVchange
p1302
aVthe
p1303
aVthings
p1304
aVi
aVcan
p1305
aV,
aVand
p1306
aVthe
p1307
aVwis-
p1308
aVdom
p1309
aVto
p1310
aVknow
p1311
aVthe
p1312
aVdifference
p1313
aV.
aa(lp1314
Vthe
p1315
aVguy
p1316
aVwas
p1317
aVstill
p1318
aVstaring
p1319
aVat
p1320
aVme
p1321
aV.
aa(lp1322
Vi
aVfelt
p1323
aVrather
p1324
aVblushy
p1325
aV.
aa(lp1326
Vfinally
p1327
aV,
aVi
aVdecided
p1328
aVthat
p1329
aVthe
p1330
aVproper
p1331
aVstrategy
p1332
aVwas
p1333
aVto
p1334
aVstare
p1335
aVback
p1336
aV.
aa(lp1337
Vboys
p1338
aVdo
p1339
aVnot
p1340
aVhave
p1341
aVa
aVmonopoly
p1342
aVon
p1343
aVthe
p1344
aVstaring
p1345
aVbusiness
p1346
aV,
aVafter
p1347
aVall
p1348
aV.
aa(lp1349
Vso
p1350
aVi
aVlooked
p1351
aVhim
p1352
aVover
p1353
aVas
p1354
aVpatrick
p1355
aVacknowledged
p1356
aVfor
p1357
aVthe
p1358
aVthousandth
p1359
aVtime
p1360
aVhis
p1361
aVball-lessness
p1362
aVetc.
p1363
aV,
aVand
p1364
aVsoon
p1365
aVit
p1366
aVwa
p1367
aaa(lp1368
(lp1369
Vs
aVa
aVstaring
p1370
aVcontest
p1371
aV.
aa(lp1372
Vafter
p1373
aVa
aVwhile
p1374
aVthe
p1375
aVboy
p1376
aVsmiled
p1377
aV,
aVand
p1378
aVthen
p1379
aVfinally
p1380
aVhis
p1381
aVblue
p1382
aVeyes
p1383
aVglanced
p1384
aVaway
p1385
aV.
aa(lp1386
Vwhen
p1387
aVhe
p1388
aVlooked
p1389
aVback
p1390
aVat
p1391
aVme
p1392
aV,
aVi
aVflicked
p1393
aVmy
p1394
aVeyebrows
p1395
aVup
p1396
aVto
p1397
aVsay
p1398
aV,
aVi
aVwin
p1399
aV.
aa(lp1400
Vhe
p1401
aVshrugged
p1402
aV.
aa(lp1403
Vpatrick
p1404
aVcontinued
p1405
aVand
p1406
aVthen
p1407
aVfinally
p1408
aVit
p1409
aVwas
p1410
aVtime
p1411
aVfor
p1412
aVthe
p1413
aVintroductions
p1414
aV.
aa(lp1415
V``
p1416
aVisaac
p1417
aV,
aVperhaps
p1418
aVyou
p1419
aV'd
p1420
aVlike
p1421
aVto
p1422
aVgo
p1423
aVfirst
p1424
aVtoday
p1425
aV.
aa(lp1426
Vi
aVknow
p1427
aVyou
p1428
aV're
p1429
aVfacing
p1430
aVa
aVchallenging
p1431
aVtime
p1432
aV.
aV''
p1433
aa(lp1434
V``
p1435
aVyeah
p1436
aV,
aV''
p1437
aVisaac
p1438
aVsaid
p1439
aV.
aa(lp1440
V``
p1441
aVi
aV'm
p1442
aVisaac
p1443
aV.
aa(lp1444
Vi
aV'm
p1445
aVseventeen
p1446
aV.
aa(lp1447
Vand
p1448
aVit's
p1449
aVlooking
p1450
aVlike
p1451
aVi
aVhave
p1452
aVto
p1453
aVget
p1454
aVsurgery
p1455
aVin
p1456
aVa
aVcouple
p1457
aVweeks
p1458
aV,
aVafter
p1459
aVwhich
p1460
aVi
aV'll
p1461
aVbe
p1462
aVblind
p1463
aV.
aa(lp1464
Vnot
p1465
aVto
p1466
aVcomplain
p1467
aVor
p1468
aVanything
p1469
aVbecause
p1470
aVi
aVknow
p1471
aVa
aVlot
p1472
aVof
p1473
aVus
p1474
aVhave
p1475
aVit
p1476
aVworse
p1477
aV,
aVbut
p1478
aVyeah
p1479
aV,
aVi
aVmean
p1480
aV,
aVbeing
p1481
aVblind
p1482
aVdoes
p1483
aVsort
p1484
aVof
p1485
aVsuck
p1486
aV.
aa(lp1487
Vmy
p1488
aVgirlfriend
p1489
aVhelps
p1490
aV,
aVthough
p1491
aV.
aa(lp1492
Vand
p1493
aVfriends
p1494
aVlike
p1495
aVaugustus
p1496
aV.
aV''
p1497
aa(lp1498
Vhe
p1499
aVnodded
p1500
aVtoward
p1501
aVthe
p1502
aVboy
p1503
aV,
aVwho
p1504
aVnow
p1505
aVh
aaa(lp1506
(lp1507
Vad
p1508
aVa
aVname
p1509
aV.
aa(lp1510
V``
p1511
aVso
p1512
aV,
aVyeah
p1513
aV,
aV''
p1514
aVisaac
p1515
aVcontinued
p1516
aV.
aa(lp1517
Vhe
p1518
aVwas
p1519
aVlooking
p1520
aVat
p1521
aVhis
p1522
aVhands
p1523
aV,
aVwhich
p1524
aVhe
p1525
aV'd
p1526
aVfolded
p1527
aVinto
p1528
aVeach
p1529
aVother
p1530
aVlike
p1531
aVthe
p1532
aVtop
p1533
aVof
p1534
aVa
aVtepee
p1535
aV.
aa(lp1536
V``
p1537
aVthere
p1538
aV's
p1539
aVnothing
p1540
aVyou
p1541
aVcan
p1542
aVdo
p1543
aVabout
p1544
aVit
p1545
aV.
aV''
p1546
aa(lp1547
V``
p1548
aVwe
p1549
aV're
p1550
aVhere
p1551
aVfor
p1552
aVyou
p1553
aV,
aVisaac
p1554
aV,
aV''
p1555
aVpatrick
p1556
aVsaid
p1557
aV.
aa(lp1558
V``
p1559
aVlet
p1560
aVisaac
p1561
aVhear
p1562
aVit
p1563
aV,
aVguys
p1564
aV.
aV''
p1565
aa(lp1566
Vand
p1567
aVthen
p1568
aVwe
p1569
aVall
p1570
aV,
aVin
p1571
aVa
aVmonotone
p1572
aV,
aVsaid
p1573
aV,
aV``
p1574
aVwe
p1575
aV're
p1576
aVhere
p1577
aVfor
p1578
aVyou
p1579
aV,
aVisaac
p1580
aV.
aV''
p1581
aa(lp1582
Vmichael
p1583
aVwas
p1584
aVnext
p1585
aV.
aa(lp1586
Vhe
p1587
aVwas
p1588
aVtwelve
p1589
aV.
aa(lp1590
Vhe
p1591
aVhad
p1592
aVleukemia
p1593
aV.
aa(lp1594
V10
p1595
aVthe
p1596
aVfault
p1597
aVin
p1598
aVour
p1599
aVstars
p1600
aVhe
p1601
aV'd
p1602
aValways
p1603
aVhad
p1604
aVleukemia
p1605
aV.
aa(lp1606
Vhe
p1607
aVwas
p1608
aVokay
p1609
aV.
aa(lp1610
V(
aVor
p1611
aVso
p1612
aVhe
p1613
aVsaid
p1614
aV.
aa(lp1615
Vhe'd
p1616
aVtaken
p1617
aVthe
p1618
aVelevator
p1619
aV.
aV)
aa(lp1620
Vlida
p1621
aVwas
p1622
aVsixteen
p1623
aV,
aVand
p1624
aVpretty
p1625
aVenough
p1626
aVto
p1627
aVbe
p1628
aVthe
p1629
aVobject
p1630
aVof
p1631
aVthe
p1632
aVhot
p1633
aVboy
p1634
aV's
p1635
aVeye
p1636
aV.
aa(lp1637
Vshe
p1638
aVwas
p1639
aVa
aVregular\u2014
p1640
aVin
p1641
aVa
aVlong
p1642
aVremission
p1643
aVfrom
p1644
aVappendiceal
p1645
aVcancer
p1646
aV,
aVwhich
p1647
aVi
aVhad
p1648
aVnot
p1649
aVpreviously
p1650
aVknown
p1651
aVexisted
p1652
aV.
aa(lp1653
Vshe
p1654
aVsaid\u2014
p1655
aVas
p1656
aVshe
p1657
aVhad
p1658
aVevery
p1659
aVother
p1660
aVtime
p1661
aVi
aV'd
p1662
aVatte
p1663
aaa(lp1664
(lp1665
Vnded
p1666
aVsupport
p1667
aVgroup\u2014
p1668
aVthat
p1669
aVshe
p1670
aVfelt
p1671
aVstrong
p1672
aV,
aVwhich
p1673
aVfelt
p1674
aVlike
p1675
aVbragging
p1676
aVto
p1677
aVme
p1678
aVas
p1679
aVthe
p1680
aVoxygen-drizzling
p1681
aVnubs
p1682
aVtickled
p1683
aVmy
p1684
aVnostrils
p1685
aV.
aa(lp1686
Vthere
p1687
aVwere
p1688
aVfive
p1689
aVothers
p1690
aVbefore
p1691
aVthey
p1692
aVgot
p1693
aVto
p1694
aVhim
p1695
aV.
aa(lp1696
Vhe
p1697
aVsmiled
p1698
aVa
aVlittle
p1699
aVwhen
p1700
aVhis
p1701
aVturn
p1702
aVcame
p1703
aV.
aa(lp1704
Vhis
p1705
aVvoice
p1706
aVwas
p1707
aVlow
p1708
aV,
aVsmoky
p1709
aV,
aVand
p1710
aVdead
p1711
aVsexy
p1712
aV.
aa(lp1713
V``
p1714
aVmy
p1715
aVname
p1716
aVis
p1717
aVaugustus
p1718
aVwaters
p1719
aV,
aV''
p1720
aVhe
p1721
aVsaid
p1722
aV.
aa(lp1723
V``
p1724
aVi'm
p1725
aVseventeen
p1726
aV.
aa(lp1727
Vi
aVhad
p1728
aVa
aVlittle
p1729
aVtouch
p1730
aVof
p1731
aVosteosarcoma
p1732
aVa
aVyear
p1733
aVand
p1734
aVa
aVhalf
p1735
aVago
p1736
aV,
aVbut
p1737
aVi
aV'm
p1738
aVjust
p1739
aVhere
p1740
aVtoday
p1741
aVat
p1742
aVisaac
p1743
aV's
p1744
aVrequest
p1745
aV.
aV''
p1746
aa(lp1747
V``
p1748
aVand
p1749
aVhow
p1750
aVare
p1751
aVyou
p1752
aVfeeling
p1753
aV?
aV''
p1754
aa(lp1755
Vasked
p1756
aVpatrick
p1757
aV.
aa(lp1758
V``
p1759
aVoh
p1760
aV,
aVi
aV'm
p1761
aVgrand
p1762
aV.
aV''
p1763
aa(lp1764
Vaugustus
p1765
aVwaters
p1766
aVsmiled
p1767
aVwith
p1768
aVa
aVcorner
p1769
aVof
p1770
aVhis
p1771
aVmouth
p1772
aV.
aa(lp1773
V``
p1774
aVi
aV'm
p1775
aVon
p1776
aVa
aVroller
p1777
aVcoaster
p1778
aVthat
p1779
aVonly
p1780
aVgoes
p1781
aVup
p1782
aV,
aVmy
p1783
aVfriend
p1784
aV.
aV''
p1785
aa(lp1786
Vwhen
p1787
aVit
p1788
aVwas
p1789
aVmy
p1790
aVturn
p1791
aV,
aVi
aVsaid
p1792
aV,
aV``
p1793
aVmy
p1794
aVname
p1795
aVis
p1796
aVhazel
p1797
aV.
aa(lp1798
Vi'm
p1799
aVsixteen
p1800
aV.
aa(lp1801
Vthyroid
p1802
aVwith
p1803
aVmets
p1804
aVin
p1805
aVmy
p1806
aVlungs
p1807
aV.
aa(lp1808
Vi
aV'm
p1809
aVokay
p1810
aV.
aV''
p1811
aa(lp1812
Vthe
p1813
aVhour
p1814
aVproceeded
p1815
aVapace
p1816
aV:
aVfights
p1817
aVwere
p1818
aVrecounted
p1819
aV,
aVbattles
p1820
aVwon
p1821
aVamid
p1822
aVwars
p1823
aVsure
p1824
aVto
p1825
aVbe
p1826
aVlost
p1827
aV;
aVhope
p1828
aVwas
p1829
aVclung
p1830
aVto
p1831
aV;
aVfamilies
p1832
aVwere
p1833
aVboth
p1834
aVcelebrated
p1835
aVand
p1836
aVdenounced
p1837
aV;
aVit
p1838
aVwas
p1839
aVagreed
p1840
aVthat
p1841
aVfriends
p1842
aVjust
p1843
aVdid
p1844
aVn't
p1845
aVget
p1846
aVit
p1847
aV;
aVtears
p1848
aVwere
p1849
aVshed
p1850
aV;
aVcomfort
p1851
aVproffered
p1852
aV.
aa(lp1853
Vneither
p1854
aVaugustus
p1855
aVwaters
p1856
aVnor
p1857
aVi
aVspo
p1858
aaa(lp1859
(lp1860
Vke
p1861
aVagain
p1862
aVuntil
p1863
aVpatrick
p1864
aVsaid
p1865
aV,
aV``
p1866
aVaugustus
p1867
aV,
aVperhaps
p1868
aVyou
p1869
aV'd
p1870
aVlike
p1871
aVto
p1872
aVshare
p1873
aVyour
p1874
aVfears
p1875
aVwith
p1876
aVthe
p1877
aVgroup
p1878
aV.
aV''
p1879
aa(lp1880
V11
p1881
aVjohn
p1882
aVgreen
p1883
aV''
p1884
aVmy
p1885
aVfears
p1886
aV?
aV''
p1887
aa(lp1888
V``
p1889
aVyes
p1890
aV.
aV''
p1891
aa(lp1892
V``
p1893
aVi
aVfear
p1894
aVoblivion
p1895
aV,
aV''
p1896
aVhe
p1897
aVsaid
p1898
aVwithout
p1899
aVa
aVmoment
p1900
aV's
p1901
aVpause
p1902
aV.
aa(lp1903
V``
p1904
aVi
aVfear
p1905
aVit
p1906
aVlike
p1907
aVthe
p1908
aVproverbial
p1909
aVblind
p1910
aVman
p1911
aVwho
p1912
aV's
p1913
aVafraid
p1914
aVof
p1915
aVthe
p1916
aVdark
p1917
aV.
aV''
p1918
aa(lp1919
V``
p1920
aVtoo
p1921
aVsoon
p1922
aV,
aV''
p1923
aVisaac
p1924
aVsaid
p1925
aV,
aVcracking
p1926
aVa
aVsmile
p1927
aV.
aa(lp1928
V``
p1929
aVwas
p1930
aVthat
p1931
aVinsensitive
p1932
aV?
aV''
p1933
aa(lp1934
Vaugustus
p1935
aVasked
p1936
aV.
aa(lp1937
V``
p1938
aVi
aVcan
p1939
aVbe
p1940
aVpretty
p1941
aVblind
p1942
aVto
p1943
aVother
p1944
aVpeople
p1945
aV's
p1946
aVfeelings
p1947
aV.
aV''
p1948
aa(lp1949
Visaac
p1950
aVwas
p1951
aVlaughing
p1952
aV,
aVbut
p1953
aVpatrick
p1954
aVraised
p1955
aVa
aVchastening
p1956
aVfinger
p1957
aVand
p1958
aVsaid
p1959
aV,
aV``
p1960
aVaugustus
p1961
aV,
aVplease
p1962
aV.
aa(lp1963
Vlet
p1964
aV's
p1965
aVreturn
p1966
aVto
p1967
aVyou
p1968
aVand
p1969
aVyour
p1970
aVstruggles
p1971
aV.
aa(lp1972
Vyou
p1973
aVsaid
p1974
aVyou
p1975
aVfear
p1976
aVoblivion
p1977
aV?
aV''
p1978
aa(lp1979
V``
p1980
aVi
aVdid
p1981
aV,
aV''
p1982
aVaugustus
p1983
aVanswered
p1984
aV.
aa(lp1985
Vpatrick
p1986
aVseemed
p1987
aVlost
p1988
aV.
aa(lp1989
V``
p1990
aVwould
p1991
aV,
aVuh
p1992
aV,
aVwould
p1993
aVanyone
p1994
aVlike
p1995
aVto
p1996
aVspeak
p1997
aVto
p1998
aVthat
p1999
aV?
aV''
p2000
aa(lp2001
Vi
aVhad
p2002
aVn't
p2003
aVbeen
p2004
aVin
p2005
aVproper
p2006
aVschool
p2007
aVin
p2008
aVthree
p2009
aVyears
p2010
aV.
aa(lp2011
Vmy
p2012
aVparents
p2013
aVwere
p2014
aVmy
p2015
aVtwo
p2016
aVbest
p2017
aVfriends
p2018
aV.
aa(lp2019
Vmy
p2020
aVthird
p2021
aVbest
p2022
aVfriend
p2023
aVwas
p2024
aVan
p2025
aVauthor
p2026
aVwho
p2027
aVdid
p2028
aVnot
p2029
aVknow
p2030
aVi
aVexisted
p2031
aV.
aa(lp2032
Vi
aVwas
p2033
aVa
aVfairly
p2034
aVshy
p2035
aVperson\u2014
p2036
aVnot
p2037
aVthe
p2038
aVhand-raising
p2039
aVtype
p2040
aV.
aa(lp2041
Vand
p2042
aVyet
p2043
aV,
aVjust
p2044
aVthis
p2045
aVonce
p2046
aV,
aVi
aVdecided
p2047
aVto
p2048
aVspeak
p2049
aV.
aa(lp2050
Vi
aVhalf
p2051
aVraised
p2052
aVmy
p2053
aVhand
p2054
aVan
p2055
aaa(lp2056
(lp2057
Vd
aVpatrick
p2058
aV,
aVhis
p2059
aVdelight
p2060
aVevident
p2061
aV,
aVimmediately
p2062
aVsaid
p2063
aV,
aV''
p2064
aVhazel
p2065
aV!
aV''
p2066
aa(lp2067
Vi
aVwas
p2068
aV,
aVi
aV'm
p2069
aVsure
p2070
aVhe
p2071
aVassumed
p2072
aV,
aVopening
p2073
aVup
p2074
aV.
aa(lp2075
Vbecoming
p2076
aVpart
p2077
aVof
p2078
aVthe
p2079
aVgroup
p2080
aV.
aa(lp2081
Vi
aVlooked
p2082
aVover
p2083
aVat
p2084
aVaugustus
p2085
aVwaters
p2086
aV,
aVwho
p2087
aVlooked
p2088
aVback
p2089
aVat
p2090
aVme
p2091
aV.
aa(lp2092
Vyou
p2093
aVcould
p2094
aValmost
p2095
aVsee
p2096
aVthrough
p2097
aVhis
p2098
aVeyes
p2099
aVthey
p2100
aVwere
p2101
aVso
p2102
aVblue
p2103
aV.
aa(lp2104
V``
p2105
aVthere
p2106
aVwill
p2107
aVcome
p2108
aVa
aVtime
p2109
aV,
aV''
p2110
aVi
aVsaid
p2111
aV,
aV``
p2112
aVwhen
p2113
aVall
p2114
aVof
p2115
aVus
p2116
aVare
p2117
aVdead
p2118
aV.
aa(lp2119
Vall
p2120
aVof
p2121
aVus
p2122
aV.
aa(lp2123
Vthere
p2124
aVwill
p2125
aVcome
p2126
aVa
aVtime
p2127
aVwhen
p2128
aVthere
p2129
aVare
p2130
aV12
p2131
aVthe
p2132
aVfault
p2133
aVin
p2134
aVour
p2135
aVstars
p2136
aVno
p2137
aVhuman
p2138
aVbeings
p2139
aVremaining
p2140
aVto
p2141
aVremember
p2142
aVthat
p2143
aVanyone
p2144
aVever
p2145
aVexisted
p2146
aVor
p2147
aVthat
p2148
aVour
p2149
aVspecies
p2150
aVever
p2151
aVdid
p2152
aVanything
p2153
aV.
aa(lp2154
Vthere
p2155
aVwill
p2156
aVbe
p2157
aVno
p2158
aVone
p2159
aaa(lp2160
(lp2161
Vunderstand
p2162
aVwhat
p2163
aVit
p2164
aV's
p2165
aVlike
p2166
aVto
p2167
aVbe
p2168
aVdying
p2169
aV,
aVand
p2170
aV(
aVb
aV)
aVnot
p2171
aVhave
p2172
aVdied
p2173
aV.
aa(lp2174
Vafter
p2175
aVi
aVfinished
p2176
aV,
aVthere
p2177
aVwas
p2178
aVquite
p2179
aVa
aVlong
p2180
aVperiod
p2181
aVof
p2182
aVsilence
p2183
aVas
p2184
aVi
aVwatched
p2185
aVa
aVsmile
p2186
aVspread
p2187
aVall
p2188
aVthe
p2189
aVway
p2190
aVacross
p2191
aVaugustus's
p2192
aVface\u2014
p2193
aVnot
p2194
aVthe
p2195
aVlittle
p2196
aVcrooked
p2197
aVsmile
p2198
aVof
p2199
aVthe
p2200
aVboy
p2201
aVtrying
p2202
aVto
p2203
aVbe
p2204
aVsexy
p2205
aVwhile
p2206
aVhe
p2207
aVstared
p2208
aVat
p2209
aVme
p2210
aV,
aVbut
p2211
aVhis
p2212
aVreal
p2213
aVsmile
p2214
aV,
aVtoo
p2215
aVbig
p2216
aVfor
p2217
aVhis
p2218
aVface
p2219
aV.
aa(lp2220
V``
p2221
aVgoddamn
p2222
aV,
aV''
p2223
aVaugustus
p2224
aVsaid
p2225
aVquietly
p2226
aV.
aa(lp2227
V``
p2228
aVare
p2229
aVn't
p2230
aVyou
p2231
aVsomething
p2232
aVelse
p2233
aV.
aV''
p2234
aa(lp2235
Vneither
p2236
aVof
p2237
aVus
p2238
aVsaid
p2239
aVanything
p2240
aVfor
p2241
aVthe
p2242
aVrest
p2243
aVof
p2244
aVsupport
p2245
aV13
p2246
aVjohn
p2247
aVgreen
p2248
aVgroup
p2249
aV.
aa(lp2250
Vat
p2251
aVthe
p2252
aVend
p2253
aV,
aVwe
p2254
aVall
p2255
aVhad
p2256
aVto
p2257
aVhold
p2258
aVhands
p2259
aV,
aVand
p2260
aVpatrick
p2261
aVled
p2262
aVus
p2263
aVin
p2264
aVa
aVprayer
p2265
aV.
aa(lp2266
V``
p2267
aVlord
p2268
aVjesus
p2269
aVchrist
p2270
aV,
aVwe
p2271
aVare
p2272
aVgathered
p2273
aVhere
p2274
aVin
p2275
aVyour
p2276
aVheart
p2277
aV,
aVliterally
p2278
aVin
p2279
aVyour
p2280
aVheart
p2281
aV,
aVas
p2282
aVcancer
p2283
aVsurvivors
p2284
aV.
aa(lp2285
Vyou
p2286
aVand
p2287
aVyou
p2288
aValone
p2289
aVknow
p2290
aVus
p2291
aVas
p2292
aVwe
p2293
aVknow
p2294
aVourselves
p2295
aV.
aa(lp2296
Vguide
p2297
aVus
p2298
aVto
p2299
aVlife
p2300
aVand
p2301
aVthe
p2302
aVlight
p2303
aVthrough
p2304
aVour
p2305
aVtimes
p2306
aVof
p2307
aVtrial
p2308
aV.
aa(lp2309
Vwe
p2310
aVpray
p2311
aVfor
p2312
aVisaac's
p2313
aVeyes
p2314
aV,
aVfor
p2315
aVmichael
p2316
aV's
p2317
aVand
p2318
aVjamie
p2319
aV's
p2320
aVblood
p2321
aV,
aVfor
p2322
aVaugustus
p2323
aV's
p2324
aVbones
p2325
aV,
aVfor
p2326
aVhazel
p2327
aV's
p2328
aVlungs
p2329
aV,
aVfor
p2330
aVjames
p2331
aV's
p2332
aVthroat
p2333
aV.
aa(lp2334
Vwe
p2335
aVpray
p2336
aVthat
p2337
aVyou
p2338
aVmight
p2339
aVheal
p2340
aVus
p2341
aVand
p2342
aVthat
p2343
aVwe
p2344
aVmight
p2345
aVfeel
p2346
aVyour
p2347
aVlove
p2348
aV,
aVand
p2349
aVyour
p2350
aVpeace
p2351
aV,
aVwhich
p2352
aVpasses
p2353
aVall
p2354
aVunderstanding
p2355
aV.
aa(lp2356
Vand
p2357
aVwe
p2358
aVremember
p2359
aVin
p2360
aVour
p2361
aVhearts
p2362
aVthose
p2363
aVw
aaa(lp2364
(lp2365
Vhom
p2366
aVwe
p2367
aVknew
p2368
aVand
p2369
aVloved
p2370
aVwho
p2371
aVhave
p2372
aVgone
p2373
aVhome
p2374
aVto
p2375
aVyou
p2376
aV:
aVmaria
p2377
aVand
p2378
aVkade
p2379
aVand
p2380
aVjoseph
p2381
aVand
p2382
aVhaley
p2383
aVand
p2384
aVabigail
p2385
aVand
p2386
aVangelina
p2387
aVand
p2388
aVtaylor
p2389
aVand
p2390
aVgabriel
p2391
aVand
p2392
aV.
aa(lp2393
V.
aa(lp2394
V.
aV''
p2395
aa(lp2396
Vit
p2397
aVwas
p2398
aVa
aVlong
p2399
aVlist
p2400
aV.
aa(lp2401
Vthe
p2402
aVworld
p2403
aVcontains
p2404
aVa
aVlot
p2405
aVof
p2406
aVdead
p2407
aVpeople
p2408
aV.
aa(lp2409
Vand
p2410
aVwhile
p2411
aVpatrick
p2412
aVdroned
p2413
aVon
p2414
aV,
aVreading
p2415
aVthe
p2416
aVlist
p2417
aVfrom
p2418
aVa
aVsheet
p2419
aVof
p2420
aVpaper
p2421
aVbecause
p2422
aVit
p2423
aVwas
p2424
aVtoo
p2425
aVlong
p2426
aVto
p2427
aVmemorize
p2428
aV,
aVi
aVkept
p2429
aVmy
p2430
aVeyes
p2431
aVclosed
p2432
aV,
aVtrying
p2433
aVto
p2434
aVthink
p2435
aVprayerfully
p2436
aVbut
p2437
aVmostly
p2438
aVimagining
p2439
aVthe
p2440
aVday
p2441
aVwhen
p2442
aVmy
p2443
aVname
p2444
aVwould
p2445
aVfind
p2446
aVits
p2447
aVway
p2448
aVonto
p2449
aVthat
p2450
aVlist
p2451
aV,
aVall
p2452
aVthe
p2453
aVway
p2454
aVat
p2455
aVthe
p2456
aVend
p2457
aVwhen
p2458
aVeveryone
p2459
aVhad
p2460
aVstopped
p2461
aVlistening
p2462
aV.
aa(lp2463
Vwhen
p2464
aVpatrick
p2465
aVwas
p2466
aVfinished
p2467
aV,
aVwe
p2468
aVsaid
p2469
aVthis
p2470
aVstupid
p2471
aVmantra
p2472
aVtogether-living
p2473
aVour
p2474
aVbest
p2475
aVlife
p2476
aVtoday-and
p2477
aVit
p2478
aVwas
p2479
aVover
p2480
aV.
aa(lp2481
Vaugustus
p2482
aVwaters
p2483
aVpushed
p2484
aVhimself
p2485
aVout
p2486
aVof
p2487
aVhis
p2488
aVchair
p2489
aVand
p2490
aVwalked
p2491
aVover
p2492
aVto
p2493
aVme
p2494
aV.
aa(lp2495
Vhis
p2496
aVgait
p2497
aVwas
p2498
aVcrooked
p2499
aVlike
p2500
aVhis
p2501
aVsmile
p2502
aV.
aa(lp2503
Vhe
p2504
aVtower
p2505
aaasg464
NssS'mr. lancaster'
p2506
(dp2507
g20
(lp2508
(lp2509
Vmr.
p2510
aV[
aVCHARACTER
p2511
aV]
aV-
aVhazel
p2512
aV's
p2513
aVfather
p2514
aV.
aa(lp2515
Vhe
p2516
aVis
p2517
aVcaring
p2518
aVand
p2519
aVprone
p2520
aVto
p2521
aVtears
p2522
aV.
aa(lp2523
Vin
p2524
aVcontrast
p2525
aVwith
p2526
aVhazel
p2527
aV's
p2528
aVmother
p2529
aV,
aVhe
p2530
aVonly
p2531
aVunderstands
p2532
aVhazel
p2533
aV's
p2534
aVcancer
p2535
aVbroadly
p2536
aVand
p2537
aVspends
p2538
aVmuch
p2539
aVof
p2540
aVhis
p2541
aVtime
p2542
aVat
p2543
aVwork
p2544
aV.
aasg45
(lp2545
(lp2546
(lp2547
Vist
p2548
aV,
aVall
p2549
aVthe
p2550
aVway
p2551
aVat
p2552
aVthe
p2553
aVend
p2554
aVwhen
p2555
aVeveryone
p2556
aVhad
p2557
aVstopped
p2558
aVlistening
p2559
aV.
aa(lp2560
Vwhen
p2561
aVpatrick
p2562
aVwas
p2563
aVfinished
p2564
aV,
aVwe
p2565
aVsaid
p2566
aVthis
p2567
aVstupid
p2568
aVmantra
p2569
aVtogether-living
p2570
aVour
p2571
aVbest
p2572
aVlife
p2573
aVtoday-and
p2574
aVit
p2575
aVwas
p2576
aVover
p2577
aV.
aa(lp2578
Vaugustus
p2579
aVwaters
p2580
aVpushed
p2581
aVhimself
p2582
aVout
p2583
aVof
p2584
aVhis
p2585
aVchair
p2586
aVand
p2587
aVwalked
p2588
aVover
p2589
aVto
p2590
aVme
p2591
aV.
aa(lp2592
Vhis
p2593
aVgait
p2594
aVwas
p2595
aVcrooked
p2596
aVlike
p2597
aVhis
p2598
aVsmile
p2599
aV.
aa(lp2600
Vhe
p2601
aVtowered
p2602
aVover
p2603
aVme
p2604
aV,
aVbut
p2605
aVhe
p2606
aVkept
p2607
aVhis
p2608
aVdistance
p2609
aVso
p2610
aVi
aVwouldn't
p2611
aVhave
p2612
aVto
p2613
aVcrane
p2614
aVmy
p2615
aVneck
p2616
aVto
p2617
aVlook
p2618
aVhim
p2619
aVin
p2620
aVthe
p2621
aVeye
p2622
aV.
aa(lp2623
V``
p2624
aVwhat
p2625
aV's
p2626
aVyour
p2627
aVname
p2628
aV?
aV''
p2629
aa(lp2630
Vhe
p2631
aVasked
p2632
aV.
aa(lp2633
V``
p2634
aVhazel
p2635
aV.
aV''
p2636
aa(lp2637
V14
p2638
aVthe
p2639
aVfault
p2640
aVin
p2641
aVour
p2642
aVstars
p2643
aV''
p2644
aVno
p2645
aV,
aVyour
p2646
aVfull
p2647
aVname
p2648
aV.
aV''
p2649
aa(lp2650
V``
p2651
aVum
p2652
aV,
aVhazel
p2653
aVgrace
p2654
aVlancaster
p2655
aV.
aV''
p2656
aa(lp2657
Vhe
p2658
aVwas
p2659
aVjust
p2660
aVabout
p2661
aVto
p2662
aVsay
p2663
aVsomething
p2664
aVelse
p2665
aVwhen
p2666
aVisaac
p2667
aVwalked
p2668
aVup
p2669
aV.
aa(lp2670
V``
p2671
aVhold
p2672
aVon
p2673
aV,
aV''
p2674
aVaugustus
p2675
aVsaid
p2676
aV,
aVraising
p2677
aVa
aVfinger
p2678
aV,
aVand
p2679
aVturned
p2680
aVto
p2681
aVisaac
p2682
aV.
aa(lp2683
V``
p2684
aVthat
p2685
aVwas
p2686
aVactually
p2687
aVworse
p2688
aVthan
p2689
aVyou
p2690
aVmade
p2691
aVit
p2692
aVout
p2693
aVto
p2694
aVbe
p2695
aV.
aV''
p2696
aa(lp2697
V``
p2698
aVi
aVtold
p2699
aVyou
p2700
aVit
p2701
aVwas
p2702
aVbleak
p2703
aV.
aV''
p2704
aa(lp2705
V``
p2706
aVwhy
p2707
aVdo
p2708
aVyou
p2709
aVbother
p2710
aVwith
p2711
aVit
p2712
aV?
aV''
p2713
aa(lp2714
V``
p2715
aVi
aVdo
p2716
aVn't
p2717
aVknow
p2718
aV.
aa(lp2719
Vit
p2720
aVkind
p2721
aVof
p2722
aVhelps
p2723
aV?
aV''
p2724
aa(lp2725
Vaugustus
p2726
aVleaned
p2727
aVin
p2728
aVso
p2729
aVhe
p2730
aVthought
p2731
aVi
aVcould
p2732
aVn't
p2733
aVhear
p2734
aV.
aa(lp2735
V``
p2736
aVshe
p2737
aV's
p2738
aVa
aVregular
p2739
aV?
aV''
p2740
aa(lp2741
Vi
aVcould
p2742
aVn't
p2743
aVhear
p2744
aVisaac
p2745
aV's
p2746
aVcomment
p2747
aV,
aVbut
p2748
aVaugustus
p2749
aVresponded
p2750
aV,
aV``
p2751
aVi
aV'll
p2752
aVsay
p2753
aV.
aV''
p2754
aa(lp2755
Vhe
p2756
aVclasped
p2757
aVisaac
p2758
aVby
p2759
aVboth
p2760
aVshoulders
p2761
aVand
p2762
aVthen
p2763
aVtook
p2764
aVa
aVhalf
p2765
aVstep
p2766
aVaway
p2767
aVfrom
p2768
aVhim
p2769
aV.
aa(lp2770
V``
p2771
aVtell
p2772
aVha
p2773
aaasg464
NssS'hazel grace lancaster'
p2774
(dp2775
g20
(lp2776
(lp2777
V[
aVCHARACTER
p2778
aV]
aV-
aVthe
p2779
aVnovel
p2780
aV's
p2781
aVnarrator
p2782
aVand
p2783
aV16-year-old
p2784
aVprotagonist
p2785
aV.
aa(lp2786
Van
p2787
aVastute
p2788
aVand
p2789
aVremarkably
p2790
aVconscientious
p2791
aVgirl
p2792
aV,
aVhazel
p2793
aVwas
p2794
aVdiagnosed
p2795
aVat
p2796
aVage
p2797
aVthirteen
p2798
aVwith
p2799
aVa
aVterminal
p2800
aVform
p2801
aVof
p2802
aVthyroid
p2803
aVcancer
p2804
aVthat
p2805
aVhas
p2806
aVsince
p2807
aVspread
p2808
aVto
p2809
aVher
p2810
aVlungs
p2811
aV.
aa(lp2812
Vshe
p2813
aVkeeps
p2814
aVmost
p2815
aVpeople
p2816
aVat
p2817
aVa
aVdistance
p2818
aV,
aVknowing
p2819
aVher
p2820
aVdeath
p2821
aVwill
p2822
aVultimately
p2823
aVhurt
p2824
aVthem
p2825
aV,
aVuntil
p2826
aVshe
p2827
aVfalls
p2828
aVin
p2829
aVlove
p2830
aVwith
p2831
aVaugustus
p2832
aV.
aasg45
(lp2833
(lp2834
(lp2835
Vonto
p2836
aVthat
p2837
aVlist
p2838
aV,
aVall
p2839
aVthe
p2840
aVway
p2841
aVat
p2842
aVthe
p2843
aVend
p2844
aVwhen
p2845
aVeveryone
p2846
aVhad
p2847
aVstopped
p2848
aVlistening
p2849
aV.
aa(lp2850
Vwhen
p2851
aVpatrick
p2852
aVwas
p2853
aVfinished
p2854
aV,
aVwe
p2855
aVsaid
p2856
aVthis
p2857
aVstupid
p2858
aVmantra
p2859
aVtogether-living
p2860
aVour
p2861
aVbest
p2862
aVlife
p2863
aVtoday-and
p2864
aVit
p2865
aVwas
p2866
aVover
p2867
aV.
aa(lp2868
Vaugustus
p2869
aVwaters
p2870
aVpushed
p2871
aVhimself
p2872
aVout
p2873
aVof
p2874
aVhis
p2875
aVchair
p2876
aVand
p2877
aVwalked
p2878
aVover
p2879
aVto
p2880
aVme
p2881
aV.
aa(lp2882
Vhis
p2883
aVgait
p2884
aVwas
p2885
aVcrooked
p2886
aVlike
p2887
aVhis
p2888
aVsmile
p2889
aV.
aa(lp2890
Vhe
p2891
aVtowered
p2892
aVover
p2893
aVme
p2894
aV,
aVbut
p2895
aVhe
p2896
aVkept
p2897
aVhis
p2898
aVdistance
p2899
aVso
p2900
aVi
aVwouldn't
p2901
aVhave
p2902
aVto
p2903
aVcrane
p2904
aVmy
p2905
aVneck
p2906
aVto
p2907
aVlook
p2908
aVhim
p2909
aVin
p2910
aVthe
p2911
aVeye
p2912
aV.
aa(lp2913
V``
p2914
aVwhat
p2915
aV's
p2916
aVyour
p2917
aVname
p2918
aV?
aV''
p2919
aa(lp2920
Vhe
p2921
aVasked
p2922
aV.
aa(lp2923
V``
p2924
aVhazel
p2925
aV.
aV''
p2926
aa(lp2927
V14
p2928
aVthe
p2929
aVfault
p2930
aVin
p2931
aVour
p2932
aVstars
p2933
aV''
p2934
aVno
p2935
aV,
aVyour
p2936
aVfull
p2937
aVname
p2938
aV.
aV''
p2939
aa(lp2940
V``
p2941
aVum
p2942
aV,
aVhazel
p2943
aVgrace
p2944
aVlancaster
p2945
aV.
aV''
p2946
aa(lp2947
Vhe
p2948
aVwas
p2949
aVjust
p2950
aVabout
p2951
aVto
p2952
aVsay
p2953
aVsomething
p2954
aVelse
p2955
aVwhen
p2956
aVisaac
p2957
aVwalked
p2958
aVup
p2959
aV.
aa(lp2960
V``
p2961
aVhold
p2962
aVon
p2963
aV,
aV''
p2964
aVaugustus
p2965
aVsaid
p2966
aV,
aVraising
p2967
aVa
aVfinger
p2968
aV,
aVand
p2969
aVturned
p2970
aVto
p2971
aVisaac
p2972
aV.
aa(lp2973
V``
p2974
aVthat
p2975
aVwas
p2976
aVactually
p2977
aVworse
p2978
aVthan
p2979
aVyou
p2980
aVmade
p2981
aVit
p2982
aVout
p2983
aVto
p2984
aVbe
p2985
aV.
aV''
p2986
aa(lp2987
V``
p2988
aVi
aVtold
p2989
aVyou
p2990
aVit
p2991
aVwas
p2992
aVbleak
p2993
aV.
aV''
p2994
aa(lp2995
V``
p2996
aVwhy
p2997
aVdo
p2998
aVyou
p2999
aVbother
p3000
aVwith
p3001
aVit
p3002
aV?
aV''
p3003
aa(lp3004
V``
p3005
aVi
aVdo
p3006
aVn't
p3007
aVknow
p3008
aV.
aa(lp3009
Vit
p3010
aVkind
p3011
aVof
p3012
aVhelps
p3013
aV?
aV''
p3014
aa(lp3015
Vaugustus
p3016
aVleaned
p3017
aVin
p3018
aVso
p3019
aVhe
p3020
aVthought
p3021
aVi
aVcould
p3022
aVn't
p3023
aVhear
p3024
aV.
aa(lp3025
V``
p3026
aVshe
p3027
aV's
p3028
aVa
aVregular
p3029
aV?
aV''
p3030
aa(lp3031
Vi
aVcould
p3032
aVn't
p3033
aVhear
p3034
aVisaac
p3035
aV's
p3036
aVcomment
p3037
aV,
aVbut
p3038
aVaugustus
p3039
aVresponded
p3040
aV,
aV``
p3041
aVi
aV'll
p3042
aVsay
p3043
aV.
aV''
p3044
aa(lp3045
Vhe
p3046
aVclasped
p3047
aVisaac
p3048
aVby
p3049
aVboth
p3050
aVshoulders
p3051
aVand
p3052
aVthen
p3053
aVtook
p3054
aVa
aVhalf
p3055
aVstep
p3056
aVaway
p3057
aVfrom
p3058
aVhim
p3059
aV.
aa(lp3060
V``
p3061
aVtell
p3062
aVha
p3063
aaasg464
(lp3064
(lp3065
V[
aVCHARACTER
p3066
aV]
aVit
p3067
aVis
p3068
aVimmediately
p3069
aVobvious
p3070
aVthat
p3071
aVhazel
p3072
aVis
p3073
aVn't
p3074
aVthe
p3075
aVtypical
p3076
aVteenage
p3077
aVgirl
p3078
aVfrom
p3079
aVindianapolis
p3080
aV.
aa(lp3081
Vshe
p3082
aVis
p3083
aV--
p3084
aVconscientiously
p3085
aVspeaking
p3086
aV--
p3087
aVold
p3088
aVfor
p3089
aVher
p3090
aVage
p3091
aV,
aVas
p3092
aVwe
p3093
aVsee
p3094
aVwhen
p3095
aVshe
p3096
aV's
p3097
aVcontrasted
p3098
aVwith
p3099
aVher
p3100
aVfriend
p3101
aVkaitlyn
p3102
aV.
aa(lp3103
Vby
p3104
aVcomparison
p3105
aV,
aVhazel
p3106
aVis
p3107
aVfar
p3108
aVmore
p3109
aVthoughtful
p3110
aVand
p3111
aVconsiderate
p3112
aVabout
p3113
aVher
p3114
aVactions
p3115
aVthan
p3116
aVkaitlyn
p3117
aV,
aVand
p3118
aVshe
p3119
aVis
p3120
aVfar
p3121
aVmore
p3122
aVanalytical
p3123
aV.
aa(lp3124
Vone
p3125
aVof
p3126
aVhazel
p3127
aV's
p3128
aVdefining
p3129
aVcharacteristics
p3130
aVis
p3131
aVher
p3132
aVwish
p3133
aVto
p3134
aVtread
p3135
aVlightly
p3136
aVupon
p3137
aVthe
p3138
aVworld
p3139
aV.
aa(lp3140
Vshe
p3141
aVdesperately
p3142
aVwants
p3143
aVto
p3144
aVmitigate
p3145
aVthe
p3146
aVharm
p3147
aVcaused
p3148
aVby
p3149
aVher
p3150
aVexistence
p3151
aVon
p3152
aVearth
p3153
aV.
aa(lp3154
Vthough
p3155
aVthis
p3156
aVoutlook
p3157
aVon
p3158
aVlife
p3159
aVis
p3160
aVdramatically
p3161
aVdifferent
p3162
aVfrom
p3163
aVaugustus
p3164
aV's
p3165
aV,
aVover
p3166
aVthe
p3167
aVcourse
p3168
aVof
p3169
aVthe
p3170
aVnovel
p3171
aVthe
p3172
aVteens
p3173
aVare
p3174
aVable
p3175
aVto
p3176
aVlearn
p3177
aVa
aVlot
p3178
aVfrom
p3179
aVone
p3180
aVanother
p3181
aV.
aa(lp3182
Vhazel
p3183
aV's
p3184
aVtranscendent
p3185
aVjourney
p3186
aVthroughout
p3187
aVthe
p3188
aVnovel
p3189
aVis
p3190
aVtruly
p3191
aVmultifaceted
p3192
aV.
aa(lp3193
Vphysically
p3194
aVspeaking
p3195
aV,
aVwe
p3196
aVwitness
p3197
aVhazel
p3198
aVgrow
p3199
aVweaker
p3200
aV.
aa(lp3201
Vthis
p3202
aVchange
p3203
aVis
p3204
aVapparent
p3205
aVin
p3206
aVthe
p3207
aVfact
p3208
aVthat
p3209
aVshe
p3210
aVuses
p3211
aVthe
p3212
aVstairs
p3213
aVat
p3214
aVsupport
p3215
aVgroup
p3216
aVat
p3217
aVthe
p3218
aVbeginning
p3219
aVof
p3220
aVthe
p3221
aVnovel
p3222
aVand
p3223
aVopts
p3224
aVfor
p3225
aVthe
p3226
aVelevator
p3227
aVnear
p3228
aVthe
p3229
aVnovels
p3230
aVend
p3231
aV,
aVas
p3232
aVher
p3233
aVphysical
p3234
aVcondition
p3235
aVdeteriorates
p3236
aV.
aa(lp3237
Vthe
p3238
aVmore
p3239
aVnuanced
p3240
aVaspect
p3241
aVof
p3242
aVhazel
p3243
aV's
p3244
aVjourney
p3245
aVrevolves
p3246
aVaround
p3247
aVher
p3248
aVspiritual
p3249
aVand
p3250
aVphilosophical
p3251
aVunderstanding
p3252
aVof
p3253
aVdeath
p3254
aV.
aa(lp3255
Vat
p3256
aVthe
p3257
aVbeginning
p3258
aVof
p3259
aVthe
p3260
aVnovel
p3261
aV,
aVhazel
p3262
aVobsesses
p3263
aVover
p3264
aVthe
p3265
aVimpact
p3266
aVher
p3267
aVdeath
p3268
aVwill
p3269
aVhave
p3270
aVon
p3271
aVthose
p3272
aVaround
p3273
aVher
p3274
aV.
aa(lp3275
Vshe
p3276
aVfears
p3277
aVgetting
p3278
aVclose
p3279
aVto
p3280
aVanyone
p3281
aVbecause
p3282
aVshe
p3283
aVknows
p3284
aVthat
p3285
aVher
p3286
aVdeath
p3287
aV,
aVwhich
p3288
aVis
p3289
aVn't
p3290
aVfar
p3291
aVoff
p3292
aV,
aVwill
p3293
aVhurt
p3294
aVanyone
p3295
aVclose
p3296
aVto
p3297
aVher
p3298
aV.
aa(lp3299
Vit
p3300
aVmakes
p3301
aVher
p3302
aV,
aVas
p3303
aVshe
p3304
aVputs
p3305
aVit
p3306
aV,
aVa
aV``
p3307
aVgrenade
p3308
aV.
aV''
p3309
aa(lp3310
Vthis
p3311
aVfear
p3312
aVappears
p3313
aVmost
p3314
aVin
p3315
aVregard
p3316
aVto
p3317
aVher
p3318
aVmother
p3319
aV.
aa(lp3320
Vonce
p3321
aV,
aVwhen
p3322
aVhazel
p3323
aVwas
p3324
aVnear
p3325
aVdying
p3326
aV,
aVshe
p3327
aVoverheard
p3328
aVher
p3329
aVmother
p3330
aVsaying
p3331
aVif
p3332
aVhazel
p3333
aVdies
p3334
aVshe
p3335
aVwo
p3336
aVn't
p3337
aVbe
p3338
aVa
aVmother
p3339
aVanymore
p3340
aV,
aVand
p3341
aVthat
p3342
aVthought
p3343
aVhas
p3344
aVstayed
p3345
aVwith
p3346
aVhazel
p3347
aV.
aa(lp3348
Vthis
p3349
aVfear
p3350
aVmotivates
p3351
aVhazel
p3352
aV's
p3353
aVmission
p3354
aVto
p3355
aVdetermine
p3356
aVwhat
p3357
aVhappens
p3358
aVto
p3359
aVthe
p3360
aVcharacters
p3361
aVat
p3362
aVthe
p3363
aVend
p3364
aVof
p3365
aVan
p3366
aVimperial
p3367
aVaffliction
p3368
aV.
aa(lp3369
Vshe
p3370
aVneeds
p3371
aVto
p3372
aVaffirm
p3373
aVthat
p3374
aVeverything
p3375
aVturns
p3376
aVout
p3377
aValright
p3378
aVfor
p3379
aVanna
p3380
aV's
p3381
aVmother
p3382
aV,
aVso
p3383
aVthat
p3384
aVshe
p3385
aVcan
p3386
aVconvince
p3387
aVherself
p3388
aVthat
p3389
aVher
p3390
aVparents
p3391
aVwill
p3392
aVend
p3393
aVup
p3394
aValright
p3395
aV.
aa(lp3396
Vthrough
p3397
aVher
p3398
aVrelationship
p3399
aVwith
p3400
aVaugustus
p3401
aV,
aVhowever
p3402
aV,
aVhazel
p3403
aV's
p3404
aVperspective
p3405
aVchanges
p3406
aV.
aa(lp3407
Vwhen
p3408
aVhis
p3409
aVcancer
p3410
aVreappears
p3411
aV,
aVshe
p3412
aVrecognizes
p3413
aVthat
p3414
aV,
aVof
p3415
aVthe
p3416
aVtwo
p3417
aVof
p3418
aVthem
p3419
aV,
aVhe
p3420
aVis
p3421
aVnow
p3422
aVthe
p3423
aVgrenade
p3424
aV.
aa(lp3425
Vbut
p3426
aVeven
p3427
aVso
p3428
aV,
aVshe
p3429
aVis
p3430
aVn't
p3431
aVsorry
p3432
aVshe
p3433
aVfell
p3434
aVin
p3435
aVlove
p3436
aVwith
p3437
aVhim
p3438
aV,
aVeven
p3439
aVthough
p3440
aVit
p3441
aVwill
p3442
aVhurt
p3443
aVher
p3444
aVimmensely
p3445
aVwhen
p3446
aVhe
p3447
aVdies
p3448
aV.
aa(lp3449
Vinstead
p3450
aV,
aVshe
p3451
aVcherishes
p3452
aVand
p3453
aVfeels
p3454
aVextremely
p3455
aVgrateful
p3456
aVfor
p3457
aVthe
p3458
aVtime
p3459
aVthey
p3460
aVdo
p3461
aVhave
p3462
aVtogether
p3463
aV.
aa(lp3464
Vthe
p3465
aVfinal
p3466
aVwords
p3467
aVof
p3468
aVthe
p3469
aVnovel
p3470
aVindicate
p3471
aVthe
p3472
aVextent
p3473
aVto
p3474
aVwhich
p3475
aVhazel
p3476
aVgrows
p3477
aVspiritually
p3478
aVthroughout
p3479
aVher
p3480
aVjourney
p3481
aV.
aa(lp3482
Vthe
p3483
aVimplication
p3484
aVof
p3485
aVthe
p3486
aVwords
p3487
aV``
p3488
aVi
aVdo
p3489
aV''
p3490
aVare
p3491
aVof
p3492
aVa
aVmarriage
p3493
aVthat
p3494
aVtakes
p3495
aVplace
p3496
aVthrough
p3497
aVmemory
p3498
aV.
aa(lp3499
Vthough
p3500
aVthe
p3501
aVmarriage
p3502
aVis
p3503
aVsymbolic
p3504
aV,
aVit
p3505
aVis
p3506
aVnevertheless
p3507
aVreal
p3508
aV.
aa(lp3509
Vwhat
p3510
aVhazel
p3511
aVmeans
p3512
aVby
p3513
aVsaying
p3514
aV``
p3515
aVi
aVdo
p3516
aV''
p3517
aVis
p3518
aVthat
p3519
aVshe
p3520
aVwill
p3521
aVremember
p3522
aVand
p3523
aVlove
p3524
aVaugustus
p3525
aVfor
p3526
aVas
p3527
aVlong
p3528
aVas
p3529
aVshe
p3530
aVlives
p3531
aV,
aVand
p3532
aVin
p3533
aVthat
p3534
aVsense
p3535
aVshe
p3536
aVhas
p3537
aVlearned
p3538
aVthat
p3539
aVdeath
p3540
aVis
p3541
aVnot
p3542
aVthe
p3543
aVubiquitous
p3544
aVfinality
p3545
aVshe
p3546
aVhad
p3547
aVonce
p3548
aVconsidered
p3549
aVit
p3550
aVto
p3551
aVbe
p3552
aV.
aa(lp3553
Vour
p3554
aVrelationships
p3555
aVcontinue
p3556
aV,
aVeven
p3557
aVif
p3558
aVwe
p3559
aVdo
p3560
aVnot
p3561
aV.
aassS'dr. maria'
p3562
(dp3563
g20
(lp3564
(lp3565
Vdr.
p3566
aV[
aVCHARACTER
p3567
aV]
aV-
aVhazel
p3568
aV's
p3569
aVprimary
p3570
aVcancer
p3571
aVdoctor
p3572
aV.
aa(lp3573
Vshe
p3574
aVis
p3575
aVa
aVstrong
p3576
aV,
aVassertive
p3577
aV,
aVyet
p3578
aVempathetic
p3579
aVphysician
p3580
aV.
aa(lp3581
Vat
p3582
aVone
p3583
aVpoint
p3584
aVhazel
p3585
aVremarks
p3586
aVthat
p3587
aVdr.
p3588
aV[
aVCHARACTER
p3589
aV]
aVis
p3590
aVvery
p3591
aVinto
p3592
aVgiving
p3593
aVout
p3594
aVhugs
p3595
aV.
aa(lp3596
Vshe
p3597
aVconvinces
p3598
aVhazel
p3599
aV's
p3600
aVparents
p3601
aVthat
p3602
aVhazel
p3603
aVshould
p3604
aVbe
p3605
aVallowed
p3606
aVto
p3607
aVtravel
p3608
aVto
p3609
aVamsterdam
p3610
aV,
aVdespite
p3611
aVtheir
p3612
aVreservations
p3613
aV.
aasg45
(lp3614
(lp3615
(lp3616
Vgathered
p3617
aVhere
p3618
aVin
p3619
aVyour
p3620
aVheart
p3621
aV,
aVliterally
p3622
aVin
p3623
aVyour
p3624
aVheart
p3625
aV,
aVas
p3626
aVcancer
p3627
aVsurvivors
p3628
aV.
aa(lp3629
Vyou
p3630
aVand
p3631
aVyou
p3632
aValone
p3633
aVknow
p3634
aVus
p3635
aVas
p3636
aVwe
p3637
aVknow
p3638
aVourselves
p3639
aV.
aa(lp3640
Vguide
p3641
aVus
p3642
aVto
p3643
aVlife
p3644
aVand
p3645
aVthe
p3646
aVlight
p3647
aVthrough
p3648
aVour
p3649
aVtimes
p3650
aVof
p3651
aVtrial
p3652
aV.
aa(lp3653
Vwe
p3654
aVpray
p3655
aVfor
p3656
aVisaac's
p3657
aVeyes
p3658
aV,
aVfor
p3659
aVmichael
p3660
aV's
p3661
aVand
p3662
aVjamie
p3663
aV's
p3664
aVblood
p3665
aV,
aVfor
p3666
aVaugustus
p3667
aV's
p3668
aVbones
p3669
aV,
aVfor
p3670
aVhazel
p3671
aV's
p3672
aVlungs
p3673
aV,
aVfor
p3674
aVjames
p3675
aV's
p3676
aVthroat
p3677
aV.
aa(lp3678
Vwe
p3679
aVpray
p3680
aVthat
p3681
aVyou
p3682
aVmight
p3683
aVheal
p3684
aVus
p3685
aVand
p3686
aVthat
p3687
aVwe
p3688
aVmight
p3689
aVfeel
p3690
aVyour
p3691
aVlove
p3692
aV,
aVand
p3693
aVyour
p3694
aVpeace
p3695
aV,
aVwhich
p3696
aVpasses
p3697
aVall
p3698
aVunderstanding
p3699
aV.
aa(lp3700
Vand
p3701
aVwe
p3702
aVremember
p3703
aVin
p3704
aVour
p3705
aVhearts
p3706
aVthose
p3707
aVwhom
p3708
aVwe
p3709
aVknew
p3710
aVand
p3711
aVloved
p3712
aVwho
p3713
aVhave
p3714
aVgone
p3715
aVhome
p3716
aVto
p3717
aVyou
p3718
aV:
aVmaria
p3719
aVand
p3720
aVkade
p3721
aVand
p3722
aVjoseph
p3723
aVand
p3724
aVhaley
p3725
aVand
p3726
aVabigail
p3727
aVand
p3728
aVangelina
p3729
aVand
p3730
aVtaylor
p3731
aVand
p3732
aVgabriel
p3733
aVand
p3734
aV.
aa(lp3735
V.
aa(lp3736
V.
aV''
p3737
aa(lp3738
Vit
p3739
aVwas
p3740
aVa
aVlong
p3741
aVlist
p3742
aV.
aa(lp3743
Vthe
p3744
aVworld
p3745
aVcontains
p3746
aVa
aVlot
p3747
aVof
p3748
aVdead
p3749
aVpeople
p3750
aV.
aa(lp3751
Vand
p3752
aVwhile
p3753
aVpatrick
p3754
aVdroned
p3755
aVon
p3756
aV,
aVreading
p3757
aVthe
p3758
aVlist
p3759
aVfrom
p3760
aVa
aVsheet
p3761
aVof
p3762
aVpaper
p3763
aVbecause
p3764
aVit
p3765
aVwas
p3766
aVtoo
p3767
aVlong
p3768
aVto
p3769
aVmemorize
p3770
aV,
aVi
aVkept
p3771
aVmy
p3772
aVeyes
p3773
aVclosed
p3774
aV,
aVtrying
p3775
aVto
p3776
aVthink
p3777
aVprayerfully
p3778
aVbut
p3779
aVmostly
p3780
aVimagining
p3781
aVthe
p3782
aVday
p3783
aVwhen
p3784
aVmy
p3785
aVname
p3786
aVwould
p3787
aVfind
p3788
aVits
p3789
aVway
p3790
aVonto
p3791
aVthat
p3792
aVlist
p3793
aV,
aVall
p3794
aVthe
p3795
aVway
p3796
aVat
p3797
aVthe
p3798
aVend
p3799
aVwhen
p3800
aVeveryone
p3801
aVhad
p3802
aVstopped
p3803
aVlistening
p3804
aV.
aa(lp3805
Vwhen
p3806
aVpatrick
p3807
aVwas
p3808
aVfinished
p3809
aV,
aVwe
p3810
aVsaid
p3811
aVthis
p3812
aVstupid
p3813
aVmantra
p3814
aaasg464
NssS'mrs. lancaster'
p3815
(dp3816
g20
(lp3817
(lp3818
Vmrs.
p3819
aV[
aVCHARACTER
p3820
aV]
aV-
aVhazel
p3821
aV's
p3822
aVmother
p3823
aV.
aa(lp3824
Vshe
p3825
aVis
p3826
aVan
p3827
aVemotionally
p3828
aVstrong
p3829
aVand
p3830
aVkind
p3831
aVwoman
p3832
aVwho
p3833
aVhas
p3834
aVmade
p3835
aVit
p3836
aVher
p3837
aVlife
p3838
aVto
p3839
aVcare
p3840
aVfor
p3841
aVhazel
p3842
aV.
aa(lp3843
Vduring
p3844
aVthe
p3845
aVnovel
p3846
aVhazel
p3847
aVobsesses
p3848
aVover
p3849
aVthe
p3850
aVemotional
p3851
aVdevastation
p3852
aVthat
p3853
aVher
p3854
aVdeath
p3855
aVwill
p3856
aVcause
p3857
aVto
p3858
aVher
p3859
aVmother
p3860
aV.
aa(lp3861
Vin
p3862
aVthe
p3863
aVend
p3864
aVhazel
p3865
aVis
p3866
aVoverjoyed
p3867
aVto
p3868
aVlearn
p3869
aVthat
p3870
aVher
p3871
aVmother
p3872
aVhas
p3873
aVsecretly
p3874
aVbeen
p3875
aVtaking
p3876
aVclasses
p3877
aVto
p3878
aVbecome
p3879
aVa
aVsocial
p3880
aVworker
p3881
aV.
aasg45
(lp3882
(lp3883
(lp3884
Vist
p3885
aV,
aVall
p3886
aVthe
p3887
aVway
p3888
aVat
p3889
aVthe
p3890
aVend
p3891
aVwhen
p3892
aVeveryone
p3893
aVhad
p3894
aVstopped
p3895
aVlistening
p3896
aV.
aa(lp3897
Vwhen
p3898
aVpatrick
p3899
aVwas
p3900
aVfinished
p3901
aV,
aVwe
p3902
aVsaid
p3903
aVthis
p3904
aVstupid
p3905
aVmantra
p3906
aVtogether-living
p3907
aVour
p3908
aVbest
p3909
aVlife
p3910
aVtoday-and
p3911
aVit
p3912
aVwas
p3913
aVover
p3914
aV.
aa(lp3915
Vaugustus
p3916
aVwaters
p3917
aVpushed
p3918
aVhimself
p3919
aVout
p3920
aVof
p3921
aVhis
p3922
aVchair
p3923
aVand
p3924
aVwalked
p3925
aVover
p3926
aVto
p3927
aVme
p3928
aV.
aa(lp3929
Vhis
p3930
aVgait
p3931
aVwas
p3932
aVcrooked
p3933
aVlike
p3934
aVhis
p3935
aVsmile
p3936
aV.
aa(lp3937
Vhe
p3938
aVtowered
p3939
aVover
p3940
aVme
p3941
aV,
aVbut
p3942
aVhe
p3943
aVkept
p3944
aVhis
p3945
aVdistance
p3946
aVso
p3947
aVi
aVwouldn't
p3948
aVhave
p3949
aVto
p3950
aVcrane
p3951
aVmy
p3952
aVneck
p3953
aVto
p3954
aVlook
p3955
aVhim
p3956
aVin
p3957
aVthe
p3958
aVeye
p3959
aV.
aa(lp3960
V``
p3961
aVwhat
p3962
aV's
p3963
aVyour
p3964
aVname
p3965
aV?
aV''
p3966
aa(lp3967
Vhe
p3968
aVasked
p3969
aV.
aa(lp3970
V``
p3971
aVhazel
p3972
aV.
aV''
p3973
aa(lp3974
V14
p3975
aVthe
p3976
aVfault
p3977
aVin
p3978
aVour
p3979
aVstars
p3980
aV''
p3981
aVno
p3982
aV,
aVyour
p3983
aVfull
p3984
aVname
p3985
aV.
aV''
p3986
aa(lp3987
V``
p3988
aVum
p3989
aV,
aVhazel
p3990
aVgrace
p3991
aVlancaster
p3992
aV.
aV''
p3993
aa(lp3994
Vhe
p3995
aVwas
p3996
aVjust
p3997
aVabout
p3998
aVto
p3999
aVsay
p4000
aVsomething
p4001
aVelse
p4002
aVwhen
p4003
aVisaac
p4004
aVwalked
p4005
aVup
p4006
aV.
aa(lp4007
V``
p4008
aVhold
p4009
aVon
p4010
aV,
aV''
p4011
aVaugustus
p4012
aVsaid
p4013
aV,
aVraising
p4014
aVa
aVfinger
p4015
aV,
aVand
p4016
aVturned
p4017
aVto
p4018
aVisaac
p4019
aV.
aa(lp4020
V``
p4021
aVthat
p4022
aVwas
p4023
aVactually
p4024
aVworse
p4025
aVthan
p4026
aVyou
p4027
aVmade
p4028
aVit
p4029
aVout
p4030
aVto
p4031
aVbe
p4032
aV.
aV''
p4033
aa(lp4034
V``
p4035
aVi
aVtold
p4036
aVyou
p4037
aVit
p4038
aVwas
p4039
aVbleak
p4040
aV.
aV''
p4041
aa(lp4042
V``
p4043
aVwhy
p4044
aVdo
p4045
aVyou
p4046
aVbother
p4047
aVwith
p4048
aVit
p4049
aV?
aV''
p4050
aa(lp4051
V``
p4052
aVi
aVdo
p4053
aVn't
p4054
aVknow
p4055
aV.
aa(lp4056
Vit
p4057
aVkind
p4058
aVof
p4059
aVhelps
p4060
aV?
aV''
p4061
aa(lp4062
Vaugustus
p4063
aVleaned
p4064
aVin
p4065
aVso
p4066
aVhe
p4067
aVthought
p4068
aVi
aVcould
p4069
aVn't
p4070
aVhear
p4071
aV.
aa(lp4072
V``
p4073
aVshe
p4074
aV's
p4075
aVa
aVregular
p4076
aV?
aV''
p4077
aa(lp4078
Vi
aVcould
p4079
aVn't
p4080
aVhear
p4081
aVisaac
p4082
aV's
p4083
aVcomment
p4084
aV,
aVbut
p4085
aVaugustus
p4086
aVresponded
p4087
aV,
aV``
p4088
aVi
aV'll
p4089
aVsay
p4090
aV.
aV''
p4091
aa(lp4092
Vhe
p4093
aVclasped
p4094
aVisaac
p4095
aVby
p4096
aVboth
p4097
aVshoulders
p4098
aVand
p4099
aVthen
p4100
aVtook
p4101
aVa
aVhalf
p4102
aVstep
p4103
aVaway
p4104
aVfrom
p4105
aVhim
p4106
aV.
aa(lp4107
V``
p4108
aVtell
p4109
aVha
p4110
aaasg464
NssS"augustus's parents"
p4111
(dp4112
g20
(lp4113
(lp4114
V[
aVCHARACTER
p4115
aV]
aV-
aVthe
p4116
aVfew
p4117
aVglimpses
p4118
aVthat
p4119
aVwe
p4120
aVget
p4121
aVof
p4122
aV[
aVCHARACTER
p4123
aV]
aVin
p4124
aVthe
p4125
aVnovel
p4126
aVare
p4127
aVof
p4128
aVkind
p4129
aVand
p4130
aVunderstanding
p4131
aVpeople
p4132
aV.
aa(lp4133
Vthey
p4134
aVdo
p4135
aVnot
p4136
aVhesitate
p4137
aVto
p4138
aVvegetarianize
p4139
aVhazel
p4140
aV's
p4141
aVmeal
p4142
aV.
aa(lp4143
Vnear
p4144
aVthe
p4145
aVend
p4146
aVof
p4147
aVthe
p4148
aVnovel
p4149
aV,
aVit
p4150
aVmeans
p4151
aVa
aVlot
p4152
aVto
p4153
aVhazel
p4154
aVwhen
p4155
aVaugustus
p4156
aV's
p4157
aVfather
p4158
aVwhispers
p4159
aVin
p4160
aVher
p4161
aVear
p4162
aVabout
p4163
aVhow
p4164
aVgreat
p4165
aVit
p4166
aVis
p4167
aVthat
p4168
aVshe
p4169
aVhas
p4170
aVbeen
p4171
aVinvolved
p4172
aVin
p4173
aVhis
p4174
aVson
p4175
aV's
p4176
aVlife
p4177
aV.
aasg45
(lp4178
(lp4179
asg464
NssS'augustus "gus" waters'
p4180
(dp4181
g20
(lp4182
(lp4183
V[
aVCHARACTER
p4184
aV]
aV-
aVthe
p4185
aVsixteen-year-old
p4186
aVwith
p4187
aVosteosarcoma
p4188
aVwho
p4189
aVbecomes
p4190
aVhazel
p4191
aV's
p4192
aVboyfriend
p4193
aV.
aa(lp4194
Vaugustus
p4195
aVhas
p4196
aVa
aVkeen
p4197
aVwit
p4198
aVand
p4199
aVa
aVtendency
p4200
aVtoward
p4201
aVperformance
p4202
aV--
p4203
aVhe
p4204
aVrevels
p4205
aVin
p4206
aVgrand
p4207
aVromantic
p4208
aVgestures
p4209
aV.
aa(lp4210
Vaugustus
p4211
aValmost
p4212
aVimmediately
p4213
aVfalls
p4214
aVin
p4215
aVlove
p4216
aVwith
p4217
aVhazel
p4218
aVafter
p4219
aVmeeting
p4220
aVher
p4221
aVat
p4222
aVsupport
p4223
aVgroup
p4224
aV.
aasg45
(lp4225
(lp4226
asg464
(lp4227
(lp4228
V[
aVCHARACTER
p4229
aV]
aVin
p4230
aVa
aVlot
p4231
aVof
p4232
aVways
p4233
aVaugustus
p4234
aVperforms
p4235
aVhis
p4236
aVown
p4237
aVexistence
p4238
aV.
aa(lp4239
Vthis
p4240
aVis
p4241
aVwhy
p4242
aVthere
p4243
aVare
p4244
aVtwo
p4245
aVversions
p4246
aVof
p4247
aVhis
p4248
aVcharacter
p4249
aVwithin
p4250
aVthe
p4251
aVnovel
p4252
aV.
aa(lp4253
Vthe
p4254
aVfirst
p4255
aVversion
p4256
aVwe
p4257
aVmeet
p4258
aVis
p4259
aVthe
p4260
aVfacade
p4261
aVcalled
p4262
aVaugustus
p4263
aVwaters
p4264
aV.
aa(lp4265
Vnamed
p4266
aV,
aVquite
p4267
aVgrandiosely
p4268
aV,
aVafter
p4269
aVthe
p4270
aVfirst
p4271
aVroman
p4272
aVemperor
p4273
aV,
aVaugustus
p4274
aVplays
p4275
aVa
aVstrong
p4276
aV,
aVconfident
p4277
aV,
aVfunny
p4278
aV,
aVand
p4279
aVcharming
p4280
aVboy
p4281
aV.
aa(lp4282
Vhe
p4283
aVcontinuously
p4284
aVfetishizes
p4285
aVhis
p4286
aVown
p4287
aVgrandiosity
p4288
aV.
aa(lp4289
Vhe
p4290
aVis
p4291
aVconvinced
p4292
aVthat
p4293
aVthe
p4294
aVimportance
p4295
aVof
p4296
aVlife
p4297
aVis
p4298
aVbeing
p4299
aVheroic
p4300
aV,
aVleaving
p4301
aVa
aVnoble
p4302
aVlegacy
p4303
aV,
aVmonumentally
p4304
aVimpacting
p4305
aVhumanity
p4306
aV.
aa(lp4307
Vthis
p4308
aVversion
p4309
aVof
p4310
aVaugustus
p4311
aVfumbles
p4312
aVover
p4313
aVcalculated
p4314
aVmonologues
p4315
aVin
p4316
aVthe
p4317
aVpark
p4318
aV.
aa(lp4319
Vhe
p4320
aVover-plans
p4321
aVdutch
p4322
aVthemed
p4323
aVpicnics
p4324
aV,
aVdown
p4325
aVto
p4326
aVthe
p4327
aVlast
p4328
aVexcruciating
p4329
aVdetail
p4330
aV,
aVpurely
p4331
aVfor
p4332
aVstage
p4333
aVlike
p4334
aVeffect
p4335
aV.
aa(lp4336
Vhe
p4337
aVis
p4338
aVdeluded
p4339
aVby
p4340
aVshowy
p4341
aVmetaphors
p4342
aVof
p4343
aVhis
p4344
aVown
p4345
aVconstruction
p4346
aV,
aVlike
p4347
aVwhen
p4348
aVhe
p4349
aVsacrifices
p4350
aVhimself
p4351
aVin
p4352
aVa
aVvideo
p4353
aVgame
p4354
aVby
p4355
aVjumping
p4356
aVon
p4357
aVa
aVgrenade
p4358
aVin
p4359
aVorder
p4360
aVto
p4361
aVsave
p4362
aVchildren
p4363
aV.
aa(lp4364
Vas
p4365
aVhis
p4366
aVcancer
p4367
aVreturns
p4368
aV,
aVhowever
p4369
aV,
aVall
p4370
aVof
p4371
aVthis
p4372
aVperformance
p4373
aVfalls
p4374
aVaway
p4375
aV.
aa(lp4376
Vwhat
p4377
aVremains
p4378
aVis
p4379
aVgus
p4380
aV,
aVa
aVteenage
p4381
aVboy
p4382
aVin
p4383
aVindianapolis
p4384
aVwho
p4385
aVused
p4386
aVto
p4387
aVbe
p4388
aVa
aVstar
p4389
aVathlete
p4390
aVand
p4391
aVnow
p4392
aVfinds
p4393
aVhimself
p4394
aVdying
p4395
aVfrom
p4396
aVcancer
p4397
aV.
aa(lp4398
Vgus
p4399
aVis
p4400
aVthe
p4401
aVboy
p4402
aVhis
p4403
aVparents
p4404
aVhave
p4405
aValways
p4406
aVseen
p4407
aV.
aa(lp4408
Vin
p4409
aVfact
p4410
aV,
aVhazel
p4411
aVonly
p4412
aVlearns
p4413
aVhis
p4414
aVnickname
p4415
aVis
p4416
aV``
p4417
aVgus
p4418
aV''
p4419
aVbecause
p4420
aVit
p4421
aV's
p4422
aVwhat
p4423
aVhis
p4424
aVparents
p4425
aVcall
p4426
aVhim
p4427
aV.
aa(lp4428
Vbut
p4429
aVhazel
p4430
aVdoes
p4431
aVn't
p4432
aVlove
p4433
aVhim
p4434
aVany
p4435
aVless
p4436
aVfor
p4437
aVbeing
p4438
aVgus
p4439
aV.
aa(lp4440
Vquite
p4441
aVthe
p4442
aVcontrary
p4443
aV:
aVshe
p4444
aVstarts
p4445
aVcalling
p4446
aVhim
p4447
aVgus
p4448
aVrather
p4449
aVthan
p4450
aVaugustus
p4451
aVonly
p4452
aVafter
p4453
aVthey
p4454
aV're
p4455
aVintimately
p4456
aVfamiliar
p4457
aVwith
p4458
aVone
p4459
aVanother
p4460
aV,
aVonce
p4461
aVhazel
p4462
aVknows
p4463
aVall
p4464
aVaspects
p4465
aVof
p4466
aVhim
p4467
aVand
p4468
aVnot
p4469
aVjust
p4470
aVthe
p4471
aVperformed
p4472
aVversion
p4473
aVshe
p4474
aVfirst
p4475
aVmeets
p4476
aV.
aa(lp4477
Vshe
p4478
aVsees
p4479
aVthat
p4480
aV,
aVunderneath
p4481
aVthe
p4482
aVromantic
p4483
aVgestures
p4484
aVand
p4485
aVtheatrical
p4486
aVgrandiosity
p4487
aV,
aVgus
p4488
aVis
p4489
aVa
aVsweet
p4490
aV,
aVcaring
p4491
aV,
aVand
p4492
aVunderstandably
p4493
aVterrified
p4494
aVseventeen-year-old
p4495
aVguy
p4496
aV.
aa(lp4497
Vwhat
p4498
aVmore
p4499
aV,
aVit
p4500
aV's
p4501
aVhis
p4502
aVlove
p4503
aVfor
p4504
aVhazel
p4505
aVgrace
p4506
aVthat
p4507
aVteaches
p4508
aVaugustus
p4509
aVits
p4510
aVokay
p4511
aVto
p4512
aVbe
p4513
aVgus
p4514
aV.
aa(lp4515
Vas
p4516
aVhe
p4517
aVdeteriorates
p4518
aVphysically
p4519
aV,
aVhe
p4520
aV's
p4521
aVforced
p4522
aVto
p4523
aVconfront
p4524
aVthe
p4525
aVfact
p4526
aVthat
p4527
aVhe
p4528
aV'll
p4529
aVdie
p4530
aVwithout
p4531
aVdoing
p4532
aVanything
p4533
aVhumanity
p4534
aVat
p4535
aVlarge
p4536
aVviews
p4537
aVas
p4538
aVextraordinary
p4539
aV,
aVand
p4540
aVa
aVdeeper
p4541
aVspiritual
p4542
aVtransition
p4543
aVtakes
p4544
aVplace
p4545
aV.
aa(lp4546
Vbecause
p4547
aVof
p4548
aVhazel
p4549
aV,
aVhe
p4550
aVcomes
p4551
aVto
p4552
aVrealize
p4553
aVthat
p4554
aVfailing
p4555
aVto
p4556
aVdo
p4557
aVsomething
p4558
aVextraordinary
p4559
aVdoes
p4560
aVnot
p4561
aVequal
p4562
aVbeing
p4563
aVinsignificant
p4564
aV.
aa(lp4565
Vover
p4566
aVthe
p4567
aVcourse
p4568
aVof
p4569
aVthe
p4570
aVnovel
p4571
aVthe
p4572
aVtrue
p4573
aVgus
p4574
aVreveals
p4575
aVhimself
p4576
aVthrough
p4577
aVthe
p4578
aVmost
p4579
aVemblematic
p4580
aVgesture
p4581
aVof
p4582
aVhis
p4583
aVaugustinian
p4584
aVcounterpart
p4585
aV:
aVthe
p4586
aVact
p4587
aVof
p4588
aVplacing
p4589
aVa
aVcigarette
p4590
aVin
p4591
aVhis
p4592
aVmouth
p4593
aV.
aa(lp4594
Vthe
p4595
aVcigarette
p4596
aVmetaphor
p4597
aVserves
p4598
aVas
p4599
aVa
aVlink
p4600
aVthat
p4601
aVbinds
p4602
aVthe
p4603
aVtwo
p4604
aVdisparate
p4605
aVidentities
p4606
aV.
aa(lp4607
Vthat
p4608
aV's
p4609
aVbecause
p4610
aVthe
p4611
aVcigarette
p4612
aVreveals
p4613
aVthe
p4614
aVopposite
p4615
aVof
p4616
aVwhat
p4617
aVit
p4618
aVis
p4619
aVmeant
p4620
aVto
p4621
aVproject
p4622
aV:
aVaugustus
p4623
aVwants
p4624
aVfor
p4625
aVthe
p4626
aVcigarette
p4627
aVto
p4628
aVrepresent
p4629
aVhis
p4630
aVcontrol
p4631
aVover
p4632
aVthe
p4633
aVthing
p4634
aVthat
p4635
aVcould
p4636
aVkill
p4637
aVhim
p4638
aV,
aVbut
p4639
aVreally
p4640
aVit
p4641
aVis
p4642
aVa
aVdevice
p4643
aVhe
p4644
aVrelies
p4645
aVon
p4646
aVwhen
p4647
aVfeeling
p4648
aVmost
p4649
aVvulnerable
p4650
aV,
aVmost
p4651
aVlike
p4652
aVgus
p4653
aV.
aa(lp4654
Vhe
p4655
aVgrabs
p4656
aVfor
p4657
aVthe
p4658
aVcigarette
p4659
aVat
p4660
aVtimes
p4661
aVof
p4662
aVuncertainty
p4663
aV,
aVlike
p4664
aVwhen
p4665
aVhe
p4666
aVfirst
p4667
aVmeets
p4668
aVhazel
p4669
aVor
p4670
aVon
p4671
aVboard
p4672
aVthe
p4673
aVplane
p4674
aV,
aVwhen
p4675
aVhe
p4676
aVfearful
p4677
aVof
p4678
aVflying
p4679
aV.
aa(lp4680
Vpeter
p4681
aVvan
p4682
aVhouten
p4683
aV:
aVin
p4684
aVa
aVnovel
p4685
aVthat
p4686
aVis
p4687
aVsomewhat
p4688
aVstructured
p4689
aVaround
p4690
aVmetafiction
p4691
aV,
aVwith
p4692
aVan
p4693
aVimperial
p4694
aVaffliction
p4695
aVplaying
p4696
aVa
aVstarring
p4697
aVrole
p4698
aVin
p4699
aVthe
p4700
aVfiction
p4701
aVwe
p4702
aV're
p4703
aVreading
p4704
aV,
aVvan
p4705
aVhouten
p4706
aVis
p4707
aVits
p4708
aVkeenest
p4709
aVrepresentative
p4710
aV.
aa(lp4711
Vas
p4712
aVsuch
p4713
aV,
aVhe
p4714
aVreveals
p4715
aVthe
p4716
aVmagical
p4717
aVpower
p4718
aVof
p4719
aVfiction
p4720
aVwhile
p4721
aVsimultaneously
p4722
aVdemystifying
p4723
aVthe
p4724
aVromance
p4725
aVattributed
p4726
aVto
p4727
aVauthorship
p4728
aV.
aa(lp4729
Vfor
p4730
aVmost
p4731
aVof
p4732
aVthe
p4733
aVnovel
p4734
aVhazel
p4735
aVconsiders
p4736
aVvan
p4737
aVhouten
p4738
aVa
aVveritable
p4739
aVgod
p4740
aV,
aVor
p4741
aVat
p4742
aVthe
p4743
aVvery
p4744
aVleast
p4745
aV,
aVa
aVpowerful
p4746
aVprophet
p4747
aV.
aa(lp4748
Van
p4749
aVimperial
p4750
aVaffliction
p4751
aVis
p4752
aVhazel
p4753
aV's
p4754
aVpersonal
p4755
aVbible
p4756
aV.
aa(lp4757
Vthe
p4758
aVnovel
p4759
aVspeaks
p4760
aVto
p4761
aVher
p4762
aVabout
p4763
aVterminal
p4764
aVillness
p4765
aVin
p4766
aVways
p4767
aVthat
p4768
aVno
p4769
aVother
p4770
aVmedium
p4771
aV,
aVor
p4772
aVperson
p4773
aV,
aVor
p4774
aVsupport
p4775
aVgroup
p4776
aVever
p4777
aVdo
p4778
aV.
aa(lp4779
Vthe
p4780
aVact
p4781
aVof
p4782
aVreading
p4783
aVvan
p4784
aVhouten
p4785
aV's
p4786
aVnovel
p4787
aVis
p4788
aVso
p4789
aVincredibly
p4790
aVpersonal
p4791
aVto
p4792
aVhazel
p4793
aVthat
p4794
aVshe
p4795
aVmistakenly
p4796
aVconflates
p4797
aVthe
p4798
aVnovel
p4799
aV's
p4800
aVmagic
p4801
aVwith
p4802
aVits
p4803
aVauthor
p4804
aV's
p4805
aVgreatness
p4806
aV.
aa(lp4807
Vhowever
p4808
aV,
aVwhen
p4809
aVhazel
p4810
aVfirst
p4811
aVmeets
p4812
aVvan
p4813
aVhouten
p4814
aV,
aVthe
p4815
aVmagic
p4816
aVfeeling
p4817
aVbecomes
p4818
aVdeflated
p4819
aV.
aa(lp4820
Vshe
p4821
aVsees
p4822
aVhim
p4823
aVfor
p4824
aVthe
p4825
aVsloppy
p4826
aVand
p4827
aVoften
p4828
aVmean-spirited
p4829
aVdrunk
p4830
aVhe
p4831
aVreally
p4832
aVis
p4833
aV.
aa(lp4834
Vshe
p4835
aVlearns
p4836
aVthat
p4837
aVan
p4838
aVauthor
p4839
aVis
p4840
aVnothing
p4841
aVmore
p4842
aVthan
p4843
aVa
aVhuman
p4844
aVbeing
p4845
aV,
aVwith
p4846
aVhuman
p4847
aVqualities
p4848
aVand
p4849
aVproblems
p4850
aV.
aa(lp4851
Vvan
p4852
aVhouten
p4853
aVwears
p4854
aVa
aVlot
p4855
aVof
p4856
aVmasks
p4857
aVthroughout
p4858
aVthe
p4859
aVnovel
p4860
aV.
aa(lp4861
Vone
p4862
aVof
p4863
aVhis
p4864
aVmost
p4865
aVcrucial
p4866
aVroles
p4867
aVis
p4868
aVto
p4869
aVdepict
p4870
aVthe
p4871
aVvariety
p4872
aVof
p4873
aVways
p4874
aVin
p4875
aVwhich
p4876
aVpeople
p4877
aVdeal
p4878
aVwith
p4879
aVpain
p4880
aV.
aa(lp4881
Vwhen
p4882
aVwe
p4883
aVlearn
p4884
aVthat
p4885
aVan
p4886
aVimperial
p4887
aVaffliction
p4888
aVis
p4889
aVreally
p4890
aVa
aVfictional
p4891
aVaccount
p4892
aVof
p4893
aVthe
p4894
aVlife
p4895
aVof
p4896
aVvan
p4897
aVhouten
p4898
aV's
p4899
aVdaughter
p4900
aV,
aVanna
p4901
aV,
aVwho
p4902
aVdied
p4903
aVfrom
p4904
aVcancer
p4905
aVat
p4906
aVa
aVyoung
p4907
aVage
p4908
aV,
aVwe
p4909
aVare
p4910
aVable
p4911
aVto
p4912
aVsee
p4913
aVthe
p4914
aVauthor
p4915
aVmore
p4916
aVsympathetically
p4917
aV.
aa(lp4918
Vhe
p4919
aVis
p4920
aVthe
p4921
aVreal
p4922
aVlife
p4923
aVtragic
p4924
aVversion
p4925
aVof
p4926
aVthe
p4927
aVfictional
p4928
aVanna
p4929
aV's
p4930
aVmother
p4931
aVin
p4932
aVhis
p4933
aVnovel
p4934
aV.
aa(lp4935
Vit
p4936
aVmakes
p4937
aVhim
p4938
aVthe
p4939
aVliving
p4940
aVembodiment
p4941
aVof
p4942
aVhazel
p4943
aV's
p4944
aVgreatest
p4945
aVfear
p4946
aV:
aVthat
p4947
aVher
p4948
aVparents
p4949
aVwill
p4950
aVbe
p4951
aVso
p4952
aVdistraught
p4953
aVby
p4954
aVher
p4955
aVdeath
p4956
aVthat
p4957
aVthey
p4958
aVwill
p4959
aVnot
p4960
aVbe
p4961
aVable
p4962
aVto
p4963
aVgo
p4964
aVon
p4965
aV.
aassS'isaac'
p4966
(dp4967
g20
(lp4968
(lp4969
V[
aVCHARACTER
p4970
aV]
aV-
aVthe
p4971
aVmutual
p4972
aVfriend
p4973
aVof
p4974
aVhazel
p4975
aV's
p4976
aVand
p4977
aVaugustus
p4978
aV's
p4979
aVwho
p4980
aVfacilitates
p4981
aVtheir
p4982
aVintroduction
p4983
aVat
p4984
aVsupport
p4985
aVgroup
p4986
aV.
aa(lp4987
V[
aVCHARACTER
p4988
aV]
aVis
p4989
aVcynical
p4990
aVby
p4991
aVnature
p4992
aV.
aa(lp4993
Vblinded
p4994
aVby
p4995
aVcancer
p4996
aVand
p4997
aVkicked
p4998
aVto
p4999
aVthe
p5000
aVcurb
p5001
aVby
p5002
aVhis
p5003
aVgirlfriend
p5004
aVmonica
p5005
aV,
aV[
aVCHARACTER
p5006
aV]
aVoften
p5007
aVembodies
p5008
aVskepticism
p5009
aVand
p5010
aVrage
p5011
aV.
aa(lp5012
Vit
p5013
aVis
p5014
aVworth
p5015
aVnoting
p5016
aVthat
p5017
aVhe
p5018
aVshares
p5019
aVhis
p5020
aVname
p5021
aVwith
p5022
aVbiblical
p5023
aV[
aVCHARACTER
p5024
aV]
aV,
aVwho
p5025
aValso
p5026
aVwas
p5027
aVblind
p5028
aV.
aasg45
(lp5029
(lp5030
(lp5031
Vquite
p5032
aVa
aVlot
p5033
aVof
p5034
aVcompetitiveness
p5035
aVabout
p5036
aVit
p5037
aV,
aVwith
p5038
aVeverybody
p5039
aVwanting
p5040
aVto
p5041
aVbeat
p5042
aVnot
p5043
aVonly
p5044
aVcancer
p5045
aVitself
p5046
aV,
aVbut
p5047
aValso
p5048
aVthe
p5049
aVother
p5050
aVpeople
p5051
aVin
p5052
aVthe
p5053
aVroom
p5054
aV.
aa(lp5055
Vlike
p5056
aV,
aVi
aVrealize
p5057
aVthat
p5058
aVthis
p5059
aVis
p5060
aVirrational
p5061
aV,
aVbut
p5062
aVwhen
p5063
aVthey
p5064
aVtell
p5065
aVyou
p5066
aVthat
p5067
aVyou
p5068
aVhave
p5069
aV,
aVsay
p5070
aV,
aVa
aV20
p5071
aVpercent
p5072
aVchance
p5073
aVof
p5074
aVliving
p5075
aVfive
p5076
aVyears
p5077
aV,
aVthe
p5078
aVmath
p5079
aVkicks
p5080
aVin
p5081
aVand
p5082
aVyou
p5083
aVfigure
p5084
aVthat
p5085
aV's
p5086
aVone
p5087
aVin
p5088
aVfive
p5089
aV...
p5090
aVso
p5091
aVyou
p5092
aVlook
p5093
aVaround
p5094
aVand
p5095
aVthink
p5096
aV,
aVas
p5097
aVany
p5098
aVhealthy
p5099
aVperson
p5100
aVwould
p5101
aV:
aVi
aVgot
p5102
aVta
p5103
aVoutlast
p5104
aVfour
p5105
aVof
p5106
aVthese
p5107
aVbastards
p5108
aV.
aV)
aa(lp5109
V5
aVjohn
p5110
aVgreen
p5111
aVthe
p5112
aVonly
p5113
aVredeeming
p5114
aVfacet
p5115
aVof
p5116
aVsupport
p5117
aVgroup
p5118
aVwas
p5119
aVthis
p5120
aVkid
p5121
aVnamed
p5122
aVisaac
p5123
aV,
aVa
aVlong-faced
p5124
aV,
aVskinny
p5125
aVguy
p5126
aVwith
p5127
aVstraight
p5128
aVblond
p5129
aVhair
p5130
aVswept
p5131
aVover
p5132
aVone
p5133
aVeye
p5134
aV.
aa(lp5135
Vand
p5136
aVhis
p5137
aVeyes
p5138
aVwere
p5139
aVthe
p5140
aVproblem
p5141
aV.
aa(lp5142
Vhe
p5143
aVhad
p5144
aVsome
p5145
aVfantastically
p5146
aVimprobable
p5147
aVeye
p5148
aVcancer
p5149
aV.
aa(lp5150
Vone
p5151
aVeye
p5152
aVhad
p5153
aVbeen
p5154
aVcut
p5155
aVout
p5156
aVwhen
p5157
aVhe
p5158
aVwas
p5159
aVa
aVkid
p5160
aV,
aVand
p5161
aVnow
p5162
aVhe
p5163
aVwore
p5164
aVthe
p5165
aVkind
p5166
aVof
p5167
aVthick
p5168
aVglasses
p5169
aVthat
p5170
aVmade
p5171
aVhis
p5172
aVeyes
p5173
aV(
aVboth
p5174
aVthe
p5175
aVreal
p5176
aVone
p5177
aVand
p5178
aVthe
p5179
aVglass
p5180
aVone
p5181
aV)
aVpreternaturally
p5182
aVhuge
p5183
aV,
aVlike
p5184
aVhis
p5185
aVwhole
p5186
aVhead
p5187
aVwas
p5188
aVbasically
p5189
aVjust
p5190
aVthis
p5191
aVfake
p5192
aVeye
p5193
aVand
p5194
aVthis
p5195
aVreal
p5196
aVeye
p5197
aVstaring
p5198
aVat
p5199
aVyou
p5200
aV.
aa(lp5201
Vfrom
p5202
aVwhat
p5203
aVi
aVcould
p5204
aVgather
p5205
aVon
p5206
aVthe
p5207
aVrare
p5208
aVoccasions
p5209
aVwhen
p5210
aVisaac
p5211
aVshared
p5212
aVwith
p5213
aVthe
p5214
aVgroup
p5215
aV,
aVa
aVrecurrence
p5216
aVh
aaa(lp5217
(lp5218
Vad
p5219
aVplaced
p5220
aVhis
p5221
aVremaining
p5222
aVeye
p5223
aVin
p5224
aVmortal
p5225
aVperil
p5226
aV.
aa(lp5227
Visaac
p5228
aVand
p5229
aVi
aVcommunicated
p5230
aValmost
p5231
aVexclusively
p5232
aVthrough
p5233
aVsighs
p5234
aV.
aa(lp5235
Veach
p5236
aVtime
p5237
aVsomeone
p5238
aVdiscussed
p5239
aVanticancer
p5240
aVdiets
p5241
aVor
p5242
aVsnorting
p5243
aVground-up
p5244
aVshark
p5245
aVfin
p5246
aVor
p5247
aVwhatever
p5248
aV,
aVhe
p5249
aV'd
p5250
aVglance
p5251
aVover
p5252
aVat
p5253
aVme
p5254
aVand
p5255
aVsigh
p5256
aVever
p5257
aVso
p5258
aVslightly
p5259
aV.
aa(lp5260
Vi
aV'd
p5261
aVshake
p5262
aVmy
p5263
aVhead
p5264
aVmicroscopically
p5265
aVand
p5266
aVexhale
p5267
aVin
p5268
aVresponse
p5269
aV.
aa(lp5270
Vso
p5271
aVsupport
p5272
aVgroup
p5273
aVblew
p5274
aV,
aVand
p5275
aVafter
p5276
aVa
aVfew
p5277
aVweeks
p5278
aV,
aVi
aVgrew
p5279
aVto
p5280
aVbe
p5281
aVrather
p5282
aVkicking-and-screaming
p5283
aVabout
p5284
aVthe
p5285
aVwhole
p5286
aVaffair
p5287
aV.
aa(lp5288
Vin
p5289
aVfact
p5290
aV,
aVon
p5291
aVthe
p5292
aVwednesday
p5293
aVi
aVmade
p5294
aVthe
p5295
aVacquaintance
p5296
aVof
p5297
aVaugustus
p5298
aVwaters
p5299
aV,
aVi
aVtried
p5300
aVmy
p5301
aVlevel
p5302
aVbest
p5303
aVto
p5304
aVget
p5305
aVout
p5306
aVof
p5307
aVsupport
p5308
aVgroup
p5309
aVwhile
p5310
aVsitting
p5311
aVo
aaa(lp5312
(lp5313
Vertising
p5314
aVa
aVband
p5315
aVi
aVdid
p5316
aVn't
p5317
aVeven
p5318
aVlike
p5319
aVanymore
p5320
aV.
aa(lp5321
Valso
p5322
aVmy
p5323
aVhair
p5324
aV:
aVi
aVhad
p5325
aVthis
p5326
aVpageboy
p5327
aVhaircut
p5328
aV,
aVand
p5329
aVi
aVhad
p5330
aVn't
p5331
aVeven
p5332
aVbothered
p5333
aVto
p5334
aV,
aVlike
p5335
aV,
aVbrush
p5336
aVit
p5337
aV.
aa(lp5338
Vfurthermore
p5339
aV,
aVi
aVhad
p5340
aVridiculously
p5341
aVfat
p5342
aVchipmunked
p5343
aVcheeks
p5344
aV,
aVa
aVside
p5345
aVeffect
p5346
aVof
p5347
aVtreatment
p5348
aV.
aa(lp5349
Vi
aVlooked
p5350
aVlike
p5351
aVa
aVnormally
p5352
aVproportioned
p5353
aVperson
p5354
aVwith
p5355
aVa
aVballoon
p5356
aVfor
p5357
aVa
aVhead
p5358
aV.
aa(lp5359
Vthis
p5360
aVwas
p5361
aVnot
p5362
aVeven
p5363
aVto
p5364
aVmention
p5365
aVthe
p5366
aVcankle
p5367
aVsituation
p5368
aV.
aa(lp5369
Vand
p5370
aVyet\u2014
p5371
aVi
aVcut
p5372
aVa
aVglance
p5373
aVto
p5374
aVhim
p5375
aV,
aVand
p5376
aVhis
p5377
aVeyes
p5378
aVwere
p5379
aVstill
p5380
aVon
p5381
aVme
p5382
aV.
aa(lp5383
Vit
p5384
aVoccurred
p5385
aVto
p5386
aVme
p5387
aVwhy
p5388
aVthey
p5389
aVcall
p5390
aVit
p5391
aVeye
p5392
aVcontact
p5393
aV.
aa(lp5394
Vi
aVwalked
p5395
aVinto
p5396
aVthe
p5397
aVcircle
p5398
aVand
p5399
aVsat
p5400
aVdown
p5401
aVnext
p5402
aVto
p5403
aVisaac
p5404
aV,
aVtwo
p5405
aVseats
p5406
aVaway
p5407
aVfrom
p5408
aVthe
p5409
aVboy
p5410
aV.
aa(lp5411
Vi
aVglanced
p5412
aVagain
p5413
aV.
aa(lp5414
Vhe
p5415
aVwas
p5416
aVstill
p5417
aVwatching
p5418
aVme
p5419
aV.
aa(lp5420
Vlook
p5421
aV,
aVlet
p5422
aVme
p5423
aVjust
p5424
aVsay
p5425
aVit
p5426
aV:
aVhe
p5427
aVwas
p5428
aVhot
p5429
aV.
aa(lp5430
Va
aVnonhot
p5431
aVboy
p5432
aVstares
p5433
aVat
p5434
aVyou
p5435
aVrelentlessly
p5436
aVand
p5437
aVit
p5438
aVis
p5439
aV,
aVat
p5440
aVbest
p5441
aV,
aVawkward
p5442
aVand
p5443
aV,
aVat
p5444
aVworst
p5445
aV,
aVa
aVform
p5446
aVof
p5447
aVassault
p5448
aV.
aa(lp5449
Vbut
p5450
aVa
aVhot
p5451
aVboy
p5452
aV.
aa(lp5453
V.
aa(lp5454
V.
aa(lp5455
Vwell
p5456
aV.
aa(lp5457
Vi
aVpulled
p5458
aVout
p5459
aVmy
p5460
aVphone
p5461
aVand
p5462
aVclicked
p5463
aVit
p5464
aVso
p5465
aVit
p5466
aVwould
p5467
aVdis-
p5468
aVplay
p5469
aVthe
p5470
aVtime
p5471
aV:
aV4:59.
p5472
aVthe
p5473
aVcircle
p5474
aVfilled
p5475
aVin
p5476
aVwith
p5477
aVthe
p5478
aVunlucky
p5479
aVtwelve-to-eighteens
p5480
aV,
aVand
p5481
aVthen
p5482
aVpatrick
p5483
aVstarted
p5484
aVus
p5485
aVout
p5486
aVwith
p5487
aVthe
p5488
aVserenity
p5489
aVprayer
p5490
aV:
aVgod
p5491
aV,
aVgrant
p5492
aVme
p5493
aVthe
p5494
aVserenity
p5495
aVto
p5496
aVaccept
p5497
aVthe
p5498
aVthings
p5499
aV9
aVjohn
p5500
aVgreen
p5501
aaa(lp5502
(lp5503
Vt
aVrather
p5504
aVblushy
p5505
aV.
aa(lp5506
Vfinally
p5507
aV,
aVi
aVdecided
p5508
aVthat
p5509
aVthe
p5510
aVproper
p5511
aVstrategy
p5512
aVwas
p5513
aVto
p5514
aVstare
p5515
aVback
p5516
aV.
aa(lp5517
Vboys
p5518
aVdo
p5519
aVnot
p5520
aVhave
p5521
aVa
aVmonopoly
p5522
aVon
p5523
aVthe
p5524
aVstaring
p5525
aVbusiness
p5526
aV,
aVafter
p5527
aVall
p5528
aV.
aa(lp5529
Vso
p5530
aVi
aVlooked
p5531
aVhim
p5532
aVover
p5533
aVas
p5534
aVpatrick
p5535
aVacknowledged
p5536
aVfor
p5537
aVthe
p5538
aVthousandth
p5539
aVtime
p5540
aVhis
p5541
aVball-lessness
p5542
aVetc.
p5543
aV,
aVand
p5544
aVsoon
p5545
aVit
p5546
aVwas
p5547
aVa
aVstaring
p5548
aVcontest
p5549
aV.
aa(lp5550
Vafter
p5551
aVa
aVwhile
p5552
aVthe
p5553
aVboy
p5554
aVsmiled
p5555
aV,
aVand
p5556
aVthen
p5557
aVfinally
p5558
aVhis
p5559
aVblue
p5560
aVeyes
p5561
aVglanced
p5562
aVaway
p5563
aV.
aa(lp5564
Vwhen
p5565
aVhe
p5566
aVlooked
p5567
aVback
p5568
aVat
p5569
aVme
p5570
aV,
aVi
aVflicked
p5571
aVmy
p5572
aVeyebrows
p5573
aVup
p5574
aVto
p5575
aVsay
p5576
aV,
aVi
aVwin
p5577
aV.
aa(lp5578
Vhe
p5579
aVshrugged
p5580
aV.
aa(lp5581
Vpatrick
p5582
aVcontinued
p5583
aVand
p5584
aVthen
p5585
aVfinally
p5586
aVit
p5587
aVwas
p5588
aVtime
p5589
aVfor
p5590
aVthe
p5591
aVintroductions
p5592
aV.
aa(lp5593
V``
p5594
aVisaac
p5595
aV,
aVperhaps
p5596
aVyou
p5597
aV'd
p5598
aVlike
p5599
aVto
p5600
aVgo
p5601
aVfirst
p5602
aVtoday
p5603
aV.
aa(lp5604
Vi
aVknow
p5605
aVyou
p5606
aV're
p5607
aVfacing
p5608
aVa
aVchallenging
p5609
aVtime
p5610
aV.
aV''
p5611
aa(lp5612
V``
p5613
aVyeah
p5614
aV,
aV''
p5615
aVisaac
p5616
aVsaid
p5617
aV.
aa(lp5618
V``
p5619
aVi
aV'm
p5620
aVisaac
p5621
aV.
aa(lp5622
Vi
aV'm
p5623
aVseventeen
p5624
aV.
aa(lp5625
Vand
p5626
aVit's
p5627
aVlooking
p5628
aVlike
p5629
aVi
aVhave
p5630
aVto
p5631
aVget
p5632
aVsurgery
p5633
aVin
p5634
aVa
aVcouple
p5635
aVweeks
p5636
aV,
aVafter
p5637
aVwhich
p5638
aVi
aV'll
p5639
aVbe
p5640
aVblind
p5641
aV.
aa(lp5642
Vnot
p5643
aVto
p5644
aVcomplain
p5645
aVor
p5646
aVanything
p5647
aVbecause
p5648
aVi
aVknow
p5649
aVa
aVlot
p5650
aVof
p5651
aVus
p5652
aVhave
p5653
aVit
p5654
aVworse
p5655
aV,
aVbut
p5656
aVyeah
p5657
aV,
aVi
aVmean
p5658
aV,
aVbeing
p5659
aVblind
p5660
aVdoes
p5661
aVsort
p5662
aVof
p5663
aVsuck
p5664
aV.
aa(lp5665
Vmy
p5666
aVgirlfriend
p5667
aVhelps
p5668
aV,
aVthough
p5669
aV.
aa(lp5670
Vand
p5671
aVfriends
p5672
aVlike
p5673
aVaugustus
p5674
aV.
aV''
p5675
aa(lp5676
Vhe
p5677
aVnodded
p5678
aVtoward
p5679
aVthe
p5680
aVboy
p5681
aV,
aVwho
p5682
aVnow
p5683
aVhad
p5684
aVa
aVname
p5685
aV.
aa(lp5686
V``
p5687
aVso
p5688
aV,
aVyeah
p5689
aV,
aV''
p5690
aVisaac
p5691
aVcontinued
p5692
aV.
aa(lp5693
Vhe
p5694
aVwas
p5695
aVlooking
p5696
aVat
p5697
aVhis
p5698
aVhands
p5699
aV,
aaa(lp5700
(lp5701
Vwhich
p5702
aVhe
p5703
aV'd
p5704
aVfolded
p5705
aVinto
p5706
aVeach
p5707
aVother
p5708
aVlike
p5709
aVthe
p5710
aVtop
p5711
aVof
p5712
aVa
aVtepee
p5713
aV.
aa(lp5714
V``
p5715
aVthere
p5716
aV's
p5717
aVnothing
p5718
aVyou
p5719
aVcan
p5720
aVdo
p5721
aVabout
p5722
aVit
p5723
aV.
aV''
p5724
aa(lp5725
V``
p5726
aVwe
p5727
aV're
p5728
aVhere
p5729
aVfor
p5730
aVyou
p5731
aV,
aVisaac
p5732
aV,
aV''
p5733
aVpatrick
p5734
aVsaid
p5735
aV.
aa(lp5736
V``
p5737
aVlet
p5738
aVisaac
p5739
aVhear
p5740
aVit
p5741
aV,
aVguys
p5742
aV.
aV''
p5743
aa(lp5744
Vand
p5745
aVthen
p5746
aVwe
p5747
aVall
p5748
aV,
aVin
p5749
aVa
aVmonotone
p5750
aV,
aVsaid
p5751
aV,
aV``
p5752
aVwe
p5753
aV're
p5754
aVhere
p5755
aVfor
p5756
aVyou
p5757
aV,
aVisaac
p5758
aV.
aV''
p5759
aa(lp5760
Vmichael
p5761
aVwas
p5762
aVnext
p5763
aV.
aa(lp5764
Vhe
p5765
aVwas
p5766
aVtwelve
p5767
aV.
aa(lp5768
Vhe
p5769
aVhad
p5770
aVleukemia
p5771
aV.
aa(lp5772
V10
p5773
aVthe
p5774
aVfault
p5775
aVin
p5776
aVour
p5777
aVstars
p5778
aVhe
p5779
aV'd
p5780
aValways
p5781
aVhad
p5782
aVleukemia
p5783
aV.
aa(lp5784
Vhe
p5785
aVwas
p5786
aVokay
p5787
aV.
aa(lp5788
V(
aVor
p5789
aVso
p5790
aVhe
p5791
aVsaid
p5792
aV.
aa(lp5793
Vhe'd
p5794
aVtaken
p5795
aVthe
p5796
aVelevator
p5797
aV.
aV)
aa(lp5798
Vlida
p5799
aVwas
p5800
aVsixteen
p5801
aV,
aVand
p5802
aVpretty
p5803
aVenough
p5804
aVto
p5805
aVbe
p5806
aVthe
p5807
aVobject
p5808
aVof
p5809
aVthe
p5810
aVhot
p5811
aVboy
p5812
aV's
p5813
aVeye
p5814
aV.
aa(lp5815
Vshe
p5816
aVwas
p5817
aVa
aVregular\u2014
p5818
aVin
p5819
aVa
aVlong
p5820
aVremission
p5821
aVfrom
p5822
aVappendiceal
p5823
aVcancer
p5824
aV,
aVwhich
p5825
aVi
aVhad
p5826
aVnot
p5827
aVpreviously
p5828
aVknown
p5829
aVexisted
p5830
aV.
aa(lp5831
Vshe
p5832
aVsaid\u2014
p5833
aVas
p5834
aVshe
p5835
aVhad
p5836
aVevery
p5837
aVother
p5838
aVtime
p5839
aVi
aV'd
p5840
aVattended
p5841
aVsupport
p5842
aVgroup\u2014
p5843
aVthat
p5844
aVshe
p5845
aVfelt
p5846
aVstrong
p5847
aV,
aVwhich
p5848
aVfelt
p5849
aVlike
p5850
aVbragging
p5851
aVto
p5852
aVme
p5853
aVas
p5854
aVthe
p5855
aVoxygen-drizzling
p5856
aaa(lp5857
(lp5858
Vnubs
p5859
aVtickled
p5860
aVmy
p5861
aVnostrils
p5862
aV.
aa(lp5863
Vthere
p5864
aVwere
p5865
aVfive
p5866
aVothers
p5867
aVbefore
p5868
aVthey
p5869
aVgot
p5870
aVto
p5871
aVhim
p5872
aV.
aa(lp5873
Vhe
p5874
aVsmiled
p5875
aVa
aVlittle
p5876
aVwhen
p5877
aVhis
p5878
aVturn
p5879
aVcame
p5880
aV.
aa(lp5881
Vhis
p5882
aVvoice
p5883
aVwas
p5884
aVlow
p5885
aV,
aVsmoky
p5886
aV,
aVand
p5887
aVdead
p5888
aVsexy
p5889
aV.
aa(lp5890
V``
p5891
aVmy
p5892
aVname
p5893
aVis
p5894
aVaugustus
p5895
aVwaters
p5896
aV,
aV''
p5897
aVhe
p5898
aVsaid
p5899
aV.
aa(lp5900
V``
p5901
aVi'm
p5902
aVseventeen
p5903
aV.
aa(lp5904
Vi
aVhad
p5905
aVa
aVlittle
p5906
aVtouch
p5907
aVof
p5908
aVosteosarcoma
p5909
aVa
aVyear
p5910
aVand
p5911
aVa
aVhalf
p5912
aVago
p5913
aV,
aVbut
p5914
aVi
aV'm
p5915
aVjust
p5916
aVhere
p5917
aVtoday
p5918
aVat
p5919
aVisaac
p5920
aV's
p5921
aVrequest
p5922
aV.
aV''
p5923
aa(lp5924
V``
p5925
aVand
p5926
aVhow
p5927
aVare
p5928
aVyou
p5929
aVfeeling
p5930
aV?
aV''
p5931
aa(lp5932
Vasked
p5933
aVpatrick
p5934
aV.
aa(lp5935
V``
p5936
aVoh
p5937
aV,
aVi
aV'm
p5938
aVgrand
p5939
aV.
aV''
p5940
aa(lp5941
Vaugustus
p5942
aVwaters
p5943
aVsmiled
p5944
aVwith
p5945
aVa
aVcorner
p5946
aVof
p5947
aVhis
p5948
aVmouth
p5949
aV.
aa(lp5950
V``
p5951
aVi
aV'm
p5952
aVon
p5953
aVa
aVroller
p5954
aVcoaster
p5955
aVthat
p5956
aVonly
p5957
aVgoes
p5958
aVup
p5959
aV,
aVmy
p5960
aVfriend
p5961
aV.
aV''
p5962
aa(lp5963
Vwhen
p5964
aVit
p5965
aVwas
p5966
aVmy
p5967
aVturn
p5968
aV,
aVi
aVsaid
p5969
aV,
aV``
p5970
aVmy
p5971
aVname
p5972
aVis
p5973
aVhazel
p5974
aV.
aa(lp5975
Vi'm
p5976
aVsixteen
p5977
aV.
aa(lp5978
Vthyroid
p5979
aVwith
p5980
aVmets
p5981
aVin
p5982
aVmy
p5983
aVlungs
p5984
aV.
aa(lp5985
Vi
aV'm
p5986
aVokay
p5987
aV.
aV''
p5988
aa(lp5989
Vthe
p5990
aVhour
p5991
aVproceeded
p5992
aVapace
p5993
aV:
aVfights
p5994
aVwere
p5995
aVrecounted
p5996
aV,
aVbattles
p5997
aVwon
p5998
aVamid
p5999
aVwars
p6000
aVsure
p6001
aVto
p6002
aVbe
p6003
aVlost
p6004
aV;
aVhope
p6005
aVwas
p6006
aVclung
p6007
aVto
p6008
aV;
aVfamilies
p6009
aVwere
p6010
aVboth
p6011
aVcelebrated
p6012
aVand
p6013
aVdenounced
p6014
aV;
aVit
p6015
aVwas
p6016
aVagreed
p6017
aVthat
p6018
aVfriends
p6019
aVjust
p6020
aVdid
p6021
aVn't
p6022
aVget
p6023
aVit
p6024
aV;
aVtears
p6025
aVwere
p6026
aVshed
p6027
aaa(lp6028
(lp6029
V;
aVcomfort
p6030
aVproffered
p6031
aV.
aa(lp6032
Vneither
p6033
aVaugustus
p6034
aVwaters
p6035
aVnor
p6036
aVi
aVspoke
p6037
aVagain
p6038
aVuntil
p6039
aVpatrick
p6040
aVsaid
p6041
aV,
aV``
p6042
aVaugustus
p6043
aV,
aVperhaps
p6044
aVyou
p6045
aV'd
p6046
aVlike
p6047
aVto
p6048
aVshare
p6049
aVyour
p6050
aVfears
p6051
aVwith
p6052
aVthe
p6053
aVgroup
p6054
aV.
aV''
p6055
aa(lp6056
V11
p6057
aVjohn
p6058
aVgreen
p6059
aV''
p6060
aVmy
p6061
aVfears
p6062
aV?
aV''
p6063
aa(lp6064
V``
p6065
aVyes
p6066
aV.
aV''
p6067
aa(lp6068
V``
p6069
aVi
aVfear
p6070
aVoblivion
p6071
aV,
aV''
p6072
aVhe
p6073
aVsaid
p6074
aVwithout
p6075
aVa
aVmoment
p6076
aV's
p6077
aVpause
p6078
aV.
aa(lp6079
V``
p6080
aVi
aVfear
p6081
aVit
p6082
aVlike
p6083
aVthe
p6084
aVproverbial
p6085
aVblind
p6086
aVman
p6087
aVwho
p6088
aV's
p6089
aVafraid
p6090
aVof
p6091
aVthe
p6092
aVdark
p6093
aV.
aV''
p6094
aa(lp6095
V``
p6096
aVtoo
p6097
aVsoon
p6098
aV,
aV''
p6099
aVisaac
p6100
aVsaid
p6101
aV,
aVcracking
p6102
aVa
aVsmile
p6103
aV.
aa(lp6104
V``
p6105
aVwas
p6106
aVthat
p6107
aVinsensitive
p6108
aV?
aV''
p6109
aa(lp6110
Vaugustus
p6111
aVasked
p6112
aV.
aa(lp6113
V``
p6114
aVi
aVcan
p6115
aVbe
p6116
aVpretty
p6117
aVblind
p6118
aVto
p6119
aVother
p6120
aVpeople
p6121
aV's
p6122
aVfeelings
p6123
aV.
aV''
p6124
aa(lp6125
Visaac
p6126
aVwas
p6127
aVlaughing
p6128
aV,
aVbut
p6129
aVpatrick
p6130
aVraised
p6131
aVa
aVchastening
p6132
aVfinger
p6133
aVand
p6134
aVsaid
p6135
aV,
aV``
p6136
aVaugustus
p6137
aV,
aVplease
p6138
aV.
aa(lp6139
Vlet
p6140
aV's
p6141
aVreturn
p6142
aVto
p6143
aVyou
p6144
aVand
p6145
aVyour
p6146
aVstruggles
p6147
aV.
aa(lp6148
Vyou
p6149
aVsaid
p6150
aVyou
p6151
aVfear
p6152
aVoblivion
p6153
aV?
aV''
p6154
aa(lp6155
V``
p6156
aVi
aVdid
p6157
aV,
aV''
p6158
aVaugustus
p6159
aVanswered
p6160
aV.
aa(lp6161
Vpatrick
p6162
aVseemed
p6163
aVlost
p6164
aV.
aa(lp6165
V``
p6166
aVwould
p6167
aV,
aVuh
p6168
aV,
aVwould
p6169
aVanyone
p6170
aVlike
p6171
aVto
p6172
aVspeak
p6173
aVto
p6174
aVthat
p6175
aV?
aV''
p6176
aa(lp6177
Vi
aVhad
p6178
aVn't
p6179
aVbeen
p6180
aVin
p6181
aVproper
p6182
aVschool
p6183
aVin
p6184
aVthree
p6185
aVyears
p6186
aV.
aa(lp6187
Vmy
p6188
aVparents
p6189
aVwere
p6190
aVmy
p6191
aVtwo
p6192
aVbest
p6193
aVfriends
p6194
aV.
aa(lp6195
Vmy
p6196
aVthird
p6197
aVbest
p6198
aVfriend
p6199
aVwas
p6200
aVan
p6201
aVauthor
p6202
aVwho
p6203
aVdid
p6204
aVnot
p6205
aVknow
p6206
aVi
aVexisted
p6207
aV.
aa(lp6208
Vi
aVwas
p6209
aVa
aVfairly
p6210
aVshy
p6211
aVperson\u2014
p6212
aVnot
p6213
aVthe
p6214
aVhand-raising
p6215
aVtype
p6216
aV.
aa(lp6217
Vand
p6218
aVyet
p6219
aV,
aVjust
p6220
aVthis
p6221
aVonce
p6222
aV,
aVi
aVdecided
p6223
aVto
p6224
aVspeak
p6225
aaa(lp6226
(lp6227
Vile
p6228
aVhe
p6229
aVstared
p6230
aVat
p6231
aVme
p6232
aV,
aVbut
p6233
aVhis
p6234
aVreal
p6235
aVsmile
p6236
aV,
aVtoo
p6237
aVbig
p6238
aVfor
p6239
aVhis
p6240
aVface
p6241
aV.
aa(lp6242
V``
p6243
aVgoddamn
p6244
aV,
aV''
p6245
aVaugustus
p6246
aVsaid
p6247
aVquietly
p6248
aV.
aa(lp6249
V``
p6250
aVare
p6251
aVn't
p6252
aVyou
p6253
aVsomething
p6254
aVelse
p6255
aV.
aV''
p6256
aa(lp6257
Vneither
p6258
aVof
p6259
aVus
p6260
aVsaid
p6261
aVanything
p6262
aVfor
p6263
aVthe
p6264
aVrest
p6265
aVof
p6266
aVsupport
p6267
aV13
p6268
aVjohn
p6269
aVgreen
p6270
aVgroup
p6271
aV.
aa(lp6272
Vat
p6273
aVthe
p6274
aVend
p6275
aV,
aVwe
p6276
aVall
p6277
aVhad
p6278
aVto
p6279
aVhold
p6280
aVhands
p6281
aV,
aVand
p6282
aVpatrick
p6283
aVled
p6284
aVus
p6285
aVin
p6286
aVa
aVprayer
p6287
aV.
aa(lp6288
V``
p6289
aVlord
p6290
aVjesus
p6291
aVchrist
p6292
aV,
aVwe
p6293
aVare
p6294
aVgathered
p6295
aVhere
p6296
aVin
p6297
aVyour
p6298
aVheart
p6299
aV,
aVliterally
p6300
aVin
p6301
aVyour
p6302
aVheart
p6303
aV,
aVas
p6304
aVcancer
p6305
aVsurvivors
p6306
aV.
aa(lp6307
Vyou
p6308
aVand
p6309
aVyou
p6310
aValone
p6311
aVknow
p6312
aVus
p6313
aVas
p6314
aVwe
p6315
aVknow
p6316
aVourselves
p6317
aV.
aa(lp6318
Vguide
p6319
aVus
p6320
aVto
p6321
aVlife
p6322
aVand
p6323
aVthe
p6324
aVlight
p6325
aVthrough
p6326
aVour
p6327
aVtimes
p6328
aVof
p6329
aVtrial
p6330
aV.
aa(lp6331
Vwe
p6332
aVpray
p6333
aVfor
p6334
aVisaac's
p6335
aVeyes
p6336
aV,
aVfor
p6337
aVmichael
p6338
aV's
p6339
aVand
p6340
aVjamie
p6341
aV's
p6342
aVblood
p6343
aV,
aVfor
p6344
aVaugustus
p6345
aV's
p6346
aVbones
p6347
aV,
aVfor
p6348
aVhazel
p6349
aV's
p6350
aVlungs
p6351
aV,
aVfor
p6352
aVjames
p6353
aV's
p6354
aVthroat
p6355
aV.
aa(lp6356
Vwe
p6357
aVpray
p6358
aVthat
p6359
aVyou
p6360
aVmight
p6361
aVheal
p6362
aVus
p6363
aVand
p6364
aVthat
p6365
aVwe
p6366
aVmight
p6367
aVfeel
p6368
aVyour
p6369
aVlove
p6370
aV,
aVand
p6371
aVyour
p6372
aVpeace
p6373
aV,
aVwhich
p6374
aVpasses
p6375
aVall
p6376
aVunderstanding
p6377
aV.
aa(lp6378
Vand
p6379
aVwe
p6380
aVremember
p6381
aVin
p6382
aVour
p6383
aVhearts
p6384
aVthose
p6385
aVwhom
p6386
aVwe
p6387
aVknew
p6388
aVand
p6389
aVloved
p6390
aVwho
p6391
aVhave
p6392
aVgone
p6393
aVhome
p6394
aVto
p6395
aVyou
p6396
aV:
aVmaria
p6397
aVand
p6398
aVkade
p6399
aVand
p6400
aVjoseph
p6401
aVand
p6402
aVhaley
p6403
aVand
p6404
aVabigail
p6405
aVand
p6406
aVangelina
p6407
aVand
p6408
aVtaylor
p6409
aVand
p6410
aVgabriel
p6411
aVand
p6412
aV.
aa(lp6413
V.
aa(lp6414
V.
aV''
p6415
aa(lp6416
Vit
p6417
aVwas
p6418
aVa
aVlong
p6419
aVlist
p6420
aV.
aa(lp6421
Vthe
p6422
aVworld
p6423
aVcontains
p6424
aVa
aVlot
p6425
aVof
p6426
aVdead
p6427
aVpeople
p6428
aV.
aa(lp6429
Vand
p6430
aVwhile
p6431
aVpatrick
p6432
aVdroned
p6433
aVon
p6434
aV,
aVreading
p6435
aVthe
p6436
aaa(lp6437
(lp6438
Vening
p6439
aV.
aa(lp6440
Vwhen
p6441
aVpatrick
p6442
aVwas
p6443
aVfinished
p6444
aV,
aVwe
p6445
aVsaid
p6446
aVthis
p6447
aVstupid
p6448
aVmantra
p6449
aVtogether-living
p6450
aVour
p6451
aVbest
p6452
aVlife
p6453
aVtoday-and
p6454
aVit
p6455
aVwas
p6456
aVover
p6457
aV.
aa(lp6458
Vaugustus
p6459
aVwaters
p6460
aVpushed
p6461
aVhimself
p6462
aVout
p6463
aVof
p6464
aVhis
p6465
aVchair
p6466
aVand
p6467
aVwalked
p6468
aVover
p6469
aVto
p6470
aVme
p6471
aV.
aa(lp6472
Vhis
p6473
aVgait
p6474
aVwas
p6475
aVcrooked
p6476
aVlike
p6477
aVhis
p6478
aVsmile
p6479
aV.
aa(lp6480
Vhe
p6481
aVtowered
p6482
aVover
p6483
aVme
p6484
aV,
aVbut
p6485
aVhe
p6486
aVkept
p6487
aVhis
p6488
aVdistance
p6489
aVso
p6490
aVi
aVwouldn't
p6491
aVhave
p6492
aVto
p6493
aVcrane
p6494
aVmy
p6495
aVneck
p6496
aVto
p6497
aVlook
p6498
aVhim
p6499
aVin
p6500
aVthe
p6501
aVeye
p6502
aV.
aa(lp6503
V``
p6504
aVwhat
p6505
aV's
p6506
aVyour
p6507
aVname
p6508
aV?
aV''
p6509
aa(lp6510
Vhe
p6511
aVasked
p6512
aV.
aa(lp6513
V``
p6514
aVhazel
p6515
aV.
aV''
p6516
aa(lp6517
V14
p6518
aVthe
p6519
aVfault
p6520
aVin
p6521
aVour
p6522
aVstars
p6523
aV''
p6524
aVno
p6525
aV,
aVyour
p6526
aVfull
p6527
aVname
p6528
aV.
aV''
p6529
aa(lp6530
V``
p6531
aVum
p6532
aV,
aVhazel
p6533
aVgrace
p6534
aVlancaster
p6535
aV.
aV''
p6536
aa(lp6537
Vhe
p6538
aVwas
p6539
aVjust
p6540
aVabout
p6541
aVto
p6542
aVsay
p6543
aVsomething
p6544
aVelse
p6545
aVwhen
p6546
aVisaac
p6547
aVwalked
p6548
aVup
p6549
aV.
aa(lp6550
V``
p6551
aVhold
p6552
aVon
p6553
aV,
aV''
p6554
aVaugustus
p6555
aVsaid
p6556
aV,
aVraising
p6557
aVa
aVfinger
p6558
aV,
aVand
p6559
aVturned
p6560
aVto
p6561
aVisaac
p6562
aV.
aa(lp6563
V``
p6564
aVthat
p6565
aVwas
p6566
aVactually
p6567
aVworse
p6568
aVthan
p6569
aVyou
p6570
aVmade
p6571
aVit
p6572
aVout
p6573
aVto
p6574
aVbe
p6575
aV.
aV''
p6576
aa(lp6577
V``
p6578
aVi
aVtold
p6579
aVyou
p6580
aVit
p6581
aVwas
p6582
aVbleak
p6583
aV.
aV''
p6584
aa(lp6585
V``
p6586
aVwhy
p6587
aVdo
p6588
aVyou
p6589
aVbother
p6590
aVwith
p6591
aVit
p6592
aV?
aV''
p6593
aa(lp6594
V``
p6595
aVi
aVdo
p6596
aVn't
p6597
aVknow
p6598
aV.
aa(lp6599
Vit
p6600
aVkind
p6601
aVof
p6602
aVhelps
p6603
aV?
aV''
p6604
aa(lp6605
Vaugustus
p6606
aVleaned
p6607
aVin
p6608
aVso
p6609
aVhe
p6610
aVthought
p6611
aVi
aVcould
p6612
aVn't
p6613
aVhear
p6614
aV.
aa(lp6615
V``
p6616
aVshe
p6617
aV's
p6618
aVa
aVregular
p6619
aV?
aV''
p6620
aa(lp6621
Vi
aVcould
p6622
aVn't
p6623
aVhear
p6624
aVisaac
p6625
aV's
p6626
aVcomment
p6627
aV,
aVbut
p6628
aVaugustus
p6629
aVresponded
p6630
aV,
aV``
p6631
aVi
aV'll
p6632
aVsay
p6633
aV.
aV''
p6634
aa(lp6635
Vhe
p6636
aVclasped
p6637
aVisaac
p6638
aVby
p6639
aVboth
p6640
aVshoulders
p6641
aVand
p6642
aVthen
p6643
aVtook
p6644
aVa
aVhalf
p6645
aVstep
p6646
aVaway
p6647
aVfrom
p6648
aVhim
p6649
aV.
aa(lp6650
V``
p6651
aVtell
p6652
aVhazel
p6653
aVabout
p6654
aVclinic
p6655
aV.
aV''
p6656
aa(lp6657
Visaac
p6658
aVleaned
p6659
aVa
aVhand
p6660
aVagainst
p6661
aVthe
p6662
aVs
aaa(lp6663
(lp6664
Vi
aVwas
p6665
aVlike
p6666
aV,
aV'thank
p6667
aVyou
p6668
aVfor
p6669
aVexplaining
p6670
aVthat
p6671
aVmy
p6672
aVeye
p6673
aVcancer
p6674
aVis
p6675
aVn't
p6676
aVgoing
p6677
aVto
p6678
aVmake
p6679
aVme
p6680
aVdeaf
p6681
aV.
aa(lp6682
Vi
aVfeel
p6683
aVso
p6684
aVfortunate
p6685
aVthat
p6686
aVan
p6687
aVintellectual
p6688
aVgiant
p6689
aVlike
p6690
aVyourself
p6691
aVwould
p6692
aVdeign
p6693
aVto
p6694
aVoperate
p6695
aVon
p6696
aVme
p6697
aV.
aV'
aV''
p6698
aa(lp6699
V``
p6700
aVhe
p6701
aVsounds
p6702
aVlike
p6703
aVa
aVwinner
p6704
aV,
aV''
p6705
aVi
aVsaid
p6706
aV.
aa(lp6707
V``
p6708
aVi
aV'm
p6709
aVgon
p6710
aVna
p6711
aVtry
p6712
aVto
p6713
aVget
p6714
aVme
p6715
aVsome
p6716
aVeye
p6717
aVcancer
p6718
aVjust
p6719
aVso
p6720
aVi
aVcan
p6721
aVmake
p6722
aVthis
p6723
aVguy
p6724
aV's
p6725
aVacquain-
p6726
aVtance
p6727
aV.
aV''
p6728
aa(lp6729
V15
p6730
aVjohn
p6731
aVgreen
p6732
aV''
p6733
aVgood
p6734
aVluck
p6735
aVwith
p6736
aVthat
p6737
aV.
aa(lp6738
Vall
p6739
aVright
p6740
aV,
aVi
aVshould
p6741
aVgo
p6742
aV.
aa(lp6743
Vmonica's
p6744
aVwaiting
p6745
aVfor
p6746
aVme
p6747
aV.
aa(lp6748
Vi
aVgot
p6749
aVta
p6750
aVlook
p6751
aVat
p6752
aVher
p6753
aVa
aVlot
p6754
aVwhile
p6755
aVi
aVcan
p6756
aV.
aV''
p6757
aa(lp6758
V``
p6759
aVcounterinsurgence
p6760
aVtomorrow
p6761
aV?
aV''
p6762
aa(lp6763
Vaugustus
p6764
aVasked
p6765
aV.
aa(lp6766
V``
p6767
aVdefinitely
p6768
aV.
aV''
p6769
aa(lp6770
Visaac
p6771
aVturned
p6772
aVand
p6773
aVran
p6774
aVup
p6775
aVthe
p6776
aVstairs
p6777
aV,
aVtaking
p6778
aVthem
p6779
aVtwo
p6780
aVat
p6781
aVa
aVtime
p6782
aV.
aa(lp6783
Vaugustus
p6784
aVwaters
p6785
aVturned
p6786
aVto
p6787
aVme
p6788
aV.
aa(lp6789
V``
p6790
aVliterally
p6791
aV,
aV''
p6792
aVhe
p6793
aVsaid
p6794
aV.
aa(lp6795
V``
p6796
aVliterally
p6797
aV?
aV''
p6798
aa(lp6799
Vi
aVasked
p6800
aV.
aa(lp6801
V``
p6802
aVwe
p6803
aVare
p6804
aVliterally
p6805
aVin
p6806
aVthe
p6807
aVheart
p6808
aVof
p6809
aVjesus
p6810
aV,
aV''
p6811
aVhe
p6812
aVsaid
p6813
aV.
aa(lp6814
V``
p6815
aVi
aVthought
p6816
aVwe
p6817
aVwere
p6818
aVin
p6819
aVa
aVchurch
p6820
aVbasement
p6821
aV,
aVbut
p6822
aVwe
p6823
aVare
p6824
aVliterally
p6825
aVin
p6826
aVthe
p6827
aVheart
p6828
aVof
p6829
aVjesus
p6830
aV.
aV''
p6831
aa(lp6832
V``
p6833
aVsomeone
p6834
aVshould
p6835
aVtell
p6836
aVjesus
p6837
aV,
aV''
p6838
aVi
aVsaid
p6839
aV.
aa(lp6840
V``
p6841
aVi
aVmean
p6842
aV,
aVit
p6843
aV's
p6844
aVgot
p6845
aVta
p6846
aVbe
p6847
aVdangerous
p6848
aV,
aVstoring
p6849
aVchildren
p6850
aVwith
p6851
aVcancer
p6852
aVin
p6853
aVyour
p6854
aVheart
p6855
aV.
aV''
p6856
aa(lp6857
V``
p6858
aVi
aVwould
p6859
aVtell
p6860
aVhim
p6861
aVmyself
p6862
aV,
aV''
p6863
aVaugustus
p6864
aVsaid
p6865
aV,
aV``
p6866
aVbut
p6867
aVunfortunately
p6868
aVi
aVam
p6869
aVliterally
p6870
aVstuck
p6871
aVinside
p6872
aVof
p6873
aVhis
p6874
aVheart
p6875
aV,
aVso
p6876
aVhe
p6877
aVw
aaa(lp6878
(lp6879
Vimb
p6880
aVto
p6881
aVcheck
p6882
aVyou
p6883
aVout
p6884
aV.
aa(lp6885
Vthen
p6886
aV,
aVif
p6887
aVit
p6888
aVlikes
p6889
aVyou
p6890
aV,
aVit
p6891
aVtakes
p6892
aVthe
p6893
aVrest
p6894
aV.
aa(lp6895
Vi
aVfollowed
p6896
aVhim
p6897
aVupstairs
p6898
aV,
aVlosing
p6899
aVground
p6900
aVas
p6901
aVi
aVmade
p6902
aVmy
p6903
aVway
p6904
aVup
p6905
aVslowly
p6906
aV,
aVstairs
p6907
aVnot
p6908
aVbeing
p6909
aVa
aVfield
p6910
aVof
p6911
aVexpertise
p6912
aVfor
p6913
aVmy
p6914
aVlungs
p6915
aV.
aa(lp6916
Vand
p6917
aVthen
p6918
aVwe
p6919
aVwere
p6920
aVout
p6921
aVof
p6922
aVjesus
p6923
aV's
p6924
aVheart
p6925
aVand
p6926
aVin
p6927
aVthe
p6928
aVparking
p6929
aVlot
p6930
aV,
aVthe
p6931
aVspring
p6932
aVair
p6933
aVjust
p6934
aVon
p6935
aVthe
p6936
aVcold
p6937
aVside
p6938
aVof
p6939
aVperfect
p6940
aV,
aVthe
p6941
aVlate-afternoon
p6942
aVlight
p6943
aVheavenly
p6944
aVin
p6945
aVits
p6946
aVhurtfulness
p6947
aV.
aa(lp6948
Vmom
p6949
aVwas
p6950
aVn't
p6951
aVthere
p6952
aVyet
p6953
aV,
aVwhich
p6954
aVwas
p6955
aVunusual
p6956
aV,
aVbecause
p6957
aVmom
p6958
aVwas
p6959
aValmost
p6960
aValways
p6961
aVwaiting
p6962
aVfor
p6963
aVme
p6964
aV.
aa(lp6965
Vi
aVglanced
p6966
aVaround
p6967
aVand
p6968
aVsaw
p6969
aVthat
p6970
aVa
aVtall
p6971
aV,
aVcurvy
p6972
aVbrunette
p6973
aVgirl
p6974
aVhad
p6975
aVisaac
p6976
aVpinned
p6977
aVagainst
p6978
aVthe
p6979
aVstone
p6980
aVwall
p6981
aVof
p6982
aVthe
p6983
aVchurch
p6984
aV,
aVkissing
p6985
aVhim
p6986
aVrather
p6987
aVaggressively
p6988
aV.
aa(lp6989
Vthey
p6990
aVwere
p6991
aVclose
p6992
aVenough
p6993
aVto
p6994
aVme
p6995
aVthat
p6996
aVi
aVcould
p6997
aVhear
p6998
aVthe
p6999
aVweird
p7000
aVnoises
p7001
aVof
p7002
aVtheir
p7003
aVmouths
p7004
aVtogether
p7005
aV,
aVand
p7006
aVi
aVcould
p7007
aVhear
p7008
aVhim
p7009
aVsaying
p7010
aV,
aV``
p7011
aValways
p7012
aV,
aV''
p7013
aVand
p7014
aVher
p7015
aVsaying
p7016
aV,
aV``
p7017
aValways
p7018
aV,
aV''
p7019
aVin
p7020
aVreturn
p7021
aV.
aa(lp7022
Vsuddenly
p7023
aVstanding
p7024
aVnext
p7025
aVto
p7026
aVme
p7027
aV,
aVaugustus
p7028
aVhalf
p7029
aVwhispered
p7030
aV,
aV``
p7031
aVthey
p7032
aV're
p7033
aVbig
p7034
aVbelievers
p7035
aVin
p7036
aVpda
p7037
aV.
aV''
p7038
aa(lp7039
V``
p7040
aVwhat
p7041
aV's
p7042
aVwith
p7043
aVthe
p7044
aV'always
p7045
aV'
aV?
aV''
p7046
aa(lp7047
Vthe
p7048
aVslurping
p7049
aVsounds
p7050
aVintensified
p7051
aV.
aa(lp7052
V``
p7053
aValways
p7054
aVis
p7055
aVtheir
p7056
aVthing
p7057
aV.
aa(lp7058
Vthey
p7059
aV'll
p7060
aValways
p7061
aVlove
p7062
aVeach
p7063
aVother
p7064
aVand
p7065
aVwhatever
p7066
aV.
aa(lp7067
Vi
aVwould
p7068
aVconservatively
p7069
aVestimate
p7070
aVthe
p7071
aaa(lp7072
(lp7073
Vy
aVhave
p7074
aVtexted
p7075
aVeach
p7076
aVother
p7077
aVthe
p7078
aVword
p7079
aValways
p7080
aVfour
p7081
aVmillion
p7082
aVtimes
p7083
aVin
p7084
aVthe
p7085
aVlast
p7086
aVyear
p7087
aV.
aV''
p7088
aa(lp7089
Va
aVcouple
p7090
aVmore
p7091
aVcars
p7092
aVdrove
p7093
aVup
p7094
aV,
aVtaking
p7095
aVmichael
p7096
aVand
p7097
aValisa
p7098
aVaway
p7099
aV.
aa(lp7100
Vit
p7101
aVwas
p7102
aVjust
p7103
aVaugustus
p7104
aVand
p7105
aVme
p7106
aVnow
p7107
aV,
aVwatching
p7108
aVisaac
p7109
aVand
p7110
aVmonica
p7111
aV,
aVwho
p7112
aVproceeded
p7113
aVapace
p7114
aVas
p7115
aVif
p7116
aVthey
p7117
aVwere
p7118
aVnot
p7119
aVleaning
p7120
aV18
p7121
aVthe
p7122
aVfault
p7123
aVin
p7124
aVour
p7125
aVstars
p7126
aVagainst
p7127
aVa
aVplace
p7128
aVof
p7129
aVworship
p7130
aV.
aa(lp7131
Vhis
p7132
aVhand
p7133
aVreached
p7134
aVfor
p7135
aVher
p7136
aVboob
p7137
aVover
p7138
aVher
p7139
aVshirt
p7140
aVand
p7141
aVpawed
p7142
aVat
p7143
aVit
p7144
aV,
aVhis
p7145
aVpalm
p7146
aVstill
p7147
aVwhile
p7148
aVhis
p7149
aVfingers
p7150
aVmoved
p7151
aVaround
p7152
aV.
aa(lp7153
Vi
aVwondered
p7154
aVif
p7155
aVthat
p7156
aVfelt
p7157
aVgood
p7158
aV.
aa(lp7159
Vdid
p7160
aVn't
p7161
aVseem
p7162
aVlike
p7163
aVit
p7164
aVwould
p7165
aV,
aVbut
p7166
aVi
aVdecided
p7167
aVto
p7168
aVforgive
p7169
aVisaac
p7170
aVon
p7171
aVthe
p7172
aVgrounds
p7173
aVthat
p7174
aVhe
p7175
aVwas
p7176
aVgoing
p7177
aVblind
p7178
aV.
aa(lp7179
Vthe
p7180
aVsenses
p7181
aVmust
p7182
aVfeast
p7183
aVwhile
p7184
aVthere
p7185
aVis
p7186
aVyet
p7187
aVhunger
p7188
aVand
p7189
aVwhatever
p7190
aV.
aa(lp7191
V``
p7192
aVimagine
p7193
aVtaking
p7194
aVthat
p7195
aVlast
p7196
aVdrive
p7197
aVto
p7198
aVthe
p7199
aVhospital
p7200
aV,
aV''
p7201
aVi
aVsaid
p7202
aVquietly
p7203
aV.
aa(lp7204
V``
p7205
aVthe
p7206
aVlast
p7207
aaasg464
NssS'lidewij vliegenthart'
p7208
(dp7209
g20
(lp7210
(lp7211
V[
aVCHARACTER
p7212
aV]
aV-
aVpeter
p7213
aVvan
p7214
aVhouten
p7215
aV's
p7216
aVassistant
p7217
aV.
aa(lp7218
Vinitially
p7219
aVresponsible
p7220
aVfor
p7221
aVrelaying
p7222
aVhazel
p7223
aVand
p7224
aVaugustus
p7225
aV's
p7226
aVcommunications
p7227
aVto
p7228
aVthe
p7229
aVauthor
p7230
aV,
aVlidewij
p7231
aVcomes
p7232
aVto
p7233
aVact
p7234
aVas
p7235
aVa
aVvoice
p7236
aVof
p7237
aVreason
p7238
aVfor
p7239
aVvan
p7240
aVhouten
p7241
aV.
aasg45
(lp7242
(lp7243
asg464
NssS'caroline mathers'
p7244
(dp7245
g20
(lp7246
(lp7247
V[
aVCHARACTER
p7248
aV]
aV-
aVaugustus
p7249
aV's
p7250
aVformer
p7251
aVgirlfriend
p7252
aVwho
p7253
aVdied
p7254
aVfrom
p7255
aVbrain
p7256
aVcancer
p7257
aV.
aa(lp7258
Valthough
p7259
aVwe
p7260
aVnever
p7261
aVmeet
p7262
aVher
p7263
aVdirectly
p7264
aV,
aVwe
p7265
aVlearn
p7266
aVthat
p7267
aVthe
p7268
aVcancer
p7269
aVchanged
p7270
aVher
p7271
aVpersonality
p7272
aV.
aa(lp7273
Vshe
p7274
aVbecame
p7275
aVselfish
p7276
aV,
aVimpulsive
p7277
aV,
aVand
p7278
aVcruel
p7279
aV,
aVespecially
p7280
aVin
p7281
aVregard
p7282
aVto
p7283
aVaugustus
p7284
aV.
aa(lp7285
Vcaroline
p7286
aVrepresents
p7287
aVthe
p7288
aVrealistic
p7289
aVhorrors
p7290
aVassociated
p7291
aVwith
p7292
aVterminal
p7293
aVcancer
p7294
aV.
aasg45
(lp7295
(lp7296
asg464
NssS'anna'
p7297
(dp7298
g20
(lp7299
(lp7300
V[
aVCHARACTER
p7301
aV]
aV-
aVthe
p7302
aVprotagonist
p7303
aVof
p7304
aVan
p7305
aVimperial
p7306
aVaffliction
p7307
aV.
aa(lp7308
V[
aVCHARACTER
p7309
aV]
aVis
p7310
aVa
aVgirl
p7311
aVof
p7312
aVabout
p7313
aVhazel
p7314
aV's
p7315
aVage
p7316
aVwho
p7317
aValso
p7318
aVsuffers
p7319
aVfrom
p7320
aVa
aVterminal
p7321
aVillness
p7322
aV.
aa(lp7323
Vhazel
p7324
aVgreatly
p7325
aVadmires
p7326
aVthe
p7327
aVhonesty
p7328
aVwith
p7329
aVwhich
p7330
aV[
aVCHARACTER
p7331
aV]
aVdeals
p7332
aVwith
p7333
aVher
p7334
aVcancer
p7335
aV.
aa(lp7336
Van
p7337
aVimperial
p7338
aVaffliction
p7339
aVends
p7340
aVmidsentence
p7341
aV,
aVcausing
p7342
aVhazel
p7343
aVto
p7344
aVspeculate
p7345
aVabout
p7346
aVher
p7347
aVbeloved
p7348
aV[
aVCHARACTER
p7349
aV]
aV's
p7350
aVfate
p7351
aV.
aasg45
(lp7352
(lp7353
asg464
NsssS'mainText'
p7354
(lp7355
(lp7356
Vthe
p7357
aVfault
p7358
aVin
p7359
aVour
p7360
aVstars
p7361
aVchapter
p7362
aVone
p7363
aVlate
p7364
aVin
p7365
aVthe
p7366
aVwinter
p7367
aVof
p7368
aVmy
p7369
aVseventeenth
p7370
aVyear
p7371
aV,
aVmy
p7372
aVmother
p7373
aVdecided
p7374
aVi
aVwas
p7375
aVdepressed
p7376
aV,
aVpresumably
p7377
aVbecause
p7378
aVi
aVrarely
p7379
aVleft
p7380
aVthe
p7381
aVhouse
p7382
aV,
aVspent
p7383
aVquite
p7384
aVa
aVlot
p7385
aVof
p7386
aVtime
p7387
aVin
p7388
aVbed
p7389
aV,
aVread
p7390
aVthe
p7391
aVsame
p7392
aVbook
p7393
aVover
p7394
aVand
p7395
aVover
p7396
aV,
aVate
p7397
aVinfrequently
p7398
aV,
aVand
p7399
aVdevoted
p7400
aVquite
p7401
aVa
aVbit
p7402
aVof
p7403
aVmy
p7404
aVabundant
p7405
aVfree
p7406
aVtime
p7407
aVto
p7408
aVthinking
p7409
aVabout
p7410
aVdeath
p7411
aV.
aa(lp7412
Vwhenever
p7413
aVyou
p7414
aVread
p7415
aVa
aVcancer
p7416
aVbooklet
p7417
aVor
p7418
aVwebsite
p7419
aVor
p7420
aVwhatever
p7421
aV,
aVthey
p7422
aValways
p7423
aVlist
p7424
aVdepression
p7425
aVamong
p7426
aVthe
p7427
aVside
p7428
aVeffects
p7429
aVof
p7430
aVcancer
p7431
aV.
aa(lp7432
Vbut
p7433
aV,
aVin
p7434
aVfact
p7435
aV,
aVdepression
p7436
aVis
p7437
aVnot
p7438
aVa
aVside
p7439
aVeffect
p7440
aVof
p7441
aVcancer
p7442
aV.
aa(lp7443
Vdepression
p7444
aVis
p7445
aVa
aVside
p7446
aVeffect
p7447
aVof
p7448
aVdying
p7449
aV.
aa(lp7450
V(
aVcancer
p7451
aVis
p7452
aValso
p7453
aVa
aVside
p7454
aVeffect
p7455
aVof
p7456
aVdying
p7457
aV.
aa(lp7458
Valmost
p7459
aVeverything
p7460
aVis
p7461
aV,
aVreally
p7462
aV.
aV)
aa(lp7463
Vbut
p7464
aVmy
p7465
aVmom
p7466
aVbelieved
p7467
aVi
aVrequired
p7468
aVtreatment
p7469
aV,
aVso
p7470
aVshe
p7471
aVtook
p7472
aVme
p7473
aVto
p7474
aVsee
p7475
aV3
aVjohn
p7476
aVgreen
p7477
aVmy
p7478
aVregular
p7479
aVdoctor
p7480
aVjim
p7481
aV,
aVwho
p7482
aVagreed
p7483
aVthat
p7484
aVi
aVwas
p7485
aVveritably
p7486
aVswimming
p7487
aVin
p7488
aVa
aVparalyzing
p7489
aVand
p7490
aVtotally
p7491
aVclinical
p7492
aVdepression
p7493
aV,
aVand
p7494
aVthat
p7495
aVtherefore
p7496
aVmy
p7497
aVmeds
p7498
aVshould
p7499
aVbe
p7500
aVadjusted
p7501
aVand
p7502
aValso
p7503
aVi
aVshould
p7504
aVattend
p7505
aVa
aVweekly
p7506
aVsupport
p7507
aVgroup
p7508
aV.
aa(lp7509
Vthis
p7510
aVsupport
p7511
aVgroup
p7512
aVfeatured
p7513
aVa
aVrotating
p7514
aVcast
p7515
aVof
p7516
aVcharac-
p7517
aVters
p7518
aVin
p7519
aVvarious
p7520
aVstates
p7521
aVof
p7522
aVtumor-driven
p7523
aVunwellness
p7524
aV.
aa(lp7525
Vwhy
p7526
aVdid
p7527
aVthe
p7528
aVcast
p7529
aVrotate
p7530
aV?
aa(lp7531
Va
aVside
p7532
aVeffect
p7533
aVof
p7534
aVdying
p7535
aV.
aa(lp7536
Vthe
p7537
aVsupport
p7538
aVgroup
p7539
aV,
aVof
p7540
aVcourse
p7541
aV,
aVwas
p7542
aVdepressing
p7543
aVas
p7544
aVhell
p7545
aV.
aa(lp7546
Vit
p7547
aVmet
p7548
aVevery
p7549
aVwednesday
p7550
aVin
p7551
aVthe
p7552
aVbasement
p7553
aVof
p7554
aVa
aVstone-walled
p7555
aVepiscopal
p7556
aVchurch
p7557
aVshaped
p7558
aVlike
p7559
aVa
aVcross
p7560
aV.
aa(lp7561
Vwe
p7562
aVall
p7563
aVsat
p7564
aVin
p7565
aVa
aVcircle
p7566
aVright
p7567
aVin
p7568
aVthe
p7569
aVmiddle
p7570
aVof
p7571
aVthe
p7572
aVcross
p7573
aV,
aVwhere
p7574
aVthe
p7575
aVtwo
p7576
aVboards
p7577
aVwould
p7578
aVhave
p7579
aVmet
p7580
aV,
aVwhere
p7581
aVthe
p7582
aVheart
p7583
aVof
p7584
aVjesus
p7585
aVwould
p7586
aVhave
p7587
aVbeen
p7588
aV.
aa(lp7589
Vi
aVnoticed
p7590
aVthis
p7591
aVbecause
p7592
aVpatrick
p7593
aV,
aVthe
p7594
aVsupport
p7595
aVgroup
p7596
aVleader
p7597
aVand
p7598
aVonly
p7599
aVperson
p7600
aVover
p7601
aVeighteen
p7602
aVin
p7603
aVthe
p7604
aVroom
p7605
aV,
aVtalked
p7606
aVabout
p7607
aVthe
p7608
aVheart
p7609
aVof
p7610
aVjesus
p7611
aVevery
p7612
aVfreaking
p7613
aVmeeting
p7614
aV,
aVall
p7615
aVabout
p7616
aVhow
p7617
aVwe
p7618
aV,
aVas
p7619
aVyoung
p7620
aVcancer
p7621
aVsurvivors
p7622
aV,
aVwere
p7623
aVsitting
p7624
aVright
p7625
aVin
p7626
aVchrist
p7627
aV's
p7628
aVvery
p7629
aVsacred
p7630
aVheart
p7631
aVand
p7632
aVwhatever
p7633
aV.
aa(lp7634
Vso
p7635
aVhere
p7636
aV's
p7637
aVhow
p7638
aVit
p7639
aVwent
p7640
aVin
p7641
aVgod
p7642
aV's
p7643
aVheart
p7644
aV:
aVthe
p7645
aVsix
p7646
aVor
p7647
aVseven
p7648
aVor
p7649
aVten
p7650
aVof
p7651
aVus
p7652
aVwalked/wheeled
p7653
aVin
p7654
aV,
aVgrazed
p7655
aVat
p7656
aVa
aVdecrepit
p7657
aVselection
p7658
aVof
p7659
aVcookies
p7660
aVand
p7661
aVlemonade
p7662
aV,
aVsat
p7663
aVdown
p7664
aVin
p7665
aVthe
p7666
aVcircle
p7667
aVof
p7668
aVtrust
p7669
aV,
aVand
p7670
aVlistened
p7671
aVto
p7672
aVpatrick
p7673
aVrecount
p7674
aVfor
p7675
aVthe
p7676
aVthousandth
p7677
aVtime
p7678
aVhis
p7679
aVdepressingly
p7680
aVmiserable
p7681
aVlife
p7682
aVstory\u2014
p7683
aVhow
p7684
aVhe
p7685
aVhad
p7686
aVcancer
p7687
aVin
p7688
aVhis
p7689
aVballs
p7690
aVand
p7691
aVthey
p7692
aVthought
p7693
aVhe
p7694
aVwas
p7695
aVgoing
p7696
aVto
p7697
aVdie
p7698
aVbut
p7699
aVhe
p7700
aVdid
p7701
aVn't
p7702
aVdie
p7703
aVand
p7704
aVnow
p7705
aVhere
p7706
aVhe
p7707
aVis
p7708
aV,
aVa
aVfull-grown
p7709
aVadult
p7710
aVin
p7711
aVa
aVchurch
p7712
aVbasement
p7713
aVin
p7714
aVthe
p7715
aV137th
p7716
aVnicest
p7717
aVcity
p7718
aVin
p7719
aVamerica
p7720
aV,
aVdivorced
p7721
aV,
aVaddicted
p7722
aVto
p7723
aVvideo
p7724
aVgames
p7725
aV,
aVmostly
p7726
aVfriendless
p7727
aV,
aVeking
p7728
aVout
p7729
aVa
aVmeager
p7730
aVliving
p7731
aV4
aVthe
p7732
aVfault
p7733
aVin
p7734
aVour
p7735
aVstars
p7736
aVby
p7737
aVexploiting
p7738
aVhis
p7739
aVcancertastic
p7740
aVpast
p7741
aV,
aVslowly
p7742
aVworking
p7743
aVhis
p7744
aVway
p7745
aVtoward
p7746
aVa
aVmaster
p7747
aV's
p7748
aVdegree
p7749
aVthat
p7750
aVwill
p7751
aVnot
p7752
aVimprove
p7753
aVhis
p7754
aVcareer
p7755
aVprospects
p7756
aV,
aVwaiting
p7757
aV,
aVas
p7758
aVwe
p7759
aVall
p7760
aVdo
p7761
aV,
aVfor
p7762
aVthe
p7763
aVsword
p7764
aVof
p7765
aVdamocles
p7766
aVto
p7767
aVgive
p7768
aVhim
p7769
aVthe
p7770
aVrelief
p7771
aVthat
p7772
aVhe
p7773
aVescaped
p7774
aVlo
p7775
aVthose
p7776
aVmany
p7777
aVyears
p7778
aVago
p7779
aVwhen
p7780
aVcancer
p7781
aVtook
p7782
aVboth
p7783
aVof
p7784
aVhis
p7785
aVnuts
p7786
aVbut
p7787
aVspared
p7788
aVwhat
p7789
aVonly
p7790
aVthe
p7791
aVmost
p7792
aVgenerous
p7793
aVsoul
p7794
aVwould
p7795
aVcall
p7796
aVhis
p7797
aVlife
p7798
aV.
aa(lp7799
Vand
p7800
aVyou
p7801
aVtoo
p7802
aVmight
p7803
aVbe
p7804
aVso
p7805
aVlucky
p7806
aV!
aa(lp7807
Vthen
p7808
aVwe
p7809
aVintroduced
p7810
aVourselves
p7811
aV:
aVname
p7812
aV.
aa(lp7813
Vage
p7814
aV.
aa(lp7815
Vdiagnosis
p7816
aV.
aa(lp7817
Vand
p7818
aVhow
p7819
aVwe
p7820
aV're
p7821
aVdoing
p7822
aVtoday
p7823
aV.
aa(lp7824
Vi
aV'm
p7825
aVhazel
p7826
aV,
aVi
aV'd
p7827
aVsay
p7828
aVwhen
p7829
aVthey'd
p7830
aVget
p7831
aVto
p7832
aVme
p7833
aV.
aa(lp7834
Vsixteen
p7835
aV.
aa(lp7836
Vthyroid
p7837
aVoriginally
p7838
aVbut
p7839
aVwith
p7840
aVan
p7841
aVimpres-
p7842
aVsive
p7843
aVand
p7844
aVlong-settled
p7845
aVsatellite
p7846
aVcolony
p7847
aVin
p7848
aVmy
p7849
aVlungs
p7850
aV.
aa(lp7851
Vand
p7852
aVi'm
p7853
aVdoing
p7854
aVokay
p7855
aV.
aa(lp7856
Vonce
p7857
aVwe
p7858
aVgot
p7859
aVaround
p7860
aVthe
p7861
aVcircle
p7862
aV,
aVpatrick
p7863
aValways
p7864
aVasked
p7865
aVif
p7866
aVanyone
p7867
aVwanted
p7868
aVto
p7869
aVshare
p7870
aV.
aa(lp7871
Vand
p7872
aVthen
p7873
aVbegan
p7874
aVthe
p7875
aVcircle
p7876
aVjerk
p7877
aVof
p7878
aVsupport
p7879
aV:
aVeveryone
p7880
aVtalking
p7881
aVabout
p7882
aVfighting
p7883
aVand
p7884
aVbattling
p7885
aVand
p7886
aVwinning
p7887
aVand
p7888
aVshrinking
p7889
aVand
p7890
aVscanning
p7891
aV.
aa(lp7892
Vto
p7893
aVbe
p7894
aVfair
p7895
aVto
p7896
aVpatrick
p7897
aV,
aVhe
p7898
aVlet
p7899
aVus
p7900
aVtalk
p7901
aVabout
p7902
aVdying
p7903
aV,
aVtoo
p7904
aV.
aa(lp7905
Vbut
p7906
aVmost
p7907
aVof
p7908
aVthem
p7909
aVweren't
p7910
aVdying
p7911
aV.
aa(lp7912
Vmost
p7913
aVwould
p7914
aVlive
p7915
aVinto
p7916
aVadulthood
p7917
aV,
aVas
p7918
aVpatrick
p7919
aVhad
p7920
aV.
aa(lp7921
V(
aVwhich
p7922
aVmeant
p7923
aVthere
p7924
aVwas
p7925
aVquite
p7926
aVa
aVlot
p7927
aVof
p7928
aVcompetitiveness
p7929
aVabout
p7930
aVit
p7931
aV,
aVwith
p7932
aVeverybody
p7933
aVwanting
p7934
aVto
p7935
aVbeat
p7936
aVnot
p7937
aVonly
p7938
aVcancer
p7939
aVitself
p7940
aV,
aVbut
p7941
aValso
p7942
aVthe
p7943
aVother
p7944
aVpeople
p7945
aVin
p7946
aVthe
p7947
aVroom
p7948
aV.
aa(lp7949
Vlike
p7950
aV,
aVi
aVrealize
p7951
aVthat
p7952
aVthis
p7953
aVis
p7954
aVirrational
p7955
aV,
aVbut
p7956
aVwhen
p7957
aVthey
p7958
aVtell
p7959
aVyou
p7960
aVthat
p7961
aVyou
p7962
aVhave
p7963
aV,
aVsay
p7964
aV,
aVa
aV20
p7965
aVpercent
p7966
aVchance
p7967
aVof
p7968
aVliving
p7969
aVfive
p7970
aVyears
p7971
aV,
aVthe
p7972
aVmath
p7973
aVkicks
p7974
aVin
p7975
aVand
p7976
aVyou
p7977
aVfigure
p7978
aVthat
p7979
aV's
p7980
aVone
p7981
aVin
p7982
aVfive
p7983
aV...
p7984
aVso
p7985
aVyou
p7986
aVlook
p7987
aVaround
p7988
aVand
p7989
aVthink
p7990
aV,
aVas
p7991
aVany
p7992
aVhealthy
p7993
aVperson
p7994
aVwould
p7995
aV:
aVi
aVgot
p7996
aVta
p7997
aVoutlast
p7998
aVfour
p7999
aVof
p8000
aVthese
p8001
aVbastards
p8002
aV.
aV)
aa(lp8003
V5
aVjohn
p8004
aVgreen
p8005
aVthe
p8006
aVonly
p8007
aVredeeming
p8008
aVfacet
p8009
aVof
p8010
aVsupport
p8011
aVgroup
p8012
aVwas
p8013
aVthis
p8014
aVkid
p8015
aVnamed
p8016
aVisaac
p8017
aV,
aVa
aVlong-faced
p8018
aV,
aVskinny
p8019
aVguy
p8020
aVwith
p8021
aVstraight
p8022
aVblond
p8023
aVhair
p8024
aVswept
p8025
aVover
p8026
aVone
p8027
aVeye
p8028
aV.
aa(lp8029
Vand
p8030
aVhis
p8031
aVeyes
p8032
aVwere
p8033
aVthe
p8034
aVproblem
p8035
aV.
aa(lp8036
Vhe
p8037
aVhad
p8038
aVsome
p8039
aVfantastically
p8040
aVimprobable
p8041
aVeye
p8042
aVcancer
p8043
aV.
aa(lp8044
Vone
p8045
aVeye
p8046
aVhad
p8047
aVbeen
p8048
aVcut
p8049
aVout
p8050
aVwhen
p8051
aVhe
p8052
aVwas
p8053
aVa
aVkid
p8054
aV,
aVand
p8055
aVnow
p8056
aVhe
p8057
aVwore
p8058
aVthe
p8059
aVkind
p8060
aVof
p8061
aVthick
p8062
aVglasses
p8063
aVthat
p8064
aVmade
p8065
aVhis
p8066
aVeyes
p8067
aV(
aVboth
p8068
aVthe
p8069
aVreal
p8070
aVone
p8071
aVand
p8072
aVthe
p8073
aVglass
p8074
aVone
p8075
aV)
aVpreternaturally
p8076
aVhuge
p8077
aV,
aVlike
p8078
aVhis
p8079
aVwhole
p8080
aVhead
p8081
aVwas
p8082
aVbasically
p8083
aVjust
p8084
aVthis
p8085
aVfake
p8086
aVeye
p8087
aVand
p8088
aVthis
p8089
aVreal
p8090
aVeye
p8091
aVstaring
p8092
aVat
p8093
aVyou
p8094
aV.
aa(lp8095
Vfrom
p8096
aVwhat
p8097
aVi
aVcould
p8098
aVgather
p8099
aVon
p8100
aVthe
p8101
aVrare
p8102
aVoccasions
p8103
aVwhen
p8104
aVisaac
p8105
aVshared
p8106
aVwith
p8107
aVthe
p8108
aVgroup
p8109
aV,
aVa
aVrecurrence
p8110
aVhad
p8111
aVplaced
p8112
aVhis
p8113
aVremaining
p8114
aVeye
p8115
aVin
p8116
aVmortal
p8117
aVperil
p8118
aV.
aa(lp8119
Visaac
p8120
aVand
p8121
aVi
aVcommunicated
p8122
aValmost
p8123
aVexclusively
p8124
aVthrough
p8125
aVsighs
p8126
aV.
aa(lp8127
Veach
p8128
aVtime
p8129
aVsomeone
p8130
aVdiscussed
p8131
aVanticancer
p8132
aVdiets
p8133
aVor
p8134
aVsnorting
p8135
aVground-up
p8136
aVshark
p8137
aVfin
p8138
aVor
p8139
aVwhatever
p8140
aV,
aVhe
p8141
aV'd
p8142
aVglance
p8143
aVover
p8144
aVat
p8145
aVme
p8146
aVand
p8147
aVsigh
p8148
aVever
p8149
aVso
p8150
aVslightly
p8151
aV.
aa(lp8152
Vi
aV'd
p8153
aVshake
p8154
aVmy
p8155
aVhead
p8156
aVmicroscopically
p8157
aVand
p8158
aVexhale
p8159
aVin
p8160
aVresponse
p8161
aV.
aa(lp8162
Vso
p8163
aVsupport
p8164
aVgroup
p8165
aVblew
p8166
aV,
aVand
p8167
aVafter
p8168
aVa
aVfew
p8169
aVweeks
p8170
aV,
aVi
aVgrew
p8171
aVto
p8172
aVbe
p8173
aVrather
p8174
aVkicking-and-screaming
p8175
aVabout
p8176
aVthe
p8177
aVwhole
p8178
aVaffair
p8179
aV.
aa(lp8180
Vin
p8181
aVfact
p8182
aV,
aVon
p8183
aVthe
p8184
aVwednesday
p8185
aVi
aVmade
p8186
aVthe
p8187
aVacquaintance
p8188
aVof
p8189
aVaugustus
p8190
aVwaters
p8191
aV,
aVi
aVtried
p8192
aVmy
p8193
aVlevel
p8194
aVbest
p8195
aVto
p8196
aVget
p8197
aVout
p8198
aVof
p8199
aVsupport
p8200
aVgroup
p8201
aVwhile
p8202
aVsitting
p8203
aVon
p8204
aVthe
p8205
aVcouch
p8206
aVwith
p8207
aVmy
p8208
aVmom
p8209
aVin
p8210
aVthe
p8211
aVthird
p8212
aVleg
p8213
aVof
p8214
aVa
aVtwelve-hour
p8215
aVmarathon
p8216
aVof
p8217
aVthe
p8218
aVprevious
p8219
aVseason's
p8220
aVamerica
p8221
aV's
p8222
aVnext
p8223
aVtop
p8224
aVmodel
p8225
aV,
aVwhich
p8226
aVadmittedly
p8227
aVi
aVhad
p8228
aValready
p8229
aVseen
p8230
aV,
aVbut
p8231
aVstill
p8232
aV.
aa(lp8233
V6
aVthe
p8234
aVfault
p8235
aVin
p8236
aVour
p8237
aVstars
p8238
aVme
p8239
aV:
aV``
p8240
aVi
aVrefuse
p8241
aVto
p8242
aVattend
p8243
aVsupport
p8244
aVgroup
p8245
aV.
aV''
p8246
aa(lp8247
Vmom
p8248
aV:
aV``
p8249
aVone
p8250
aVof
p8251
aVthe
p8252
aVsymptoms
p8253
aVof
p8254
aVdepression
p8255
aVis
p8256
aVdisinter-
p8257
aVest
p8258
aVin
p8259
aVactivities
p8260
aV.
aV''
p8261
aa(lp8262
Vme
p8263
aV:
aV``
p8264
aVplease
p8265
aVjust
p8266
aVlet
p8267
aVme
p8268
aVwatch
p8269
aVamerica
p8270
aV's
p8271
aVnext
p8272
aVtop
p8273
aVmodel
p8274
aV.
aa(lp8275
Vit
p8276
aV's
p8277
aVan
p8278
aVactivity
p8279
aV.
aV''
p8280
aa(lp8281
Vmom
p8282
aV:
aV``
p8283
aVtelevision
p8284
aVis
p8285
aVa
aVpassivity
p8286
aV.
aV''
p8287
aa(lp8288
Vme
p8289
aV:
aV``
p8290
aVugh
p8291
aV,
aVmom
p8292
aV,
aVplease
p8293
aV.
aV''
p8294
aa(lp8295
Vmom
p8296
aV:
aV``
p8297
aVhazel
p8298
aV,
aVyou
p8299
aV're
p8300
aVa
aVteenager
p8301
aV.
aa(lp8302
Vyou
p8303
aV're
p8304
aVnot
p8305
aVa
aVlittle
p8306
aVkid
p8307
aVanymore
p8308
aV.
aa(lp8309
Vyou
p8310
aVneed
p8311
aVto
p8312
aVmake
p8313
aVfriends
p8314
aV,
aVget
p8315
aVout
p8316
aVof
p8317
aVthe
p8318
aVhouse
p8319
aV,
aVand
p8320
aVlive
p8321
aVyour
p8322
aVlife
p8323
aV.
aV''
p8324
aa(lp8325
Vme
p8326
aV:
aV``
p8327
aVif
p8328
aVyou
p8329
aVwant
p8330
aVme
p8331
aVto
p8332
aVbe
p8333
aVa
aVteenager
p8334
aV,
aVdo
p8335
aVn't
p8336
aVsend
p8337
aVme
p8338
aVto
p8339
aVsupport
p8340
aVgroup
p8341
aV.
aa(lp8342
Vbuy
p8343
aVme
p8344
aVa
aVfake
p8345
aVid
p8346
aVso
p8347
aVi
aVcan
p8348
aVgo
p8349
aVto
p8350
aVclubs
p8351
aV,
aVdrink
p8352
aVvodka
p8353
aV,
aVand
p8354
aVtake
p8355
aVpot
p8356
aV.
aV''
p8357
aa(lp8358
Vmom
p8359
aV:
aV``
p8360
aVyou
p8361
aVdo
p8362
aVn't
p8363
aVtake
p8364
aVpot
p8365
aV,
aVfor
p8366
aVstarters
p8367
aV.
aV''
p8368
aa(lp8369
Vme
p8370
aV:
aV``
p8371
aVsee
p8372
aV,
aVthat
p8373
aV's
p8374
aVthe
p8375
aVkind
p8376
aVof
p8377
aVthing
p8378
aVi
aV'd
p8379
aVknow
p8380
aVif
p8381
aVyou
p8382
aVgot
p8383
aVme
p8384
aVa
aVfake
p8385
aVid
p8386
aV.
aV''
p8387
aa(lp8388
Vmom
p8389
aV:
aV``
p8390
aVyou
p8391
aV're
p8392
aVgoing
p8393
aVto
p8394
aVsupport
p8395
aVgroup
p8396
aV.
aV''
p8397
aa(lp8398
Vme
p8399
aV:
aV``
p8400
aVuggggggggggggg
p8401
aV.
aV''
p8402
aa(lp8403
Vmom
p8404
aV:
aV``
p8405
aVhazel
p8406
aV,
aVyou
p8407
aVdeserve
p8408
aVa
aVlife
p8409
aV.
aV''
p8410
aa(lp8411
Vthat
p8412
aVshut
p8413
aVme
p8414
aVup
p8415
aV,
aValthough
p8416
aVi
aVfailed
p8417
aVto
p8418
aVsee
p8419
aVhow
p8420
aVattendance
p8421
aVat
p8422
aVsupport
p8423
aVgroup
p8424
aVmet
p8425
aVthe
p8426
aVdefinition
p8427
aVof
p8428
aVlife
p8429
aV.
aa(lp8430
Vstill
p8431
aV,
aVi
aVagreed
p8432
aVto
p8433
aVgo\u2014
p8434
aVafter
p8435
aVnegotiating
p8436
aVthe
p8437
aVright
p8438
aVto
p8439
aVrecord
p8440
aVthe
p8441
aV1.5
p8442
aVepisodes
p8443
aVof
p8444
aVantm
p8445
aVi
aV'd
p8446
aVbe
p8447
aVmissing
p8448
aV.
aa(lp8449
Vi
aVwent
p8450
aVto
p8451
aVsupport
p8452
aVgroup
p8453
aVfor
p8454
aVthe
p8455
aVsame
p8456
aVreason
p8457
aVthat
p8458
aVi
aV'd
p8459
aVonce
p8460
aVallowed
p8461
aVnurses
p8462
aVwith
p8463
aVa
aVmere
p8464
aVeighteen
p8465
aVmonths
p8466
aVof
p8467
aVgraduate
p8468
aVeducation
p8469
aVto
p8470
aVpoison
p8471
aVme
p8472
aVwith
p8473
aVexotically
p8474
aVnamed
p8475
aV7
aVjohn
p8476
aVgreen
p8477
aVchemicals
p8478
aV:
aVi
aVwanted
p8479
aVto
p8480
aVmake
p8481
aVmy
p8482
aVparents
p8483
aVhappy
p8484
aV.
aa(lp8485
Vthere
p8486
aVis
p8487
aVonly
p8488
aVone
p8489
aVthing
p8490
aVin
p8491
aVthis
p8492
aVworld
p8493
aVshittier
p8494
aVthan
p8495
aVbiting
p8496
aVit
p8497
aVfrom
p8498
aVcancer
p8499
aVwhen
p8500
aVyou
p8501
aV're
p8502
aVsixteen
p8503
aV,
aVand
p8504
aVthat
p8505
aV's
p8506
aVhaving
p8507
aVa
aVkid
p8508
aVwho
p8509
aVbites
p8510
aVit
p8511
aVfrom
p8512
aVcancer
p8513
aV.
aa(lp8514
Vmom
p8515
aVpulled
p8516
aVinto
p8517
aVthe
p8518
aVcircular
p8519
aVdriveway
p8520
aVbehind
p8521
aVthe
p8522
aVchurch
p8523
aVat
p8524
aV4:56.
p8525
aVi
aVpretended
p8526
aVto
p8527
aVfiddle
p8528
aVwith
p8529
aVmy
p8530
aVoxygen
p8531
aVtank
p8532
aVfor
p8533
aVa
aVsecond
p8534
aVjust
p8535
aVto
p8536
aVkill
p8537
aVtime
p8538
aV.
aa(lp8539
V``
p8540
aVdo
p8541
aVyou
p8542
aVwant
p8543
aVme
p8544
aVto
p8545
aVcarry
p8546
aVit
p8547
aVin
p8548
aVfor
p8549
aVyou
p8550
aV?
aV''
p8551
aa(lp8552
V``
p8553
aVno
p8554
aV,
aVit
p8555
aV's
p8556
aVfine
p8557
aV,
aV''
p8558
aVi
aVsaid
p8559
aV.
aa(lp8560
Vthe
p8561
aVcylindrical
p8562
aVgreen
p8563
aVtank
p8564
aVonly
p8565
aVweighed
p8566
aVa
aVfew
p8567
aVpounds
p8568
aV,
aVand
p8569
aVi
aVhad
p8570
aVthis
p8571
aVlittle
p8572
aVsteel
p8573
aVcart
p8574
aVto
p8575
aVwheel
p8576
aVit
p8577
aVaround
p8578
aVbehind
p8579
aVme
p8580
aV.
aa(lp8581
Vit
p8582
aVdelivered
p8583
aVtwo
p8584
aVliters
p8585
aVof
p8586
aVoxygen
p8587
aVto
p8588
aVme
p8589
aVeach
p8590
aVminute
p8591
aVthrough
p8592
aVa
aVcannula
p8593
aV,
aVa
aVtransparent
p8594
aVtube
p8595
aVthat
p8596
aVsplit
p8597
aVjust
p8598
aVbeneath
p8599
aVmy
p8600
aVneck
p8601
aV,
aVwrapped
p8602
aVbehind
p8603
aVmy
p8604
aVears
p8605
aV,
aVand
p8606
aVthen
p8607
aVreunited
p8608
aVin
p8609
aVmy
p8610
aVnostrils
p8611
aV.
aa(lp8612
Vthe
p8613
aVcontraption
p8614
aVwas
p8615
aVnecessary
p8616
aVbecause
p8617
aVmy
p8618
aVlungs
p8619
aVsucked
p8620
aVat
p8621
aVbeing
p8622
aVlungs
p8623
aV.
aa(lp8624
V``
p8625
aVi
aVlove
p8626
aVyou
p8627
aV,
aV''
p8628
aVshe
p8629
aVsaid
p8630
aVas
p8631
aVi
aVgot
p8632
aVout
p8633
aV.
aa(lp8634
V``
p8635
aVyou
p8636
aVtoo
p8637
aV,
aVmom
p8638
aV.
aa(lp8639
Vsee
p8640
aVyou
p8641
aVat
p8642
aVsix
p8643
aV.
aV''
p8644
aa(lp8645
V``
p8646
aVmake
p8647
aVfriends
p8648
aV!
aV''
p8649
aa(lp8650
Vshe
p8651
aVsaid
p8652
aVthrough
p8653
aVthe
p8654
aVrolled-down
p8655
aVwindow
p8656
aVas
p8657
aVi
aVwalked
p8658
aVaway
p8659
aV.
aa(lp8660
Vi
aVdid
p8661
aVn't
p8662
aVwant
p8663
aVto
p8664
aVtake
p8665
aVthe
p8666
aVelevator
p8667
aVbecause
p8668
aVtaking
p8669
aVthe
p8670
aVelevator
p8671
aVis
p8672
aVa
aVlast
p8673
aVdays
p8674
aVkind
p8675
aVof
p8676
aVactivity
p8677
aVat
p8678
aVsupport
p8679
aVgroup
p8680
aV,
aVso
p8681
aVi
aVtook
p8682
aVthe
p8683
aVstairs
p8684
aV.
aa(lp8685
Vi
aVgrabbed
p8686
aVa
aVcookie
p8687
aVand
p8688
aVpoured
p8689
aVsome
p8690
aVlemonade
p8691
aVinto
p8692
aVa
aVdixie
p8693
aVcup
p8694
aVand
p8695
aVthen
p8696
aVturned
p8697
aVaround
p8698
aV.
aa(lp8699
Va
aVboy
p8700
aVwas
p8701
aVstaring
p8702
aVat
p8703
aVme
p8704
aV.
aa(lp8705
Vi
aVwas
p8706
aVquite
p8707
aVsure
p8708
aVi
aV'd
p8709
aVnever
p8710
aVseen
p8711
aVhim
p8712
aVbefore
p8713
aV.
aa(lp8714
Vlong
p8715
aVand
p8716
aV8
aVthe
p8717
aVfault
p8718
aVin
p8719
aVour
p8720
aVstars
p8721
aVleanly
p8722
aVmuscular
p8723
aV,
aVhe
p8724
aVdwarfed
p8725
aVthe
p8726
aVmolded
p8727
aVplastic
p8728
aVelementary
p8729
aVschool
p8730
aVchair
p8731
aVhe
p8732
aVwas
p8733
aVsitting
p8734
aVin
p8735
aV.
aa(lp8736
Vmahogany
p8737
aVhair
p8738
aV,
aVstraight
p8739
aVand
p8740
aVshort
p8741
aV.
aa(lp8742
Vhe
p8743
aVlooked
p8744
aVmy
p8745
aVage
p8746
aV,
aVmaybe
p8747
aVa
aVyear
p8748
aVolder
p8749
aV,
aVand
p8750
aVhe
p8751
aVsat
p8752
aVwith
p8753
aVhis
p8754
aVtailbone
p8755
aVagainst
p8756
aVthe
p8757
aVedge
p8758
aVof
p8759
aVthe
p8760
aVchair
p8761
aV,
aVhis
p8762
aVposture
p8763
aVaggressively
p8764
aVpoor
p8765
aV,
aVone
p8766
aVhand
p8767
aVhalf
p8768
aVin
p8769
aVa
aVpocket
p8770
aVof
p8771
aVdark
p8772
aVjeans
p8773
aV.
aa(lp8774
Vi
aVlooked
p8775
aVaway
p8776
aV,
aVsuddenly
p8777
aVconscious
p8778
aVof
p8779
aVmy
p8780
aVmyriad
p8781
aVinsufficiencies
p8782
aV.
aa(lp8783
Vi
aVwas
p8784
aVwearing
p8785
aVold
p8786
aVjeans
p8787
aV,
aVwhich
p8788
aVhad
p8789
aVonce
p8790
aVbeen
p8791
aVtight
p8792
aVbut
p8793
aVnow
p8794
aVsagged
p8795
aVin
p8796
aVweird
p8797
aVplaces
p8798
aV,
aVand
p8799
aVa
aVyellow
p8800
aVt-shirt
p8801
aVadvertising
p8802
aVa
aVband
p8803
aVi
aVdid
p8804
aVn't
p8805
aVeven
p8806
aVlike
p8807
aVanymore
p8808
aV.
aa(lp8809
Valso
p8810
aVmy
p8811
aVhair
p8812
aV:
aVi
aVhad
p8813
aVthis
p8814
aVpageboy
p8815
aVhaircut
p8816
aV,
aVand
p8817
aVi
aVhad
p8818
aVn't
p8819
aVeven
p8820
aVbothered
p8821
aVto
p8822
aV,
aVlike
p8823
aV,
aVbrush
p8824
aVit
p8825
aV.
aa(lp8826
Vfurthermore
p8827
aV,
aVi
aVhad
p8828
aVridiculously
p8829
aVfat
p8830
aVchipmunked
p8831
aVcheeks
p8832
aV,
aVa
aVside
p8833
aVeffect
p8834
aVof
p8835
aVtreatment
p8836
aV.
aa(lp8837
Vi
aVlooked
p8838
aVlike
p8839
aVa
aVnormally
p8840
aVproportioned
p8841
aVperson
p8842
aVwith
p8843
aVa
aVballoon
p8844
aVfor
p8845
aVa
aVhead
p8846
aV.
aa(lp8847
Vthis
p8848
aVwas
p8849
aVnot
p8850
aVeven
p8851
aVto
p8852
aVmention
p8853
aVthe
p8854
aVcankle
p8855
aVsituation
p8856
aV.
aa(lp8857
Vand
p8858
aVyet\u2014
p8859
aVi
aVcut
p8860
aVa
aVglance
p8861
aVto
p8862
aVhim
p8863
aV,
aVand
p8864
aVhis
p8865
aVeyes
p8866
aVwere
p8867
aVstill
p8868
aVon
p8869
aVme
p8870
aV.
aa(lp8871
Vit
p8872
aVoccurred
p8873
aVto
p8874
aVme
p8875
aVwhy
p8876
aVthey
p8877
aVcall
p8878
aVit
p8879
aVeye
p8880
aVcontact
p8881
aV.
aa(lp8882
Vi
aVwalked
p8883
aVinto
p8884
aVthe
p8885
aVcircle
p8886
aVand
p8887
aVsat
p8888
aVdown
p8889
aVnext
p8890
aVto
p8891
aVisaac
p8892
aV,
aVtwo
p8893
aVseats
p8894
aVaway
p8895
aVfrom
p8896
aVthe
p8897
aVboy
p8898
aV.
aa(lp8899
Vi
aVglanced
p8900
aVagain
p8901
aV.
aa(lp8902
Vhe
p8903
aVwas
p8904
aVstill
p8905
aVwatching
p8906
aVme
p8907
aV.
aa(lp8908
Vlook
p8909
aV,
aVlet
p8910
aVme
p8911
aVjust
p8912
aVsay
p8913
aVit
p8914
aV:
aVhe
p8915
aVwas
p8916
aVhot
p8917
aV.
aa(lp8918
Va
aVnonhot
p8919
aVboy
p8920
aVstares
p8921
aVat
p8922
aVyou
p8923
aVrelentlessly
p8924
aVand
p8925
aVit
p8926
aVis
p8927
aV,
aVat
p8928
aVbest
p8929
aV,
aVawkward
p8930
aVand
p8931
aV,
aVat
p8932
aVworst
p8933
aV,
aVa
aVform
p8934
aVof
p8935
aVassault
p8936
aV.
aa(lp8937
Vbut
p8938
aVa
aVhot
p8939
aVboy
p8940
aV.
aa(lp8941
V.
aa(lp8942
V.
aa(lp8943
Vwell
p8944
aV.
aa(lp8945
Vi
aVpulled
p8946
aVout
p8947
aVmy
p8948
aVphone
p8949
aVand
p8950
aVclicked
p8951
aVit
p8952
aVso
p8953
aVit
p8954
aVwould
p8955
aVdis-
p8956
aVplay
p8957
aVthe
p8958
aVtime
p8959
aV:
aV4:59.
p8960
aVthe
p8961
aVcircle
p8962
aVfilled
p8963
aVin
p8964
aVwith
p8965
aVthe
p8966
aVunlucky
p8967
aVtwelve-to-eighteens
p8968
aV,
aVand
p8969
aVthen
p8970
aVpatrick
p8971
aVstarted
p8972
aVus
p8973
aVout
p8974
aVwith
p8975
aVthe
p8976
aVserenity
p8977
aVprayer
p8978
aV:
aVgod
p8979
aV,
aVgrant
p8980
aVme
p8981
aVthe
p8982
aVserenity
p8983
aVto
p8984
aVaccept
p8985
aVthe
p8986
aVthings
p8987
aV9
aVjohn
p8988
aVgreen
p8989
aVi
aVcan
p8990
aVnot
p8991
aVchange
p8992
aV,
aVthe
p8993
aVcourage
p8994
aVto
p8995
aVchange
p8996
aVthe
p8997
aVthings
p8998
aVi
aVcan
p8999
aV,
aVand
p9000
aVthe
p9001
aVwis-
p9002
aVdom
p9003
aVto
p9004
aVknow
p9005
aVthe
p9006
aVdifference
p9007
aV.
aa(lp9008
Vthe
p9009
aVguy
p9010
aVwas
p9011
aVstill
p9012
aVstaring
p9013
aVat
p9014
aVme
p9015
aV.
aa(lp9016
Vi
aVfelt
p9017
aVrather
p9018
aVblushy
p9019
aV.
aa(lp9020
Vfinally
p9021
aV,
aVi
aVdecided
p9022
aVthat
p9023
aVthe
p9024
aVproper
p9025
aVstrategy
p9026
aVwas
p9027
aVto
p9028
aVstare
p9029
aVback
p9030
aV.
aa(lp9031
Vboys
p9032
aVdo
p9033
aVnot
p9034
aVhave
p9035
aVa
aVmonopoly
p9036
aVon
p9037
aVthe
p9038
aVstaring
p9039
aVbusiness
p9040
aV,
aVafter
p9041
aVall
p9042
aV.
aa(lp9043
Vso
p9044
aVi
aVlooked
p9045
aVhim
p9046
aVover
p9047
aVas
p9048
aVpatrick
p9049
aVacknowledged
p9050
aVfor
p9051
aVthe
p9052
aVthousandth
p9053
aVtime
p9054
aVhis
p9055
aVball-lessness
p9056
aVetc.
p9057
aV,
aVand
p9058
aVsoon
p9059
aVit
p9060
aVwas
p9061
aVa
aVstaring
p9062
aVcontest
p9063
aV.
aa(lp9064
Vafter
p9065
aVa
aVwhile
p9066
aVthe
p9067
aVboy
p9068
aVsmiled
p9069
aV,
aVand
p9070
aVthen
p9071
aVfinally
p9072
aVhis
p9073
aVblue
p9074
aVeyes
p9075
aVglanced
p9076
aVaway
p9077
aV.
aa(lp9078
Vwhen
p9079
aVhe
p9080
aVlooked
p9081
aVback
p9082
aVat
p9083
aVme
p9084
aV,
aVi
aVflicked
p9085
aVmy
p9086
aVeyebrows
p9087
aVup
p9088
aVto
p9089
aVsay
p9090
aV,
aVi
aVwin
p9091
aV.
aa(lp9092
Vhe
p9093
aVshrugged
p9094
aV.
aa(lp9095
Vpatrick
p9096
aVcontinued
p9097
aVand
p9098
aVthen
p9099
aVfinally
p9100
aVit
p9101
aVwas
p9102
aVtime
p9103
aVfor
p9104
aVthe
p9105
aVintroductions
p9106
aV.
aa(lp9107
V``
p9108
aVisaac
p9109
aV,
aVperhaps
p9110
aVyou
p9111
aV'd
p9112
aVlike
p9113
aVto
p9114
aVgo
p9115
aVfirst
p9116
aVtoday
p9117
aV.
aa(lp9118
Vi
aVknow
p9119
aVyou
p9120
aV're
p9121
aVfacing
p9122
aVa
aVchallenging
p9123
aVtime
p9124
aV.
aV''
p9125
aa(lp9126
V``
p9127
aVyeah
p9128
aV,
aV''
p9129
aVisaac
p9130
aVsaid
p9131
aV.
aa(lp9132
V``
p9133
aVi
aV'm
p9134
aVisaac
p9135
aV.
aa(lp9136
Vi
aV'm
p9137
aVseventeen
p9138
aV.
aa(lp9139
Vand
p9140
aVit's
p9141
aVlooking
p9142
aVlike
p9143
aVi
aVhave
p9144
aVto
p9145
aVget
p9146
aVsurgery
p9147
aVin
p9148
aVa
aVcouple
p9149
aVweeks
p9150
aV,
aVafter
p9151
aVwhich
p9152
aVi
aV'll
p9153
aVbe
p9154
aVblind
p9155
aV.
aa(lp9156
Vnot
p9157
aVto
p9158
aVcomplain
p9159
aVor
p9160
aVanything
p9161
aVbecause
p9162
aVi
aVknow
p9163
aVa
aVlot
p9164
aVof
p9165
aVus
p9166
aVhave
p9167
aVit
p9168
aVworse
p9169
aV,
aVbut
p9170
aVyeah
p9171
aV,
aVi
aVmean
p9172
aV,
aVbeing
p9173
aVblind
p9174
aVdoes
p9175
aVsort
p9176
aVof
p9177
aVsuck
p9178
aV.
aa(lp9179
Vmy
p9180
aVgirlfriend
p9181
aVhelps
p9182
aV,
aVthough
p9183
aV.
aa(lp9184
Vand
p9185
aVfriends
p9186
aVlike
p9187
aVaugustus
p9188
aV.
aV''
p9189
aa(lp9190
Vhe
p9191
aVnodded
p9192
aVtoward
p9193
aVthe
p9194
aVboy
p9195
aV,
aVwho
p9196
aVnow
p9197
aVhad
p9198
aVa
aVname
p9199
aV.
aa(lp9200
V``
p9201
aVso
p9202
aV,
aVyeah
p9203
aV,
aV''
p9204
aVisaac
p9205
aVcontinued
p9206
aV.
aa(lp9207
Vhe
p9208
aVwas
p9209
aVlooking
p9210
aVat
p9211
aVhis
p9212
aVhands
p9213
aV,
aVwhich
p9214
aVhe
p9215
aV'd
p9216
aVfolded
p9217
aVinto
p9218
aVeach
p9219
aVother
p9220
aVlike
p9221
aVthe
p9222
aVtop
p9223
aVof
p9224
aVa
aVtepee
p9225
aV.
aa(lp9226
V``
p9227
aVthere
p9228
aV's
p9229
aVnothing
p9230
aVyou
p9231
aVcan
p9232
aVdo
p9233
aVabout
p9234
aVit
p9235
aV.
aV''
p9236
aa(lp9237
V``
p9238
aVwe
p9239
aV're
p9240
aVhere
p9241
aVfor
p9242
aVyou
p9243
aV,
aVisaac
p9244
aV,
aV''
p9245
aVpatrick
p9246
aVsaid
p9247
aV.
aa(lp9248
V``
p9249
aVlet
p9250
aVisaac
p9251
aVhear
p9252
aVit
p9253
aV,
aVguys
p9254
aV.
aV''
p9255
aa(lp9256
Vand
p9257
aVthen
p9258
aVwe
p9259
aVall
p9260
aV,
aVin
p9261
aVa
aVmonotone
p9262
aV,
aVsaid
p9263
aV,
aV``
p9264
aVwe
p9265
aV're
p9266
aVhere
p9267
aVfor
p9268
aVyou
p9269
aV,
aVisaac
p9270
aV.
aV''
p9271
aa(lp9272
Vmichael
p9273
aVwas
p9274
aVnext
p9275
aV.
aa(lp9276
Vhe
p9277
aVwas
p9278
aVtwelve
p9279
aV.
aa(lp9280
Vhe
p9281
aVhad
p9282
aVleukemia
p9283
aV.
aa(lp9284
V10
p9285
aVthe
p9286
aVfault
p9287
aVin
p9288
aVour
p9289
aVstars
p9290
aVhe
p9291
aV'd
p9292
aValways
p9293
aVhad
p9294
aVleukemia
p9295
aV.
aa(lp9296
Vhe
p9297
aVwas
p9298
aVokay
p9299
aV.
aa(lp9300
V(
aVor
p9301
aVso
p9302
aVhe
p9303
aVsaid
p9304
aV.
aa(lp9305
Vhe'd
p9306
aVtaken
p9307
aVthe
p9308
aVelevator
p9309
aV.
aV)
aa(lp9310
Vlida
p9311
aVwas
p9312
aVsixteen
p9313
aV,
aVand
p9314
aVpretty
p9315
aVenough
p9316
aVto
p9317
aVbe
p9318
aVthe
p9319
aVobject
p9320
aVof
p9321
aVthe
p9322
aVhot
p9323
aVboy
p9324
aV's
p9325
aVeye
p9326
aV.
aa(lp9327
Vshe
p9328
aVwas
p9329
aVa
aVregular\u2014
p9330
aVin
p9331
aVa
aVlong
p9332
aVremission
p9333
aVfrom
p9334
aVappendiceal
p9335
aVcancer
p9336
aV,
aVwhich
p9337
aVi
aVhad
p9338
aVnot
p9339
aVpreviously
p9340
aVknown
p9341
aVexisted
p9342
aV.
aa(lp9343
Vshe
p9344
aVsaid\u2014
p9345
aVas
p9346
aVshe
p9347
aVhad
p9348
aVevery
p9349
aVother
p9350
aVtime
p9351
aVi
aV'd
p9352
aVattended
p9353
aVsupport
p9354
aVgroup\u2014
p9355
aVthat
p9356
aVshe
p9357
aVfelt
p9358
aVstrong
p9359
aV,
aVwhich
p9360
aVfelt
p9361
aVlike
p9362
aVbragging
p9363
aVto
p9364
aVme
p9365
aVas
p9366
aVthe
p9367
aVoxygen-drizzling
p9368
aVnubs
p9369
aVtickled
p9370
aVmy
p9371
aVnostrils
p9372
aV.
aa(lp9373
Vthere
p9374
aVwere
p9375
aVfive
p9376
aVothers
p9377
aVbefore
p9378
aVthey
p9379
aVgot
p9380
aVto
p9381
aVhim
p9382
aV.
aa(lp9383
Vhe
p9384
aVsmiled
p9385
aVa
aVlittle
p9386
aVwhen
p9387
aVhis
p9388
aVturn
p9389
aVcame
p9390
aV.
aa(lp9391
Vhis
p9392
aVvoice
p9393
aVwas
p9394
aVlow
p9395
aV,
aVsmoky
p9396
aV,
aVand
p9397
aVdead
p9398
aVsexy
p9399
aV.
aa(lp9400
V``
p9401
aVmy
p9402
aVname
p9403
aVis
p9404
aVaugustus
p9405
aVwaters
p9406
aV,
aV''
p9407
aVhe
p9408
aVsaid
p9409
aV.
aa(lp9410
V``
p9411
aVi'm
p9412
aVseventeen
p9413
aV.
aa(lp9414
Vi
aVhad
p9415
aVa
aVlittle
p9416
aVtouch
p9417
aVof
p9418
aVosteosarcoma
p9419
aVa
aVyear
p9420
aVand
p9421
aVa
aVhalf
p9422
aVago
p9423
aV,
aVbut
p9424
aVi
aV'm
p9425
aVjust
p9426
aVhere
p9427
aVtoday
p9428
aVat
p9429
aVisaac
p9430
aV's
p9431
aVrequest
p9432
aV.
aV''
p9433
aa(lp9434
V``
p9435
aVand
p9436
aVhow
p9437
aVare
p9438
aVyou
p9439
aVfeeling
p9440
aV?
aV''
p9441
aa(lp9442
Vasked
p9443
aVpatrick
p9444
aV.
aa(lp9445
V``
p9446
aVoh
p9447
aV,
aVi
aV'm
p9448
aVgrand
p9449
aV.
aV''
p9450
aa(lp9451
Vaugustus
p9452
aVwaters
p9453
aVsmiled
p9454
aVwith
p9455
aVa
aVcorner
p9456
aVof
p9457
aVhis
p9458
aVmouth
p9459
aV.
aa(lp9460
V``
p9461
aVi
aV'm
p9462
aVon
p9463
aVa
aVroller
p9464
aVcoaster
p9465
aVthat
p9466
aVonly
p9467
aVgoes
p9468
aVup
p9469
aV,
aVmy
p9470
aVfriend
p9471
aV.
aV''
p9472
aa(lp9473
Vwhen
p9474
aVit
p9475
aVwas
p9476
aVmy
p9477
aVturn
p9478
aV,
aVi
aVsaid
p9479
aV,
aV``
p9480
aVmy
p9481
aVname
p9482
aVis
p9483
aVhazel
p9484
aV.
aa(lp9485
Vi'm
p9486
aVsixteen
p9487
aV.
aa(lp9488
Vthyroid
p9489
aVwith
p9490
aVmets
p9491
aVin
p9492
aVmy
p9493
aVlungs
p9494
aV.
aa(lp9495
Vi
aV'm
p9496
aVokay
p9497
aV.
aV''
p9498
aa(lp9499
Vthe
p9500
aVhour
p9501
aVproceeded
p9502
aVapace
p9503
aV:
aVfights
p9504
aVwere
p9505
aVrecounted
p9506
aV,
aVbattles
p9507
aVwon
p9508
aVamid
p9509
aVwars
p9510
aVsure
p9511
aVto
p9512
aVbe
p9513
aVlost
p9514
aV;
aVhope
p9515
aVwas
p9516
aVclung
p9517
aVto
p9518
aV;
aVfamilies
p9519
aVwere
p9520
aVboth
p9521
aVcelebrated
p9522
aVand
p9523
aVdenounced
p9524
aV;
aVit
p9525
aVwas
p9526
aVagreed
p9527
aVthat
p9528
aVfriends
p9529
aVjust
p9530
aVdid
p9531
aVn't
p9532
aVget
p9533
aVit
p9534
aV;
aVtears
p9535
aVwere
p9536
aVshed
p9537
aV;
aVcomfort
p9538
aVproffered
p9539
aV.
aa(lp9540
Vneither
p9541
aVaugustus
p9542
aVwaters
p9543
aVnor
p9544
aVi
aVspoke
p9545
aVagain
p9546
aVuntil
p9547
aVpatrick
p9548
aVsaid
p9549
aV,
aV``
p9550
aVaugustus
p9551
aV,
aVperhaps
p9552
aVyou
p9553
aV'd
p9554
aVlike
p9555
aVto
p9556
aVshare
p9557
aVyour
p9558
aVfears
p9559
aVwith
p9560
aVthe
p9561
aVgroup
p9562
aV.
aV''
p9563
aa(lp9564
V11
p9565
aVjohn
p9566
aVgreen
p9567
aV''
p9568
aVmy
p9569
aVfears
p9570
aV?
aV''
p9571
aa(lp9572
V``
p9573
aVyes
p9574
aV.
aV''
p9575
aa(lp9576
V``
p9577
aVi
aVfear
p9578
aVoblivion
p9579
aV,
aV''
p9580
aVhe
p9581
aVsaid
p9582
aVwithout
p9583
aVa
aVmoment
p9584
aV's
p9585
aVpause
p9586
aV.
aa(lp9587
V``
p9588
aVi
aVfear
p9589
aVit
p9590
aVlike
p9591
aVthe
p9592
aVproverbial
p9593
aVblind
p9594
aVman
p9595
aVwho
p9596
aV's
p9597
aVafraid
p9598
aVof
p9599
aVthe
p9600
aVdark
p9601
aV.
aV''
p9602
aa(lp9603
V``
p9604
aVtoo
p9605
aVsoon
p9606
aV,
aV''
p9607
aVisaac
p9608
aVsaid
p9609
aV,
aVcracking
p9610
aVa
aVsmile
p9611
aV.
aa(lp9612
V``
p9613
aVwas
p9614
aVthat
p9615
aVinsensitive
p9616
aV?
aV''
p9617
aa(lp9618
Vaugustus
p9619
aVasked
p9620
aV.
aa(lp9621
V``
p9622
aVi
aVcan
p9623
aVbe
p9624
aVpretty
p9625
aVblind
p9626
aVto
p9627
aVother
p9628
aVpeople
p9629
aV's
p9630
aVfeelings
p9631
aV.
aV''
p9632
aa(lp9633
Visaac
p9634
aVwas
p9635
aVlaughing
p9636
aV,
aVbut
p9637
aVpatrick
p9638
aVraised
p9639
aVa
aVchastening
p9640
aVfinger
p9641
aVand
p9642
aVsaid
p9643
aV,
aV``
p9644
aVaugustus
p9645
aV,
aVplease
p9646
aV.
aa(lp9647
Vlet
p9648
aV's
p9649
aVreturn
p9650
aVto
p9651
aVyou
p9652
aVand
p9653
aVyour
p9654
aVstruggles
p9655
aV.
aa(lp9656
Vyou
p9657
aVsaid
p9658
aVyou
p9659
aVfear
p9660
aVoblivion
p9661
aV?
aV''
p9662
aa(lp9663
V``
p9664
aVi
aVdid
p9665
aV,
aV''
p9666
aVaugustus
p9667
aVanswered
p9668
aV.
aa(lp9669
Vpatrick
p9670
aVseemed
p9671
aVlost
p9672
aV.
aa(lp9673
V``
p9674
aVwould
p9675
aV,
aVuh
p9676
aV,
aVwould
p9677
aVanyone
p9678
aVlike
p9679
aVto
p9680
aVspeak
p9681
aVto
p9682
aVthat
p9683
aV?
aV''
p9684
aa(lp9685
Vi
aVhad
p9686
aVn't
p9687
aVbeen
p9688
aVin
p9689
aVproper
p9690
aVschool
p9691
aVin
p9692
aVthree
p9693
aVyears
p9694
aV.
aa(lp9695
Vmy
p9696
aVparents
p9697
aVwere
p9698
aVmy
p9699
aVtwo
p9700
aVbest
p9701
aVfriends
p9702
aV.
aa(lp9703
Vmy
p9704
aVthird
p9705
aVbest
p9706
aVfriend
p9707
aVwas
p9708
aVan
p9709
aVauthor
p9710
aVwho
p9711
aVdid
p9712
aVnot
p9713
aVknow
p9714
aVi
aVexisted
p9715
aV.
aa(lp9716
Vi
aVwas
p9717
aVa
aVfairly
p9718
aVshy
p9719
aVperson\u2014
p9720
aVnot
p9721
aVthe
p9722
aVhand-raising
p9723
aVtype
p9724
aV.
aa(lp9725
Vand
p9726
aVyet
p9727
aV,
aVjust
p9728
aVthis
p9729
aVonce
p9730
aV,
aVi
aVdecided
p9731
aVto
p9732
aVspeak
p9733
aV.
aa(lp9734
Vi
aVhalf
p9735
aVraised
p9736
aVmy
p9737
aVhand
p9738
aVand
p9739
aVpatrick
p9740
aV,
aVhis
p9741
aVdelight
p9742
aVevident
p9743
aV,
aVimmediately
p9744
aVsaid
p9745
aV,
aV''
p9746
aVhazel
p9747
aV!
aV''
p9748
aa(lp9749
Vi
aVwas
p9750
aV,
aVi
aV'm
p9751
aVsure
p9752
aVhe
p9753
aVassumed
p9754
aV,
aVopening
p9755
aVup
p9756
aV.
aa(lp9757
Vbecoming
p9758
aVpart
p9759
aVof
p9760
aVthe
p9761
aVgroup
p9762
aV.
aa(lp9763
Vi
aVlooked
p9764
aVover
p9765
aVat
p9766
aVaugustus
p9767
aVwaters
p9768
aV,
aVwho
p9769
aVlooked
p9770
aVback
p9771
aVat
p9772
aVme
p9773
aV.
aa(lp9774
Vyou
p9775
aVcould
p9776
aValmost
p9777
aVsee
p9778
aVthrough
p9779
aVhis
p9780
aVeyes
p9781
aVthey
p9782
aVwere
p9783
aVso
p9784
aVblue
p9785
aV.
aa(lp9786
V``
p9787
aVthere
p9788
aVwill
p9789
aVcome
p9790
aVa
aVtime
p9791
aV,
aV''
p9792
aVi
aVsaid
p9793
aV,
aV``
p9794
aVwhen
p9795
aVall
p9796
aVof
p9797
aVus
p9798
aVare
p9799
aVdead
p9800
aV.
aa(lp9801
Vall
p9802
aVof
p9803
aVus
p9804
aV.
aa(lp9805
Vthere
p9806
aVwill
p9807
aVcome
p9808
aVa
aVtime
p9809
aVwhen
p9810
aVthere
p9811
aVare
p9812
aV12
p9813
aVthe
p9814
aVfault
p9815
aVin
p9816
aVour
p9817
aVstars
p9818
aVno
p9819
aVhuman
p9820
aVbeings
p9821
aVremaining
p9822
aVto
p9823
aVremember
p9824
aVthat
p9825
aVanyone
p9826
aVever
p9827
aVexisted
p9828
aVor
p9829
aVthat
p9830
aVour
p9831
aVspecies
p9832
aVever
p9833
aVdid
p9834
aVanything
p9835
aV.
aa(lp9836
Vthere
p9837
aVwill
p9838
aVbe
p9839
aVno
p9840
aVone
p9841
aVleft
p9842
aVto
p9843
aVremember
p9844
aVaristotle
p9845
aVor
p9846
aVcleopatra
p9847
aV,
aVlet
p9848
aValone
p9849
aVyou
p9850
aV.
aa(lp9851
Veverything
p9852
aVthat
p9853
aVwe
p9854
aVdid
p9855
aVand
p9856
aVbuilt
p9857
aVand
p9858
aVwrote
p9859
aVand
p9860
aVthought
p9861
aVand
p9862
aVdiscovered
p9863
aVwill
p9864
aVbe
p9865
aVforgotten
p9866
aVand
p9867
aVall
p9868
aVof
p9869
aVthis
p9870
aV''
p9871
aV\u2014
aVi
aVgestured
p9872
aVencompassingly\u2014
p9873
aV``
p9874
aVwill
p9875
aVhave
p9876
aVbeen
p9877
aVfor
p9878
aVnaught
p9879
aV.
aa(lp9880
Vmaybe
p9881
aVthat
p9882
aVtime
p9883
aVis
p9884
aVcoming
p9885
aVsoon
p9886
aVand
p9887
aVmaybe
p9888
aVit
p9889
aVis
p9890
aVmillions
p9891
aVof
p9892
aVyears
p9893
aVaway
p9894
aV,
aVbut
p9895
aVeven
p9896
aVif
p9897
aVwe
p9898
aVsurvive
p9899
aVthe
p9900
aVcollapse
p9901
aVof
p9902
aVour
p9903
aVsun
p9904
aV,
aVwe
p9905
aVwill
p9906
aVnot
p9907
aVsurvive
p9908
aVforever
p9909
aV.
aa(lp9910
Vthere
p9911
aVwas
p9912
aVtime
p9913
aVbefore
p9914
aVorganisms
p9915
aVexperienced
p9916
aVconsciousness
p9917
aV,
aVand
p9918
aVthere
p9919
aVwill
p9920
aVbe
p9921
aVtime
p9922
aVafter
p9923
aV.
aa(lp9924
Vand
p9925
aVif
p9926
aVthe
p9927
aVinevitability
p9928
aVof
p9929
aVhuman
p9930
aVoblivion
p9931
aVworries
p9932
aVyou
p9933
aV,
aVi
aVencourage
p9934
aVyou
p9935
aVto
p9936
aVignore
p9937
aVit
p9938
aV.
aa(lp9939
Vgod
p9940
aVknows
p9941
aVthat
p9942
aV's
p9943
aVwhat
p9944
aVeveryone
p9945
aVelse
p9946
aVdoes
p9947
aV.
aV''
p9948
aa(lp9949
Vi
aV'd
p9950
aVlearned
p9951
aVthis
p9952
aVfrom
p9953
aVmy
p9954
aVaforementioned
p9955
aVthird
p9956
aVbest
p9957
aVfriend
p9958
aV,
aVpeter
p9959
aVvan
p9960
aVhouten
p9961
aV,
aVthe
p9962
aVreclusive
p9963
aVauthor
p9964
aVof
p9965
aVan
p9966
aVimperial
p9967
aVaffliction
p9968
aV,
aVthe
p9969
aVbook
p9970
aVthat
p9971
aVwas
p9972
aVas
p9973
aVclose
p9974
aVa
aVthing
p9975
aVas
p9976
aVi
aVhad
p9977
aVto
p9978
aVa
aVbible
p9979
aV.
aa(lp9980
Vpeter
p9981
aVvan
p9982
aVhouten
p9983
aVwas
p9984
aVthe
p9985
aVonly
p9986
aVperson
p9987
aVi
aV'd
p9988
aVever
p9989
aVcome
p9990
aVacross
p9991
aVwho
p9992
aVseemed
p9993
aVto
p9994
aV(
aVa
aV)
aVunderstand
p9995
aVwhat
p9996
aVit
p9997
aV's
p9998
aVlike
p9999
aVto
p10000
aVbe
p10001
aVdying
p10002
aV,
aVand
p10003
aV(
aVb
aV)
aVnot
p10004
aVhave
p10005
aVdied
p10006
aV.
aa(lp10007
Vafter
p10008
aVi
aVfinished
p10009
aV,
aVthere
p10010
aVwas
p10011
aVquite
p10012
aVa
aVlong
p10013
aVperiod
p10014
aVof
p10015
aVsilence
p10016
aVas
p10017
aVi
aVwatched
p10018
aVa
aVsmile
p10019
aVspread
p10020
aVall
p10021
aVthe
p10022
aVway
p10023
aVacross
p10024
aVaugustus's
p10025
aVface\u2014
p10026
aVnot
p10027
aVthe
p10028
aVlittle
p10029
aVcrooked
p10030
aVsmile
p10031
aVof
p10032
aVthe
p10033
aVboy
p10034
aVtrying
p10035
aVto
p10036
aVbe
p10037
aVsexy
p10038
aVwhile
p10039
aVhe
p10040
aVstared
p10041
aVat
p10042
aVme
p10043
aV,
aVbut
p10044
aVhis
p10045
aVreal
p10046
aVsmile
p10047
aV,
aVtoo
p10048
aVbig
p10049
aVfor
p10050
aVhis
p10051
aVface
p10052
aV.
aa(lp10053
V``
p10054
aVgoddamn
p10055
aV,
aV''
p10056
aVaugustus
p10057
aVsaid
p10058
aVquietly
p10059
aV.
aa(lp10060
V``
p10061
aVare
p10062
aVn't
p10063
aVyou
p10064
aVsomething
p10065
aVelse
p10066
aV.
aV''
p10067
aa(lp10068
Vneither
p10069
aVof
p10070
aVus
p10071
aVsaid
p10072
aVanything
p10073
aVfor
p10074
aVthe
p10075
aVrest
p10076
aVof
p10077
aVsupport
p10078
aV13
p10079
aVjohn
p10080
aVgreen
p10081
aVgroup
p10082
aV.
aa(lp10083
Vat
p10084
aVthe
p10085
aVend
p10086
aV,
aVwe
p10087
aVall
p10088
aVhad
p10089
aVto
p10090
aVhold
p10091
aVhands
p10092
aV,
aVand
p10093
aVpatrick
p10094
aVled
p10095
aVus
p10096
aVin
p10097
aVa
aVprayer
p10098
aV.
aa(lp10099
V``
p10100
aVlord
p10101
aVjesus
p10102
aVchrist
p10103
aV,
aVwe
p10104
aVare
p10105
aVgathered
p10106
aVhere
p10107
aVin
p10108
aVyour
p10109
aVheart
p10110
aV,
aVliterally
p10111
aVin
p10112
aVyour
p10113
aVheart
p10114
aV,
aVas
p10115
aVcancer
p10116
aVsurvivors
p10117
aV.
aa(lp10118
Vyou
p10119
aVand
p10120
aVyou
p10121
aValone
p10122
aVknow
p10123
aVus
p10124
aVas
p10125
aVwe
p10126
aVknow
p10127
aVourselves
p10128
aV.
aa(lp10129
Vguide
p10130
aVus
p10131
aVto
p10132
aVlife
p10133
aVand
p10134
aVthe
p10135
aVlight
p10136
aVthrough
p10137
aVour
p10138
aVtimes
p10139
aVof
p10140
aVtrial
p10141
aV.
aa(lp10142
Vwe
p10143
aVpray
p10144
aVfor
p10145
aVisaac's
p10146
aVeyes
p10147
aV,
aVfor
p10148
aVmichael
p10149
aV's
p10150
aVand
p10151
aVjamie
p10152
aV's
p10153
aVblood
p10154
aV,
aVfor
p10155
aVaugustus
p10156
aV's
p10157
aVbones
p10158
aV,
aVfor
p10159
aVhazel
p10160
aV's
p10161
aVlungs
p10162
aV,
aVfor
p10163
aVjames
p10164
aV's
p10165
aVthroat
p10166
aV.
aa(lp10167
Vwe
p10168
aVpray
p10169
aVthat
p10170
aVyou
p10171
aVmight
p10172
aVheal
p10173
aVus
p10174
aVand
p10175
aVthat
p10176
aVwe
p10177
aVmight
p10178
aVfeel
p10179
aVyour
p10180
aVlove
p10181
aV,
aVand
p10182
aVyour
p10183
aVpeace
p10184
aV,
aVwhich
p10185
aVpasses
p10186
aVall
p10187
aVunderstanding
p10188
aV.
aa(lp10189
Vand
p10190
aVwe
p10191
aVremember
p10192
aVin
p10193
aVour
p10194
aVhearts
p10195
aVthose
p10196
aVwhom
p10197
aVwe
p10198
aVknew
p10199
aVand
p10200
aVloved
p10201
aVwho
p10202
aVhave
p10203
aVgone
p10204
aVhome
p10205
aVto
p10206
aVyou
p10207
aV:
aVmaria
p10208
aVand
p10209
aVkade
p10210
aVand
p10211
aVjoseph
p10212
aVand
p10213
aVhaley
p10214
aVand
p10215
aVabigail
p10216
aVand
p10217
aVangelina
p10218
aVand
p10219
aVtaylor
p10220
aVand
p10221
aVgabriel
p10222
aVand
p10223
aV.
aa(lp10224
V.
aa(lp10225
V.
aV''
p10226
aa(lp10227
Vit
p10228
aVwas
p10229
aVa
aVlong
p10230
aVlist
p10231
aV.
aa(lp10232
Vthe
p10233
aVworld
p10234
aVcontains
p10235
aVa
aVlot
p10236
aVof
p10237
aVdead
p10238
aVpeople
p10239
aV.
aa(lp10240
Vand
p10241
aVwhile
p10242
aVpatrick
p10243
aVdroned
p10244
aVon
p10245
aV,
aVreading
p10246
aVthe
p10247
aVlist
p10248
aVfrom
p10249
aVa
aVsheet
p10250
aVof
p10251
aVpaper
p10252
aVbecause
p10253
aVit
p10254
aVwas
p10255
aVtoo
p10256
aVlong
p10257
aVto
p10258
aVmemorize
p10259
aV,
aVi
aVkept
p10260
aVmy
p10261
aVeyes
p10262
aVclosed
p10263
aV,
aVtrying
p10264
aVto
p10265
aVthink
p10266
aVprayerfully
p10267
aVbut
p10268
aVmostly
p10269
aVimagining
p10270
aVthe
p10271
aVday
p10272
aVwhen
p10273
aVmy
p10274
aVname
p10275
aVwould
p10276
aVfind
p10277
aVits
p10278
aVway
p10279
aVonto
p10280
aVthat
p10281
aVlist
p10282
aV,
aVall
p10283
aVthe
p10284
aVway
p10285
aVat
p10286
aVthe
p10287
aVend
p10288
aVwhen
p10289
aVeveryone
p10290
aVhad
p10291
aVstopped
p10292
aVlistening
p10293
aV.
aa(lp10294
Vwhen
p10295
aVpatrick
p10296
aVwas
p10297
aVfinished
p10298
aV,
aVwe
p10299
aVsaid
p10300
aVthis
p10301
aVstupid
p10302
aVmantra
p10303
aVtogether-living
p10304
aVour
p10305
aVbest
p10306
aVlife
p10307
aVtoday-and
p10308
aVit
p10309
aVwas
p10310
aVover
p10311
aV.
aa(lp10312
Vaugustus
p10313
aVwaters
p10314
aVpushed
p10315
aVhimself
p10316
aVout
p10317
aVof
p10318
aVhis
p10319
aVchair
p10320
aVand
p10321
aVwalked
p10322
aVover
p10323
aVto
p10324
aVme
p10325
aV.
aa(lp10326
Vhis
p10327
aVgait
p10328
aVwas
p10329
aVcrooked
p10330
aVlike
p10331
aVhis
p10332
aVsmile
p10333
aV.
aa(lp10334
Vhe
p10335
aVtowered
p10336
aVover
p10337
aVme
p10338
aV,
aVbut
p10339
aVhe
p10340
aVkept
p10341
aVhis
p10342
aVdistance
p10343
aVso
p10344
aVi
aVwouldn't
p10345
aVhave
p10346
aVto
p10347
aVcrane
p10348
aVmy
p10349
aVneck
p10350
aVto
p10351
aVlook
p10352
aVhim
p10353
aVin
p10354
aVthe
p10355
aVeye
p10356
aV.
aa(lp10357
V``
p10358
aVwhat
p10359
aV's
p10360
aVyour
p10361
aVname
p10362
aV?
aV''
p10363
aa(lp10364
Vhe
p10365
aVasked
p10366
aV.
aa(lp10367
V``
p10368
aVhazel
p10369
aV.
aV''
p10370
aa(lp10371
V14
p10372
aVthe
p10373
aVfault
p10374
aVin
p10375
aVour
p10376
aVstars
p10377
aV''
p10378
aVno
p10379
aV,
aVyour
p10380
aVfull
p10381
aVname
p10382
aV.
aV''
p10383
aa(lp10384
V``
p10385
aVum
p10386
aV,
aVhazel
p10387
aVgrace
p10388
aVlancaster
p10389
aV.
aV''
p10390
aa(lp10391
Vhe
p10392
aVwas
p10393
aVjust
p10394
aVabout
p10395
aVto
p10396
aVsay
p10397
aVsomething
p10398
aVelse
p10399
aVwhen
p10400
aVisaac
p10401
aVwalked
p10402
aVup
p10403
aV.
aa(lp10404
V``
p10405
aVhold
p10406
aVon
p10407
aV,
aV''
p10408
aVaugustus
p10409
aVsaid
p10410
aV,
aVraising
p10411
aVa
aVfinger
p10412
aV,
aVand
p10413
aVturned
p10414
aVto
p10415
aVisaac
p10416
aV.
aa(lp10417
V``
p10418
aVthat
p10419
aVwas
p10420
aVactually
p10421
aVworse
p10422
aVthan
p10423
aVyou
p10424
aVmade
p10425
aVit
p10426
aVout
p10427
aVto
p10428
aVbe
p10429
aV.
aV''
p10430
aa(lp10431
V``
p10432
aVi
aVtold
p10433
aVyou
p10434
aVit
p10435
aVwas
p10436
aVbleak
p10437
aV.
aV''
p10438
aa(lp10439
V``
p10440
aVwhy
p10441
aVdo
p10442
aVyou
p10443
aVbother
p10444
aVwith
p10445
aVit
p10446
aV?
aV''
p10447
aa(lp10448
V``
p10449
aVi
aVdo
p10450
aVn't
p10451
aVknow
p10452
aV.
aa(lp10453
Vit
p10454
aVkind
p10455
aVof
p10456
aVhelps
p10457
aV?
aV''
p10458
aa(lp10459
Vaugustus
p10460
aVleaned
p10461
aVin
p10462
aVso
p10463
aVhe
p10464
aVthought
p10465
aVi
aVcould
p10466
aVn't
p10467
aVhear
p10468
aV.
aa(lp10469
V``
p10470
aVshe
p10471
aV's
p10472
aVa
aVregular
p10473
aV?
aV''
p10474
aa(lp10475
Vi
aVcould
p10476
aVn't
p10477
aVhear
p10478
aVisaac
p10479
aV's
p10480
aVcomment
p10481
aV,
aVbut
p10482
aVaugustus
p10483
aVresponded
p10484
aV,
aV``
p10485
aVi
aV'll
p10486
aVsay
p10487
aV.
aV''
p10488
aa(lp10489
Vhe
p10490
aVclasped
p10491
aVisaac
p10492
aVby
p10493
aVboth
p10494
aVshoulders
p10495
aVand
p10496
aVthen
p10497
aVtook
p10498
aVa
aVhalf
p10499
aVstep
p10500
aVaway
p10501
aVfrom
p10502
aVhim
p10503
aV.
aa(lp10504
V``
p10505
aVtell
p10506
aVhazel
p10507
aVabout
p10508
aVclinic
p10509
aV.
aV''
p10510
aa(lp10511
Visaac
p10512
aVleaned
p10513
aVa
aVhand
p10514
aVagainst
p10515
aVthe
p10516
aVsnack
p10517
aVtable
p10518
aVand
p10519
aVfocused
p10520
aVhis
p10521
aVhuge
p10522
aVeye
p10523
aVon
p10524
aVme
p10525
aV.
aa(lp10526
V``
p10527
aVokay
p10528
aV,
aVso
p10529
aVi
aVwent
p10530
aVinto
p10531
aVclinic
p10532
aVthis
p10533
aVmorning
p10534
aV,
aVand
p10535
aVi
aVwas
p10536
aVtelling
p10537
aVmy
p10538
aVsurgeon
p10539
aVthat
p10540
aVi
aV'd
p10541
aVrather
p10542
aVbe
p10543
aVdeaf
p10544
aVthan
p10545
aVblind
p10546
aV.
aa(lp10547
Vand
p10548
aVhe
p10549
aVsaid
p10550
aV,
aV'it
p10551
aVdoes
p10552
aVn't
p10553
aVwork
p10554
aVthat
p10555
aVway
p10556
aV,
aV'
aVand
p10557
aVi
aVwas
p10558
aV,
aVlike
p10559
aV,
aV'yeah
p10560
aV,
aVi
aVrealize
p10561
aVit
p10562
aVdoes
p10563
aVn't
p10564
aVwork
p10565
aVthat
p10566
aVway
p10567
aV;
aVi'm
p10568
aVjust
p10569
aVsaying
p10570
aVi
aV'd
p10571
aVrather
p10572
aVbe
p10573
aVdeaf
p10574
aVthan
p10575
aVblind
p10576
aVif
p10577
aVi
aVhad
p10578
aVthe
p10579
aVchoice
p10580
aV,
aVwhich
p10581
aVi
aVrealize
p10582
aVi
aVdo
p10583
aVn't
p10584
aVhave
p10585
aV,
aV'
aVand
p10586
aVhe
p10587
aVsaid
p10588
aV,
aV'well
p10589
aV,
aVthe
p10590
aVgood
p10591
aVnews
p10592
aVis
p10593
aVthat
p10594
aVyou
p10595
aVwo
p10596
aVn't
p10597
aVbe
p10598
aVdeaf
p10599
aV,
aV'
aVand
p10600
aVi
aVwas
p10601
aVlike
p10602
aV,
aV'thank
p10603
aVyou
p10604
aVfor
p10605
aVexplaining
p10606
aVthat
p10607
aVmy
p10608
aVeye
p10609
aVcancer
p10610
aVis
p10611
aVn't
p10612
aVgoing
p10613
aVto
p10614
aVmake
p10615
aVme
p10616
aVdeaf
p10617
aV.
aa(lp10618
Vi
aVfeel
p10619
aVso
p10620
aVfortunate
p10621
aVthat
p10622
aVan
p10623
aVintellectual
p10624
aVgiant
p10625
aVlike
p10626
aVyourself
p10627
aVwould
p10628
aVdeign
p10629
aVto
p10630
aVoperate
p10631
aVon
p10632
aVme
p10633
aV.
aV'
aV''
p10634
aa(lp10635
V``
p10636
aVhe
p10637
aVsounds
p10638
aVlike
p10639
aVa
aVwinner
p10640
aV,
aV''
p10641
aVi
aVsaid
p10642
aV.
aa(lp10643
V``
p10644
aVi
aV'm
p10645
aVgon
p10646
aVna
p10647
aVtry
p10648
aVto
p10649
aVget
p10650
aVme
p10651
aVsome
p10652
aVeye
p10653
aVcancer
p10654
aVjust
p10655
aVso
p10656
aVi
aVcan
p10657
aVmake
p10658
aVthis
p10659
aVguy
p10660
aV's
p10661
aVacquain-
p10662
aVtance
p10663
aV.
aV''
p10664
aa(lp10665
V15
p10666
aVjohn
p10667
aVgreen
p10668
aV''
p10669
aVgood
p10670
aVluck
p10671
aVwith
p10672
aVthat
p10673
aV.
aa(lp10674
Vall
p10675
aVright
p10676
aV,
aVi
aVshould
p10677
aVgo
p10678
aV.
aa(lp10679
Vmonica's
p10680
aVwaiting
p10681
aVfor
p10682
aVme
p10683
aV.
aa(lp10684
Vi
aVgot
p10685
aVta
p10686
aVlook
p10687
aVat
p10688
aVher
p10689
aVa
aVlot
p10690
aVwhile
p10691
aVi
aVcan
p10692
aV.
aV''
p10693
aa(lp10694
V``
p10695
aVcounterinsurgence
p10696
aVtomorrow
p10697
aV?
aV''
p10698
aa(lp10699
Vaugustus
p10700
aVasked
p10701
aV.
aa(lp10702
V``
p10703
aVdefinitely
p10704
aV.
aV''
p10705
aa(lp10706
Visaac
p10707
aVturned
p10708
aVand
p10709
aVran
p10710
aVup
p10711
aVthe
p10712
aVstairs
p10713
aV,
aVtaking
p10714
aVthem
p10715
aVtwo
p10716
aVat
p10717
aVa
aVtime
p10718
aV.
aa(lp10719
Vaugustus
p10720
aVwaters
p10721
aVturned
p10722
aVto
p10723
aVme
p10724
aV.
aa(lp10725
V``
p10726
aVliterally
p10727
aV,
aV''
p10728
aVhe
p10729
aVsaid
p10730
aV.
aa(lp10731
V``
p10732
aVliterally
p10733
aV?
aV''
p10734
aa(lp10735
Vi
aVasked
p10736
aV.
aa(lp10737
V``
p10738
aVwe
p10739
aVare
p10740
aVliterally
p10741
aVin
p10742
aVthe
p10743
aVheart
p10744
aVof
p10745
aVjesus
p10746
aV,
aV''
p10747
aVhe
p10748
aVsaid
p10749
aV.
aa(lp10750
V``
p10751
aVi
aVthought
p10752
aVwe
p10753
aVwere
p10754
aVin
p10755
aVa
aVchurch
p10756
aVbasement
p10757
aV,
aVbut
p10758
aVwe
p10759
aVare
p10760
aVliterally
p10761
aVin
p10762
aVthe
p10763
aVheart
p10764
aVof
p10765
aVjesus
p10766
aV.
aV''
p10767
aa(lp10768
V``
p10769
aVsomeone
p10770
aVshould
p10771
aVtell
p10772
aVjesus
p10773
aV,
aV''
p10774
aVi
aVsaid
p10775
aV.
aa(lp10776
V``
p10777
aVi
aVmean
p10778
aV,
aVit
p10779
aV's
p10780
aVgot
p10781
aVta
p10782
aVbe
p10783
aVdangerous
p10784
aV,
aVstoring
p10785
aVchildren
p10786
aVwith
p10787
aVcancer
p10788
aVin
p10789
aVyour
p10790
aVheart
p10791
aV.
aV''
p10792
aa(lp10793
V``
p10794
aVi
aVwould
p10795
aVtell
p10796
aVhim
p10797
aVmyself
p10798
aV,
aV''
p10799
aVaugustus
p10800
aVsaid
p10801
aV,
aV``
p10802
aVbut
p10803
aVunfortunately
p10804
aVi
aVam
p10805
aVliterally
p10806
aVstuck
p10807
aVinside
p10808
aVof
p10809
aVhis
p10810
aVheart
p10811
aV,
aVso
p10812
aVhe
p10813
aVwo
p10814
aVn't
p10815
aVbe
p10816
aVable
p10817
aVto
p10818
aVhear
p10819
aVme
p10820
aV.
aV''
p10821
aa(lp10822
Vi
aVlaughed
p10823
aV.
aa(lp10824
Vhe
p10825
aVshook
p10826
aVhis
p10827
aVhead
p10828
aV,
aVjust
p10829
aVlooking
p10830
aVat
p10831
aVme
p10832
aV.
aa(lp10833
V``
p10834
aVwhat
p10835
aV?
aV''
p10836
aa(lp10837
Vi
aVasked
p10838
aV.
aa(lp10839
V``
p10840
aVnothing
p10841
aV,
aV''
p10842
aVhe
p10843
aVsaid
p10844
aV.
aa(lp10845
V``
p10846
aVwhy
p10847
aVare
p10848
aVyou
p10849
aVlooking
p10850
aVat
p10851
aVme
p10852
aVlike
p10853
aVthat
p10854
aV?
aV''
p10855
aa(lp10856
Vaugustus
p10857
aVhalf
p10858
aVsmiled
p10859
aV.
aa(lp10860
V``
p10861
aVbecause
p10862
aVyou
p10863
aV're
p10864
aVbeautiful
p10865
aV.
aa(lp10866
Vi
aVenjoy
p10867
aVlooking
p10868
aVat
p10869
aVbeautiful
p10870
aVpeople
p10871
aV,
aVand
p10872
aVi
aVdecided
p10873
aVa
aVwhile
p10874
aVago
p10875
aVnot
p10876
aVto
p10877
aVdeny
p10878
aVmyself
p10879
aVthe
p10880
aVsimpler
p10881
aVpleasures
p10882
aVof
p10883
aVexistence
p10884
aV.
aV''
p10885
aa(lp10886
Va
aVbrief
p10887
aVawkward
p10888
aVsilence
p10889
aVensued
p10890
aV.
aa(lp10891
Vaugustus
p10892
aVplowed
p10893
aVthrough
p10894
aV:
aV``
p10895
aVi
aVmean
p10896
aV,
aVparticularly
p10897
aVgiven
p10898
aVthat
p10899
aV,
aVas
p10900
aVyou
p10901
aVso
p10902
aVdeliciously
p10903
aVpointed
p10904
aVout
p10905
aV,
aVall
p10906
aVof
p10907
aVthis
p10908
aVwill
p10909
aVend
p10910
aVin
p10911
aVoblivion
p10912
aVand
p10913
aVeverything
p10914
aV.
aV''
p10915
aa(lp10916
Vi
aVkind
p10917
aVof
p10918
aVscoffed
p10919
aVor
p10920
aVsighed
p10921
aVor
p10922
aVexhaled
p10923
aVin
p10924
aVa
aVway
p10925
aVthat
p10926
aVwas
p10927
aVvaguely
p10928
aVcoughy
p10929
aVand
p10930
aVthen
p10931
aVsaid
p10932
aV,
aV``
p10933
aVi
aV'm
p10934
aVnot
p10935
aVbeau\u2014
p10936
aV''
p10937
aV16
p10938
aVthe
p10939
aVfault
p10940
aVin
p10941
aVour
p10942
aVstars
p10943
aV''
p10944
aVyou
p10945
aV're
p10946
aVlike
p10947
aVa
aVmillennial
p10948
aVnatalie
p10949
aVportman
p10950
aV.
aa(lp10951
Vlike
p10952
aVv
aVfor
p10953
aVvendetta
p10954
aVnatalie
p10955
aVportman
p10956
aV.
aV''
p10957
aa(lp10958
V``
p10959
aVnever
p10960
aVseen
p10961
aVit
p10962
aV,
aV''
p10963
aVi
aVsaid
p10964
aV.
aa(lp10965
V``
p10966
aVreally
p10967
aV?
aV''
p10968
aa(lp10969
Vhe
p10970
aVasked
p10971
aV.
aa(lp10972
V``
p10973
aVpixie-haired
p10974
aVgorgeous
p10975
aVgirl
p10976
aVdislikes
p10977
aVauthority
p10978
aVand
p10979
aVca
p10980
aVn't
p10981
aVhelp
p10982
aVbut
p10983
aVfall
p10984
aVfor
p10985
aVa
aVboy
p10986
aVshe
p10987
aVknows
p10988
aVis
p10989
aVtrouble
p10990
aV.
aa(lp10991
Vit
p10992
aV's
p10993
aVyour
p10994
aVautobiography
p10995
aV,
aVso
p10996
aVfar
p10997
aVas
p10998
aVi
aVcan
p10999
aVtell
p11000
aV.
aV''
p11001
aa(lp11002
Vhis
p11003
aVevery
p11004
aVsyllable
p11005
aVflirted
p11006
aV.
aa(lp11007
Vhonestly
p11008
aV,
aVhe
p11009
aVkind
p11010
aVof
p11011
aVturned
p11012
aVme
p11013
aVon
p11014
aV.
aa(lp11015
Vi
aVdid
p11016
aVn't
p11017
aVeven
p11018
aVknow
p11019
aVthat
p11020
aVguys
p11021
aVcould
p11022
aVturn
p11023
aVme
p11024
aVon\u2014
p11025
aVnot
p11026
aV,
aVlike
p11027
aV,
aVin
p11028
aVreal
p11029
aVlife
p11030
aV.
aa(lp11031
Va
aVyounger
p11032
aVgirl
p11033
aVwalked
p11034
aVpast
p11035
aVus
p11036
aV.
aa(lp11037
V``
p11038
aVhow
p11039
aV's
p11040
aVit
p11041
aVgoing
p11042
aV,
aValisa
p11043
aV?
aV''
p11044
aa(lp11045
Vhe
p11046
aVasked
p11047
aV.
aa(lp11048
Vshe
p11049
aVsmiled
p11050
aVand
p11051
aVmumbled
p11052
aV,
aV``
p11053
aVhi
p11054
aV,
aVaugustus
p11055
aV.
aV''
p11056
aa(lp11057
V``
p11058
aVmemorial
p11059
aVpeople
p11060
aV,
aV''
p11061
aVhe
p11062
aVexplained
p11063
aV.
aa(lp11064
Vmemorial
p11065
aVwas
p11066
aVthe
p11067
aVbig
p11068
aVresearch
p11069
aVhospital
p11070
aV.
aa(lp11071
V``
p11072
aVwhere
p11073
aVdo
p11074
aVyou
p11075
aVgo
p11076
aV?
aV''
p11077
aa(lp11078
V``
p11079
aVchildren
p11080
aV's
p11081
aV,
aV''
p11082
aVi
aVsaid
p11083
aV,
aVmy
p11084
aVvoice
p11085
aVsmaller
p11086
aVthan
p11087
aVi
aVexpected
p11088
aVit
p11089
aVto
p11090
aVbe
p11091
aV.
aa(lp11092
Vhe
p11093
aVnodded
p11094
aV.
aa(lp11095
Vthe
p11096
aVconversation
p11097
aVseemed
p11098
aVover
p11099
aV.
aa(lp11100
V``
p11101
aVwell
p11102
aV,
aV''
p11103
aVi
aVsaid
p11104
aV,
aVnodding
p11105
aVvaguely
p11106
aVtoward
p11107
aVthe
p11108
aVsteps
p11109
aVthat
p11110
aVled
p11111
aVus
p11112
aVout
p11113
aVof
p11114
aVthe
p11115
aVliteral
p11116
aVheart
p11117
aVof
p11118
aVjesus
p11119
aV.
aa(lp11120
Vi
aVtilted
p11121
aVmy
p11122
aVcart
p11123
aVonto
p11124
aVits
p11125
aVwheels
p11126
aVand
p11127
aVstarted
p11128
aVwalking
p11129
aV.
aa(lp11130
Vhe
p11131
aVlimped
p11132
aVbeside
p11133
aVme
p11134
aV.
aa(lp11135
V``
p11136
aVso
p11137
aV,
aVsee
p11138
aVyou
p11139
aVnext
p11140
aVtime
p11141
aV,
aVmaybe
p11142
aV?
aV''
p11143
aa(lp11144
Vi
aVasked
p11145
aV.
aa(lp11146
V``
p11147
aVyou
p11148
aVshould
p11149
aVsee
p11150
aVit
p11151
aV,
aV''
p11152
aVhe
p11153
aVsaid
p11154
aV.
aa(lp11155
V``
p11156
aVv
aVfor
p11157
aVvendetta
p11158
aV,
aVi
aVmean
p11159
aV.
aV''
p11160
aa(lp11161
V``
p11162
aVokay
p11163
aV,
aV''
p11164
aVi
aVsaid
p11165
aV.
aa(lp11166
V``
p11167
aVi
aV'll
p11168
aVlook
p11169
aVit
p11170
aVup
p11171
aV.
aV''
p11172
aa(lp11173
V``
p11174
aVno
p11175
aV.
aa(lp11176
Vwith
p11177
aVme
p11178
aV.
aa(lp11179
Vat
p11180
aVmy
p11181
aVhouse
p11182
aV,
aV''
p11183
aVhe
p11184
aVsaid
p11185
aV.
aa(lp11186
V``
p11187
aVnow
p11188
aV.
aV''
p11189
aa(lp11190
Vi
aVstopped
p11191
aVwalking
p11192
aV.
aa(lp11193
V``
p11194
aVi
aVhardly
p11195
aVknow
p11196
aVyou
p11197
aV,
aVaugustus
p11198
aVwaters
p11199
aV.
aa(lp11200
Vyou
p11201
aVcould
p11202
aVbe
p11203
aVan
p11204
aVax
p11205
aVmurderer
p11206
aV.
aV''
p11207
aa(lp11208
Vhe
p11209
aVnodded
p11210
aV.
aa(lp11211
V``
p11212
aVtrue
p11213
aVenough
p11214
aV,
aVhazel
p11215
aVgrace
p11216
aV.
aV''
p11217
aa(lp11218
Vhe
p11219
aVwalked
p11220
aVpast
p11221
aVme
p11222
aV,
aVhis
p11223
aVshoulders
p11224
aVfilling
p11225
aVout
p11226
aVhis
p11227
aVgreen
p11228
aVknit
p11229
aVpolo
p11230
aVshirt
p11231
aV,
aVhis
p11232
aVback
p11233
aVstraight
p11234
aV,
aVhis
p11235
aVsteps
p11236
aVlilting
p11237
aVjust
p11238
aVslightly
p11239
aVto
p11240
aVthe
p11241
aVright
p11242
aVas
p11243
aV17
p11244
aVjohn
p11245
aVgreen
p11246
aVhe
p11247
aVwalked
p11248
aVsteady
p11249
aVand
p11250
aVconfident
p11251
aVon
p11252
aVwhat
p11253
aVi
aVhad
p11254
aVdetermined
p11255
aVwas
p11256
aVa
aVprosthetic
p11257
aVleg
p11258
aV.
aa(lp11259
Vosteosarcoma
p11260
aVsometimes
p11261
aVtakes
p11262
aVa
aVlimb
p11263
aVto
p11264
aVcheck
p11265
aVyou
p11266
aVout
p11267
aV.
aa(lp11268
Vthen
p11269
aV,
aVif
p11270
aVit
p11271
aVlikes
p11272
aVyou
p11273
aV,
aVit
p11274
aVtakes
p11275
aVthe
p11276
aVrest
p11277
aV.
aa(lp11278
Vi
aVfollowed
p11279
aVhim
p11280
aVupstairs
p11281
aV,
aVlosing
p11282
aVground
p11283
aVas
p11284
aVi
aVmade
p11285
aVmy
p11286
aVway
p11287
aVup
p11288
aVslowly
p11289
aV,
aVstairs
p11290
aVnot
p11291
aVbeing
p11292
aVa
aVfield
p11293
aVof
p11294
aVexpertise
p11295
aVfor
p11296
aVmy
p11297
aVlungs
p11298
aV.
aa(lp11299
Vand
p11300
aVthen
p11301
aVwe
p11302
aVwere
p11303
aVout
p11304
aVof
p11305
aVjesus
p11306
aV's
p11307
aVheart
p11308
aVand
p11309
aVin
p11310
aVthe
p11311
aVparking
p11312
aVlot
p11313
aV,
aVthe
p11314
aVspring
p11315
aVair
p11316
aVjust
p11317
aVon
p11318
aVthe
p11319
aVcold
p11320
aVside
p11321
aVof
p11322
aVperfect
p11323
aV,
aVthe
p11324
aVlate-afternoon
p11325
aVlight
p11326
aVheavenly
p11327
aVin
p11328
aVits
p11329
aVhurtfulness
p11330
aV.
aa(lp11331
Vmom
p11332
aVwas
p11333
aVn't
p11334
aVthere
p11335
aVyet
p11336
aV,
aVwhich
p11337
aVwas
p11338
aVunusual
p11339
aV,
aVbecause
p11340
aVmom
p11341
aVwas
p11342
aValmost
p11343
aValways
p11344
aVwaiting
p11345
aVfor
p11346
aVme
p11347
aV.
aa(lp11348
Vi
aVglanced
p11349
aVaround
p11350
aVand
p11351
aVsaw
p11352
aVthat
p11353
aVa
aVtall
p11354
aV,
aVcurvy
p11355
aVbrunette
p11356
aVgirl
p11357
aVhad
p11358
aVisaac
p11359
aVpinned
p11360
aVagainst
p11361
aVthe
p11362
aVstone
p11363
aVwall
p11364
aVof
p11365
aVthe
p11366
aVchurch
p11367
aV,
aVkissing
p11368
aVhim
p11369
aVrather
p11370
aVaggressively
p11371
aV.
aa(lp11372
Vthey
p11373
aVwere
p11374
aVclose
p11375
aVenough
p11376
aVto
p11377
aVme
p11378
aVthat
p11379
aVi
aVcould
p11380
aVhear
p11381
aVthe
p11382
aVweird
p11383
aVnoises
p11384
aVof
p11385
aVtheir
p11386
aVmouths
p11387
aVtogether
p11388
aV,
aVand
p11389
aVi
aVcould
p11390
aVhear
p11391
aVhim
p11392
aVsaying
p11393
aV,
aV``
p11394
aValways
p11395
aV,
aV''
p11396
aVand
p11397
aVher
p11398
aVsaying
p11399
aV,
aV``
p11400
aValways
p11401
aV,
aV''
p11402
aVin
p11403
aVreturn
p11404
aV.
aa(lp11405
Vsuddenly
p11406
aVstanding
p11407
aVnext
p11408
aVto
p11409
aVme
p11410
aV,
aVaugustus
p11411
aVhalf
p11412
aVwhispered
p11413
aV,
aV``
p11414
aVthey
p11415
aV're
p11416
aVbig
p11417
aVbelievers
p11418
aVin
p11419
aVpda
p11420
aV.
aV''
p11421
aa(lp11422
V``
p11423
aVwhat
p11424
aV's
p11425
aVwith
p11426
aVthe
p11427
aV'always
p11428
aV'
aV?
aV''
p11429
aa(lp11430
Vthe
p11431
aVslurping
p11432
aVsounds
p11433
aVintensified
p11434
aV.
aa(lp11435
V``
p11436
aValways
p11437
aVis
p11438
aVtheir
p11439
aVthing
p11440
aV.
aa(lp11441
Vthey
p11442
aV'll
p11443
aValways
p11444
aVlove
p11445
aVeach
p11446
aVother
p11447
aVand
p11448
aVwhatever
p11449
aV.
aa(lp11450
Vi
aVwould
p11451
aVconservatively
p11452
aVestimate
p11453
aVthey
p11454
aVhave
p11455
aVtexted
p11456
aVeach
p11457
aVother
p11458
aVthe
p11459
aVword
p11460
aValways
p11461
aVfour
p11462
aVmillion
p11463
aVtimes
p11464
aVin
p11465
aVthe
p11466
aVlast
p11467
aVyear
p11468
aV.
aV''
p11469
aa(lp11470
Va
aVcouple
p11471
aVmore
p11472
aVcars
p11473
aVdrove
p11474
aVup
p11475
aV,
aVtaking
p11476
aVmichael
p11477
aVand
p11478
aValisa
p11479
aVaway
p11480
aV.
aa(lp11481
Vit
p11482
aVwas
p11483
aVjust
p11484
aVaugustus
p11485
aVand
p11486
aVme
p11487
aVnow
p11488
aV,
aVwatching
p11489
aVisaac
p11490
aVand
p11491
aVmonica
p11492
aV,
aVwho
p11493
aVproceeded
p11494
aVapace
p11495
aVas
p11496
aVif
p11497
aVthey
p11498
aVwere
p11499
aVnot
p11500
aVleaning
p11501
aV18
p11502
aVthe
p11503
aVfault
p11504
aVin
p11505
aVour
p11506
aVstars
p11507
aVagainst
p11508
aVa
aVplace
p11509
aVof
p11510
aVworship
p11511
aV.
aa(lp11512
Vhis
p11513
aVhand
p11514
aVreached
p11515
aVfor
p11516
aVher
p11517
aVboob
p11518
aVover
p11519
aVher
p11520
aVshirt
p11521
aVand
p11522
aVpawed
p11523
aVat
p11524
aVit
p11525
aV,
aVhis
p11526
aVpalm
p11527
aVstill
p11528
aVwhile
p11529
aVhis
p11530
aVfingers
p11531
aVmoved
p11532
aVaround
p11533
aV.
aa(lp11534
Vi
aVwondered
p11535
aVif
p11536
aVthat
p11537
aVfelt
p11538
aVgood
p11539
aV.
aa(lp11540
Vdid
p11541
aVn't
p11542
aVseem
p11543
aVlike
p11544
aVit
p11545
aVwould
p11546
aV,
aVbut
p11547
aVi
aVdecided
p11548
aVto
p11549
aVforgive
p11550
aVisaac
p11551
aVon
p11552
aVthe
p11553
aVgrounds
p11554
aVthat
p11555
aVhe
p11556
aVwas
p11557
aVgoing
p11558
aVblind
p11559
aV.
aa(lp11560
Vthe
p11561
aVsenses
p11562
aVmust
p11563
aVfeast
p11564
aVwhile
p11565
aVthere
p11566
aVis
p11567
aVyet
p11568
aVhunger
p11569
aVand
p11570
aVwhatever
p11571
aV.
aa(lp11572
V``
p11573
aVimagine
p11574
aVtaking
p11575
aVthat
p11576
aVlast
p11577
aVdrive
p11578
aVto
p11579
aVthe
p11580
aVhospital
p11581
aV,
aV''
p11582
aVi
aVsaid
p11583
aVquietly
p11584
aV.
aa(lp11585
V``
p11586
aVthe
p11587
aVlast
p11588
aVtime
p11589
aVyou
p11590
aV'll
p11591
aVever
p11592
aVdrive
p11593
aVa
aVcar
p11594
aV.
aV''
p11595
aa(lp11596
Vwithout
p11597
aVlooking
p11598
aVover
p11599
aVat
p11600
aVme
p11601
aV,
aVaugustus
p11602
aVsaid
p11603
aV,
aV``
p11604
aVyou're
p11605
aVkilling
p11606
aVmy
p11607
aVvibe
p11608
aVhere
p11609
aV,
aVhazel
p11610
aVgrace
p11611
aV.
aa(lp11612
Vi
aV'm
p11613
aVtrying
p11614
aVto
p11615
aVobserve
p11616
aVyoung
p11617
aVlove
p11618
aVin
p11619
aVits
p11620
aVmany-splendored
p11621
aVawkwardness
p11622
aV.
aV''
p11623
aa(lp11624
V``
p11625
aVi
aVthink
p11626
aVhe
p11627
aV's
p11628
aVhurting
p11629
aVher
p11630
aVboob
p11631
aV,
aV''
p11632
aVi
aVsaid
p11633
aV.
aa(lp11634
V``
p11635
aVyes
p11636
aV,
aVit
p11637
aV's
p11638
aVdifficult
p11639
aVto
p11640
aVascertain
p11641
aVwhether
p11642
aVhe
p11643
aVis
p11644
aVtrying
p11645
aVto
p11646
aVarouse
p11647
aVher
p11648
aVor
p11649
aVperform
p11650
aVa
aVbreast
p11651
aVexam
p11652
aV.
aV''
p11653
aa(lp11654
Vthen
p11655
aVaugustus
p11656
aVwaters
p11657
aVreached
p11658
aVinto
p11659
aVa
aVpocket
p11660
aVand
p11661
aVpulled
p11662
aVout
p11663
aV,
aVof
p11664
aVall
p11665
aVthings
p11666
aV,
aVa
aVpack
p11667
aVof
p11668
aVcigarettes
p11669
aV.
aa(lp11670
Vhe
p11671
aVflipped
p11672
aVit
p11673
aVopen
p11674
aVand
p11675
aVput
p11676
aVa
aVcigarette
p11677
aVbetween
p11678
aVhis
p11679
aVlips
p11680
aV.
aa(lp11681
V``
p11682
aVare
p11683
aVyou
p11684
aVserious
p11685
aV?
aV''
p11686
aa(lp11687
Vi
aVasked
p11688
aV.
aa(lp11689
V``
p11690
aVyou
p11691
aVthink
p11692
aVthat
p11693
aV's
p11694
aVcool
p11695
aV?
aa(lp11696
Voh
p11697
aV,
aVmy
p11698
aVgod
p11699
aV,
aVyou
p11700
aVjust
p11701
aVruined
p11702
aVthe
p11703
aVwhole
p11704
aVthing
p11705
aV.
aV''
p11706
aa(lp11707
V``
p11708
aVwhich
p11709
aVwhole
p11710
aVthing
p11711
aV?
aV''
p11712
aa(lp11713
Vhe
p11714
aVasked
p11715
aV,
aVturning
p11716
aVto
p11717
aVme
p11718
aV.
aa(lp11719
Vthe
p11720
aVcigarette
p11721
aVdangled
p11722
aVunlit
p11723
aVfrom
p11724
aVthe
p11725
aVunsmiling
p11726
aVcorner
p11727
aVof
p11728
aVhis
p11729
aVmouth
p11730
aV.
aa(lp11731
V``
p11732
aVthe
p11733
aVwhole
p11734
aVthing
p11735
aVwhere
p11736
aVa
aVboy
p11737
aVwho
p11738
aVis
p11739
aVnot
p11740
aVunattractive
p11741
aVor
p11742
aVunintelligent
p11743
aVor
p11744
aVseemingly
p11745
aVin
p11746
aVany
p11747
aVway
p11748
aVunacceptable
p11749
aVstares
p11750
aVat
p11751
aVme
p11752
aVand
p11753
aVpoints
p11754
aVout
p11755
aVincorrect
p11756
aVuses
p11757
aVof
p11758
aVliterality
p11759
aVand
p11760
aVcompares
p11761
aVme
p11762
aVto
p11763
aVactresses
p11764
aVand
p11765
aVasks
p11766
aVme
p11767
aVto
p11768
aVwatch
p11769
aVa
aVmovie
p11770
aVat
p11771
aVhis
p11772
aVhouse
p11773
aV.
aa(lp11774
Vbut
p11775
aVof
p11776
aVcourse
p11777
aVthere
p11778
aVis
p11779
aValways
p11780
aVa
aVhamartia
p11781
aVand
p11782
aVyours
p11783
aV19
p11784
aVjohn
p11785
aVgreen
p11786
aVis
p11787
aVthat
p11788
aVoh
p11789
aV,
aVmy
p11790
aVgod
p11791
aV,
aVeven
p11792
aVthough
p11793
aVyou
p11794
aVhad
p11795
aVfreaking
p11796
aVcancer
p11797
aVyou
p11798
aVgive
p11799
aVmoney
p11800
aVto
p11801
aVa
aVcompany
p11802
aVin
p11803
aVexchange
p11804
aVfor
p11805
aVthe
p11806
aVchance
p11807
aVto
p11808
aVacquire
p11809
aVyet
p11810
aVmore
p11811
aVcancer
p11812
aV.
aa(lp11813
Voh
p11814
aV,
aVmy
p11815
aVgod
p11816
aV.
aa(lp11817
Vlet
p11818
aVme
p11819
aVjust
p11820
aVassure
p11821
aVyou
p11822
aVthat
p11823
aVnot
p11824
aVbeing
p11825
aVable
p11826
aVto
p11827
aVbreathe
p11828
aV?
aa(lp11829
Vsucks
p11830
aV.
aa(lp11831
Vtotally
p11832
aVdisappointing
p11833
aV.
aa(lp11834
Vtotally
p11835
aV.
aV''
p11836
aa(lp11837
V``
p11838
aVa
aVhamartia
p11839
aV?
aV''
p11840
aa(lp11841
Vhe
p11842
aVasked
p11843
aV,
aVthe
p11844
aVcigarette
p11845
aVstill
p11846
aVin
p11847
aVhis
p11848
aVmouth
p11849
aV.
aa(lp11850
Vit
p11851
aVtightened
p11852
aVhis
p11853
aVjaw
p11854
aV.
aa(lp11855
Vhe
p11856
aVhad
p11857
aVa
aVhell
p11858
aVof
p11859
aVajawline
p11860
aV,
aVunfortunately
p11861
aV.
aa(lp11862
V``
p11863
aVa
aVfatal
p11864
aVflaw
p11865
aV,
aV''
p11866
aVi
aVexplained
p11867
aV,
aVturning
p11868
aVaway
p11869
aVfrom
p11870
aVhim
p11871
aV.
aa(lp11872
Vi
aVstepped
p11873
aVtoward
p11874
aVthe
p11875
aVcurb
p11876
aV,
aVleaving
p11877
aVaugustus
p11878
aVwaters
p11879
aVbehind
p11880
aVme
p11881
aV,
aVand
p11882
aVthen
p11883
aVi
aVheard
p11884
aVa
aVcar
p11885
aVstart
p11886
aVdown
p11887
aVthe
p11888
aVstreet
p11889
aV.
aa(lp11890
Vit
p11891
aVwas
p11892
aVmom
p11893
aV.
aa(lp11894
Vshe
p11895
aV'd
p11896
aVbeen
p11897
aVwaiting
p11898
aVfor
p11899
aVme
p11900
aVto
p11901
aV,
aVlike
p11902
aV,
aVmake
p11903
aVfriends
p11904
aVor
p11905
aVwhatever
p11906
aV.
aa(lp11907
Vi
aVfelt
p11908
aVthis
p11909
aVweird
p11910
aVmix
p11911
aVof
p11912
aVdisappointment
p11913
aVand
p11914
aVanger
p11915
aVwelling
p11916
aVup
p11917
aVinside
p11918
aVof
p11919
aVme
p11920
aV.
aa(lp11921
Vi
aVdo
p11922
aVn't
p11923
aVeven
p11924
aVknow
p11925
aVwhat
p11926
aVthe
p11927
aVfeeling
p11928
aVwas
p11929
aV,
aVreally
p11930
aV,
aVjust
p11931
aVthat
p11932
aVthere
p11933
aVwas
p11934
aVa
aVlot
p11935
aVof
p11936
aVit
p11937
aV,
aVand
p11938
aVi
aVwanted
p11939
aVto
p11940
aVsmack
p11941
aVaugustus
p11942
aVwaters
p11943
aVand
p11944
aValso
p11945
aVreplace
p11946
aVmy
p11947
aVlungs
p11948
aVwith
p11949
aVlungs
p11950
aVthat
p11951
aVdid
p11952
aVn't
p11953
aVsuck
p11954
aVat
p11955
aVbeing
p11956
aVlungs
p11957
aV.
aa(lp11958
Vi
aVwas
p11959
aVstanding
p11960
aVwith
p11961
aVmy
p11962
aVchuck
p11963
aVtaylors
p11964
aVon
p11965
aVthe
p11966
aVvery
p11967
aVedge
p11968
aVof
p11969
aVthe
p11970
aVcurb
p11971
aV,
aVthe
p11972
aVoxygen
p11973
aVtank
p11974
aVball-and-chaining
p11975
aVin
p11976
aVthe
p11977
aVcart
p11978
aVby
p11979
aVmy
p11980
aVside
p11981
aV,
aVand
p11982
aVright
p11983
aVas
p11984
aVmy
p11985
aVmom
p11986
aVpulled
p11987
aVup
p11988
aV,
aVi
aVfelt
p11989
aVa
aVhand
p11990
aVgrab
p11991
aVmine
p11992
aV.
aa(lp11993
Vi
aVyanked
p11994
aVmy
p11995
aVhand
p11996
aVfree
p11997
aVbut
p11998
aVturned
p11999
aVback
p12000
aVto
p12001
aVhim
p12002
aV.
aa(lp12003
V``
p12004
aVthey
p12005
aVdo
p12006
aVn't
p12007
aVkill
p12008
aVyou
p12009
aVunless
p12010
aVyou
p12011
aVlight
p12012
aVthem
p12013
aV,
aV''
p12014
aVhe
p12015
aVsaid
p12016
aVas
p12017
aVmom
p12018
aVarrived
p12019
aVat
p12020
aVthe
p12021
aVcurb
p12022
aV.
aa(lp12023
V``
p12024
aVand
p12025
aVi
aV've
p12026
aVnever
p12027
aVlit
p12028
aVone
p12029
aV.
aa(lp12030
Vit
p12031
aV's
p12032
aVa
aVmetaphor
p12033
aV,
aVsee
p12034
aV:
aVyou
p12035
aVput
p12036
aVthe
p12037
aVkilling
p12038
aVthing
p12039
aVright
p12040
aVbetween
p12041
aVyour
p12042
aVteeth
p12043
aV,
aVbut
p12044
aVyou
p12045
aVdo
p12046
aVn't
p12047
aVgive
p12048
aVit
p12049
aVthe
p12050
aVpower
p12051
aVto
p12052
aVdo
p12053
aVits
p12054
aVkilling
p12055
aV.
aV''
p12056
aa(lp12057
V``
p12058
aVit
p12059
aV's
p12060
aVa
aVmetaphor
p12061
aV,
aV''
p12062
aVi
aVsaid
p12063
aV,
aVdubious
p12064
aV.
aa(lp12065
Vmom
p12066
aVwas
p12067
aVjust
p12068
aVidling
p12069
aV.
aa(lp12070
V20
p12071
aVthe
p12072
aVfault
p12073
aVin
p12074
aVour
p12075
aVstars
p12076
aV''
p12077
aVit
p12078
aV's
p12079
aVa
aVmetaphor
p12080
aV,
aV''
p12081
aVhe
p12082
aVsaid
p12083
aV.
aa(lp12084
V``
p12085
aVyou
p12086
aVchoose
p12087
aVyour
p12088
aVbehaviors
p12089
aVbased
p12090
aVon
p12091
aVtheir
p12092
aVmetaphori-
p12093
aVcal
p12094
aVresonances
p12095
aV...
p12096
aV''
p12097
aVi
aVsaid
p12098
aV.
aa(lp12099
V``
p12100
aVoh
p12101
aV,
aVyes
p12102
aV.
aV''
p12103
aa(lp12104
Vhe
p12105
aVsmiled
p12106
aV.
aa(lp12107
Vthe
p12108
aVbig
p12109
aV,
aVgoofy
p12110
aV,
aVreal
p12111
aVsmile
p12112
aV.
aa(lp12113
V``
p12114
aVi
aV'm
p12115
aVa
aVbig
p12116
aVbeliever
p12117
aVin
p12118
aVmetaphor
p12119
aV,
aVhazel
p12120
aVgrace
p12121
aV.
aV''
p12122
aa(lp12123
Vi
aVturned
p12124
aVto
p12125
aVthe
p12126
aVcar
p12127
aV.
aa(lp12128
Vtapped
p12129
aVthe
p12130
aVwindow
p12131
aV.
aa(lp12132
Vit
p12133
aVrolled
p12134
aVdown
p12135
aV.
aa(lp12136
V``
p12137
aVi
aV'm
p12138
aVgoing
p12139
aVto
p12140
aVa
aVmovie
p12141
aVwith
p12142
aVaugustus
p12143
aVwaters
p12144
aV,
aV''
p12145
aVi
aVsaid
p12146
aV.
aa(lp12147
V``
p12148
aVplease
p12149
aVrecord
p12150
aVthe
p12151
aVnext
p12152
aVseveral
p12153
aVepisodes
p12154
aVof
p12155
aVthe
p12156
aVantm
p12157
aVmarathon
p12158
aVfor
p12159
aVme
p12160
aV.
aV''
p12161
aasb.