ccopy_reg
_reconstructor
p1
(cData.Book
Book
p2
c__builtin__
object
p3
NtRp4
(dp5
S'stored_object'
p6
S'Books/The_Fault_in_Our_Stars/Book_object.p'
p7
sS'title'
p8
S'The Fault in Our Stars'
p9
sS'main_text_path'
p10
S'Books/The_Fault_in_Our_Stars/main_cleaned.txt'
p11
sS'metadata_path'
p12
S'Books/The_Fault_in_Our_Stars/meta_data.csv'
p13
sS'book_path'
p14
S'Books/The_Fault_in_Our_Stars/'
p15
sS'characters'
p16
(dp17
S'monica'
p18
(dp19
S'list'
p20
(lp21
(lp22
V[
aVCHARACTER
p23
aV]
aV-
aVisaac
p24
aV's
p25
aVgirlfriend
p26
aVand
p27
aVthen
p28
aVex-girlfriend
p29
aV.
aa(lp30
V[
aVCHARACTER
p31
aV]
aVbreaks
p32
aVup
p33
aVwith
p34
aVisaac
p35
aVprior
p36
aVto
p37
aVhis
p38
aVsurgery
p39
aVto
p40
aVremove
p41
aVhis
p42
aVremaining
p43
aVeye
p44
aV.
aasS'analysis'
p45
NssS'peter van houten'
p46
(dp47
g20
(lp48
(lp49
V[
aVCHARACTER
p50
aV]
aV-
aVthe
p51
aVinfamous
p52
aVauthor
p53
aVof
p54
aVan
p55
aVimperial
p56
aVaffliction
p57
aV.
aa(lp58
Vhazel
p59
aVand
p60
aVaugustus
p61
aVlearn
p62
aVhe
p63
aVis
p64
aVa
aVverbose
p65
aVand
p66
aVbrash
p67
aVdrunkard
p68
aVwho
p69
aVpretentiously
p70
aVdeflects
p71
aVemotion
p72
aVwith
p73
aVwalls
p74
aVof
p75
aVintellectualism
p76
aVand
p77
aVcruelty
p78
aV.
aasg45
NssS'kaitlyn'
p79
(dp80
g20
(lp81
(lp82
V[
aVCHARACTER
p83
aV]
aV-
aVhazel
p84
aV's
p85
aVfriend
p86
aVand
p87
aVformer
p88
aVschoolmate
p89
aV.
aa(lp90
Vshe
p91
aVis
p92
aVpretty
p93
aV,
aVpopular
p94
aV,
aVand
p95
aVexemplifies
p96
aVwhat
p97
aVhazel
p98
aVmight
p99
aVhave
p100
aVbeen
p101
aVlike
p102
aVif
p103
aVshe
p104
aVhad
p105
aVn't
p106
aVbeen
p107
aVdiagnosed
p108
aVwith
p109
aVcancer
p110
aVand
p111
aVleft
p112
aVschool
p113
aV.
aa(lp114
Vthough
p115
aVthey
p116
aVare
p117
aVstill
p118
aVfriends
p119
aV,
aVthere
p120
aVis
p121
aVa
aVpalpable
p122
aVdistance
p123
aVbetween
p124
aVthe
p125
aVtwo
p126
aVgirls
p127
aV,
aVwho
p128
aVoccupy
p129
aVsuch
p130
aVdivergent
p131
aVworlds
p132
aV.
aasg45
NssS'patrick'
p133
(dp134
g20
(lp135
(lp136
V[
aVCHARACTER
p137
aV]
aV-
aVthe
p138
aVleader
p139
aVand
p140
aVsole
p141
aVadult
p142
aVat
p143
aVsupport
p144
aVgroup
p145
aV.
aa(lp146
Vhe
p147
aVis
p148
aVnoted
p149
aVfor
p150
aVhis
p151
aVwarmth
p152
aVand
p153
aVunequivocal
p154
aVoptimism
p155
aV.
aa(lp156
Vas
p157
aVa
aVconsequence
p158
aVof
p159
aVcancer
p160
aV[
aVCHARACTER
p161
aV]
aVlost
p162
aVboth
p163
aVof
p164
aVhis
p165
aVtesticles
p166
aV,
aVwhich
p167
aVprovides
p168
aVsome
p169
aVof
p170
aVthe
p171
aVmore
p172
aVcynical
p173
aVgroup
p174
aVmembers
p175
aVwith
p176
aVa
aVbit
p177
aVof
p178
aVcomic
p179
aVrelief
p180
aV.
aasg45
NssS'mr. lancaster'
p181
(dp182
g20
(lp183
(lp184
Vmr.
p185
aV[
aVCHARACTER
p186
aV]
aV-
aVhazel
p187
aV's
p188
aVfather
p189
aV.
aa(lp190
Vhe
p191
aVis
p192
aVcaring
p193
aVand
p194
aVprone
p195
aVto
p196
aVtears
p197
aV.
aa(lp198
Vin
p199
aVcontrast
p200
aVwith
p201
aVhazel
p202
aV's
p203
aVmother
p204
aV,
aVhe
p205
aVonly
p206
aVunderstands
p207
aVhazel
p208
aV's
p209
aVcancer
p210
aVbroadly
p211
aVand
p212
aVspends
p213
aVmuch
p214
aVof
p215
aVhis
p216
aVtime
p217
aVat
p218
aVwork
p219
aV.
aasg45
NssS'hazel grace lancaster'
p220
(dp221
g20
(lp222
(lp223
V[
aVCHARACTER
p224
aV]
aV-
aVthe
p225
aVnovel
p226
aV's
p227
aVnarrator
p228
aVand
p229
aV16-year-old
p230
aVprotagonist
p231
aV.
aa(lp232
Van
p233
aVastute
p234
aVand
p235
aVremarkably
p236
aVconscientious
p237
aVgirl
p238
aV,
aVhazel
p239
aVwas
p240
aVdiagnosed
p241
aVat
p242
aVage
p243
aVthirteen
p244
aVwith
p245
aVa
aVterminal
p246
aVform
p247
aVof
p248
aVthyroid
p249
aVcancer
p250
aVthat
p251
aVhas
p252
aVsince
p253
aVspread
p254
aVto
p255
aVher
p256
aVlungs
p257
aV.
aa(lp258
Vshe
p259
aVkeeps
p260
aVmost
p261
aVpeople
p262
aVat
p263
aVa
aVdistance
p264
aV,
aVknowing
p265
aVher
p266
aVdeath
p267
aVwill
p268
aVultimately
p269
aVhurt
p270
aVthem
p271
aV,
aVuntil
p272
aVshe
p273
aVfalls
p274
aVin
p275
aVlove
p276
aVwith
p277
aVaugustus
p278
aV.
aasg45
(lp279
(lp280
V[
aVCHARACTER
p281
aV]
aVit
p282
aVis
p283
aVimmediately
p284
aVobvious
p285
aVthat
p286
aVhazel
p287
aVis
p288
aVn't
p289
aVthe
p290
aVtypical
p291
aVteenage
p292
aVgirl
p293
aVfrom
p294
aVindianapolis
p295
aV.
aa(lp296
Vshe
p297
aVis
p298
aV--
p299
aVconscientiously
p300
aVspeaking
p301
aV--
p302
aVold
p303
aVfor
p304
aVher
p305
aVage
p306
aV,
aVas
p307
aVwe
p308
aVsee
p309
aVwhen
p310
aVshe
p311
aV's
p312
aVcontrasted
p313
aVwith
p314
aVher
p315
aVfriend
p316
aVkaitlyn
p317
aV.
aa(lp318
Vby
p319
aVcomparison
p320
aV,
aVhazel
p321
aVis
p322
aVfar
p323
aVmore
p324
aVthoughtful
p325
aVand
p326
aVconsiderate
p327
aVabout
p328
aVher
p329
aVactions
p330
aVthan
p331
aVkaitlyn
p332
aV,
aVand
p333
aVshe
p334
aVis
p335
aVfar
p336
aVmore
p337
aVanalytical
p338
aV.
aa(lp339
Vone
p340
aVof
p341
aVhazel
p342
aV's
p343
aVdefining
p344
aVcharacteristics
p345
aVis
p346
aVher
p347
aVwish
p348
aVto
p349
aVtread
p350
aVlightly
p351
aVupon
p352
aVthe
p353
aVworld
p354
aV.
aa(lp355
Vshe
p356
aVdesperately
p357
aVwants
p358
aVto
p359
aVmitigate
p360
aVthe
p361
aVharm
p362
aVcaused
p363
aVby
p364
aVher
p365
aVexistence
p366
aVon
p367
aVearth
p368
aV.
aa(lp369
Vthough
p370
aVthis
p371
aVoutlook
p372
aVon
p373
aVlife
p374
aVis
p375
aVdramatically
p376
aVdifferent
p377
aVfrom
p378
aVaugustus
p379
aV's
p380
aV,
aVover
p381
aVthe
p382
aVcourse
p383
aVof
p384
aVthe
p385
aVnovel
p386
aVthe
p387
aVteens
p388
aVare
p389
aVable
p390
aVto
p391
aVlearn
p392
aVa
aVlot
p393
aVfrom
p394
aVone
p395
aVanother
p396
aV.
aa(lp397
Vhazel
p398
aV's
p399
aVtranscendent
p400
aVjourney
p401
aVthroughout
p402
aVthe
p403
aVnovel
p404
aVis
p405
aVtruly
p406
aVmultifaceted
p407
aV.
aa(lp408
Vphysically
p409
aVspeaking
p410
aV,
aVwe
p411
aVwitness
p412
aVhazel
p413
aVgrow
p414
aVweaker
p415
aV.
aa(lp416
Vthis
p417
aVchange
p418
aVis
p419
aVapparent
p420
aVin
p421
aVthe
p422
aVfact
p423
aVthat
p424
aVshe
p425
aVuses
p426
aVthe
p427
aVstairs
p428
aVat
p429
aVsupport
p430
aVgroup
p431
aVat
p432
aVthe
p433
aVbeginning
p434
aVof
p435
aVthe
p436
aVnovel
p437
aVand
p438
aVopts
p439
aVfor
p440
aVthe
p441
aVelevator
p442
aVnear
p443
aVthe
p444
aVnovels
p445
aVend
p446
aV,
aVas
p447
aVher
p448
aVphysical
p449
aVcondition
p450
aVdeteriorates
p451
aV.
aa(lp452
Vthe
p453
aVmore
p454
aVnuanced
p455
aVaspect
p456
aVof
p457
aVhazel
p458
aV's
p459
aVjourney
p460
aVrevolves
p461
aVaround
p462
aVher
p463
aVspiritual
p464
aVand
p465
aVphilosophical
p466
aVunderstanding
p467
aVof
p468
aVdeath
p469
aV.
aa(lp470
Vat
p471
aVthe
p472
aVbeginning
p473
aVof
p474
aVthe
p475
aVnovel
p476
aV,
aVhazel
p477
aVobsesses
p478
aVover
p479
aVthe
p480
aVimpact
p481
aVher
p482
aVdeath
p483
aVwill
p484
aVhave
p485
aVon
p486
aVthose
p487
aVaround
p488
aVher
p489
aV.
aa(lp490
Vshe
p491
aVfears
p492
aVgetting
p493
aVclose
p494
aVto
p495
aVanyone
p496
aVbecause
p497
aVshe
p498
aVknows
p499
aVthat
p500
aVher
p501
aVdeath
p502
aV,
aVwhich
p503
aVis
p504
aVn't
p505
aVfar
p506
aVoff
p507
aV,
aVwill
p508
aVhurt
p509
aVanyone
p510
aVclose
p511
aVto
p512
aVher
p513
aV.
aa(lp514
Vit
p515
aVmakes
p516
aVher
p517
aV,
aVas
p518
aVshe
p519
aVputs
p520
aVit
p521
aV,
aVa
aV``
p522
aVgrenade
p523
aV.
aV''
p524
aa(lp525
Vthis
p526
aVfear
p527
aVappears
p528
aVmost
p529
aVin
p530
aVregard
p531
aVto
p532
aVher
p533
aVmother
p534
aV.
aa(lp535
Vonce
p536
aV,
aVwhen
p537
aVhazel
p538
aVwas
p539
aVnear
p540
aVdying
p541
aV,
aVshe
p542
aVoverheard
p543
aVher
p544
aVmother
p545
aVsaying
p546
aVif
p547
aVhazel
p548
aVdies
p549
aVshe
p550
aVwo
p551
aVn't
p552
aVbe
p553
aVa
aVmother
p554
aVanymore
p555
aV,
aVand
p556
aVthat
p557
aVthought
p558
aVhas
p559
aVstayed
p560
aVwith
p561
aVhazel
p562
aV.
aa(lp563
Vthis
p564
aVfear
p565
aVmotivates
p566
aVhazel
p567
aV's
p568
aVmission
p569
aVto
p570
aVdetermine
p571
aVwhat
p572
aVhappens
p573
aVto
p574
aVthe
p575
aVcharacters
p576
aVat
p577
aVthe
p578
aVend
p579
aVof
p580
aVan
p581
aVimperial
p582
aVaffliction
p583
aV.
aa(lp584
Vshe
p585
aVneeds
p586
aVto
p587
aVaffirm
p588
aVthat
p589
aVeverything
p590
aVturns
p591
aVout
p592
aValright
p593
aVfor
p594
aVanna
p595
aV's
p596
aVmother
p597
aV,
aVso
p598
aVthat
p599
aVshe
p600
aVcan
p601
aVconvince
p602
aVherself
p603
aVthat
p604
aVher
p605
aVparents
p606
aVwill
p607
aVend
p608
aVup
p609
aValright
p610
aV.
aa(lp611
Vthrough
p612
aVher
p613
aVrelationship
p614
aVwith
p615
aVaugustus
p616
aV,
aVhowever
p617
aV,
aVhazel
p618
aV's
p619
aVperspective
p620
aVchanges
p621
aV.
aa(lp622
Vwhen
p623
aVhis
p624
aVcancer
p625
aVreappears
p626
aV,
aVshe
p627
aVrecognizes
p628
aVthat
p629
aV,
aVof
p630
aVthe
p631
aVtwo
p632
aVof
p633
aVthem
p634
aV,
aVhe
p635
aVis
p636
aVnow
p637
aVthe
p638
aVgrenade
p639
aV.
aa(lp640
Vbut
p641
aVeven
p642
aVso
p643
aV,
aVshe
p644
aVis
p645
aVn't
p646
aVsorry
p647
aVshe
p648
aVfell
p649
aVin
p650
aVlove
p651
aVwith
p652
aVhim
p653
aV,
aVeven
p654
aVthough
p655
aVit
p656
aVwill
p657
aVhurt
p658
aVher
p659
aVimmensely
p660
aVwhen
p661
aVhe
p662
aVdies
p663
aV.
aa(lp664
Vinstead
p665
aV,
aVshe
p666
aVcherishes
p667
aVand
p668
aVfeels
p669
aVextremely
p670
aVgrateful
p671
aVfor
p672
aVthe
p673
aVtime
p674
aVthey
p675
aVdo
p676
aVhave
p677
aVtogether
p678
aV.
aa(lp679
Vthe
p680
aVfinal
p681
aVwords
p682
aVof
p683
aVthe
p684
aVnovel
p685
aVindicate
p686
aVthe
p687
aVextent
p688
aVto
p689
aVwhich
p690
aVhazel
p691
aVgrows
p692
aVspiritually
p693
aVthroughout
p694
aVher
p695
aVjourney
p696
aV.
aa(lp697
Vthe
p698
aVimplication
p699
aVof
p700
aVthe
p701
aVwords
p702
aV``
p703
aVi
aVdo
p704
aV''
p705
aVare
p706
aVof
p707
aVa
aVmarriage
p708
aVthat
p709
aVtakes
p710
aVplace
p711
aVthrough
p712
aVmemory
p713
aV.
aa(lp714
Vthough
p715
aVthe
p716
aVmarriage
p717
aVis
p718
aVsymbolic
p719
aV,
aVit
p720
aVis
p721
aVnevertheless
p722
aVreal
p723
aV.
aa(lp724
Vwhat
p725
aVhazel
p726
aVmeans
p727
aVby
p728
aVsaying
p729
aV``
p730
aVi
aVdo
p731
aV''
p732
aVis
p733
aVthat
p734
aVshe
p735
aVwill
p736
aVremember
p737
aVand
p738
aVlove
p739
aVaugustus
p740
aVfor
p741
aVas
p742
aVlong
p743
aVas
p744
aVshe
p745
aVlives
p746
aV,
aVand
p747
aVin
p748
aVthat
p749
aVsense
p750
aVshe
p751
aVhas
p752
aVlearned
p753
aVthat
p754
aVdeath
p755
aVis
p756
aVnot
p757
aVthe
p758
aVubiquitous
p759
aVfinality
p760
aVshe
p761
aVhad
p762
aVonce
p763
aVconsidered
p764
aVit
p765
aVto
p766
aVbe
p767
aV.
aa(lp768
Vour
p769
aVrelationships
p770
aVcontinue
p771
aV,
aVeven
p772
aVif
p773
aVwe
p774
aVdo
p775
aVnot
p776
aV.
aassS'dr. maria'
p777
(dp778
g20
(lp779
(lp780
Vdr.
p781
aV[
aVCHARACTER
p782
aV]
aV-
aVhazel
p783
aV's
p784
aVprimary
p785
aVcancer
p786
aVdoctor
p787
aV.
aa(lp788
Vshe
p789
aVis
p790
aVa
aVstrong
p791
aV,
aVassertive
p792
aV,
aVyet
p793
aVempathetic
p794
aVphysician
p795
aV.
aa(lp796
Vat
p797
aVone
p798
aVpoint
p799
aVhazel
p800
aVremarks
p801
aVthat
p802
aVdr.
p803
aV[
aVCHARACTER
p804
aV]
aVis
p805
aVvery
p806
aVinto
p807
aVgiving
p808
aVout
p809
aVhugs
p810
aV.
aa(lp811
Vshe
p812
aVconvinces
p813
aVhazel
p814
aV's
p815
aVparents
p816
aVthat
p817
aVhazel
p818
aVshould
p819
aVbe
p820
aVallowed
p821
aVto
p822
aVtravel
p823
aVto
p824
aVamsterdam
p825
aV,
aVdespite
p826
aVtheir
p827
aVreservations
p828
aV.
aasg45
NssS'mrs. lancaster'
p829
(dp830
g20
(lp831
(lp832
Vmrs.
p833
aV[
aVCHARACTER
p834
aV]
aV-
aVhazel
p835
aV's
p836
aVmother
p837
aV.
aa(lp838
Vshe
p839
aVis
p840
aVan
p841
aVemotionally
p842
aVstrong
p843
aVand
p844
aVkind
p845
aVwoman
p846
aVwho
p847
aVhas
p848
aVmade
p849
aVit
p850
aVher
p851
aVlife
p852
aVto
p853
aVcare
p854
aVfor
p855
aVhazel
p856
aV.
aa(lp857
Vduring
p858
aVthe
p859
aVnovel
p860
aVhazel
p861
aVobsesses
p862
aVover
p863
aVthe
p864
aVemotional
p865
aVdevastation
p866
aVthat
p867
aVher
p868
aVdeath
p869
aVwill
p870
aVcause
p871
aVto
p872
aVher
p873
aVmother
p874
aV.
aa(lp875
Vin
p876
aVthe
p877
aVend
p878
aVhazel
p879
aVis
p880
aVoverjoyed
p881
aVto
p882
aVlearn
p883
aVthat
p884
aVher
p885
aVmother
p886
aVhas
p887
aVsecretly
p888
aVbeen
p889
aVtaking
p890
aVclasses
p891
aVto
p892
aVbecome
p893
aVa
aVsocial
p894
aVworker
p895
aV.
aasg45
NssS"augustus's parents"
p896
(dp897
g20
(lp898
(lp899
V[
aVCHARACTER
p900
aV]
aV-
aVthe
p901
aVfew
p902
aVglimpses
p903
aVthat
p904
aVwe
p905
aVget
p906
aVof
p907
aV[
aVCHARACTER
p908
aV]
aVin
p909
aVthe
p910
aVnovel
p911
aVare
p912
aVof
p913
aVkind
p914
aVand
p915
aVunderstanding
p916
aVpeople
p917
aV.
aa(lp918
Vthey
p919
aVdo
p920
aVnot
p921
aVhesitate
p922
aVto
p923
aVvegetarianize
p924
aVhazel
p925
aV's
p926
aVmeal
p927
aV.
aa(lp928
Vnear
p929
aVthe
p930
aVend
p931
aVof
p932
aVthe
p933
aVnovel
p934
aV,
aVit
p935
aVmeans
p936
aVa
aVlot
p937
aVto
p938
aVhazel
p939
aVwhen
p940
aVaugustus
p941
aV's
p942
aVfather
p943
aVwhispers
p944
aVin
p945
aVher
p946
aVear
p947
aVabout
p948
aVhow
p949
aVgreat
p950
aVit
p951
aVis
p952
aVthat
p953
aVshe
p954
aVhas
p955
aVbeen
p956
aVinvolved
p957
aVin
p958
aVhis
p959
aVson
p960
aV's
p961
aVlife
p962
aV.
aasg45
NssS'augustus "gus" waters'
p963
(dp964
g20
(lp965
(lp966
V[
aVCHARACTER
p967
aV]
aV-
aVthe
p968
aVsixteen-year-old
p969
aVwith
p970
aVosteosarcoma
p971
aVwho
p972
aVbecomes
p973
aVhazel
p974
aV's
p975
aVboyfriend
p976
aV.
aa(lp977
Vaugustus
p978
aVhas
p979
aVa
aVkeen
p980
aVwit
p981
aVand
p982
aVa
aVtendency
p983
aVtoward
p984
aVperformance
p985
aV--
p986
aVhe
p987
aVrevels
p988
aVin
p989
aVgrand
p990
aVromantic
p991
aVgestures
p992
aV.
aa(lp993
Vaugustus
p994
aValmost
p995
aVimmediately
p996
aVfalls
p997
aVin
p998
aVlove
p999
aVwith
p1000
aVhazel
p1001
aVafter
p1002
aVmeeting
p1003
aVher
p1004
aVat
p1005
aVsupport
p1006
aVgroup
p1007
aV.
aasg45
(lp1008
(lp1009
V[
aVCHARACTER
p1010
aV]
aVin
p1011
aVa
aVlot
p1012
aVof
p1013
aVways
p1014
aVaugustus
p1015
aVperforms
p1016
aVhis
p1017
aVown
p1018
aVexistence
p1019
aV.
aa(lp1020
Vthis
p1021
aVis
p1022
aVwhy
p1023
aVthere
p1024
aVare
p1025
aVtwo
p1026
aVversions
p1027
aVof
p1028
aVhis
p1029
aVcharacter
p1030
aVwithin
p1031
aVthe
p1032
aVnovel
p1033
aV.
aa(lp1034
Vthe
p1035
aVfirst
p1036
aVversion
p1037
aVwe
p1038
aVmeet
p1039
aVis
p1040
aVthe
p1041
aVfacade
p1042
aVcalled
p1043
aVaugustus
p1044
aVwaters
p1045
aV.
aa(lp1046
Vnamed
p1047
aV,
aVquite
p1048
aVgrandiosely
p1049
aV,
aVafter
p1050
aVthe
p1051
aVfirst
p1052
aVroman
p1053
aVemperor
p1054
aV,
aVaugustus
p1055
aVplays
p1056
aVa
aVstrong
p1057
aV,
aVconfident
p1058
aV,
aVfunny
p1059
aV,
aVand
p1060
aVcharming
p1061
aVboy
p1062
aV.
aa(lp1063
Vhe
p1064
aVcontinuously
p1065
aVfetishizes
p1066
aVhis
p1067
aVown
p1068
aVgrandiosity
p1069
aV.
aa(lp1070
Vhe
p1071
aVis
p1072
aVconvinced
p1073
aVthat
p1074
aVthe
p1075
aVimportance
p1076
aVof
p1077
aVlife
p1078
aVis
p1079
aVbeing
p1080
aVheroic
p1081
aV,
aVleaving
p1082
aVa
aVnoble
p1083
aVlegacy
p1084
aV,
aVmonumentally
p1085
aVimpacting
p1086
aVhumanity
p1087
aV.
aa(lp1088
Vthis
p1089
aVversion
p1090
aVof
p1091
aVaugustus
p1092
aVfumbles
p1093
aVover
p1094
aVcalculated
p1095
aVmonologues
p1096
aVin
p1097
aVthe
p1098
aVpark
p1099
aV.
aa(lp1100
Vhe
p1101
aVover-plans
p1102
aVdutch
p1103
aVthemed
p1104
aVpicnics
p1105
aV,
aVdown
p1106
aVto
p1107
aVthe
p1108
aVlast
p1109
aVexcruciating
p1110
aVdetail
p1111
aV,
aVpurely
p1112
aVfor
p1113
aVstage
p1114
aVlike
p1115
aVeffect
p1116
aV.
aa(lp1117
Vhe
p1118
aVis
p1119
aVdeluded
p1120
aVby
p1121
aVshowy
p1122
aVmetaphors
p1123
aVof
p1124
aVhis
p1125
aVown
p1126
aVconstruction
p1127
aV,
aVlike
p1128
aVwhen
p1129
aVhe
p1130
aVsacrifices
p1131
aVhimself
p1132
aVin
p1133
aVa
aVvideo
p1134
aVgame
p1135
aVby
p1136
aVjumping
p1137
aVon
p1138
aVa
aVgrenade
p1139
aVin
p1140
aVorder
p1141
aVto
p1142
aVsave
p1143
aVchildren
p1144
aV.
aa(lp1145
Vas
p1146
aVhis
p1147
aVcancer
p1148
aVreturns
p1149
aV,
aVhowever
p1150
aV,
aVall
p1151
aVof
p1152
aVthis
p1153
aVperformance
p1154
aVfalls
p1155
aVaway
p1156
aV.
aa(lp1157
Vwhat
p1158
aVremains
p1159
aVis
p1160
aVgus
p1161
aV,
aVa
aVteenage
p1162
aVboy
p1163
aVin
p1164
aVindianapolis
p1165
aVwho
p1166
aVused
p1167
aVto
p1168
aVbe
p1169
aVa
aVstar
p1170
aVathlete
p1171
aVand
p1172
aVnow
p1173
aVfinds
p1174
aVhimself
p1175
aVdying
p1176
aVfrom
p1177
aVcancer
p1178
aV.
aa(lp1179
Vgus
p1180
aVis
p1181
aVthe
p1182
aVboy
p1183
aVhis
p1184
aVparents
p1185
aVhave
p1186
aValways
p1187
aVseen
p1188
aV.
aa(lp1189
Vin
p1190
aVfact
p1191
aV,
aVhazel
p1192
aVonly
p1193
aVlearns
p1194
aVhis
p1195
aVnickname
p1196
aVis
p1197
aV``
p1198
aVgus
p1199
aV''
p1200
aVbecause
p1201
aVit
p1202
aV's
p1203
aVwhat
p1204
aVhis
p1205
aVparents
p1206
aVcall
p1207
aVhim
p1208
aV.
aa(lp1209
Vbut
p1210
aVhazel
p1211
aVdoes
p1212
aVn't
p1213
aVlove
p1214
aVhim
p1215
aVany
p1216
aVless
p1217
aVfor
p1218
aVbeing
p1219
aVgus
p1220
aV.
aa(lp1221
Vquite
p1222
aVthe
p1223
aVcontrary
p1224
aV:
aVshe
p1225
aVstarts
p1226
aVcalling
p1227
aVhim
p1228
aVgus
p1229
aVrather
p1230
aVthan
p1231
aVaugustus
p1232
aVonly
p1233
aVafter
p1234
aVthey
p1235
aV're
p1236
aVintimately
p1237
aVfamiliar
p1238
aVwith
p1239
aVone
p1240
aVanother
p1241
aV,
aVonce
p1242
aVhazel
p1243
aVknows
p1244
aVall
p1245
aVaspects
p1246
aVof
p1247
aVhim
p1248
aVand
p1249
aVnot
p1250
aVjust
p1251
aVthe
p1252
aVperformed
p1253
aVversion
p1254
aVshe
p1255
aVfirst
p1256
aVmeets
p1257
aV.
aa(lp1258
Vshe
p1259
aVsees
p1260
aVthat
p1261
aV,
aVunderneath
p1262
aVthe
p1263
aVromantic
p1264
aVgestures
p1265
aVand
p1266
aVtheatrical
p1267
aVgrandiosity
p1268
aV,
aVgus
p1269
aVis
p1270
aVa
aVsweet
p1271
aV,
aVcaring
p1272
aV,
aVand
p1273
aVunderstandably
p1274
aVterrified
p1275
aVseventeen-year-old
p1276
aVguy
p1277
aV.
aa(lp1278
Vwhat
p1279
aVmore
p1280
aV,
aVit
p1281
aV's
p1282
aVhis
p1283
aVlove
p1284
aVfor
p1285
aVhazel
p1286
aVgrace
p1287
aVthat
p1288
aVteaches
p1289
aVaugustus
p1290
aVits
p1291
aVokay
p1292
aVto
p1293
aVbe
p1294
aVgus
p1295
aV.
aa(lp1296
Vas
p1297
aVhe
p1298
aVdeteriorates
p1299
aVphysically
p1300
aV,
aVhe
p1301
aV's
p1302
aVforced
p1303
aVto
p1304
aVconfront
p1305
aVthe
p1306
aVfact
p1307
aVthat
p1308
aVhe
p1309
aV'll
p1310
aVdie
p1311
aVwithout
p1312
aVdoing
p1313
aVanything
p1314
aVhumanity
p1315
aVat
p1316
aVlarge
p1317
aVviews
p1318
aVas
p1319
aVextraordinary
p1320
aV,
aVand
p1321
aVa
aVdeeper
p1322
aVspiritual
p1323
aVtransition
p1324
aVtakes
p1325
aVplace
p1326
aV.
aa(lp1327
Vbecause
p1328
aVof
p1329
aVhazel
p1330
aV,
aVhe
p1331
aVcomes
p1332
aVto
p1333
aVrealize
p1334
aVthat
p1335
aVfailing
p1336
aVto
p1337
aVdo
p1338
aVsomething
p1339
aVextraordinary
p1340
aVdoes
p1341
aVnot
p1342
aVequal
p1343
aVbeing
p1344
aVinsignificant
p1345
aV.
aa(lp1346
Vover
p1347
aVthe
p1348
aVcourse
p1349
aVof
p1350
aVthe
p1351
aVnovel
p1352
aVthe
p1353
aVtrue
p1354
aVgus
p1355
aVreveals
p1356
aVhimself
p1357
aVthrough
p1358
aVthe
p1359
aVmost
p1360
aVemblematic
p1361
aVgesture
p1362
aVof
p1363
aVhis
p1364
aVaugustinian
p1365
aVcounterpart
p1366
aV:
aVthe
p1367
aVact
p1368
aVof
p1369
aVplacing
p1370
aVa
aVcigarette
p1371
aVin
p1372
aVhis
p1373
aVmouth
p1374
aV.
aa(lp1375
Vthe
p1376
aVcigarette
p1377
aVmetaphor
p1378
aVserves
p1379
aVas
p1380
aVa
aVlink
p1381
aVthat
p1382
aVbinds
p1383
aVthe
p1384
aVtwo
p1385
aVdisparate
p1386
aVidentities
p1387
aV.
aa(lp1388
Vthat
p1389
aV's
p1390
aVbecause
p1391
aVthe
p1392
aVcigarette
p1393
aVreveals
p1394
aVthe
p1395
aVopposite
p1396
aVof
p1397
aVwhat
p1398
aVit
p1399
aVis
p1400
aVmeant
p1401
aVto
p1402
aVproject
p1403
aV:
aVaugustus
p1404
aVwants
p1405
aVfor
p1406
aVthe
p1407
aVcigarette
p1408
aVto
p1409
aVrepresent
p1410
aVhis
p1411
aVcontrol
p1412
aVover
p1413
aVthe
p1414
aVthing
p1415
aVthat
p1416
aVcould
p1417
aVkill
p1418
aVhim
p1419
aV,
aVbut
p1420
aVreally
p1421
aVit
p1422
aVis
p1423
aVa
aVdevice
p1424
aVhe
p1425
aVrelies
p1426
aVon
p1427
aVwhen
p1428
aVfeeling
p1429
aVmost
p1430
aVvulnerable
p1431
aV,
aVmost
p1432
aVlike
p1433
aVgus
p1434
aV.
aa(lp1435
Vhe
p1436
aVgrabs
p1437
aVfor
p1438
aVthe
p1439
aVcigarette
p1440
aVat
p1441
aVtimes
p1442
aVof
p1443
aVuncertainty
p1444
aV,
aVlike
p1445
aVwhen
p1446
aVhe
p1447
aVfirst
p1448
aVmeets
p1449
aVhazel
p1450
aVor
p1451
aVon
p1452
aVboard
p1453
aVthe
p1454
aVplane
p1455
aV,
aVwhen
p1456
aVhe
p1457
aVfearful
p1458
aVof
p1459
aVflying
p1460
aV.
aa(lp1461
Vpeter
p1462
aVvan
p1463
aVhouten
p1464
aV:
aVin
p1465
aVa
aVnovel
p1466
aVthat
p1467
aVis
p1468
aVsomewhat
p1469
aVstructured
p1470
aVaround
p1471
aVmetafiction
p1472
aV,
aVwith
p1473
aVan
p1474
aVimperial
p1475
aVaffliction
p1476
aVplaying
p1477
aVa
aVstarring
p1478
aVrole
p1479
aVin
p1480
aVthe
p1481
aVfiction
p1482
aVwe
p1483
aV're
p1484
aVreading
p1485
aV,
aVvan
p1486
aVhouten
p1487
aVis
p1488
aVits
p1489
aVkeenest
p1490
aVrepresentative
p1491
aV.
aa(lp1492
Vas
p1493
aVsuch
p1494
aV,
aVhe
p1495
aVreveals
p1496
aVthe
p1497
aVmagical
p1498
aVpower
p1499
aVof
p1500
aVfiction
p1501
aVwhile
p1502
aVsimultaneously
p1503
aVdemystifying
p1504
aVthe
p1505
aVromance
p1506
aVattributed
p1507
aVto
p1508
aVauthorship
p1509
aV.
aa(lp1510
Vfor
p1511
aVmost
p1512
aVof
p1513
aVthe
p1514
aVnovel
p1515
aVhazel
p1516
aVconsiders
p1517
aVvan
p1518
aVhouten
p1519
aVa
aVveritable
p1520
aVgod
p1521
aV,
aVor
p1522
aVat
p1523
aVthe
p1524
aVvery
p1525
aVleast
p1526
aV,
aVa
aVpowerful
p1527
aVprophet
p1528
aV.
aa(lp1529
Van
p1530
aVimperial
p1531
aVaffliction
p1532
aVis
p1533
aVhazel
p1534
aV's
p1535
aVpersonal
p1536
aVbible
p1537
aV.
aa(lp1538
Vthe
p1539
aVnovel
p1540
aVspeaks
p1541
aVto
p1542
aVher
p1543
aVabout
p1544
aVterminal
p1545
aVillness
p1546
aVin
p1547
aVways
p1548
aVthat
p1549
aVno
p1550
aVother
p1551
aVmedium
p1552
aV,
aVor
p1553
aVperson
p1554
aV,
aVor
p1555
aVsupport
p1556
aVgroup
p1557
aVever
p1558
aVdo
p1559
aV.
aa(lp1560
Vthe
p1561
aVact
p1562
aVof
p1563
aVreading
p1564
aVvan
p1565
aVhouten
p1566
aV's
p1567
aVnovel
p1568
aVis
p1569
aVso
p1570
aVincredibly
p1571
aVpersonal
p1572
aVto
p1573
aVhazel
p1574
aVthat
p1575
aVshe
p1576
aVmistakenly
p1577
aVconflates
p1578
aVthe
p1579
aVnovel
p1580
aV's
p1581
aVmagic
p1582
aVwith
p1583
aVits
p1584
aVauthor
p1585
aV's
p1586
aVgreatness
p1587
aV.
aa(lp1588
Vhowever
p1589
aV,
aVwhen
p1590
aVhazel
p1591
aVfirst
p1592
aVmeets
p1593
aVvan
p1594
aVhouten
p1595
aV,
aVthe
p1596
aVmagic
p1597
aVfeeling
p1598
aVbecomes
p1599
aVdeflated
p1600
aV.
aa(lp1601
Vshe
p1602
aVsees
p1603
aVhim
p1604
aVfor
p1605
aVthe
p1606
aVsloppy
p1607
aVand
p1608
aVoften
p1609
aVmean-spirited
p1610
aVdrunk
p1611
aVhe
p1612
aVreally
p1613
aVis
p1614
aV.
aa(lp1615
Vshe
p1616
aVlearns
p1617
aVthat
p1618
aVan
p1619
aVauthor
p1620
aVis
p1621
aVnothing
p1622
aVmore
p1623
aVthan
p1624
aVa
aVhuman
p1625
aVbeing
p1626
aV,
aVwith
p1627
aVhuman
p1628
aVqualities
p1629
aVand
p1630
aVproblems
p1631
aV.
aa(lp1632
Vvan
p1633
aVhouten
p1634
aVwears
p1635
aVa
aVlot
p1636
aVof
p1637
aVmasks
p1638
aVthroughout
p1639
aVthe
p1640
aVnovel
p1641
aV.
aa(lp1642
Vone
p1643
aVof
p1644
aVhis
p1645
aVmost
p1646
aVcrucial
p1647
aVroles
p1648
aVis
p1649
aVto
p1650
aVdepict
p1651
aVthe
p1652
aVvariety
p1653
aVof
p1654
aVways
p1655
aVin
p1656
aVwhich
p1657
aVpeople
p1658
aVdeal
p1659
aVwith
p1660
aVpain
p1661
aV.
aa(lp1662
Vwhen
p1663
aVwe
p1664
aVlearn
p1665
aVthat
p1666
aVan
p1667
aVimperial
p1668
aVaffliction
p1669
aVis
p1670
aVreally
p1671
aVa
aVfictional
p1672
aVaccount
p1673
aVof
p1674
aVthe
p1675
aVlife
p1676
aVof
p1677
aVvan
p1678
aVhouten
p1679
aV's
p1680
aVdaughter
p1681
aV,
aVanna
p1682
aV,
aVwho
p1683
aVdied
p1684
aVfrom
p1685
aVcancer
p1686
aVat
p1687
aVa
aVyoung
p1688
aVage
p1689
aV,
aVwe
p1690
aVare
p1691
aVable
p1692
aVto
p1693
aVsee
p1694
aVthe
p1695
aVauthor
p1696
aVmore
p1697
aVsympathetically
p1698
aV.
aa(lp1699
Vhe
p1700
aVis
p1701
aVthe
p1702
aVreal
p1703
aVlife
p1704
aVtragic
p1705
aVversion
p1706
aVof
p1707
aVthe
p1708
aVfictional
p1709
aVanna
p1710
aV's
p1711
aVmother
p1712
aVin
p1713
aVhis
p1714
aVnovel
p1715
aV.
aa(lp1716
Vit
p1717
aVmakes
p1718
aVhim
p1719
aVthe
p1720
aVliving
p1721
aVembodiment
p1722
aVof
p1723
aVhazel
p1724
aV's
p1725
aVgreatest
p1726
aVfear
p1727
aV:
aVthat
p1728
aVher
p1729
aVparents
p1730
aVwill
p1731
aVbe
p1732
aVso
p1733
aVdistraught
p1734
aVby
p1735
aVher
p1736
aVdeath
p1737
aVthat
p1738
aVthey
p1739
aVwill
p1740
aVnot
p1741
aVbe
p1742
aVable
p1743
aVto
p1744
aVgo
p1745
aVon
p1746
aV.
aassS'isaac'
p1747
(dp1748
g20
(lp1749
(lp1750
V[
aVCHARACTER
p1751
aV]
aV-
aVthe
p1752
aVmutual
p1753
aVfriend
p1754
aVof
p1755
aVhazel
p1756
aV's
p1757
aVand
p1758
aVaugustus
p1759
aV's
p1760
aVwho
p1761
aVfacilitates
p1762
aVtheir
p1763
aVintroduction
p1764
aVat
p1765
aVsupport
p1766
aVgroup
p1767
aV.
aa(lp1768
V[
aVCHARACTER
p1769
aV]
aVis
p1770
aVcynical
p1771
aVby
p1772
aVnature
p1773
aV.
aa(lp1774
Vblinded
p1775
aVby
p1776
aVcancer
p1777
aVand
p1778
aVkicked
p1779
aVto
p1780
aVthe
p1781
aVcurb
p1782
aVby
p1783
aVhis
p1784
aVgirlfriend
p1785
aVmonica
p1786
aV,
aV[
aVCHARACTER
p1787
aV]
aVoften
p1788
aVembodies
p1789
aVskepticism
p1790
aVand
p1791
aVrage
p1792
aV.
aa(lp1793
Vit
p1794
aVis
p1795
aVworth
p1796
aVnoting
p1797
aVthat
p1798
aVhe
p1799
aVshares
p1800
aVhis
p1801
aVname
p1802
aVwith
p1803
aVbiblical
p1804
aV[
aVCHARACTER
p1805
aV]
aV,
aVwho
p1806
aValso
p1807
aVwas
p1808
aVblind
p1809
aV.
aasg45
NssS'lidewij vliegenthart'
p1810
(dp1811
g20
(lp1812
(lp1813
V[
aVCHARACTER
p1814
aV]
aV-
aVpeter
p1815
aVvan
p1816
aVhouten
p1817
aV's
p1818
aVassistant
p1819
aV.
aa(lp1820
Vinitially
p1821
aVresponsible
p1822
aVfor
p1823
aVrelaying
p1824
aVhazel
p1825
aVand
p1826
aVaugustus
p1827
aV's
p1828
aVcommunications
p1829
aVto
p1830
aVthe
p1831
aVauthor
p1832
aV,
aVlidewij
p1833
aVcomes
p1834
aVto
p1835
aVact
p1836
aVas
p1837
aVa
aVvoice
p1838
aVof
p1839
aVreason
p1840
aVfor
p1841
aVvan
p1842
aVhouten
p1843
aV.
aasg45
NssS'caroline mathers'
p1844
(dp1845
g20
(lp1846
(lp1847
V[
aVCHARACTER
p1848
aV]
aV-
aVaugustus
p1849
aV's
p1850
aVformer
p1851
aVgirlfriend
p1852
aVwho
p1853
aVdied
p1854
aVfrom
p1855
aVbrain
p1856
aVcancer
p1857
aV.
aa(lp1858
Valthough
p1859
aVwe
p1860
aVnever
p1861
aVmeet
p1862
aVher
p1863
aVdirectly
p1864
aV,
aVwe
p1865
aVlearn
p1866
aVthat
p1867
aVthe
p1868
aVcancer
p1869
aVchanged
p1870
aVher
p1871
aVpersonality
p1872
aV.
aa(lp1873
Vshe
p1874
aVbecame
p1875
aVselfish
p1876
aV,
aVimpulsive
p1877
aV,
aVand
p1878
aVcruel
p1879
aV,
aVespecially
p1880
aVin
p1881
aVregard
p1882
aVto
p1883
aVaugustus
p1884
aV.
aa(lp1885
Vcaroline
p1886
aVrepresents
p1887
aVthe
p1888
aVrealistic
p1889
aVhorrors
p1890
aVassociated
p1891
aVwith
p1892
aVterminal
p1893
aVcancer
p1894
aV.
aasg45
NssS'anna'
p1895
(dp1896
g20
(lp1897
(lp1898
V[
aVCHARACTER
p1899
aV]
aV-
aVthe
p1900
aVprotagonist
p1901
aVof
p1902
aVan
p1903
aVimperial
p1904
aVaffliction
p1905
aV.
aa(lp1906
V[
aVCHARACTER
p1907
aV]
aVis
p1908
aVa
aVgirl
p1909
aVof
p1910
aVabout
p1911
aVhazel
p1912
aV's
p1913
aVage
p1914
aVwho
p1915
aValso
p1916
aVsuffers
p1917
aVfrom
p1918
aVa
aVterminal
p1919
aVillness
p1920
aV.
aa(lp1921
Vhazel
p1922
aVgreatly
p1923
aVadmires
p1924
aVthe
p1925
aVhonesty
p1926
aVwith
p1927
aVwhich
p1928
aV[
aVCHARACTER
p1929
aV]
aVdeals
p1930
aVwith
p1931
aVher
p1932
aVcancer
p1933
aV.
aa(lp1934
Van
p1935
aVimperial
p1936
aVaffliction
p1937
aVends
p1938
aVmidsentence
p1939
aV,
aVcausing
p1940
aVhazel
p1941
aVto
p1942
aVspeculate
p1943
aVabout
p1944
aVher
p1945
aVbeloved
p1946
aV[
aVCHARACTER
p1947
aV]
aV's
p1948
aVfate
p1949
aV.
aasg45
NsssS'mainText'
p1950
(lp1951
(lp1952
Vthe
p1953
aVfault
p1954
aVin
p1955
aVour
p1956
aVstars
p1957
aVchapter
p1958
aVone
p1959
aVlate
p1960
aVin
p1961
aVthe
p1962
aVwinter
p1963
aVof
p1964
aVmy
p1965
aVseventeenth
p1966
aVyear
p1967
aV,
aVmy
p1968
aVmother
p1969
aVdecided
p1970
aVi
aVwas
p1971
aVdepressed
p1972
aV,
aVpresumably
p1973
aVbecause
p1974
aVi
aVrarely
p1975
aVleft
p1976
aVthe
p1977
aVhouse
p1978
aV,
aVspent
p1979
aVquite
p1980
aVa
aVlot
p1981
aVof
p1982
aVtime
p1983
aVin
p1984
aVbed
p1985
aV,
aVread
p1986
aVthe
p1987
aVsame
p1988
aVbook
p1989
aVover
p1990
aVand
p1991
aVover
p1992
aV,
aVate
p1993
aVinfrequently
p1994
aV,
aVand
p1995
aVdevoted
p1996
aVquite
p1997
aVa
aVbit
p1998
aVof
p1999
aVmy
p2000
aVabundant
p2001
aVfree
p2002
aVtime
p2003
aVto
p2004
aVthinking
p2005
aVabout
p2006
aVdeath
p2007
aV.
aa(lp2008
Vwhenever
p2009
aVyou
p2010
aVread
p2011
aVa
aVcancer
p2012
aVbooklet
p2013
aVor
p2014
aVwebsite
p2015
aVor
p2016
aVwhatever
p2017
aV,
aVthey
p2018
aValways
p2019
aVlist
p2020
aVdepression
p2021
aVamong
p2022
aVthe
p2023
aVside
p2024
aVeffects
p2025
aVof
p2026
aVcancer
p2027
aV.
aa(lp2028
Vbut
p2029
aV,
aVin
p2030
aVfact
p2031
aV,
aVdepression
p2032
aVis
p2033
aVnot
p2034
aVa
aVside
p2035
aVeffect
p2036
aVof
p2037
aVcancer
p2038
aV.
aa(lp2039
Vdepression
p2040
aVis
p2041
aVa
aVside
p2042
aVeffect
p2043
aVof
p2044
aVdying
p2045
aV.
aa(lp2046
V(
aVcancer
p2047
aVis
p2048
aValso
p2049
aVa
aVside
p2050
aVeffect
p2051
aVof
p2052
aVdying
p2053
aV.
aa(lp2054
Valmost
p2055
aVeverything
p2056
aVis
p2057
aV,
aVreally
p2058
aV.
aV)
aa(lp2059
Vbut
p2060
aVmy
p2061
aVmom
p2062
aVbelieved
p2063
aVi
aVrequired
p2064
aVtreatment
p2065
aV,
aVso
p2066
aVshe
p2067
aVtook
p2068
aVme
p2069
aVto
p2070
aVsee
p2071
aV3
aVjohn
p2072
aVgreen
p2073
aVmy
p2074
aVregular
p2075
aVdoctor
p2076
aVjim
p2077
aV,
aVwho
p2078
aVagreed
p2079
aVthat
p2080
aVi
aVwas
p2081
aVveritably
p2082
aVswimming
p2083
aVin
p2084
aVa
aVparalyzing
p2085
aVand
p2086
aVtotally
p2087
aVclinical
p2088
aVdepression
p2089
aV,
aVand
p2090
aVthat
p2091
aVtherefore
p2092
aVmy
p2093
aVmeds
p2094
aVshould
p2095
aVbe
p2096
aVadjusted
p2097
aVand
p2098
aValso
p2099
aVi
aVshould
p2100
aVattend
p2101
aVa
aVweekly
p2102
aVsupport
p2103
aVgroup
p2104
aV.
aa(lp2105
Vthis
p2106
aVsupport
p2107
aVgroup
p2108
aVfeatured
p2109
aVa
aVrotating
p2110
aVcast
p2111
aVof
p2112
aVcharac-
p2113
aVters
p2114
aVin
p2115
aVvarious
p2116
aVstates
p2117
aVof
p2118
aVtumor-driven
p2119
aVunwellness
p2120
aV.
aa(lp2121
Vwhy
p2122
aVdid
p2123
aVthe
p2124
aVcast
p2125
aVrotate
p2126
aV?
aa(lp2127
Va
aVside
p2128
aVeffect
p2129
aVof
p2130
aVdying
p2131
aV.
aa(lp2132
Vthe
p2133
aVsupport
p2134
aVgroup
p2135
aV,
aVof
p2136
aVcourse
p2137
aV,
aVwas
p2138
aVdepressing
p2139
aVas
p2140
aVhell
p2141
aV.
aa(lp2142
Vit
p2143
aVmet
p2144
aVevery
p2145
aVwednesday
p2146
aVin
p2147
aVthe
p2148
aVbasement
p2149
aVof
p2150
aVa
aVstone-walled
p2151
aVepiscopal
p2152
aVchurch
p2153
aVshaped
p2154
aVlike
p2155
aVa
aVcross
p2156
aV.
aa(lp2157
Vwe
p2158
aVall
p2159
aVsat
p2160
aVin
p2161
aVa
aVcircle
p2162
aVright
p2163
aVin
p2164
aVthe
p2165
aVmiddle
p2166
aVof
p2167
aVthe
p2168
aVcross
p2169
aV,
aVwhere
p2170
aVthe
p2171
aVtwo
p2172
aVboards
p2173
aVwould
p2174
aVhave
p2175
aVmet
p2176
aV,
aVwhere
p2177
aVthe
p2178
aVheart
p2179
aVof
p2180
aVjesus
p2181
aVwould
p2182
aVhave
p2183
aVbeen
p2184
aV.
aa(lp2185
Vi
aVnoticed
p2186
aVthis
p2187
aVbecause
p2188
aVpatrick
p2189
aV,
aVthe
p2190
aVsupport
p2191
aVgroup
p2192
aVleader
p2193
aVand
p2194
aVonly
p2195
aVperson
p2196
aVover
p2197
aVeighteen
p2198
aVin
p2199
aVthe
p2200
aVroom
p2201
aV,
aVtalked
p2202
aVabout
p2203
aVthe
p2204
aVheart
p2205
aVof
p2206
aVjesus
p2207
aVevery
p2208
aVfreaking
p2209
aVmeeting
p2210
aV,
aVall
p2211
aVabout
p2212
aVhow
p2213
aVwe
p2214
aV,
aVas
p2215
aVyoung
p2216
aVcancer
p2217
aVsurvivors
p2218
aV,
aVwere
p2219
aVsitting
p2220
aVright
p2221
aVin
p2222
aVchrist
p2223
aV's
p2224
aVvery
p2225
aVsacred
p2226
aVheart
p2227
aVand
p2228
aVwhatever
p2229
aV.
aa(lp2230
Vso
p2231
aVhere
p2232
aV's
p2233
aVhow
p2234
aVit
p2235
aVwent
p2236
aVin
p2237
aVgod
p2238
aV's
p2239
aVheart
p2240
aV:
aVthe
p2241
aVsix
p2242
aVor
p2243
aVseven
p2244
aVor
p2245
aVten
p2246
aVof
p2247
aVus
p2248
aVwalked/wheeled
p2249
aVin
p2250
aV,
aVgrazed
p2251
aVat
p2252
aVa
aVdecrepit
p2253
aVselection
p2254
aVof
p2255
aVcookies
p2256
aVand
p2257
aVlemonade
p2258
aV,
aVsat
p2259
aVdown
p2260
aVin
p2261
aVthe
p2262
aVcircle
p2263
aVof
p2264
aVtrust
p2265
aV,
aVand
p2266
aVlistened
p2267
aVto
p2268
aVpatrick
p2269
aVrecount
p2270
aVfor
p2271
aVthe
p2272
aVthousandth
p2273
aVtime
p2274
aVhis
p2275
aVdepressingly
p2276
aVmiserable
p2277
aVlife
p2278
aVstory\u2014
p2279
aVhow
p2280
aVhe
p2281
aVhad
p2282
aVcancer
p2283
aVin
p2284
aVhis
p2285
aVballs
p2286
aVand
p2287
aVthey
p2288
aVthought
p2289
aVhe
p2290
aVwas
p2291
aVgoing
p2292
aVto
p2293
aVdie
p2294
aVbut
p2295
aVhe
p2296
aVdid
p2297
aVn't
p2298
aVdie
p2299
aVand
p2300
aVnow
p2301
aVhere
p2302
aVhe
p2303
aVis
p2304
aV,
aVa
aVfull-grown
p2305
aVadult
p2306
aVin
p2307
aVa
aVchurch
p2308
aVbasement
p2309
aVin
p2310
aVthe
p2311
aV137th
p2312
aVnicest
p2313
aVcity
p2314
aVin
p2315
aVamerica
p2316
aV,
aVdivorced
p2317
aV,
aVaddicted
p2318
aVto
p2319
aVvideo
p2320
aVgames
p2321
aV,
aVmostly
p2322
aVfriendless
p2323
aV,
aVeking
p2324
aVout
p2325
aVa
aVmeager
p2326
aVliving
p2327
aV4
aVthe
p2328
aVfault
p2329
aVin
p2330
aVour
p2331
aVstars
p2332
aVby
p2333
aVexploiting
p2334
aVhis
p2335
aVcancertastic
p2336
aVpast
p2337
aV,
aVslowly
p2338
aVworking
p2339
aVhis
p2340
aVway
p2341
aVtoward
p2342
aVa
aVmaster
p2343
aV's
p2344
aVdegree
p2345
aVthat
p2346
aVwill
p2347
aVnot
p2348
aVimprove
p2349
aVhis
p2350
aVcareer
p2351
aVprospects
p2352
aV,
aVwaiting
p2353
aV,
aVas
p2354
aVwe
p2355
aVall
p2356
aVdo
p2357
aV,
aVfor
p2358
aVthe
p2359
aVsword
p2360
aVof
p2361
aVdamocles
p2362
aVto
p2363
aVgive
p2364
aVhim
p2365
aVthe
p2366
aVrelief
p2367
aVthat
p2368
aVhe
p2369
aVescaped
p2370
aVlo
p2371
aVthose
p2372
aVmany
p2373
aVyears
p2374
aVago
p2375
aVwhen
p2376
aVcancer
p2377
aVtook
p2378
aVboth
p2379
aVof
p2380
aVhis
p2381
aVnuts
p2382
aVbut
p2383
aVspared
p2384
aVwhat
p2385
aVonly
p2386
aVthe
p2387
aVmost
p2388
aVgenerous
p2389
aVsoul
p2390
aVwould
p2391
aVcall
p2392
aVhis
p2393
aVlife
p2394
aV.
aa(lp2395
Vand
p2396
aVyou
p2397
aVtoo
p2398
aVmight
p2399
aVbe
p2400
aVso
p2401
aVlucky
p2402
aV!
aa(lp2403
Vthen
p2404
aVwe
p2405
aVintroduced
p2406
aVourselves
p2407
aV:
aVname
p2408
aV.
aa(lp2409
Vage
p2410
aV.
aa(lp2411
Vdiagnosis
p2412
aV.
aa(lp2413
Vand
p2414
aVhow
p2415
aVwe
p2416
aV're
p2417
aVdoing
p2418
aVtoday
p2419
aV.
aa(lp2420
Vi
aV'm
p2421
aVhazel
p2422
aV,
aVi
aV'd
p2423
aVsay
p2424
aVwhen
p2425
aVthey'd
p2426
aVget
p2427
aVto
p2428
aVme
p2429
aV.
aa(lp2430
Vsixteen
p2431
aV.
aa(lp2432
Vthyroid
p2433
aVoriginally
p2434
aVbut
p2435
aVwith
p2436
aVan
p2437
aVimpres-
p2438
aVsive
p2439
aVand
p2440
aVlong-settled
p2441
aVsatellite
p2442
aVcolony
p2443
aVin
p2444
aVmy
p2445
aVlungs
p2446
aV.
aa(lp2447
Vand
p2448
aVi'm
p2449
aVdoing
p2450
aVokay
p2451
aV.
aa(lp2452
Vonce
p2453
aVwe
p2454
aVgot
p2455
aVaround
p2456
aVthe
p2457
aVcircle
p2458
aV,
aVpatrick
p2459
aValways
p2460
aVasked
p2461
aVif
p2462
aVanyone
p2463
aVwanted
p2464
aVto
p2465
aVshare
p2466
aV.
aa(lp2467
Vand
p2468
aVthen
p2469
aVbegan
p2470
aVthe
p2471
aVcircle
p2472
aVjerk
p2473
aVof
p2474
aVsupport
p2475
aV:
aVeveryone
p2476
aVtalking
p2477
aVabout
p2478
aVfighting
p2479
aVand
p2480
aVbattling
p2481
aVand
p2482
aVwinning
p2483
aVand
p2484
aVshrinking
p2485
aVand
p2486
aVscanning
p2487
aV.
aa(lp2488
Vto
p2489
aVbe
p2490
aVfair
p2491
aVto
p2492
aVpatrick
p2493
aV,
aVhe
p2494
aVlet
p2495
aVus
p2496
aVtalk
p2497
aVabout
p2498
aVdying
p2499
aV,
aVtoo
p2500
aV.
aa(lp2501
Vbut
p2502
aVmost
p2503
aVof
p2504
aVthem
p2505
aVweren't
p2506
aVdying
p2507
aV.
aa(lp2508
Vmost
p2509
aVwould
p2510
aVlive
p2511
aVinto
p2512
aVadulthood
p2513
aV,
aVas
p2514
aVpatrick
p2515
aVhad
p2516
aV.
aa(lp2517
V(
aVwhich
p2518
aVmeant
p2519
aVthere
p2520
aVwas
p2521
aVquite
p2522
aVa
aVlot
p2523
aVof
p2524
aVcompetitiveness
p2525
aVabout
p2526
aVit
p2527
aV,
aVwith
p2528
aVeverybody
p2529
aVwanting
p2530
aVto
p2531
aVbeat
p2532
aVnot
p2533
aVonly
p2534
aVcancer
p2535
aVitself
p2536
aV,
aVbut
p2537
aValso
p2538
aVthe
p2539
aVother
p2540
aVpeople
p2541
aVin
p2542
aVthe
p2543
aVroom
p2544
aV.
aa(lp2545
Vlike
p2546
aV,
aVi
aVrealize
p2547
aVthat
p2548
aVthis
p2549
aVis
p2550
aVirrational
p2551
aV,
aVbut
p2552
aVwhen
p2553
aVthey
p2554
aVtell
p2555
aVyou
p2556
aVthat
p2557
aVyou
p2558
aVhave
p2559
aV,
aVsay
p2560
aV,
aVa
aV20
p2561
aVpercent
p2562
aVchance
p2563
aVof
p2564
aVliving
p2565
aVfive
p2566
aVyears
p2567
aV,
aVthe
p2568
aVmath
p2569
aVkicks
p2570
aVin
p2571
aVand
p2572
aVyou
p2573
aVfigure
p2574
aVthat
p2575
aV's
p2576
aVone
p2577
aVin
p2578
aVfive
p2579
aV...
p2580
aVso
p2581
aVyou
p2582
aVlook
p2583
aVaround
p2584
aVand
p2585
aVthink
p2586
aV,
aVas
p2587
aVany
p2588
aVhealthy
p2589
aVperson
p2590
aVwould
p2591
aV:
aVi
aVgot
p2592
aVta
p2593
aVoutlast
p2594
aVfour
p2595
aVof
p2596
aVthese
p2597
aVbastards
p2598
aV.
aV)
aa(lp2599
V5
aVjohn
p2600
aVgreen
p2601
aVthe
p2602
aVonly
p2603
aVredeeming
p2604
aVfacet
p2605
aVof
p2606
aVsupport
p2607
aVgroup
p2608
aVwas
p2609
aVthis
p2610
aVkid
p2611
aVnamed
p2612
aVisaac
p2613
aV,
aVa
aVlong-faced
p2614
aV,
aVskinny
p2615
aVguy
p2616
aVwith
p2617
aVstraight
p2618
aVblond
p2619
aVhair
p2620
aVswept
p2621
aVover
p2622
aVone
p2623
aVeye
p2624
aV.
aa(lp2625
Vand
p2626
aVhis
p2627
aVeyes
p2628
aVwere
p2629
aVthe
p2630
aVproblem
p2631
aV.
aa(lp2632
Vhe
p2633
aVhad
p2634
aVsome
p2635
aVfantastically
p2636
aVimprobable
p2637
aVeye
p2638
aVcancer
p2639
aV.
aa(lp2640
Vone
p2641
aVeye
p2642
aVhad
p2643
aVbeen
p2644
aVcut
p2645
aVout
p2646
aVwhen
p2647
aVhe
p2648
aVwas
p2649
aVa
aVkid
p2650
aV,
aVand
p2651
aVnow
p2652
aVhe
p2653
aVwore
p2654
aVthe
p2655
aVkind
p2656
aVof
p2657
aVthick
p2658
aVglasses
p2659
aVthat
p2660
aVmade
p2661
aVhis
p2662
aVeyes
p2663
aV(
aVboth
p2664
aVthe
p2665
aVreal
p2666
aVone
p2667
aVand
p2668
aVthe
p2669
aVglass
p2670
aVone
p2671
aV)
aVpreternaturally
p2672
aVhuge
p2673
aV,
aVlike
p2674
aVhis
p2675
aVwhole
p2676
aVhead
p2677
aVwas
p2678
aVbasically
p2679
aVjust
p2680
aVthis
p2681
aVfake
p2682
aVeye
p2683
aVand
p2684
aVthis
p2685
aVreal
p2686
aVeye
p2687
aVstaring
p2688
aVat
p2689
aVyou
p2690
aV.
aa(lp2691
Vfrom
p2692
aVwhat
p2693
aVi
aVcould
p2694
aVgather
p2695
aVon
p2696
aVthe
p2697
aVrare
p2698
aVoccasions
p2699
aVwhen
p2700
aVisaac
p2701
aVshared
p2702
aVwith
p2703
aVthe
p2704
aVgroup
p2705
aV,
aVa
aVrecurrence
p2706
aVhad
p2707
aVplaced
p2708
aVhis
p2709
aVremaining
p2710
aVeye
p2711
aVin
p2712
aVmortal
p2713
aVperil
p2714
aV.
aa(lp2715
Visaac
p2716
aVand
p2717
aVi
aVcommunicated
p2718
aValmost
p2719
aVexclusively
p2720
aVthrough
p2721
aVsighs
p2722
aV.
aa(lp2723
Veach
p2724
aVtime
p2725
aVsomeone
p2726
aVdiscussed
p2727
aVanticancer
p2728
aVdiets
p2729
aVor
p2730
aVsnorting
p2731
aVground-up
p2732
aVshark
p2733
aVfin
p2734
aVor
p2735
aVwhatever
p2736
aV,
aVhe
p2737
aV'd
p2738
aVglance
p2739
aVover
p2740
aVat
p2741
aVme
p2742
aVand
p2743
aVsigh
p2744
aVever
p2745
aVso
p2746
aVslightly
p2747
aV.
aa(lp2748
Vi
aV'd
p2749
aVshake
p2750
aVmy
p2751
aVhead
p2752
aVmicroscopically
p2753
aVand
p2754
aVexhale
p2755
aVin
p2756
aVresponse
p2757
aV.
aa(lp2758
Vso
p2759
aVsupport
p2760
aVgroup
p2761
aVblew
p2762
aV,
aVand
p2763
aVafter
p2764
aVa
aVfew
p2765
aVweeks
p2766
aV,
aVi
aVgrew
p2767
aVto
p2768
aVbe
p2769
aVrather
p2770
aVkicking-and-screaming
p2771
aVabout
p2772
aVthe
p2773
aVwhole
p2774
aVaffair
p2775
aV.
aa(lp2776
Vin
p2777
aVfact
p2778
aV,
aVon
p2779
aVthe
p2780
aVwednesday
p2781
aVi
aVmade
p2782
aVthe
p2783
aVacquaintance
p2784
aVof
p2785
aVaugustus
p2786
aVwaters
p2787
aV,
aVi
aVtried
p2788
aVmy
p2789
aVlevel
p2790
aVbest
p2791
aVto
p2792
aVget
p2793
aVout
p2794
aVof
p2795
aVsupport
p2796
aVgroup
p2797
aVwhile
p2798
aVsitting
p2799
aVon
p2800
aVthe
p2801
aVcouch
p2802
aVwith
p2803
aVmy
p2804
aVmom
p2805
aVin
p2806
aVthe
p2807
aVthird
p2808
aVleg
p2809
aVof
p2810
aVa
aVtwelve-hour
p2811
aVmarathon
p2812
aVof
p2813
aVthe
p2814
aVprevious
p2815
aVseason's
p2816
aVamerica
p2817
aV's
p2818
aVnext
p2819
aVtop
p2820
aVmodel
p2821
aV,
aVwhich
p2822
aVadmittedly
p2823
aVi
aVhad
p2824
aValready
p2825
aVseen
p2826
aV,
aVbut
p2827
aVstill
p2828
aV.
aa(lp2829
V6
aVthe
p2830
aVfault
p2831
aVin
p2832
aVour
p2833
aVstars
p2834
aVme
p2835
aV:
aV``
p2836
aVi
aVrefuse
p2837
aVto
p2838
aVattend
p2839
aVsupport
p2840
aVgroup
p2841
aV.
aV''
p2842
aa(lp2843
Vmom
p2844
aV:
aV``
p2845
aVone
p2846
aVof
p2847
aVthe
p2848
aVsymptoms
p2849
aVof
p2850
aVdepression
p2851
aVis
p2852
aVdisinter-
p2853
aVest
p2854
aVin
p2855
aVactivities
p2856
aV.
aV''
p2857
aa(lp2858
Vme
p2859
aV:
aV``
p2860
aVplease
p2861
aVjust
p2862
aVlet
p2863
aVme
p2864
aVwatch
p2865
aVamerica
p2866
aV's
p2867
aVnext
p2868
aVtop
p2869
aVmodel
p2870
aV.
aa(lp2871
Vit
p2872
aV's
p2873
aVan
p2874
aVactivity
p2875
aV.
aV''
p2876
aa(lp2877
Vmom
p2878
aV:
aV``
p2879
aVtelevision
p2880
aVis
p2881
aVa
aVpassivity
p2882
aV.
aV''
p2883
aa(lp2884
Vme
p2885
aV:
aV``
p2886
aVugh
p2887
aV,
aVmom
p2888
aV,
aVplease
p2889
aV.
aV''
p2890
aa(lp2891
Vmom
p2892
aV:
aV``
p2893
aVhazel
p2894
aV,
aVyou
p2895
aV're
p2896
aVa
aVteenager
p2897
aV.
aa(lp2898
Vyou
p2899
aV're
p2900
aVnot
p2901
aVa
aVlittle
p2902
aVkid
p2903
aVanymore
p2904
aV.
aa(lp2905
Vyou
p2906
aVneed
p2907
aVto
p2908
aVmake
p2909
aVfriends
p2910
aV,
aVget
p2911
aVout
p2912
aVof
p2913
aVthe
p2914
aVhouse
p2915
aV,
aVand
p2916
aVlive
p2917
aVyour
p2918
aVlife
p2919
aV.
aV''
p2920
aa(lp2921
Vme
p2922
aV:
aV``
p2923
aVif
p2924
aVyou
p2925
aVwant
p2926
aVme
p2927
aVto
p2928
aVbe
p2929
aVa
aVteenager
p2930
aV,
aVdo
p2931
aVn't
p2932
aVsend
p2933
aVme
p2934
aVto
p2935
aVsupport
p2936
aVgroup
p2937
aV.
aa(lp2938
Vbuy
p2939
aVme
p2940
aVa
aVfake
p2941
aVid
p2942
aVso
p2943
aVi
aVcan
p2944
aVgo
p2945
aVto
p2946
aVclubs
p2947
aV,
aVdrink
p2948
aVvodka
p2949
aV,
aVand
p2950
aVtake
p2951
aVpot
p2952
aV.
aV''
p2953
aa(lp2954
Vmom
p2955
aV:
aV``
p2956
aVyou
p2957
aVdo
p2958
aVn't
p2959
aVtake
p2960
aVpot
p2961
aV,
aVfor
p2962
aVstarters
p2963
aV.
aV''
p2964
aa(lp2965
Vme
p2966
aV:
aV``
p2967
aVsee
p2968
aV,
aVthat
p2969
aV's
p2970
aVthe
p2971
aVkind
p2972
aVof
p2973
aVthing
p2974
aVi
aV'd
p2975
aVknow
p2976
aVif
p2977
aVyou
p2978
aVgot
p2979
aVme
p2980
aVa
aVfake
p2981
aVid
p2982
aV.
aV''
p2983
aa(lp2984
Vmom
p2985
aV:
aV``
p2986
aVyou
p2987
aV're
p2988
aVgoing
p2989
aVto
p2990
aVsupport
p2991
aVgroup
p2992
aV.
aV''
p2993
aa(lp2994
Vme
p2995
aV:
aV``
p2996
aVuggggggggggggg
p2997
aV.
aV''
p2998
aa(lp2999
Vmom
p3000
aV:
aV``
p3001
aVhazel
p3002
aV,
aVyou
p3003
aVdeserve
p3004
aVa
aVlife
p3005
aV.
aV''
p3006
aa(lp3007
Vthat
p3008
aVshut
p3009
aVme
p3010
aVup
p3011
aV,
aValthough
p3012
aVi
aVfailed
p3013
aVto
p3014
aVsee
p3015
aVhow
p3016
aVattendance
p3017
aVat
p3018
aVsupport
p3019
aVgroup
p3020
aVmet
p3021
aVthe
p3022
aVdefinition
p3023
aVof
p3024
aVlife
p3025
aV.
aa(lp3026
Vstill
p3027
aV,
aVi
aVagreed
p3028
aVto
p3029
aVgo\u2014
p3030
aVafter
p3031
aVnegotiating
p3032
aVthe
p3033
aVright
p3034
aVto
p3035
aVrecord
p3036
aVthe
p3037
aV1.5
p3038
aVepisodes
p3039
aVof
p3040
aVantm
p3041
aVi
aV'd
p3042
aVbe
p3043
aVmissing
p3044
aV.
aa(lp3045
Vi
aVwent
p3046
aVto
p3047
aVsupport
p3048
aVgroup
p3049
aVfor
p3050
aVthe
p3051
aVsame
p3052
aVreason
p3053
aVthat
p3054
aVi
aV'd
p3055
aVonce
p3056
aVallowed
p3057
aVnurses
p3058
aVwith
p3059
aVa
aVmere
p3060
aVeighteen
p3061
aVmonths
p3062
aVof
p3063
aVgraduate
p3064
aVeducation
p3065
aVto
p3066
aVpoison
p3067
aVme
p3068
aVwith
p3069
aVexotically
p3070
aVnamed
p3071
aV7
aVjohn
p3072
aVgreen
p3073
aVchemicals
p3074
aV:
aVi
aVwanted
p3075
aVto
p3076
aVmake
p3077
aVmy
p3078
aVparents
p3079
aVhappy
p3080
aV.
aa(lp3081
Vthere
p3082
aVis
p3083
aVonly
p3084
aVone
p3085
aVthing
p3086
aVin
p3087
aVthis
p3088
aVworld
p3089
aVshittier
p3090
aVthan
p3091
aVbiting
p3092
aVit
p3093
aVfrom
p3094
aVcancer
p3095
aVwhen
p3096
aVyou
p3097
aV're
p3098
aVsixteen
p3099
aV,
aVand
p3100
aVthat
p3101
aV's
p3102
aVhaving
p3103
aVa
aVkid
p3104
aVwho
p3105
aVbites
p3106
aVit
p3107
aVfrom
p3108
aVcancer
p3109
aV.
aa(lp3110
Vmom
p3111
aVpulled
p3112
aVinto
p3113
aVthe
p3114
aVcircular
p3115
aVdriveway
p3116
aVbehind
p3117
aVthe
p3118
aVchurch
p3119
aVat
p3120
aV4:56.
p3121
aVi
aVpretended
p3122
aVto
p3123
aVfiddle
p3124
aVwith
p3125
aVmy
p3126
aVoxygen
p3127
aVtank
p3128
aVfor
p3129
aVa
aVsecond
p3130
aVjust
p3131
aVto
p3132
aVkill
p3133
aVtime
p3134
aV.
aa(lp3135
V``
p3136
aVdo
p3137
aVyou
p3138
aVwant
p3139
aVme
p3140
aVto
p3141
aVcarry
p3142
aVit
p3143
aVin
p3144
aVfor
p3145
aVyou
p3146
aV?
aV''
p3147
aa(lp3148
V``
p3149
aVno
p3150
aV,
aVit
p3151
aV's
p3152
aVfine
p3153
aV,
aV''
p3154
aVi
aVsaid
p3155
aV.
aa(lp3156
Vthe
p3157
aVcylindrical
p3158
aVgreen
p3159
aVtank
p3160
aVonly
p3161
aVweighed
p3162
aVa
aVfew
p3163
aVpounds
p3164
aV,
aVand
p3165
aVi
aVhad
p3166
aVthis
p3167
aVlittle
p3168
aVsteel
p3169
aVcart
p3170
aVto
p3171
aVwheel
p3172
aVit
p3173
aVaround
p3174
aVbehind
p3175
aVme
p3176
aV.
aa(lp3177
Vit
p3178
aVdelivered
p3179
aVtwo
p3180
aVliters
p3181
aVof
p3182
aVoxygen
p3183
aVto
p3184
aVme
p3185
aVeach
p3186
aVminute
p3187
aVthrough
p3188
aVa
aVcannula
p3189
aV,
aVa
aVtransparent
p3190
aVtube
p3191
aVthat
p3192
aVsplit
p3193
aVjust
p3194
aVbeneath
p3195
aVmy
p3196
aVneck
p3197
aV,
aVwrapped
p3198
aVbehind
p3199
aVmy
p3200
aVears
p3201
aV,
aVand
p3202
aVthen
p3203
aVreunited
p3204
aVin
p3205
aVmy
p3206
aVnostrils
p3207
aV.
aa(lp3208
Vthe
p3209
aVcontraption
p3210
aVwas
p3211
aVnecessary
p3212
aVbecause
p3213
aVmy
p3214
aVlungs
p3215
aVsucked
p3216
aVat
p3217
aVbeing
p3218
aVlungs
p3219
aV.
aa(lp3220
V``
p3221
aVi
aVlove
p3222
aVyou
p3223
aV,
aV''
p3224
aVshe
p3225
aVsaid
p3226
aVas
p3227
aVi
aVgot
p3228
aVout
p3229
aV.
aa(lp3230
V``
p3231
aVyou
p3232
aVtoo
p3233
aV,
aVmom
p3234
aV.
aa(lp3235
Vsee
p3236
aVyou
p3237
aVat
p3238
aVsix
p3239
aV.
aV''
p3240
aa(lp3241
V``
p3242
aVmake
p3243
aVfriends
p3244
aV!
aV''
p3245
aa(lp3246
Vshe
p3247
aVsaid
p3248
aVthrough
p3249
aVthe
p3250
aVrolled-down
p3251
aVwindow
p3252
aVas
p3253
aVi
aVwalked
p3254
aVaway
p3255
aV.
aa(lp3256
Vi
aVdid
p3257
aVn't
p3258
aVwant
p3259
aVto
p3260
aVtake
p3261
aVthe
p3262
aVelevator
p3263
aVbecause
p3264
aVtaking
p3265
aVthe
p3266
aVelevator
p3267
aVis
p3268
aVa
aVlast
p3269
aVdays
p3270
aVkind
p3271
aVof
p3272
aVactivity
p3273
aVat
p3274
aVsupport
p3275
aVgroup
p3276
aV,
aVso
p3277
aVi
aVtook
p3278
aVthe
p3279
aVstairs
p3280
aV.
aa(lp3281
Vi
aVgrabbed
p3282
aVa
aVcookie
p3283
aVand
p3284
aVpoured
p3285
aVsome
p3286
aVlemonade
p3287
aVinto
p3288
aVa
aVdixie
p3289
aVcup
p3290
aVand
p3291
aVthen
p3292
aVturned
p3293
aVaround
p3294
aV.
aa(lp3295
Va
aVboy
p3296
aVwas
p3297
aVstaring
p3298
aVat
p3299
aVme
p3300
aV.
aa(lp3301
Vi
aVwas
p3302
aVquite
p3303
aVsure
p3304
aVi
aV'd
p3305
aVnever
p3306
aVseen
p3307
aVhim
p3308
aVbefore
p3309
aV.
aa(lp3310
Vlong
p3311
aVand
p3312
aV8
aVthe
p3313
aVfault
p3314
aVin
p3315
aVour
p3316
aVstars
p3317
aVleanly
p3318
aVmuscular
p3319
aV,
aVhe
p3320
aVdwarfed
p3321
aVthe
p3322
aVmolded
p3323
aVplastic
p3324
aVelementary
p3325
aVschool
p3326
aVchair
p3327
aVhe
p3328
aVwas
p3329
aVsitting
p3330
aVin
p3331
aV.
aa(lp3332
Vmahogany
p3333
aVhair
p3334
aV,
aVstraight
p3335
aVand
p3336
aVshort
p3337
aV.
aa(lp3338
Vhe
p3339
aVlooked
p3340
aVmy
p3341
aVage
p3342
aV,
aVmaybe
p3343
aVa
aVyear
p3344
aVolder
p3345
aV,
aVand
p3346
aVhe
p3347
aVsat
p3348
aVwith
p3349
aVhis
p3350
aVtailbone
p3351
aVagainst
p3352
aVthe
p3353
aVedge
p3354
aVof
p3355
aVthe
p3356
aVchair
p3357
aV,
aVhis
p3358
aVposture
p3359
aVaggressively
p3360
aVpoor
p3361
aV,
aVone
p3362
aVhand
p3363
aVhalf
p3364
aVin
p3365
aVa
aVpocket
p3366
aVof
p3367
aVdark
p3368
aVjeans
p3369
aV.
aa(lp3370
Vi
aVlooked
p3371
aVaway
p3372
aV,
aVsuddenly
p3373
aVconscious
p3374
aVof
p3375
aVmy
p3376
aVmyriad
p3377
aVinsufficiencies
p3378
aV.
aa(lp3379
Vi
aVwas
p3380
aVwearing
p3381
aVold
p3382
aVjeans
p3383
aV,
aVwhich
p3384
aVhad
p3385
aVonce
p3386
aVbeen
p3387
aVtight
p3388
aVbut
p3389
aVnow
p3390
aVsagged
p3391
aVin
p3392
aVweird
p3393
aVplaces
p3394
aV,
aVand
p3395
aVa
aVyellow
p3396
aVt-shirt
p3397
aVadvertising
p3398
aVa
aVband
p3399
aVi
aVdid
p3400
aVn't
p3401
aVeven
p3402
aVlike
p3403
aVanymore
p3404
aV.
aa(lp3405
Valso
p3406
aVmy
p3407
aVhair
p3408
aV:
aVi
aVhad
p3409
aVthis
p3410
aVpageboy
p3411
aVhaircut
p3412
aV,
aVand
p3413
aVi
aVhad
p3414
aVn't
p3415
aVeven
p3416
aVbothered
p3417
aVto
p3418
aV,
aVlike
p3419
aV,
aVbrush
p3420
aVit
p3421
aV.
aa(lp3422
Vfurthermore
p3423
aV,
aVi
aVhad
p3424
aVridiculously
p3425
aVfat
p3426
aVchipmunked
p3427
aVcheeks
p3428
aV,
aVa
aVside
p3429
aVeffect
p3430
aVof
p3431
aVtreatment
p3432
aV.
aa(lp3433
Vi
aVlooked
p3434
aVlike
p3435
aVa
aVnormally
p3436
aVproportioned
p3437
aVperson
p3438
aVwith
p3439
aVa
aVballoon
p3440
aVfor
p3441
aVa
aVhead
p3442
aV.
aa(lp3443
Vthis
p3444
aVwas
p3445
aVnot
p3446
aVeven
p3447
aVto
p3448
aVmention
p3449
aVthe
p3450
aVcankle
p3451
aVsituation
p3452
aV.
aa(lp3453
Vand
p3454
aVyet\u2014
p3455
aVi
aVcut
p3456
aVa
aVglance
p3457
aVto
p3458
aVhim
p3459
aV,
aVand
p3460
aVhis
p3461
aVeyes
p3462
aVwere
p3463
aVstill
p3464
aVon
p3465
aVme
p3466
aV.
aa(lp3467
Vit
p3468
aVoccurred
p3469
aVto
p3470
aVme
p3471
aVwhy
p3472
aVthey
p3473
aVcall
p3474
aVit
p3475
aVeye
p3476
aVcontact
p3477
aV.
aa(lp3478
Vi
aVwalked
p3479
aVinto
p3480
aVthe
p3481
aVcircle
p3482
aVand
p3483
aVsat
p3484
aVdown
p3485
aVnext
p3486
aVto
p3487
aVisaac
p3488
aV,
aVtwo
p3489
aVseats
p3490
aVaway
p3491
aVfrom
p3492
aVthe
p3493
aVboy
p3494
aV.
aa(lp3495
Vi
aVglanced
p3496
aVagain
p3497
aV.
aa(lp3498
Vhe
p3499
aVwas
p3500
aVstill
p3501
aVwatching
p3502
aVme
p3503
aV.
aa(lp3504
Vlook
p3505
aV,
aVlet
p3506
aVme
p3507
aVjust
p3508
aVsay
p3509
aVit
p3510
aV:
aVhe
p3511
aVwas
p3512
aVhot
p3513
aV.
aa(lp3514
Va
aVnonhot
p3515
aVboy
p3516
aVstares
p3517
aVat
p3518
aVyou
p3519
aVrelentlessly
p3520
aVand
p3521
aVit
p3522
aVis
p3523
aV,
aVat
p3524
aVbest
p3525
aV,
aVawkward
p3526
aVand
p3527
aV,
aVat
p3528
aVworst
p3529
aV,
aVa
aVform
p3530
aVof
p3531
aVassault
p3532
aV.
aa(lp3533
Vbut
p3534
aVa
aVhot
p3535
aVboy
p3536
aV.
aa(lp3537
V.
aa(lp3538
V.
aa(lp3539
Vwell
p3540
aV.
aa(lp3541
Vi
aVpulled
p3542
aVout
p3543
aVmy
p3544
aVphone
p3545
aVand
p3546
aVclicked
p3547
aVit
p3548
aVso
p3549
aVit
p3550
aVwould
p3551
aVdis-
p3552
aVplay
p3553
aVthe
p3554
aVtime
p3555
aV:
aV4:59.
p3556
aVthe
p3557
aVcircle
p3558
aVfilled
p3559
aVin
p3560
aVwith
p3561
aVthe
p3562
aVunlucky
p3563
aVtwelve-to-eighteens
p3564
aV,
aVand
p3565
aVthen
p3566
aVpatrick
p3567
aVstarted
p3568
aVus
p3569
aVout
p3570
aVwith
p3571
aVthe
p3572
aVserenity
p3573
aVprayer
p3574
aV:
aVgod
p3575
aV,
aVgrant
p3576
aVme
p3577
aVthe
p3578
aVserenity
p3579
aVto
p3580
aVaccept
p3581
aVthe
p3582
aVthings
p3583
aV9
aVjohn
p3584
aVgreen
p3585
aVi
aVcan
p3586
aVnot
p3587
aVchange
p3588
aV,
aVthe
p3589
aVcourage
p3590
aVto
p3591
aVchange
p3592
aVthe
p3593
aVthings
p3594
aVi
aVcan
p3595
aV,
aVand
p3596
aVthe
p3597
aVwis-
p3598
aVdom
p3599
aVto
p3600
aVknow
p3601
aVthe
p3602
aVdifference
p3603
aV.
aa(lp3604
Vthe
p3605
aVguy
p3606
aVwas
p3607
aVstill
p3608
aVstaring
p3609
aVat
p3610
aVme
p3611
aV.
aa(lp3612
Vi
aVfelt
p3613
aVrather
p3614
aVblushy
p3615
aV.
aa(lp3616
Vfinally
p3617
aV,
aVi
aVdecided
p3618
aVthat
p3619
aVthe
p3620
aVproper
p3621
aVstrategy
p3622
aVwas
p3623
aVto
p3624
aVstare
p3625
aVback
p3626
aV.
aa(lp3627
Vboys
p3628
aVdo
p3629
aVnot
p3630
aVhave
p3631
aVa
aVmonopoly
p3632
aVon
p3633
aVthe
p3634
aVstaring
p3635
aVbusiness
p3636
aV,
aVafter
p3637
aVall
p3638
aV.
aa(lp3639
Vso
p3640
aVi
aVlooked
p3641
aVhim
p3642
aVover
p3643
aVas
p3644
aVpatrick
p3645
aVacknowledged
p3646
aVfor
p3647
aVthe
p3648
aVthousandth
p3649
aVtime
p3650
aVhis
p3651
aVball-lessness
p3652
aVetc.
p3653
aV,
aVand
p3654
aVsoon
p3655
aVit
p3656
aVwas
p3657
aVa
aVstaring
p3658
aVcontest
p3659
aV.
aa(lp3660
Vafter
p3661
aVa
aVwhile
p3662
aVthe
p3663
aVboy
p3664
aVsmiled
p3665
aV,
aVand
p3666
aVthen
p3667
aVfinally
p3668
aVhis
p3669
aVblue
p3670
aVeyes
p3671
aVglanced
p3672
aVaway
p3673
aV.
aa(lp3674
Vwhen
p3675
aVhe
p3676
aVlooked
p3677
aVback
p3678
aVat
p3679
aVme
p3680
aV,
aVi
aVflicked
p3681
aVmy
p3682
aVeyebrows
p3683
aVup
p3684
aVto
p3685
aVsay
p3686
aV,
aVi
aVwin
p3687
aV.
aa(lp3688
Vhe
p3689
aVshrugged
p3690
aV.
aa(lp3691
Vpatrick
p3692
aVcontinued
p3693
aVand
p3694
aVthen
p3695
aVfinally
p3696
aVit
p3697
aVwas
p3698
aVtime
p3699
aVfor
p3700
aVthe
p3701
aVintroductions
p3702
aV.
aa(lp3703
V``
p3704
aVisaac
p3705
aV,
aVperhaps
p3706
aVyou
p3707
aV'd
p3708
aVlike
p3709
aVto
p3710
aVgo
p3711
aVfirst
p3712
aVtoday
p3713
aV.
aa(lp3714
Vi
aVknow
p3715
aVyou
p3716
aV're
p3717
aVfacing
p3718
aVa
aVchallenging
p3719
aVtime
p3720
aV.
aV''
p3721
aa(lp3722
V``
p3723
aVyeah
p3724
aV,
aV''
p3725
aVisaac
p3726
aVsaid
p3727
aV.
aa(lp3728
V``
p3729
aVi
aV'm
p3730
aVisaac
p3731
aV.
aa(lp3732
Vi
aV'm
p3733
aVseventeen
p3734
aV.
aa(lp3735
Vand
p3736
aVit's
p3737
aVlooking
p3738
aVlike
p3739
aVi
aVhave
p3740
aVto
p3741
aVget
p3742
aVsurgery
p3743
aVin
p3744
aVa
aVcouple
p3745
aVweeks
p3746
aV,
aVafter
p3747
aVwhich
p3748
aVi
aV'll
p3749
aVbe
p3750
aVblind
p3751
aV.
aa(lp3752
Vnot
p3753
aVto
p3754
aVcomplain
p3755
aVor
p3756
aVanything
p3757
aVbecause
p3758
aVi
aVknow
p3759
aVa
aVlot
p3760
aVof
p3761
aVus
p3762
aVhave
p3763
aVit
p3764
aVworse
p3765
aV,
aVbut
p3766
aVyeah
p3767
aV,
aVi
aVmean
p3768
aV,
aVbeing
p3769
aVblind
p3770
aVdoes
p3771
aVsort
p3772
aVof
p3773
aVsuck
p3774
aV.
aa(lp3775
Vmy
p3776
aVgirlfriend
p3777
aVhelps
p3778
aV,
aVthough
p3779
aV.
aa(lp3780
Vand
p3781
aVfriends
p3782
aVlike
p3783
aVaugustus
p3784
aV.
aV''
p3785
aa(lp3786
Vhe
p3787
aVnodded
p3788
aVtoward
p3789
aVthe
p3790
aVboy
p3791
aV,
aVwho
p3792
aVnow
p3793
aVhad
p3794
aVa
aVname
p3795
aV.
aa(lp3796
V``
p3797
aVso
p3798
aV,
aVyeah
p3799
aV,
aV''
p3800
aVisaac
p3801
aVcontinued
p3802
aV.
aa(lp3803
Vhe
p3804
aVwas
p3805
aVlooking
p3806
aVat
p3807
aVhis
p3808
aVhands
p3809
aV,
aVwhich
p3810
aVhe
p3811
aV'd
p3812
aVfolded
p3813
aVinto
p3814
aVeach
p3815
aVother
p3816
aVlike
p3817
aVthe
p3818
aVtop
p3819
aVof
p3820
aVa
aVtepee
p3821
aV.
aa(lp3822
V``
p3823
aVthere
p3824
aV's
p3825
aVnothing
p3826
aVyou
p3827
aVcan
p3828
aVdo
p3829
aVabout
p3830
aVit
p3831
aV.
aV''
p3832
aa(lp3833
V``
p3834
aVwe
p3835
aV're
p3836
aVhere
p3837
aVfor
p3838
aVyou
p3839
aV,
aVisaac
p3840
aV,
aV''
p3841
aVpatrick
p3842
aVsaid
p3843
aV.
aa(lp3844
V``
p3845
aVlet
p3846
aVisaac
p3847
aVhear
p3848
aVit
p3849
aV,
aVguys
p3850
aV.
aV''
p3851
aa(lp3852
Vand
p3853
aVthen
p3854
aVwe
p3855
aVall
p3856
aV,
aVin
p3857
aVa
aVmonotone
p3858
aV,
aVsaid
p3859
aV,
aV``
p3860
aVwe
p3861
aV're
p3862
aVhere
p3863
aVfor
p3864
aVyou
p3865
aV,
aVisaac
p3866
aV.
aV''
p3867
aa(lp3868
Vmichael
p3869
aVwas
p3870
aVnext
p3871
aV.
aa(lp3872
Vhe
p3873
aVwas
p3874
aVtwelve
p3875
aV.
aa(lp3876
Vhe
p3877
aVhad
p3878
aVleukemia
p3879
aV.
aa(lp3880
V10
p3881
aVthe
p3882
aVfault
p3883
aVin
p3884
aVour
p3885
aVstars
p3886
aVhe
p3887
aV'd
p3888
aValways
p3889
aVhad
p3890
aVleukemia
p3891
aV.
aa(lp3892
Vhe
p3893
aVwas
p3894
aVokay
p3895
aV.
aa(lp3896
V(
aVor
p3897
aVso
p3898
aVhe
p3899
aVsaid
p3900
aV.
aa(lp3901
Vhe'd
p3902
aVtaken
p3903
aVthe
p3904
aVelevator
p3905
aV.
aV)
aa(lp3906
Vlida
p3907
aVwas
p3908
aVsixteen
p3909
aV,
aVand
p3910
aVpretty
p3911
aVenough
p3912
aVto
p3913
aVbe
p3914
aVthe
p3915
aVobject
p3916
aVof
p3917
aVthe
p3918
aVhot
p3919
aVboy
p3920
aV's
p3921
aVeye
p3922
aV.
aa(lp3923
Vshe
p3924
aVwas
p3925
aVa
aVregular\u2014
p3926
aVin
p3927
aVa
aVlong
p3928
aVremission
p3929
aVfrom
p3930
aVappendiceal
p3931
aVcancer
p3932
aV,
aVwhich
p3933
aVi
aVhad
p3934
aVnot
p3935
aVpreviously
p3936
aVknown
p3937
aVexisted
p3938
aV.
aa(lp3939
Vshe
p3940
aVsaid\u2014
p3941
aVas
p3942
aVshe
p3943
aVhad
p3944
aVevery
p3945
aVother
p3946
aVtime
p3947
aVi
aV'd
p3948
aVattended
p3949
aVsupport
p3950
aVgroup\u2014
p3951
aVthat
p3952
aVshe
p3953
aVfelt
p3954
aVstrong
p3955
aV,
aVwhich
p3956
aVfelt
p3957
aVlike
p3958
aVbragging
p3959
aVto
p3960
aVme
p3961
aVas
p3962
aVthe
p3963
aVoxygen-drizzling
p3964
aVnubs
p3965
aVtickled
p3966
aVmy
p3967
aVnostrils
p3968
aV.
aa(lp3969
Vthere
p3970
aVwere
p3971
aVfive
p3972
aVothers
p3973
aVbefore
p3974
aVthey
p3975
aVgot
p3976
aVto
p3977
aVhim
p3978
aV.
aa(lp3979
Vhe
p3980
aVsmiled
p3981
aVa
aVlittle
p3982
aVwhen
p3983
aVhis
p3984
aVturn
p3985
aVcame
p3986
aV.
aa(lp3987
Vhis
p3988
aVvoice
p3989
aVwas
p3990
aVlow
p3991
aV,
aVsmoky
p3992
aV,
aVand
p3993
aVdead
p3994
aVsexy
p3995
aV.
aa(lp3996
V``
p3997
aVmy
p3998
aVname
p3999
aVis
p4000
aVaugustus
p4001
aVwaters
p4002
aV,
aV''
p4003
aVhe
p4004
aVsaid
p4005
aV.
aa(lp4006
V``
p4007
aVi'm
p4008
aVseventeen
p4009
aV.
aa(lp4010
Vi
aVhad
p4011
aVa
aVlittle
p4012
aVtouch
p4013
aVof
p4014
aVosteosarcoma
p4015
aVa
aVyear
p4016
aVand
p4017
aVa
aVhalf
p4018
aVago
p4019
aV,
aVbut
p4020
aVi
aV'm
p4021
aVjust
p4022
aVhere
p4023
aVtoday
p4024
aVat
p4025
aVisaac
p4026
aV's
p4027
aVrequest
p4028
aV.
aV''
p4029
aa(lp4030
V``
p4031
aVand
p4032
aVhow
p4033
aVare
p4034
aVyou
p4035
aVfeeling
p4036
aV?
aV''
p4037
aa(lp4038
Vasked
p4039
aVpatrick
p4040
aV.
aa(lp4041
V``
p4042
aVoh
p4043
aV,
aVi
aV'm
p4044
aVgrand
p4045
aV.
aV''
p4046
aa(lp4047
Vaugustus
p4048
aVwaters
p4049
aVsmiled
p4050
aVwith
p4051
aVa
aVcorner
p4052
aVof
p4053
aVhis
p4054
aVmouth
p4055
aV.
aa(lp4056
V``
p4057
aVi
aV'm
p4058
aVon
p4059
aVa
aVroller
p4060
aVcoaster
p4061
aVthat
p4062
aVonly
p4063
aVgoes
p4064
aVup
p4065
aV,
aVmy
p4066
aVfriend
p4067
aV.
aV''
p4068
aa(lp4069
Vwhen
p4070
aVit
p4071
aVwas
p4072
aVmy
p4073
aVturn
p4074
aV,
aVi
aVsaid
p4075
aV,
aV``
p4076
aVmy
p4077
aVname
p4078
aVis
p4079
aVhazel
p4080
aV.
aa(lp4081
Vi'm
p4082
aVsixteen
p4083
aV.
aa(lp4084
Vthyroid
p4085
aVwith
p4086
aVmets
p4087
aVin
p4088
aVmy
p4089
aVlungs
p4090
aV.
aa(lp4091
Vi
aV'm
p4092
aVokay
p4093
aV.
aV''
p4094
aa(lp4095
Vthe
p4096
aVhour
p4097
aVproceeded
p4098
aVapace
p4099
aV:
aVfights
p4100
aVwere
p4101
aVrecounted
p4102
aV,
aVbattles
p4103
aVwon
p4104
aVamid
p4105
aVwars
p4106
aVsure
p4107
aVto
p4108
aVbe
p4109
aVlost
p4110
aV;
aVhope
p4111
aVwas
p4112
aVclung
p4113
aVto
p4114
aV;
aVfamilies
p4115
aVwere
p4116
aVboth
p4117
aVcelebrated
p4118
aVand
p4119
aVdenounced
p4120
aV;
aVit
p4121
aVwas
p4122
aVagreed
p4123
aVthat
p4124
aVfriends
p4125
aVjust
p4126
aVdid
p4127
aVn't
p4128
aVget
p4129
aVit
p4130
aV;
aVtears
p4131
aVwere
p4132
aVshed
p4133
aV;
aVcomfort
p4134
aVproffered
p4135
aV.
aa(lp4136
Vneither
p4137
aVaugustus
p4138
aVwaters
p4139
aVnor
p4140
aVi
aVspoke
p4141
aVagain
p4142
aVuntil
p4143
aVpatrick
p4144
aVsaid
p4145
aV,
aV``
p4146
aVaugustus
p4147
aV,
aVperhaps
p4148
aVyou
p4149
aV'd
p4150
aVlike
p4151
aVto
p4152
aVshare
p4153
aVyour
p4154
aVfears
p4155
aVwith
p4156
aVthe
p4157
aVgroup
p4158
aV.
aV''
p4159
aa(lp4160
V11
p4161
aVjohn
p4162
aVgreen
p4163
aV''
p4164
aVmy
p4165
aVfears
p4166
aV?
aV''
p4167
aa(lp4168
V``
p4169
aVyes
p4170
aV.
aV''
p4171
aa(lp4172
V``
p4173
aVi
aVfear
p4174
aVoblivion
p4175
aV,
aV''
p4176
aVhe
p4177
aVsaid
p4178
aVwithout
p4179
aVa
aVmoment
p4180
aV's
p4181
aVpause
p4182
aV.
aa(lp4183
V``
p4184
aVi
aVfear
p4185
aVit
p4186
aVlike
p4187
aVthe
p4188
aVproverbial
p4189
aVblind
p4190
aVman
p4191
aVwho
p4192
aV's
p4193
aVafraid
p4194
aVof
p4195
aVthe
p4196
aVdark
p4197
aV.
aV''
p4198
aa(lp4199
V``
p4200
aVtoo
p4201
aVsoon
p4202
aV,
aV''
p4203
aVisaac
p4204
aVsaid
p4205
aV,
aVcracking
p4206
aVa
aVsmile
p4207
aV.
aa(lp4208
V``
p4209
aVwas
p4210
aVthat
p4211
aVinsensitive
p4212
aV?
aV''
p4213
aa(lp4214
Vaugustus
p4215
aVasked
p4216
aV.
aa(lp4217
V``
p4218
aVi
aVcan
p4219
aVbe
p4220
aVpretty
p4221
aVblind
p4222
aVto
p4223
aVother
p4224
aVpeople
p4225
aV's
p4226
aVfeelings
p4227
aV.
aV''
p4228
aa(lp4229
Visaac
p4230
aVwas
p4231
aVlaughing
p4232
aV,
aVbut
p4233
aVpatrick
p4234
aVraised
p4235
aVa
aVchastening
p4236
aVfinger
p4237
aVand
p4238
aVsaid
p4239
aV,
aV``
p4240
aVaugustus
p4241
aV,
aVplease
p4242
aV.
aa(lp4243
Vlet
p4244
aV's
p4245
aVreturn
p4246
aVto
p4247
aVyou
p4248
aVand
p4249
aVyour
p4250
aVstruggles
p4251
aV.
aa(lp4252
Vyou
p4253
aVsaid
p4254
aVyou
p4255
aVfear
p4256
aVoblivion
p4257
aV?
aV''
p4258
aa(lp4259
V``
p4260
aVi
aVdid
p4261
aV,
aV''
p4262
aVaugustus
p4263
aVanswered
p4264
aV.
aa(lp4265
Vpatrick
p4266
aVseemed
p4267
aVlost
p4268
aV.
aa(lp4269
V``
p4270
aVwould
p4271
aV,
aVuh
p4272
aV,
aVwould
p4273
aVanyone
p4274
aVlike
p4275
aVto
p4276
aVspeak
p4277
aVto
p4278
aVthat
p4279
aV?
aV''
p4280
aa(lp4281
Vi
aVhad
p4282
aVn't
p4283
aVbeen
p4284
aVin
p4285
aVproper
p4286
aVschool
p4287
aVin
p4288
aVthree
p4289
aVyears
p4290
aV.
aa(lp4291
Vmy
p4292
aVparents
p4293
aVwere
p4294
aVmy
p4295
aVtwo
p4296
aVbest
p4297
aVfriends
p4298
aV.
aa(lp4299
Vmy
p4300
aVthird
p4301
aVbest
p4302
aVfriend
p4303
aVwas
p4304
aVan
p4305
aVauthor
p4306
aVwho
p4307
aVdid
p4308
aVnot
p4309
aVknow
p4310
aVi
aVexisted
p4311
aV.
aa(lp4312
Vi
aVwas
p4313
aVa
aVfairly
p4314
aVshy
p4315
aVperson\u2014
p4316
aVnot
p4317
aVthe
p4318
aVhand-raising
p4319
aVtype
p4320
aV.
aa(lp4321
Vand
p4322
aVyet
p4323
aV,
aVjust
p4324
aVthis
p4325
aVonce
p4326
aV,
aVi
aVdecided
p4327
aVto
p4328
aVspeak
p4329
aV.
aa(lp4330
Vi
aVhalf
p4331
aVraised
p4332
aVmy
p4333
aVhand
p4334
aVand
p4335
aVpatrick
p4336
aV,
aVhis
p4337
aVdelight
p4338
aVevident
p4339
aV,
aVimmediately
p4340
aVsaid
p4341
aV,
aV''
p4342
aVhazel
p4343
aV!
aV''
p4344
aa(lp4345
Vi
aVwas
p4346
aV,
aVi
aV'm
p4347
aVsure
p4348
aVhe
p4349
aVassumed
p4350
aV,
aVopening
p4351
aVup
p4352
aV.
aa(lp4353
Vbecoming
p4354
aVpart
p4355
aVof
p4356
aVthe
p4357
aVgroup
p4358
aV.
aa(lp4359
Vi
aVlooked
p4360
aVover
p4361
aVat
p4362
aVaugustus
p4363
aVwaters
p4364
aV,
aVwho
p4365
aVlooked
p4366
aVback
p4367
aVat
p4368
aVme
p4369
aV.
aa(lp4370
Vyou
p4371
aVcould
p4372
aValmost
p4373
aVsee
p4374
aVthrough
p4375
aVhis
p4376
aVeyes
p4377
aVthey
p4378
aVwere
p4379
aVso
p4380
aVblue
p4381
aV.
aa(lp4382
V``
p4383
aVthere
p4384
aVwill
p4385
aVcome
p4386
aVa
aVtime
p4387
aV,
aV''
p4388
aVi
aVsaid
p4389
aV,
aV``
p4390
aVwhen
p4391
aVall
p4392
aVof
p4393
aVus
p4394
aVare
p4395
aVdead
p4396
aV.
aa(lp4397
Vall
p4398
aVof
p4399
aVus
p4400
aV.
aa(lp4401
Vthere
p4402
aVwill
p4403
aVcome
p4404
aVa
aVtime
p4405
aVwhen
p4406
aVthere
p4407
aVare
p4408
aV12
p4409
aVthe
p4410
aVfault
p4411
aVin
p4412
aVour
p4413
aVstars
p4414
aVno
p4415
aVhuman
p4416
aVbeings
p4417
aVremaining
p4418
aVto
p4419
aVremember
p4420
aVthat
p4421
aVanyone
p4422
aVever
p4423
aVexisted
p4424
aVor
p4425
aVthat
p4426
aVour
p4427
aVspecies
p4428
aVever
p4429
aVdid
p4430
aVanything
p4431
aV.
aa(lp4432
Vthere
p4433
aVwill
p4434
aVbe
p4435
aVno
p4436
aVone
p4437
aVleft
p4438
aVto
p4439
aVremember
p4440
aVaristotle
p4441
aVor
p4442
aVcleopatra
p4443
aV,
aVlet
p4444
aValone
p4445
aVyou
p4446
aV.
aa(lp4447
Veverything
p4448
aVthat
p4449
aVwe
p4450
aVdid
p4451
aVand
p4452
aVbuilt
p4453
aVand
p4454
aVwrote
p4455
aVand
p4456
aVthought
p4457
aVand
p4458
aVdiscovered
p4459
aVwill
p4460
aVbe
p4461
aVforgotten
p4462
aVand
p4463
aVall
p4464
aVof
p4465
aVthis
p4466
aV''
p4467
aV\u2014
aVi
aVgestured
p4468
aVencompassingly\u2014
p4469
aV``
p4470
aVwill
p4471
aVhave
p4472
aVbeen
p4473
aVfor
p4474
aVnaught
p4475
aV.
aa(lp4476
Vmaybe
p4477
aVthat
p4478
aVtime
p4479
aVis
p4480
aVcoming
p4481
aVsoon
p4482
aVand
p4483
aVmaybe
p4484
aVit
p4485
aVis
p4486
aVmillions
p4487
aVof
p4488
aVyears
p4489
aVaway
p4490
aV,
aVbut
p4491
aVeven
p4492
aVif
p4493
aVwe
p4494
aVsurvive
p4495
aVthe
p4496
aVcollapse
p4497
aVof
p4498
aVour
p4499
aVsun
p4500
aV,
aVwe
p4501
aVwill
p4502
aVnot
p4503
aVsurvive
p4504
aVforever
p4505
aV.
aa(lp4506
Vthere
p4507
aVwas
p4508
aVtime
p4509
aVbefore
p4510
aVorganisms
p4511
aVexperienced
p4512
aVconsciousness
p4513
aV,
aVand
p4514
aVthere
p4515
aVwill
p4516
aVbe
p4517
aVtime
p4518
aVafter
p4519
aV.
aa(lp4520
Vand
p4521
aVif
p4522
aVthe
p4523
aVinevitability
p4524
aVof
p4525
aVhuman
p4526
aVoblivion
p4527
aVworries
p4528
aVyou
p4529
aV,
aVi
aVencourage
p4530
aVyou
p4531
aVto
p4532
aVignore
p4533
aVit
p4534
aV.
aa(lp4535
Vgod
p4536
aVknows
p4537
aVthat
p4538
aV's
p4539
aVwhat
p4540
aVeveryone
p4541
aVelse
p4542
aVdoes
p4543
aV.
aV''
p4544
aa(lp4545
Vi
aV'd
p4546
aVlearned
p4547
aVthis
p4548
aVfrom
p4549
aVmy
p4550
aVaforementioned
p4551
aVthird
p4552
aVbest
p4553
aVfriend
p4554
aV,
aVpeter
p4555
aVvan
p4556
aVhouten
p4557
aV,
aVthe
p4558
aVreclusive
p4559
aVauthor
p4560
aVof
p4561
aVan
p4562
aVimperial
p4563
aVaffliction
p4564
aV,
aVthe
p4565
aVbook
p4566
aVthat
p4567
aVwas
p4568
aVas
p4569
aVclose
p4570
aVa
aVthing
p4571
aVas
p4572
aVi
aVhad
p4573
aVto
p4574
aVa
aVbible
p4575
aV.
aa(lp4576
Vpeter
p4577
aVvan
p4578
aVhouten
p4579
aVwas
p4580
aVthe
p4581
aVonly
p4582
aVperson
p4583
aVi
aV'd
p4584
aVever
p4585
aVcome
p4586
aVacross
p4587
aVwho
p4588
aVseemed
p4589
aVto
p4590
aV(
aVa
aV)
aVunderstand
p4591
aVwhat
p4592
aVit
p4593
aV's
p4594
aVlike
p4595
aVto
p4596
aVbe
p4597
aVdying
p4598
aV,
aVand
p4599
aV(
aVb
aV)
aVnot
p4600
aVhave
p4601
aVdied
p4602
aV.
aa(lp4603
Vafter
p4604
aVi
aVfinished
p4605
aV,
aVthere
p4606
aVwas
p4607
aVquite
p4608
aVa
aVlong
p4609
aVperiod
p4610
aVof
p4611
aVsilence
p4612
aVas
p4613
aVi
aVwatched
p4614
aVa
aVsmile
p4615
aVspread
p4616
aVall
p4617
aVthe
p4618
aVway
p4619
aVacross
p4620
aVaugustus's
p4621
aVface\u2014
p4622
aVnot
p4623
aVthe
p4624
aVlittle
p4625
aVcrooked
p4626
aVsmile
p4627
aVof
p4628
aVthe
p4629
aVboy
p4630
aVtrying
p4631
aVto
p4632
aVbe
p4633
aVsexy
p4634
aVwhile
p4635
aVhe
p4636
aVstared
p4637
aVat
p4638
aVme
p4639
aV,
aVbut
p4640
aVhis
p4641
aVreal
p4642
aVsmile
p4643
aV,
aVtoo
p4644
aVbig
p4645
aVfor
p4646
aVhis
p4647
aVface
p4648
aV.
aa(lp4649
V``
p4650
aVgoddamn
p4651
aV,
aV''
p4652
aVaugustus
p4653
aVsaid
p4654
aVquietly
p4655
aV.
aa(lp4656
V``
p4657
aVare
p4658
aVn't
p4659
aVyou
p4660
aVsomething
p4661
aVelse
p4662
aV.
aV''
p4663
aa(lp4664
Vneither
p4665
aVof
p4666
aVus
p4667
aVsaid
p4668
aVanything
p4669
aVfor
p4670
aVthe
p4671
aVrest
p4672
aVof
p4673
aVsupport
p4674
aV13
p4675
aVjohn
p4676
aVgreen
p4677
aVgroup
p4678
aV.
aa(lp4679
Vat
p4680
aVthe
p4681
aVend
p4682
aV,
aVwe
p4683
aVall
p4684
aVhad
p4685
aVto
p4686
aVhold
p4687
aVhands
p4688
aV,
aVand
p4689
aVpatrick
p4690
aVled
p4691
aVus
p4692
aVin
p4693
aVa
aVprayer
p4694
aV.
aa(lp4695
V``
p4696
aVlord
p4697
aVjesus
p4698
aVchrist
p4699
aV,
aVwe
p4700
aVare
p4701
aVgathered
p4702
aVhere
p4703
aVin
p4704
aVyour
p4705
aVheart
p4706
aV,
aVliterally
p4707
aVin
p4708
aVyour
p4709
aVheart
p4710
aV,
aVas
p4711
aVcancer
p4712
aVsurvivors
p4713
aV.
aa(lp4714
Vyou
p4715
aVand
p4716
aVyou
p4717
aValone
p4718
aVknow
p4719
aVus
p4720
aVas
p4721
aVwe
p4722
aVknow
p4723
aVourselves
p4724
aV.
aa(lp4725
Vguide
p4726
aVus
p4727
aVto
p4728
aVlife
p4729
aVand
p4730
aVthe
p4731
aVlight
p4732
aVthrough
p4733
aVour
p4734
aVtimes
p4735
aVof
p4736
aVtrial
p4737
aV.
aa(lp4738
Vwe
p4739
aVpray
p4740
aVfor
p4741
aVisaac's
p4742
aVeyes
p4743
aV,
aVfor
p4744
aVmichael
p4745
aV's
p4746
aVand
p4747
aVjamie
p4748
aV's
p4749
aVblood
p4750
aV,
aVfor
p4751
aVaugustus
p4752
aV's
p4753
aVbones
p4754
aV,
aVfor
p4755
aVhazel
p4756
aV's
p4757
aVlungs
p4758
aV,
aVfor
p4759
aVjames
p4760
aV's
p4761
aVthroat
p4762
aV.
aa(lp4763
Vwe
p4764
aVpray
p4765
aVthat
p4766
aVyou
p4767
aVmight
p4768
aVheal
p4769
aVus
p4770
aVand
p4771
aVthat
p4772
aVwe
p4773
aVmight
p4774
aVfeel
p4775
aVyour
p4776
aVlove
p4777
aV,
aVand
p4778
aVyour
p4779
aVpeace
p4780
aV,
aVwhich
p4781
aVpasses
p4782
aVall
p4783
aVunderstanding
p4784
aV.
aa(lp4785
Vand
p4786
aVwe
p4787
aVremember
p4788
aVin
p4789
aVour
p4790
aVhearts
p4791
aVthose
p4792
aVwhom
p4793
aVwe
p4794
aVknew
p4795
aVand
p4796
aVloved
p4797
aVwho
p4798
aVhave
p4799
aVgone
p4800
aVhome
p4801
aVto
p4802
aVyou
p4803
aV:
aVmaria
p4804
aVand
p4805
aVkade
p4806
aVand
p4807
aVjoseph
p4808
aVand
p4809
aVhaley
p4810
aVand
p4811
aVabigail
p4812
aVand
p4813
aVangelina
p4814
aVand
p4815
aVtaylor
p4816
aVand
p4817
aVgabriel
p4818
aVand
p4819
aV.
aa(lp4820
V.
aa(lp4821
V.
aV''
p4822
aa(lp4823
Vit
p4824
aVwas
p4825
aVa
aVlong
p4826
aVlist
p4827
aV.
aa(lp4828
Vthe
p4829
aVworld
p4830
aVcontains
p4831
aVa
aVlot
p4832
aVof
p4833
aVdead
p4834
aVpeople
p4835
aV.
aa(lp4836
Vand
p4837
aVwhile
p4838
aVpatrick
p4839
aVdroned
p4840
aVon
p4841
aV,
aVreading
p4842
aVthe
p4843
aVlist
p4844
aVfrom
p4845
aVa
aVsheet
p4846
aVof
p4847
aVpaper
p4848
aVbecause
p4849
aVit
p4850
aVwas
p4851
aVtoo
p4852
aVlong
p4853
aVto
p4854
aVmemorize
p4855
aV,
aVi
aVkept
p4856
aVmy
p4857
aVeyes
p4858
aVclosed
p4859
aV,
aVtrying
p4860
aVto
p4861
aVthink
p4862
aVprayerfully
p4863
aVbut
p4864
aVmostly
p4865
aVimagining
p4866
aVthe
p4867
aVday
p4868
aVwhen
p4869
aVmy
p4870
aVname
p4871
aVwould
p4872
aVfind
p4873
aVits
p4874
aVway
p4875
aVonto
p4876
aVthat
p4877
aVlist
p4878
aV,
aVall
p4879
aVthe
p4880
aVway
p4881
aVat
p4882
aVthe
p4883
aVend
p4884
aVwhen
p4885
aVeveryone
p4886
aVhad
p4887
aVstopped
p4888
aVlistening
p4889
aV.
aa(lp4890
Vwhen
p4891
aVpatrick
p4892
aVwas
p4893
aVfinished
p4894
aV,
aVwe
p4895
aVsaid
p4896
aVthis
p4897
aVstupid
p4898
aVmantra
p4899
aVtogether-living
p4900
aVour
p4901
aVbest
p4902
aVlife
p4903
aVtoday-and
p4904
aVit
p4905
aVwas
p4906
aVover
p4907
aV.
aa(lp4908
Vaugustus
p4909
aVwaters
p4910
aVpushed
p4911
aVhimself
p4912
aVout
p4913
aVof
p4914
aVhis
p4915
aVchair
p4916
aVand
p4917
aVwalked
p4918
aVover
p4919
aVto
p4920
aVme
p4921
aV.
aa(lp4922
Vhis
p4923
aVgait
p4924
aVwas
p4925
aVcrooked
p4926
aVlike
p4927
aVhis
p4928
aVsmile
p4929
aV.
aa(lp4930
Vhe
p4931
aVtowered
p4932
aVover
p4933
aVme
p4934
aV,
aVbut
p4935
aVhe
p4936
aVkept
p4937
aVhis
p4938
aVdistance
p4939
aVso
p4940
aVi
aVwouldn't
p4941
aVhave
p4942
aVto
p4943
aVcrane
p4944
aVmy
p4945
aVneck
p4946
aVto
p4947
aVlook
p4948
aVhim
p4949
aVin
p4950
aVthe
p4951
aVeye
p4952
aV.
aa(lp4953
V``
p4954
aVwhat
p4955
aV's
p4956
aVyour
p4957
aVname
p4958
aV?
aV''
p4959
aa(lp4960
Vhe
p4961
aVasked
p4962
aV.
aa(lp4963
V``
p4964
aVhazel
p4965
aV.
aV''
p4966
aa(lp4967
V14
p4968
aVthe
p4969
aVfault
p4970
aVin
p4971
aVour
p4972
aVstars
p4973
aV''
p4974
aVno
p4975
aV,
aVyour
p4976
aVfull
p4977
aVname
p4978
aV.
aV''
p4979
aa(lp4980
V``
p4981
aVum
p4982
aV,
aVhazel
p4983
aVgrace
p4984
aVlancaster
p4985
aV.
aV''
p4986
aa(lp4987
Vhe
p4988
aVwas
p4989
aVjust
p4990
aVabout
p4991
aVto
p4992
aVsay
p4993
aVsomething
p4994
aVelse
p4995
aVwhen
p4996
aVisaac
p4997
aVwalked
p4998
aVup
p4999
aV.
aa(lp5000
V``
p5001
aVhold
p5002
aVon
p5003
aV,
aV''
p5004
aVaugustus
p5005
aVsaid
p5006
aV,
aVraising
p5007
aVa
aVfinger
p5008
aV,
aVand
p5009
aVturned
p5010
aVto
p5011
aVisaac
p5012
aV.
aa(lp5013
V``
p5014
aVthat
p5015
aVwas
p5016
aVactually
p5017
aVworse
p5018
aVthan
p5019
aVyou
p5020
aVmade
p5021
aVit
p5022
aVout
p5023
aVto
p5024
aVbe
p5025
aV.
aV''
p5026
aa(lp5027
V``
p5028
aVi
aVtold
p5029
aVyou
p5030
aVit
p5031
aVwas
p5032
aVbleak
p5033
aV.
aV''
p5034
aa(lp5035
V``
p5036
aVwhy
p5037
aVdo
p5038
aVyou
p5039
aVbother
p5040
aVwith
p5041
aVit
p5042
aV?
aV''
p5043
aa(lp5044
V``
p5045
aVi
aVdo
p5046
aVn't
p5047
aVknow
p5048
aV.
aa(lp5049
Vit
p5050
aVkind
p5051
aVof
p5052
aVhelps
p5053
aV?
aV''
p5054
aa(lp5055
Vaugustus
p5056
aVleaned
p5057
aVin
p5058
aVso
p5059
aVhe
p5060
aVthought
p5061
aVi
aVcould
p5062
aVn't
p5063
aVhear
p5064
aV.
aa(lp5065
V``
p5066
aVshe
p5067
aV's
p5068
aVa
aVregular
p5069
aV?
aV''
p5070
aa(lp5071
Vi
aVcould
p5072
aVn't
p5073
aVhear
p5074
aVisaac
p5075
aV's
p5076
aVcomment
p5077
aV,
aVbut
p5078
aVaugustus
p5079
aVresponded
p5080
aV,
aV``
p5081
aVi
aV'll
p5082
aVsay
p5083
aV.
aV''
p5084
aa(lp5085
Vhe
p5086
aVclasped
p5087
aVisaac
p5088
aVby
p5089
aVboth
p5090
aVshoulders
p5091
aVand
p5092
aVthen
p5093
aVtook
p5094
aVa
aVhalf
p5095
aVstep
p5096
aVaway
p5097
aVfrom
p5098
aVhim
p5099
aV.
aa(lp5100
V``
p5101
aVtell
p5102
aVhazel
p5103
aVabout
p5104
aVclinic
p5105
aV.
aV''
p5106
aa(lp5107
Visaac
p5108
aVleaned
p5109
aVa
aVhand
p5110
aVagainst
p5111
aVthe
p5112
aVsnack
p5113
aVtable
p5114
aVand
p5115
aVfocused
p5116
aVhis
p5117
aVhuge
p5118
aVeye
p5119
aVon
p5120
aVme
p5121
aV.
aa(lp5122
V``
p5123
aVokay
p5124
aV,
aVso
p5125
aVi
aVwent
p5126
aVinto
p5127
aVclinic
p5128
aVthis
p5129
aVmorning
p5130
aV,
aVand
p5131
aVi
aVwas
p5132
aVtelling
p5133
aVmy
p5134
aVsurgeon
p5135
aVthat
p5136
aVi
aV'd
p5137
aVrather
p5138
aVbe
p5139
aVdeaf
p5140
aVthan
p5141
aVblind
p5142
aV.
aa(lp5143
Vand
p5144
aVhe
p5145
aVsaid
p5146
aV,
aV'it
p5147
aVdoes
p5148
aVn't
p5149
aVwork
p5150
aVthat
p5151
aVway
p5152
aV,
aV'
aVand
p5153
aVi
aVwas
p5154
aV,
aVlike
p5155
aV,
aV'yeah
p5156
aV,
aVi
aVrealize
p5157
aVit
p5158
aVdoes
p5159
aVn't
p5160
aVwork
p5161
aVthat
p5162
aVway
p5163
aV;
aVi'm
p5164
aVjust
p5165
aVsaying
p5166
aVi
aV'd
p5167
aVrather
p5168
aVbe
p5169
aVdeaf
p5170
aVthan
p5171
aVblind
p5172
aVif
p5173
aVi
aVhad
p5174
aVthe
p5175
aVchoice
p5176
aV,
aVwhich
p5177
aVi
aVrealize
p5178
aVi
aVdo
p5179
aVn't
p5180
aVhave
p5181
aV,
aV'
aVand
p5182
aVhe
p5183
aVsaid
p5184
aV,
aV'well
p5185
aV,
aVthe
p5186
aVgood
p5187
aVnews
p5188
aVis
p5189
aVthat
p5190
aVyou
p5191
aVwo
p5192
aVn't
p5193
aVbe
p5194
aVdeaf
p5195
aV,
aV'
aVand
p5196
aVi
aVwas
p5197
aVlike
p5198
aV,
aV'thank
p5199
aVyou
p5200
aVfor
p5201
aVexplaining
p5202
aVthat
p5203
aVmy
p5204
aVeye
p5205
aVcancer
p5206
aVis
p5207
aVn't
p5208
aVgoing
p5209
aVto
p5210
aVmake
p5211
aVme
p5212
aVdeaf
p5213
aV.
aa(lp5214
Vi
aVfeel
p5215
aVso
p5216
aVfortunate
p5217
aVthat
p5218
aVan
p5219
aVintellectual
p5220
aVgiant
p5221
aVlike
p5222
aVyourself
p5223
aVwould
p5224
aVdeign
p5225
aVto
p5226
aVoperate
p5227
aVon
p5228
aVme
p5229
aV.
aV'
aV''
p5230
aa(lp5231
V``
p5232
aVhe
p5233
aVsounds
p5234
aVlike
p5235
aVa
aVwinner
p5236
aV,
aV''
p5237
aVi
aVsaid
p5238
aV.
aa(lp5239
V``
p5240
aVi
aV'm
p5241
aVgon
p5242
aVna
p5243
aVtry
p5244
aVto
p5245
aVget
p5246
aVme
p5247
aVsome
p5248
aVeye
p5249
aVcancer
p5250
aVjust
p5251
aVso
p5252
aVi
aVcan
p5253
aVmake
p5254
aVthis
p5255
aVguy
p5256
aV's
p5257
aVacquain-
p5258
aVtance
p5259
aV.
aV''
p5260
aa(lp5261
V15
p5262
aVjohn
p5263
aVgreen
p5264
aV''
p5265
aVgood
p5266
aVluck
p5267
aVwith
p5268
aVthat
p5269
aV.
aa(lp5270
Vall
p5271
aVright
p5272
aV,
aVi
aVshould
p5273
aVgo
p5274
aV.
aa(lp5275
Vmonica's
p5276
aVwaiting
p5277
aVfor
p5278
aVme
p5279
aV.
aa(lp5280
Vi
aVgot
p5281
aVta
p5282
aVlook
p5283
aVat
p5284
aVher
p5285
aVa
aVlot
p5286
aVwhile
p5287
aVi
aVcan
p5288
aV.
aV''
p5289
aa(lp5290
V``
p5291
aVcounterinsurgence
p5292
aVtomorrow
p5293
aV?
aV''
p5294
aa(lp5295
Vaugustus
p5296
aVasked
p5297
aV.
aa(lp5298
V``
p5299
aVdefinitely
p5300
aV.
aV''
p5301
aa(lp5302
Visaac
p5303
aVturned
p5304
aVand
p5305
aVran
p5306
aVup
p5307
aVthe
p5308
aVstairs
p5309
aV,
aVtaking
p5310
aVthem
p5311
aVtwo
p5312
aVat
p5313
aVa
aVtime
p5314
aV.
aa(lp5315
Vaugustus
p5316
aVwaters
p5317
aVturned
p5318
aVto
p5319
aVme
p5320
aV.
aa(lp5321
V``
p5322
aVliterally
p5323
aV,
aV''
p5324
aVhe
p5325
aVsaid
p5326
aV.
aa(lp5327
V``
p5328
aVliterally
p5329
aV?
aV''
p5330
aa(lp5331
Vi
aVasked
p5332
aV.
aa(lp5333
V``
p5334
aVwe
p5335
aVare
p5336
aVliterally
p5337
aVin
p5338
aVthe
p5339
aVheart
p5340
aVof
p5341
aVjesus
p5342
aV,
aV''
p5343
aVhe
p5344
aVsaid
p5345
aV.
aa(lp5346
V``
p5347
aVi
aVthought
p5348
aVwe
p5349
aVwere
p5350
aVin
p5351
aVa
aVchurch
p5352
aVbasement
p5353
aV,
aVbut
p5354
aVwe
p5355
aVare
p5356
aVliterally
p5357
aVin
p5358
aVthe
p5359
aVheart
p5360
aVof
p5361
aVjesus
p5362
aV.
aV''
p5363
aa(lp5364
V``
p5365
aVsomeone
p5366
aVshould
p5367
aVtell
p5368
aVjesus
p5369
aV,
aV''
p5370
aVi
aVsaid
p5371
aV.
aa(lp5372
V``
p5373
aVi
aVmean
p5374
aV,
aVit
p5375
aV's
p5376
aVgot
p5377
aVta
p5378
aVbe
p5379
aVdangerous
p5380
aV,
aVstoring
p5381
aVchildren
p5382
aVwith
p5383
aVcancer
p5384
aVin
p5385
aVyour
p5386
aVheart
p5387
aV.
aV''
p5388
aa(lp5389
V``
p5390
aVi
aVwould
p5391
aVtell
p5392
aVhim
p5393
aVmyself
p5394
aV,
aV''
p5395
aVaugustus
p5396
aVsaid
p5397
aV,
aV``
p5398
aVbut
p5399
aVunfortunately
p5400
aVi
aVam
p5401
aVliterally
p5402
aVstuck
p5403
aVinside
p5404
aVof
p5405
aVhis
p5406
aVheart
p5407
aV,
aVso
p5408
aVhe
p5409
aVwo
p5410
aVn't
p5411
aVbe
p5412
aVable
p5413
aVto
p5414
aVhear
p5415
aVme
p5416
aV.
aV''
p5417
aa(lp5418
Vi
aVlaughed
p5419
aV.
aa(lp5420
Vhe
p5421
aVshook
p5422
aVhis
p5423
aVhead
p5424
aV,
aVjust
p5425
aVlooking
p5426
aVat
p5427
aVme
p5428
aV.
aa(lp5429
V``
p5430
aVwhat
p5431
aV?
aV''
p5432
aa(lp5433
Vi
aVasked
p5434
aV.
aa(lp5435
V``
p5436
aVnothing
p5437
aV,
aV''
p5438
aVhe
p5439
aVsaid
p5440
aV.
aa(lp5441
V``
p5442
aVwhy
p5443
aVare
p5444
aVyou
p5445
aVlooking
p5446
aVat
p5447
aVme
p5448
aVlike
p5449
aVthat
p5450
aV?
aV''
p5451
aa(lp5452
Vaugustus
p5453
aVhalf
p5454
aVsmiled
p5455
aV.
aa(lp5456
V``
p5457
aVbecause
p5458
aVyou
p5459
aV're
p5460
aVbeautiful
p5461
aV.
aa(lp5462
Vi
aVenjoy
p5463
aVlooking
p5464
aVat
p5465
aVbeautiful
p5466
aVpeople
p5467
aV,
aVand
p5468
aVi
aVdecided
p5469
aVa
aVwhile
p5470
aVago
p5471
aVnot
p5472
aVto
p5473
aVdeny
p5474
aVmyself
p5475
aVthe
p5476
aVsimpler
p5477
aVpleasures
p5478
aVof
p5479
aVexistence
p5480
aV.
aV''
p5481
aa(lp5482
Va
aVbrief
p5483
aVawkward
p5484
aVsilence
p5485
aVensued
p5486
aV.
aa(lp5487
Vaugustus
p5488
aVplowed
p5489
aVthrough
p5490
aV:
aV``
p5491
aVi
aVmean
p5492
aV,
aVparticularly
p5493
aVgiven
p5494
aVthat
p5495
aV,
aVas
p5496
aVyou
p5497
aVso
p5498
aVdeliciously
p5499
aVpointed
p5500
aVout
p5501
aV,
aVall
p5502
aVof
p5503
aVthis
p5504
aVwill
p5505
aVend
p5506
aVin
p5507
aVoblivion
p5508
aVand
p5509
aVeverything
p5510
aV.
aV''
p5511
aa(lp5512
Vi
aVkind
p5513
aVof
p5514
aVscoffed
p5515
aVor
p5516
aVsighed
p5517
aVor
p5518
aVexhaled
p5519
aVin
p5520
aVa
aVway
p5521
aVthat
p5522
aVwas
p5523
aVvaguely
p5524
aVcoughy
p5525
aVand
p5526
aVthen
p5527
aVsaid
p5528
aV,
aV``
p5529
aVi
aV'm
p5530
aVnot
p5531
aVbeau\u2014
p5532
aV''
p5533
aV16
p5534
aVthe
p5535
aVfault
p5536
aVin
p5537
aVour
p5538
aVstars
p5539
aV''
p5540
aVyou
p5541
aV're
p5542
aVlike
p5543
aVa
aVmillennial
p5544
aVnatalie
p5545
aVportman
p5546
aV.
aa(lp5547
Vlike
p5548
aVv
aVfor
p5549
aVvendetta
p5550
aVnatalie
p5551
aVportman
p5552
aV.
aV''
p5553
aa(lp5554
V``
p5555
aVnever
p5556
aVseen
p5557
aVit
p5558
aV,
aV''
p5559
aVi
aVsaid
p5560
aV.
aa(lp5561
V``
p5562
aVreally
p5563
aV?
aV''
p5564
aa(lp5565
Vhe
p5566
aVasked
p5567
aV.
aa(lp5568
V``
p5569
aVpixie-haired
p5570
aVgorgeous
p5571
aVgirl
p5572
aVdislikes
p5573
aVauthority
p5574
aVand
p5575
aVca
p5576
aVn't
p5577
aVhelp
p5578
aVbut
p5579
aVfall
p5580
aVfor
p5581
aVa
aVboy
p5582
aVshe
p5583
aVknows
p5584
aVis
p5585
aVtrouble
p5586
aV.
aa(lp5587
Vit
p5588
aV's
p5589
aVyour
p5590
aVautobiography
p5591
aV,
aVso
p5592
aVfar
p5593
aVas
p5594
aVi
aVcan
p5595
aVtell
p5596
aV.
aV''
p5597
aa(lp5598
Vhis
p5599
aVevery
p5600
aVsyllable
p5601
aVflirted
p5602
aV.
aa(lp5603
Vhonestly
p5604
aV,
aVhe
p5605
aVkind
p5606
aVof
p5607
aVturned
p5608
aVme
p5609
aVon
p5610
aV.
aa(lp5611
Vi
aVdid
p5612
aVn't
p5613
aVeven
p5614
aVknow
p5615
aVthat
p5616
aVguys
p5617
aVcould
p5618
aVturn
p5619
aVme
p5620
aVon\u2014
p5621
aVnot
p5622
aV,
aVlike
p5623
aV,
aVin
p5624
aVreal
p5625
aVlife
p5626
aV.
aa(lp5627
Va
aVyounger
p5628
aVgirl
p5629
aVwalked
p5630
aVpast
p5631
aVus
p5632
aV.
aa(lp5633
V``
p5634
aVhow
p5635
aV's
p5636
aVit
p5637
aVgoing
p5638
aV,
aValisa
p5639
aV?
aV''
p5640
aa(lp5641
Vhe
p5642
aVasked
p5643
aV.
aa(lp5644
Vshe
p5645
aVsmiled
p5646
aVand
p5647
aVmumbled
p5648
aV,
aV``
p5649
aVhi
p5650
aV,
aVaugustus
p5651
aV.
aV''
p5652
aa(lp5653
V``
p5654
aVmemorial
p5655
aVpeople
p5656
aV,
aV''
p5657
aVhe
p5658
aVexplained
p5659
aV.
aa(lp5660
Vmemorial
p5661
aVwas
p5662
aVthe
p5663
aVbig
p5664
aVresearch
p5665
aVhospital
p5666
aV.
aa(lp5667
V``
p5668
aVwhere
p5669
aVdo
p5670
aVyou
p5671
aVgo
p5672
aV?
aV''
p5673
aa(lp5674
V``
p5675
aVchildren
p5676
aV's
p5677
aV,
aV''
p5678
aVi
aVsaid
p5679
aV,
aVmy
p5680
aVvoice
p5681
aVsmaller
p5682
aVthan
p5683
aVi
aVexpected
p5684
aVit
p5685
aVto
p5686
aVbe
p5687
aV.
aa(lp5688
Vhe
p5689
aVnodded
p5690
aV.
aa(lp5691
Vthe
p5692
aVconversation
p5693
aVseemed
p5694
aVover
p5695
aV.
aa(lp5696
V``
p5697
aVwell
p5698
aV,
aV''
p5699
aVi
aVsaid
p5700
aV,
aVnodding
p5701
aVvaguely
p5702
aVtoward
p5703
aVthe
p5704
aVsteps
p5705
aVthat
p5706
aVled
p5707
aVus
p5708
aVout
p5709
aVof
p5710
aVthe
p5711
aVliteral
p5712
aVheart
p5713
aVof
p5714
aVjesus
p5715
aV.
aa(lp5716
Vi
aVtilted
p5717
aVmy
p5718
aVcart
p5719
aVonto
p5720
aVits
p5721
aVwheels
p5722
aVand
p5723
aVstarted
p5724
aVwalking
p5725
aV.
aa(lp5726
Vhe
p5727
aVlimped
p5728
aVbeside
p5729
aVme
p5730
aV.
aa(lp5731
V``
p5732
aVso
p5733
aV,
aVsee
p5734
aVyou
p5735
aVnext
p5736
aVtime
p5737
aV,
aVmaybe
p5738
aV?
aV''
p5739
aa(lp5740
Vi
aVasked
p5741
aV.
aa(lp5742
V``
p5743
aVyou
p5744
aVshould
p5745
aVsee
p5746
aVit
p5747
aV,
aV''
p5748
aVhe
p5749
aVsaid
p5750
aV.
aa(lp5751
V``
p5752
aVv
aVfor
p5753
aVvendetta
p5754
aV,
aVi
aVmean
p5755
aV.
aV''
p5756
aa(lp5757
V``
p5758
aVokay
p5759
aV,
aV''
p5760
aVi
aVsaid
p5761
aV.
aa(lp5762
V``
p5763
aVi
aV'll
p5764
aVlook
p5765
aVit
p5766
aVup
p5767
aV.
aV''
p5768
aa(lp5769
V``
p5770
aVno
p5771
aV.
aa(lp5772
Vwith
p5773
aVme
p5774
aV.
aa(lp5775
Vat
p5776
aVmy
p5777
aVhouse
p5778
aV,
aV''
p5779
aVhe
p5780
aVsaid
p5781
aV.
aa(lp5782
V``
p5783
aVnow
p5784
aV.
aV''
p5785
aa(lp5786
Vi
aVstopped
p5787
aVwalking
p5788
aV.
aa(lp5789
V``
p5790
aVi
aVhardly
p5791
aVknow
p5792
aVyou
p5793
aV,
aVaugustus
p5794
aVwaters
p5795
aV.
aa(lp5796
Vyou
p5797
aVcould
p5798
aVbe
p5799
aVan
p5800
aVax
p5801
aVmurderer
p5802
aV.
aV''
p5803
aa(lp5804
Vhe
p5805
aVnodded
p5806
aV.
aa(lp5807
V``
p5808
aVtrue
p5809
aVenough
p5810
aV,
aVhazel
p5811
aVgrace
p5812
aV.
aV''
p5813
aa(lp5814
Vhe
p5815
aVwalked
p5816
aVpast
p5817
aVme
p5818
aV,
aVhis
p5819
aVshoulders
p5820
aVfilling
p5821
aVout
p5822
aVhis
p5823
aVgreen
p5824
aVknit
p5825
aVpolo
p5826
aVshirt
p5827
aV,
aVhis
p5828
aVback
p5829
aVstraight
p5830
aV,
aVhis
p5831
aVsteps
p5832
aVlilting
p5833
aVjust
p5834
aVslightly
p5835
aVto
p5836
aVthe
p5837
aVright
p5838
aVas
p5839
aV17
p5840
aVjohn
p5841
aVgreen
p5842
aVhe
p5843
aVwalked
p5844
aVsteady
p5845
aVand
p5846
aVconfident
p5847
aVon
p5848
aVwhat
p5849
aVi
aVhad
p5850
aVdetermined
p5851
aVwas
p5852
aVa
aVprosthetic
p5853
aVleg
p5854
aV.
aa(lp5855
Vosteosarcoma
p5856
aVsometimes
p5857
aVtakes
p5858
aVa
aVlimb
p5859
aVto
p5860
aVcheck
p5861
aVyou
p5862
aVout
p5863
aV.
aa(lp5864
Vthen
p5865
aV,
aVif
p5866
aVit
p5867
aVlikes
p5868
aVyou
p5869
aV,
aVit
p5870
aVtakes
p5871
aVthe
p5872
aVrest
p5873
aV.
aa(lp5874
Vi
aVfollowed
p5875
aVhim
p5876
aVupstairs
p5877
aV,
aVlosing
p5878
aVground
p5879
aVas
p5880
aVi
aVmade
p5881
aVmy
p5882
aVway
p5883
aVup
p5884
aVslowly
p5885
aV,
aVstairs
p5886
aVnot
p5887
aVbeing
p5888
aVa
aVfield
p5889
aVof
p5890
aVexpertise
p5891
aVfor
p5892
aVmy
p5893
aVlungs
p5894
aV.
aa(lp5895
Vand
p5896
aVthen
p5897
aVwe
p5898
aVwere
p5899
aVout
p5900
aVof
p5901
aVjesus
p5902
aV's
p5903
aVheart
p5904
aVand
p5905
aVin
p5906
aVthe
p5907
aVparking
p5908
aVlot
p5909
aV,
aVthe
p5910
aVspring
p5911
aVair
p5912
aVjust
p5913
aVon
p5914
aVthe
p5915
aVcold
p5916
aVside
p5917
aVof
p5918
aVperfect
p5919
aV,
aVthe
p5920
aVlate-afternoon
p5921
aVlight
p5922
aVheavenly
p5923
aVin
p5924
aVits
p5925
aVhurtfulness
p5926
aV.
aa(lp5927
Vmom
p5928
aVwas
p5929
aVn't
p5930
aVthere
p5931
aVyet
p5932
aV,
aVwhich
p5933
aVwas
p5934
aVunusual
p5935
aV,
aVbecause
p5936
aVmom
p5937
aVwas
p5938
aValmost
p5939
aValways
p5940
aVwaiting
p5941
aVfor
p5942
aVme
p5943
aV.
aa(lp5944
Vi
aVglanced
p5945
aVaround
p5946
aVand
p5947
aVsaw
p5948
aVthat
p5949
aVa
aVtall
p5950
aV,
aVcurvy
p5951
aVbrunette
p5952
aVgirl
p5953
aVhad
p5954
aVisaac
p5955
aVpinned
p5956
aVagainst
p5957
aVthe
p5958
aVstone
p5959
aVwall
p5960
aVof
p5961
aVthe
p5962
aVchurch
p5963
aV,
aVkissing
p5964
aVhim
p5965
aVrather
p5966
aVaggressively
p5967
aV.
aa(lp5968
Vthey
p5969
aVwere
p5970
aVclose
p5971
aVenough
p5972
aVto
p5973
aVme
p5974
aVthat
p5975
aVi
aVcould
p5976
aVhear
p5977
aVthe
p5978
aVweird
p5979
aVnoises
p5980
aVof
p5981
aVtheir
p5982
aVmouths
p5983
aVtogether
p5984
aV,
aVand
p5985
aVi
aVcould
p5986
aVhear
p5987
aVhim
p5988
aVsaying
p5989
aV,
aV``
p5990
aValways
p5991
aV,
aV''
p5992
aVand
p5993
aVher
p5994
aVsaying
p5995
aV,
aV``
p5996
aValways
p5997
aV,
aV''
p5998
aVin
p5999
aVreturn
p6000
aV.
aa(lp6001
Vsuddenly
p6002
aVstanding
p6003
aVnext
p6004
aVto
p6005
aVme
p6006
aV,
aVaugustus
p6007
aVhalf
p6008
aVwhispered
p6009
aV,
aV``
p6010
aVthey
p6011
aV're
p6012
aVbig
p6013
aVbelievers
p6014
aVin
p6015
aVpda
p6016
aV.
aV''
p6017
aa(lp6018
V``
p6019
aVwhat
p6020
aV's
p6021
aVwith
p6022
aVthe
p6023
aV'always
p6024
aV'
aV?
aV''
p6025
aa(lp6026
Vthe
p6027
aVslurping
p6028
aVsounds
p6029
aVintensified
p6030
aV.
aa(lp6031
V``
p6032
aValways
p6033
aVis
p6034
aVtheir
p6035
aVthing
p6036
aV.
aa(lp6037
Vthey
p6038
aV'll
p6039
aValways
p6040
aVlove
p6041
aVeach
p6042
aVother
p6043
aVand
p6044
aVwhatever
p6045
aV.
aa(lp6046
Vi
aVwould
p6047
aVconservatively
p6048
aVestimate
p6049
aVthey
p6050
aVhave
p6051
aVtexted
p6052
aVeach
p6053
aVother
p6054
aVthe
p6055
aVword
p6056
aValways
p6057
aVfour
p6058
aVmillion
p6059
aVtimes
p6060
aVin
p6061
aVthe
p6062
aVlast
p6063
aVyear
p6064
aV.
aV''
p6065
aa(lp6066
Va
aVcouple
p6067
aVmore
p6068
aVcars
p6069
aVdrove
p6070
aVup
p6071
aV,
aVtaking
p6072
aVmichael
p6073
aVand
p6074
aValisa
p6075
aVaway
p6076
aV.
aa(lp6077
Vit
p6078
aVwas
p6079
aVjust
p6080
aVaugustus
p6081
aVand
p6082
aVme
p6083
aVnow
p6084
aV,
aVwatching
p6085
aVisaac
p6086
aVand
p6087
aVmonica
p6088
aV,
aVwho
p6089
aVproceeded
p6090
aVapace
p6091
aVas
p6092
aVif
p6093
aVthey
p6094
aVwere
p6095
aVnot
p6096
aVleaning
p6097
aV18
p6098
aVthe
p6099
aVfault
p6100
aVin
p6101
aVour
p6102
aVstars
p6103
aVagainst
p6104
aVa
aVplace
p6105
aVof
p6106
aVworship
p6107
aV.
aa(lp6108
Vhis
p6109
aVhand
p6110
aVreached
p6111
aVfor
p6112
aVher
p6113
aVboob
p6114
aVover
p6115
aVher
p6116
aVshirt
p6117
aVand
p6118
aVpawed
p6119
aVat
p6120
aVit
p6121
aV,
aVhis
p6122
aVpalm
p6123
aVstill
p6124
aVwhile
p6125
aVhis
p6126
aVfingers
p6127
aVmoved
p6128
aVaround
p6129
aV.
aa(lp6130
Vi
aVwondered
p6131
aVif
p6132
aVthat
p6133
aVfelt
p6134
aVgood
p6135
aV.
aa(lp6136
Vdid
p6137
aVn't
p6138
aVseem
p6139
aVlike
p6140
aVit
p6141
aVwould
p6142
aV,
aVbut
p6143
aVi
aVdecided
p6144
aVto
p6145
aVforgive
p6146
aVisaac
p6147
aVon
p6148
aVthe
p6149
aVgrounds
p6150
aVthat
p6151
aVhe
p6152
aVwas
p6153
aVgoing
p6154
aVblind
p6155
aV.
aa(lp6156
Vthe
p6157
aVsenses
p6158
aVmust
p6159
aVfeast
p6160
aVwhile
p6161
aVthere
p6162
aVis
p6163
aVyet
p6164
aVhunger
p6165
aVand
p6166
aVwhatever
p6167
aV.
aa(lp6168
V``
p6169
aVimagine
p6170
aVtaking
p6171
aVthat
p6172
aVlast
p6173
aVdrive
p6174
aVto
p6175
aVthe
p6176
aVhospital
p6177
aV,
aV''
p6178
aVi
aVsaid
p6179
aVquietly
p6180
aV.
aa(lp6181
V``
p6182
aVthe
p6183
aVlast
p6184
aVtime
p6185
aVyou
p6186
aV'll
p6187
aVever
p6188
aVdrive
p6189
aVa
aVcar
p6190
aV.
aV''
p6191
aa(lp6192
Vwithout
p6193
aVlooking
p6194
aVover
p6195
aVat
p6196
aVme
p6197
aV,
aVaugustus
p6198
aVsaid
p6199
aV,
aV``
p6200
aVyou're
p6201
aVkilling
p6202
aVmy
p6203
aVvibe
p6204
aVhere
p6205
aV,
aVhazel
p6206
aVgrace
p6207
aV.
aa(lp6208
Vi
aV'm
p6209
aVtrying
p6210
aVto
p6211
aVobserve
p6212
aVyoung
p6213
aVlove
p6214
aVin
p6215
aVits
p6216
aVmany-splendored
p6217
aVawkwardness
p6218
aV.
aV''
p6219
aa(lp6220
V``
p6221
aVi
aVthink
p6222
aVhe
p6223
aV's
p6224
aVhurting
p6225
aVher
p6226
aVboob
p6227
aV,
aV''
p6228
aVi
aVsaid
p6229
aV.
aa(lp6230
V``
p6231
aVyes
p6232
aV,
aVit
p6233
aV's
p6234
aVdifficult
p6235
aVto
p6236
aVascertain
p6237
aVwhether
p6238
aVhe
p6239
aVis
p6240
aVtrying
p6241
aVto
p6242
aVarouse
p6243
aVher
p6244
aVor
p6245
aVperform
p6246
aVa
aVbreast
p6247
aVexam
p6248
aV.
aV''
p6249
aa(lp6250
Vthen
p6251
aVaugustus
p6252
aVwaters
p6253
aVreached
p6254
aVinto
p6255
aVa
aVpocket
p6256
aVand
p6257
aVpulled
p6258
aVout
p6259
aV,
aVof
p6260
aVall
p6261
aVthings
p6262
aV,
aVa
aVpack
p6263
aVof
p6264
aVcigarettes
p6265
aV.
aa(lp6266
Vhe
p6267
aVflipped
p6268
aVit
p6269
aVopen
p6270
aVand
p6271
aVput
p6272
aVa
aVcigarette
p6273
aVbetween
p6274
aVhis
p6275
aVlips
p6276
aV.
aa(lp6277
V``
p6278
aVare
p6279
aVyou
p6280
aVserious
p6281
aV?
aV''
p6282
aa(lp6283
Vi
aVasked
p6284
aV.
aa(lp6285
V``
p6286
aVyou
p6287
aVthink
p6288
aVthat
p6289
aV's
p6290
aVcool
p6291
aV?
aa(lp6292
Voh
p6293
aV,
aVmy
p6294
aVgod
p6295
aV,
aVyou
p6296
aVjust
p6297
aVruined
p6298
aVthe
p6299
aVwhole
p6300
aVthing
p6301
aV.
aV''
p6302
aa(lp6303
V``
p6304
aVwhich
p6305
aVwhole
p6306
aVthing
p6307
aV?
aV''
p6308
aa(lp6309
Vhe
p6310
aVasked
p6311
aV,
aVturning
p6312
aVto
p6313
aVme
p6314
aV.
aa(lp6315
Vthe
p6316
aVcigarette
p6317
aVdangled
p6318
aVunlit
p6319
aVfrom
p6320
aVthe
p6321
aVunsmiling
p6322
aVcorner
p6323
aVof
p6324
aVhis
p6325
aVmouth
p6326
aV.
aa(lp6327
V``
p6328
aVthe
p6329
aVwhole
p6330
aVthing
p6331
aVwhere
p6332
aVa
aVboy
p6333
aVwho
p6334
aVis
p6335
aVnot
p6336
aVunattractive
p6337
aVor
p6338
aVunintelligent
p6339
aVor
p6340
aVseemingly
p6341
aVin
p6342
aVany
p6343
aVway
p6344
aVunacceptable
p6345
aVstares
p6346
aVat
p6347
aVme
p6348
aVand
p6349
aVpoints
p6350
aVout
p6351
aVincorrect
p6352
aVuses
p6353
aVof
p6354
aVliterality
p6355
aVand
p6356
aVcompares
p6357
aVme
p6358
aVto
p6359
aVactresses
p6360
aVand
p6361
aVasks
p6362
aVme
p6363
aVto
p6364
aVwatch
p6365
aVa
aVmovie
p6366
aVat
p6367
aVhis
p6368
aVhouse
p6369
aV.
aa(lp6370
Vbut
p6371
aVof
p6372
aVcourse
p6373
aVthere
p6374
aVis
p6375
aValways
p6376
aVa
aVhamartia
p6377
aVand
p6378
aVyours
p6379
aV19
p6380
aVjohn
p6381
aVgreen
p6382
aVis
p6383
aVthat
p6384
aVoh
p6385
aV,
aVmy
p6386
aVgod
p6387
aV,
aVeven
p6388
aVthough
p6389
aVyou
p6390
aVhad
p6391
aVfreaking
p6392
aVcancer
p6393
aVyou
p6394
aVgive
p6395
aVmoney
p6396
aVto
p6397
aVa
aVcompany
p6398
aVin
p6399
aVexchange
p6400
aVfor
p6401
aVthe
p6402
aVchance
p6403
aVto
p6404
aVacquire
p6405
aVyet
p6406
aVmore
p6407
aVcancer
p6408
aV.
aa(lp6409
Voh
p6410
aV,
aVmy
p6411
aVgod
p6412
aV.
aa(lp6413
Vlet
p6414
aVme
p6415
aVjust
p6416
aVassure
p6417
aVyou
p6418
aVthat
p6419
aVnot
p6420
aVbeing
p6421
aVable
p6422
aVto
p6423
aVbreathe
p6424
aV?
aa(lp6425
Vsucks
p6426
aV.
aa(lp6427
Vtotally
p6428
aVdisappointing
p6429
aV.
aa(lp6430
Vtotally
p6431
aV.
aV''
p6432
aa(lp6433
V``
p6434
aVa
aVhamartia
p6435
aV?
aV''
p6436
aa(lp6437
Vhe
p6438
aVasked
p6439
aV,
aVthe
p6440
aVcigarette
p6441
aVstill
p6442
aVin
p6443
aVhis
p6444
aVmouth
p6445
aV.
aa(lp6446
Vit
p6447
aVtightened
p6448
aVhis
p6449
aVjaw
p6450
aV.
aa(lp6451
Vhe
p6452
aVhad
p6453
aVa
aVhell
p6454
aVof
p6455
aVajawline
p6456
aV,
aVunfortunately
p6457
aV.
aa(lp6458
V``
p6459
aVa
aVfatal
p6460
aVflaw
p6461
aV,
aV''
p6462
aVi
aVexplained
p6463
aV,
aVturning
p6464
aVaway
p6465
aVfrom
p6466
aVhim
p6467
aV.
aa(lp6468
Vi
aVstepped
p6469
aVtoward
p6470
aVthe
p6471
aVcurb
p6472
aV,
aVleaving
p6473
aVaugustus
p6474
aVwaters
p6475
aVbehind
p6476
aVme
p6477
aV,
aVand
p6478
aVthen
p6479
aVi
aVheard
p6480
aVa
aVcar
p6481
aVstart
p6482
aVdown
p6483
aVthe
p6484
aVstreet
p6485
aV.
aa(lp6486
Vit
p6487
aVwas
p6488
aVmom
p6489
aV.
aa(lp6490
Vshe
p6491
aV'd
p6492
aVbeen
p6493
aVwaiting
p6494
aVfor
p6495
aVme
p6496
aVto
p6497
aV,
aVlike
p6498
aV,
aVmake
p6499
aVfriends
p6500
aVor
p6501
aVwhatever
p6502
aV.
aa(lp6503
Vi
aVfelt
p6504
aVthis
p6505
aVweird
p6506
aVmix
p6507
aVof
p6508
aVdisappointment
p6509
aVand
p6510
aVanger
p6511
aVwelling
p6512
aVup
p6513
aVinside
p6514
aVof
p6515
aVme
p6516
aV.
aa(lp6517
Vi
aVdo
p6518
aVn't
p6519
aVeven
p6520
aVknow
p6521
aVwhat
p6522
aVthe
p6523
aVfeeling
p6524
aVwas
p6525
aV,
aVreally
p6526
aV,
aVjust
p6527
aVthat
p6528
aVthere
p6529
aVwas
p6530
aVa
aVlot
p6531
aVof
p6532
aVit
p6533
aV,
aVand
p6534
aVi
aVwanted
p6535
aVto
p6536
aVsmack
p6537
aVaugustus
p6538
aVwaters
p6539
aVand
p6540
aValso
p6541
aVreplace
p6542
aVmy
p6543
aVlungs
p6544
aVwith
p6545
aVlungs
p6546
aVthat
p6547
aVdid
p6548
aVn't
p6549
aVsuck
p6550
aVat
p6551
aVbeing
p6552
aVlungs
p6553
aV.
aa(lp6554
Vi
aVwas
p6555
aVstanding
p6556
aVwith
p6557
aVmy
p6558
aVchuck
p6559
aVtaylors
p6560
aVon
p6561
aVthe
p6562
aVvery
p6563
aVedge
p6564
aVof
p6565
aVthe
p6566
aVcurb
p6567
aV,
aVthe
p6568
aVoxygen
p6569
aVtank
p6570
aVball-and-chaining
p6571
aVin
p6572
aVthe
p6573
aVcart
p6574
aVby
p6575
aVmy
p6576
aVside
p6577
aV,
aVand
p6578
aVright
p6579
aVas
p6580
aVmy
p6581
aVmom
p6582
aVpulled
p6583
aVup
p6584
aV,
aVi
aVfelt
p6585
aVa
aVhand
p6586
aVgrab
p6587
aVmine
p6588
aV.
aa(lp6589
Vi
aVyanked
p6590
aVmy
p6591
aVhand
p6592
aVfree
p6593
aVbut
p6594
aVturned
p6595
aVback
p6596
aVto
p6597
aVhim
p6598
aV.
aa(lp6599
V``
p6600
aVthey
p6601
aVdo
p6602
aVn't
p6603
aVkill
p6604
aVyou
p6605
aVunless
p6606
aVyou
p6607
aVlight
p6608
aVthem
p6609
aV,
aV''
p6610
aVhe
p6611
aVsaid
p6612
aVas
p6613
aVmom
p6614
aVarrived
p6615
aVat
p6616
aVthe
p6617
aVcurb
p6618
aV.
aa(lp6619
V``
p6620
aVand
p6621
aVi
aV've
p6622
aVnever
p6623
aVlit
p6624
aVone
p6625
aV.
aa(lp6626
Vit
p6627
aV's
p6628
aVa
aVmetaphor
p6629
aV,
aVsee
p6630
aV:
aVyou
p6631
aVput
p6632
aVthe
p6633
aVkilling
p6634
aVthing
p6635
aVright
p6636
aVbetween
p6637
aVyour
p6638
aVteeth
p6639
aV,
aVbut
p6640
aVyou
p6641
aVdo
p6642
aVn't
p6643
aVgive
p6644
aVit
p6645
aVthe
p6646
aVpower
p6647
aVto
p6648
aVdo
p6649
aVits
p6650
aVkilling
p6651
aV.
aV''
p6652
aa(lp6653
V``
p6654
aVit
p6655
aV's
p6656
aVa
aVmetaphor
p6657
aV,
aV''
p6658
aVi
aVsaid
p6659
aV,
aVdubious
p6660
aV.
aa(lp6661
Vmom
p6662
aVwas
p6663
aVjust
p6664
aVidling
p6665
aV.
aa(lp6666
V20
p6667
aVthe
p6668
aVfault
p6669
aVin
p6670
aVour
p6671
aVstars
p6672
aV''
p6673
aVit
p6674
aV's
p6675
aVa
aVmetaphor
p6676
aV,
aV''
p6677
aVhe
p6678
aVsaid
p6679
aV.
aa(lp6680
V``
p6681
aVyou
p6682
aVchoose
p6683
aVyour
p6684
aVbehaviors
p6685
aVbased
p6686
aVon
p6687
aVtheir
p6688
aVmetaphori-
p6689
aVcal
p6690
aVresonances
p6691
aV...
p6692
aV''
p6693
aVi
aVsaid
p6694
aV.
aa(lp6695
V``
p6696
aVoh
p6697
aV,
aVyes
p6698
aV.
aV''
p6699
aa(lp6700
Vhe
p6701
aVsmiled
p6702
aV.
aa(lp6703
Vthe
p6704
aVbig
p6705
aV,
aVgoofy
p6706
aV,
aVreal
p6707
aVsmile
p6708
aV.
aa(lp6709
V``
p6710
aVi
aV'm
p6711
aVa
aVbig
p6712
aVbeliever
p6713
aVin
p6714
aVmetaphor
p6715
aV,
aVhazel
p6716
aVgrace
p6717
aV.
aV''
p6718
aa(lp6719
Vi
aVturned
p6720
aVto
p6721
aVthe
p6722
aVcar
p6723
aV.
aa(lp6724
Vtapped
p6725
aVthe
p6726
aVwindow
p6727
aV.
aa(lp6728
Vit
p6729
aVrolled
p6730
aVdown
p6731
aV.
aa(lp6732
V``
p6733
aVi
aV'm
p6734
aVgoing
p6735
aVto
p6736
aVa
aVmovie
p6737
aVwith
p6738
aVaugustus
p6739
aVwaters
p6740
aV,
aV''
p6741
aVi
aVsaid
p6742
aV.
aa(lp6743
V``
p6744
aVplease
p6745
aVrecord
p6746
aVthe
p6747
aVnext
p6748
aVseveral
p6749
aVepisodes
p6750
aVof
p6751
aVthe
p6752
aVantm
p6753
aVmarathon
p6754
aVfor
p6755
aVme
p6756
aV.
aV''
p6757
aasb.