ccopy_reg
_reconstructor
p1
(cData.Book
Book
p2
c__builtin__
object
p3
NtRp4
(dp5
S'stored_object'
p6
S'Books/A_Rose_for_Emily/Book_object.p'
p7
sS'title'
p8
S'A Rose for Emily'
p9
sS'main_text_path'
p10
S'Books/A_Rose_for_Emily/main_cleaned.txt'
p11
sS'metadata_path'
p12
S'Books/A_Rose_for_Emily/meta_data.csv'
p13
sS'book_path'
p14
S'Books/A_Rose_for_Emily/'
p15
sS'characters'
p16
(dp17
S'judge stevens'
p18
(dp19
S'list'
p20
(lp21
(lp22
V[
aVCHARACTER
p23
aV]
aV-
aVa
aVmayor
p24
aVof
p25
aVjefferson
p26
aV.
aa(lp27
Veighty
p28
aVyears
p29
aVold
p30
aV,
aV[
aVCHARACTER
p31
aV]
aVattempts
p32
aVto
p33
aVdelicately
p34
aVhandle
p35
aVthe
p36
aVcomplaints
p37
aVabout
p38
aVthe
p39
aVsmell
p40
aVemanating
p41
aVfrom
p42
aVthe
p43
aVgrierson
p44
aVproperty
p45
aV.
aa(lp46
Vto
p47
aVbe
p48
aVrespectful
p49
aVof
p50
aVemily
p51
aV's
p52
aVpride
p53
aVand
p54
aVformer
p55
aVposition
p56
aVin
p57
aVthe
p58
aVcommunity
p59
aV,
aVhe
p60
aVand
p61
aVthe
p62
aValdermen
p63
aVdecide
p64
aVto
p65
aVsprinkle
p66
aVlime
p67
aVon
p68
aVthe
p69
aVproperty
p70
aVin
p71
aVthe
p72
aVmiddle
p73
aVof
p74
aVthe
p75
aVnight
p76
aV.
aasS'analysis'
p77
NssS'mr. grierson'
p78
(dp79
g20
(lp80
(lp81
Vmr.
p82
aV[
aVCHARACTER
p83
aV]
aV-
aVemily
p84
aV's
p85
aVfather
p86
aV.
aa(lp87
Vmr.
p88
aV[
aVCHARACTER
p89
aV]
aVis
p90
aVa
aVcontrolling
p91
aV,
aVlooming
p92
aVpresence
p93
aVeven
p94
aVin
p95
aVdeath
p96
aV,
aVand
p97
aVthe
p98
aVcommunity
p99
aVclearly
p100
aVsees
p101
aVhis
p102
aVlasting
p103
aVinfluence
p104
aVover
p105
aVemily
p106
aV.
aa(lp107
Vhe
p108
aVdeliberately
p109
aVthwarts
p110
aVemily
p111
aV's
p112
aVattempts
p113
aVto
p114
aVfind
p115
aVa
aVhusband
p116
aVin
p117
aVorder
p118
aVto
p119
aVkeep
p120
aVher
p121
aVunder
p122
aVhis
p123
aVcontrol
p124
aV.
aa(lp125
Vwe
p126
aVget
p127
aVglimpses
p128
aVof
p129
aVhim
p130
aVin
p131
aVthe
p132
aVstory
p133
aV:
aVin
p134
aVthe
p135
aVcrayon
p136
aVportrait
p137
aVkept
p138
aVon
p139
aVthe
p140
aVgilt-edged
p141
aVeasel
p142
aVin
p143
aVthe
p144
aVparlor
p145
aV,
aVand
p146
aVsilhouetted
p147
aVin
p148
aVthe
p149
aVdoorway
p150
aV,
aVhorsewhip
p151
aVin
p152
aVhand
p153
aV,
aVhaving
p154
aVchased
p155
aVoff
p156
aVanother
p157
aVof
p158
aVemily
p159
aV's
p160
aVsuitors
p161
aV.
aasg77
NssS'tobe'
p162
(dp163
g20
(lp164
(lp165
V[
aVCHARACTER
p166
aV]
aV-
aVemily
p167
aV's
p168
aVservant
p169
aV.
aa(lp170
V[
aVCHARACTER
p171
aV]
aV,
aVhis
p172
aVvoice
p173
aVsupposedly
p174
aVrusty
p175
aVfrom
p176
aVlack
p177
aVof
p178
aVuse
p179
aV,
aVis
p180
aVthe
p181
aVonly
p182
aVlifeline
p183
aVthat
p184
aVemily
p185
aVhas
p186
aVto
p187
aVthe
p188
aVoutside
p189
aVworld
p190
aV.
aa(lp191
Vfor
p192
aVyears
p193
aV,
aVhe
p194
aVdutifully
p195
aVcares
p196
aVfor
p197
aVher
p198
aVand
p199
aVtends
p200
aVto
p201
aVher
p202
aVneeds
p203
aV.
aa(lp204
Veventually
p205
aVthe
p206
aVtownspeople
p207
aVstop
p208
aVgrilling
p209
aVhim
p210
aVfor
p211
aVinformation
p212
aVabout
p213
aVemily
p214
aV.
aa(lp215
Vafter
p216
aVemily
p217
aV's
p218
aVdeath
p219
aV,
aVhe
p220
aVwalks
p221
aVout
p222
aVthe
p223
aVback
p224
aVdoor
p225
aVand
p226
aVnever
p227
aVreturns
p228
aV.
aasg77
NssS'emily grierson'
p229
(dp230
g20
(lp231
(lp232
V[
aVCHARACTER
p233
aV]
aV-
aVthe
p234
aVobject
p235
aVof
p236
aVfascination
p237
aVin
p238
aVthe
p239
aVstory
p240
aV.
aa(lp241
Va
aVeccentric
p242
aVrecluse
p243
aV,
aVemily
p244
aVis
p245
aVa
aVmysterious
p246
aVfigure
p247
aVwho
p248
aVchanges
p249
aVfrom
p250
aVa
aVvibrant
p251
aVand
p252
aVhopeful
p253
aVyoung
p254
aVgirl
p255
aVto
p256
aVa
aVcloistered
p257
aVand
p258
aVsecretive
p259
aVold
p260
aVwoman
p261
aV.
aa(lp262
Vdevastated
p263
aVand
p264
aValone
p265
aVafter
p266
aVher
p267
aVfather
p268
aV's
p269
aVdeath
p270
aV,
aVshe
p271
aVis
p272
aVan
p273
aVobject
p274
aVof
p275
aVpity
p276
aVfor
p277
aVthe
p278
aVtownspeople
p279
aV.
aa(lp280
Vafter
p281
aVa
aVlife
p282
aVof
p283
aVhaving
p284
aVpotential
p285
aVsuitors
p286
aVrejected
p287
aVby
p288
aVher
p289
aVfather
p290
aV,
aVshe
p291
aVspends
p292
aVtime
p293
aVafter
p294
aVhis
p295
aVdeath
p296
aVwith
p297
aVa
aVnewcomer
p298
aV,
aVhomer
p299
aVbarron
p300
aV,
aValthough
p301
aVthe
p302
aVchances
p303
aVof
p304
aVhis
p305
aVmarrying
p306
aVher
p307
aVdecrease
p308
aVas
p309
aVthe
p310
aVyears
p311
aVpass
p312
aV.
aa(lp313
Vbloated
p314
aVand
p315
aVpallid
p316
aVin
p317
aVher
p318
aVlater
p319
aVyears
p320
aV,
aVher
p321
aVhair
p322
aVturns
p323
aVsteel
p324
aVgray
p325
aV.
aa(lp326
Vshe
p327
aVultimately
p328
aVpoisons
p329
aVhomer
p330
aVand
p331
aVseals
p332
aVhis
p333
aVcorpse
p334
aVinto
p335
aVan
p336
aVupstairs
p337
aVroom
p338
aV.
aasg77
(lp339
(lp340
V[
aVCHARACTER
p341
aV]
aVemily
p342
aVis
p343
aVthe
p344
aVclassic
p345
aVoutsider
p346
aV,
aVcontrolling
p347
aVand
p348
aVlimiting
p349
aVthe
p350
aVtown
p351
aV's
p352
aVaccess
p353
aVto
p354
aVher
p355
aVtrue
p356
aVidentity
p357
aVby
p358
aVremaining
p359
aVhidden
p360
aV.
aa(lp361
Vthe
p362
aVhouse
p363
aVthat
p364
aVshields
p365
aVemily
p366
aVfrom
p367
aVthe
p368
aVworld
p369
aVsuggests
p370
aVthe
p371
aVmind
p372
aVof
p373
aVthe
p374
aVwoman
p375
aVwho
p376
aVinhabits
p377
aVit
p378
aV:
aVshuttered
p379
aV,
aVdusty
p380
aV,
aVand
p381
aVdark
p382
aV.
aa(lp383
Vthe
p384
aVobject
p385
aVof
p386
aVthe
p387
aVtown
p388
aV's
p389
aVintense
p390
aVscrutiny
p391
aV,
aVemily
p392
aVis
p393
aVa
aVmuted
p394
aVand
p395
aVmysterious
p396
aVfigure
p397
aV.
aa(lp398
Von
p399
aVone
p400
aVlevel
p401
aV,
aVshe
p402
aVexhibits
p403
aVthe
p404
aVqualities
p405
aVof
p406
aVthe
p407
aVstereotypical
p408
aVsouthern
p409
aV``
p410
aVeccentric
p411
aV''
p412
aV:
aVunbalanced
p413
aV,
aVexcessively
p414
aVtragic
p415
aV,
aVand
p416
aVsubject
p417
aVto
p418
aVbizarre
p419
aVbehavior
p420
aV.
aa(lp421
Vemily
p422
aVenforces
p423
aVher
p424
aVown
p425
aVsense
p426
aVof
p427
aVlaw
p428
aVand
p429
aVconduct
p430
aV,
aVsuch
p431
aVas
p432
aVwhen
p433
aVshe
p434
aVrefuses
p435
aVto
p436
aVpay
p437
aVher
p438
aVtaxes
p439
aVor
p440
aVstate
p441
aVher
p442
aVpurpose
p443
aVfor
p444
aVbuying
p445
aVthe
p446
aVpoison
p447
aV.
aa(lp448
Vemily
p449
aValso
p450
aVskirts
p451
aVthe
p452
aVlaw
p453
aVwhen
p454
aVshe
p455
aVrefuses
p456
aVto
p457
aVhave
p458
aVnumbers
p459
aVattached
p460
aVto
p461
aVher
p462
aVhouse
p463
aVwhen
p464
aVfederal
p465
aVmail
p466
aVservice
p467
aVis
p468
aVinstituted
p469
aV.
aa(lp470
Vher
p471
aVdismissal
p472
aVof
p473
aVthe
p474
aVlaw
p475
aVeventually
p476
aVtakes
p477
aVon
p478
aVmore
p479
aVsinister
p480
aVconsequences
p481
aV,
aVas
p482
aVshe
p483
aVtakes
p484
aVthe
p485
aVlife
p486
aVof
p487
aVthe
p488
aVman
p489
aVwhom
p490
aVshe
p491
aVrefuses
p492
aVto
p493
aVallow
p494
aVto
p495
aVabandon
p496
aVher
p497
aV.
aa(lp498
Vthe
p499
aVnarrator
p500
aVportrays
p501
aVemily
p502
aVas
p503
aVa
aVmonument
p504
aV,
aVbut
p505
aVat
p506
aVthe
p507
aVsame
p508
aVtime
p509
aVshe
p510
aVis
p511
aVpitied
p512
aVand
p513
aVoften
p514
aVirritating
p515
aV,
aVdemanding
p516
aVto
p517
aVlive
p518
aVlife
p519
aVon
p520
aVher
p521
aVown
p522
aVterms
p523
aV.
aa(lp524
Vthe
p525
aVsubject
p526
aVof
p527
aVgossip
p528
aVand
p529
aVspeculation
p530
aV,
aVthe
p531
aVtownspeople
p532
aVcluck
p533
aVtheir
p534
aVtongues
p535
aVat
p536
aVthe
p537
aVfact
p538
aVthat
p539
aVshe
p540
aVaccepts
p541
aVhomer
p542
aV's
p543
aVattentions
p544
aVwith
p545
aVno
p546
aVfirm
p547
aVwedding
p548
aVplans
p549
aV.
aa(lp550
Vafter
p551
aVshe
p552
aVpurchases
p553
aVthe
p554
aVpoison
p555
aV,
aVthe
p556
aVtownspeople
p557
aVconclude
p558
aVthat
p559
aVshe
p560
aVwill
p561
aVkill
p562
aVherself
p563
aV.
aa(lp564
Vemily
p565
aV's
p566
aVinstabilities
p567
aV,
aVhowever
p568
aV,
aVlead
p569
aVher
p570
aVin
p571
aVa
aVdifferent
p572
aVdirection
p573
aV,
aVand
p574
aVthe
p575
aVfinal
p576
aVscene
p577
aVof
p578
aVthe
p579
aVstory
p580
aVsuggests
p581
aVthat
p582
aVshe
p583
aVis
p584
aVa
aVnecrophiliac
p585
aV.
aa(lp586
Vnecrophilia
p587
aVtypically
p588
aVmeans
p589
aVa
aVsexual
p590
aVattraction
p591
aVto
p592
aVdead
p593
aVbodies
p594
aV.
aa(lp595
Vin
p596
aVa
aVbroader
p597
aVsense
p598
aV,
aVthe
p599
aVterm
p600
aValso
p601
aVdescribes
p602
aVa
aVpowerful
p603
aVdesire
p604
aVto
p605
aVcontrol
p606
aVanother
p607
aV,
aVusually
p608
aVin
p609
aVthe
p610
aVcontext
p611
aVof
p612
aVa
aVromantic
p613
aVor
p614
aVdeeply
p615
aVpersonal
p616
aVrelationship
p617
aV.
aa(lp618
Vnecrophiliacs
p619
aVtend
p620
aVto
p621
aVbe
p622
aVso
p623
aVcontrolling
p624
aVin
p625
aVtheir
p626
aVrelationships
p627
aVthat
p628
aVthey
p629
aVultimately
p630
aVresort
p631
aVto
p632
aVbonding
p633
aVwith
p634
aVunresponsive
p635
aVentities
p636
aVwith
p637
aVno
p638
aVresistance
p639
aVor
p640
aVwill
p641
aV--
p642
aVin
p643
aVother
p644
aVwords
p645
aV,
aVwith
p646
aVdead
p647
aVbodies
p648
aV.
aa(lp649
Vmr.
p650
aVgrierson
p651
aVcontrolled
p652
aVemily
p653
aV,
aVand
p654
aVafter
p655
aVhis
p656
aVdeath
p657
aV,
aVemily
p658
aVtemporarily
p659
aVcontrols
p660
aVhim
p661
aVby
p662
aVrefusing
p663
aVto
p664
aVgive
p665
aVup
p666
aVhis
p667
aVdead
p668
aVbody
p669
aV.
aa(lp670
Vshe
p671
aVultimately
p672
aVtransfers
p673
aVthis
p674
aVcontrol
p675
aVto
p676
aVhomer
p677
aV,
aVthe
p678
aVobject
p679
aVof
p680
aVher
p681
aVaffection
p682
aV.
aa(lp683
Vunable
p684
aVto
p685
aVfind
p686
aVa
aVtraditional
p687
aVway
p688
aVto
p689
aVexpress
p690
aVher
p691
aVdesire
p692
aVto
p693
aVpossess
p694
aVhomer
p695
aV,
aVemily
p696
aVtakes
p697
aVhis
p698
aVlife
p699
aVto
p700
aVachieve
p701
aVtotal
p702
aVpower
p703
aVover
p704
aVhim
p705
aV.
aassS'colonel sartoris'
p706
(dp707
g20
(lp708
(lp709
V[
aVCHARACTER
p710
aV]
aV-
aVa
aVformer
p711
aVmayor
p712
aVof
p713
aVjefferson
p714
aV.
aa(lp715
V[
aVCHARACTER
p716
aV]
aVabsolves
p717
aVemily
p718
aVof
p719
aVany
p720
aVtax
p721
aVburden
p722
aVafter
p723
aVthe
p724
aVdeath
p725
aVof
p726
aVher
p727
aVfather
p728
aV.
aa(lp729
Vhis
p730
aVelaborate
p731
aVand
p732
aVbenevolent
p733
aVgesture
p734
aVis
p735
aVnot
p736
aVheeded
p737
aVby
p738
aVthe
p739
aVsucceeding
p740
aVgeneration
p741
aVof
p742
aVtown
p743
aVleaders
p744
aV.
aasg77
NssS'homer barron'
p745
(dp746
g20
(lp747
(lp748
V[
aVCHARACTER
p749
aV]
aV-
aVa
aVforeman
p750
aVfrom
p751
aVthe
p752
aVnorth
p753
aV.
aa(lp754
Vhomer
p755
aVis
p756
aVa
aVlarge
p757
aVman
p758
aVwith
p759
aVa
aVdark
p760
aVcomplexion
p761
aV,
aVa
aVbooming
p762
aVvoice
p763
aV,
aVand
p764
aVlight-colored
p765
aVeyes
p766
aV.
aa(lp767
Va
aVgruff
p768
aVand
p769
aVdemanding
p770
aVboss
p771
aV,
aVhe
p772
aVwins
p773
aVmany
p774
aVadmirers
p775
aVin
p776
aVjefferson
p777
aVbecause
p778
aVof
p779
aVhis
p780
aVgregarious
p781
aVnature
p782
aVand
p783
aVgood
p784
aVsense
p785
aVof
p786
aVhumor
p787
aV.
aa(lp788
Vhe
p789
aVdevelops
p790
aVan
p791
aVinterest
p792
aVin
p793
aVemily
p794
aVand
p795
aVtakes
p796
aVher
p797
aVfor
p798
aVsunday
p799
aVdrives
p800
aVin
p801
aVa
aVyellow-wheeled
p802
aVbuggy
p803
aV.
aa(lp804
Vdespite
p805
aVhis
p806
aVattributes
p807
aV,
aVthe
p808
aVtownspeople
p809
aVview
p810
aVhim
p811
aVas
p812
aVa
aVpoor
p813
aV,
aVif
p814
aVnot
p815
aVscandalous
p816
aV,
aVchoice
p817
aVfor
p818
aVa
aVmate
p819
aV.
aa(lp820
Vhe
p821
aVdisappears
p822
aVin
p823
aVemily
p824
aV's
p825
aVhouse
p826
aVand
p827
aVdecomposes
p828
aVin
p829
aVan
p830
aVattic
p831
aVbedroom
p832
aVafter
p833
aVshe
p834
aVkills
p835
aVhim
p836
aV.
aasg77
(lp837
(lp838
V[
aVCHARACTER
p839
aV]
aVhomer
p840
aV,
aVmuch
p841
aVlike
p842
aVemily
p843
aV,
aVis
p844
aVan
p845
aVoutsider
p846
aV,
aVa
aVstranger
p847
aVin
p848
aVtown
p849
aVwho
p850
aVbecomes
p851
aVthe
p852
aVsubject
p853
aVof
p854
aVgossip
p855
aV.
aa(lp856
Vunlike
p857
aVemily
p858
aV,
aVhowever
p859
aV,
aVhomer
p860
aVswoops
p861
aVinto
p862
aVtown
p863
aVbrimming
p864
aVwith
p865
aVcharm
p866
aV,
aVand
p867
aVhe
p868
aVinitially
p869
aVbecomes
p870
aVthe
p871
aVcenter
p872
aVof
p873
aVattention
p874
aVand
p875
aVthe
p876
aVobject
p877
aVof
p878
aVaffection
p879
aV.
aa(lp880
Vsome
p881
aVtownspeople
p882
aVdistrust
p883
aVhim
p884
aVbecause
p885
aVhe
p886
aVis
p887
aVboth
p888
aVa
aVnortherner
p889
aVand
p890
aVday
p891
aVlaborer
p892
aV,
aVand
p893
aVhis
p894
aVsunday
p895
aVoutings
p896
aVwith
p897
aVemily
p898
aVare
p899
aVin
p900
aVmany
p901
aVways
p902
aVscandalous
p903
aV,
aVbecause
p904
aVthe
p905
aVtownspeople
p906
aVregard
p907
aVemily
p908
aV--
p909
aVdespite
p910
aVher
p911
aVeccentricities
p912
aV--
p913
aVas
p914
aVbeing
p915
aVfrom
p916
aVa
aVhigher
p917
aVsocial
p918
aVclass
p919
aV.
aa(lp920
Vhomer
p921
aV's
p922
aVfailure
p923
aVto
p924
aVproperly
p925
aVcourt
p926
aVand
p927
aVmarry
p928
aVemily
p929
aVprompts
p930
aVspeculation
p931
aVand
p932
aVsuspicion
p933
aV.
aa(lp934
Vhe
p935
aVcarouses
p936
aVwith
p937
aVyounger
p938
aVmen
p939
aVat
p940
aVthe
p941
aVelks
p942
aVclub
p943
aV,
aVand
p944
aVthe
p945
aVnarrator
p946
aVportrays
p947
aVhim
p948
aVas
p949
aVeither
p950
aVa
aVhomosexual
p951
aVor
p952
aVsimply
p953
aVan
p954
aVeternal
p955
aVbachelor
p956
aV,
aVdedicated
p957
aVto
p958
aVhis
p959
aVsingle
p960
aVstatus
p961
aVand
p962
aVuninterested
p963
aVin
p964
aVmarriage
p965
aV.
aa(lp966
Vhomer
p967
aVsays
p968
aVonly
p969
aVthat
p970
aVhe
p971
aVis
p972
aV``
p973
aVnot
p974
aVa
aVmarrying
p975
aVman
p976
aV.
aV''
p977
aa(lp978
Vas
p979
aVthe
p980
aVforeman
p981
aVof
p982
aVa
aVcompany
p983
aVthat
p984
aVhas
p985
aVarrived
p986
aVin
p987
aVtown
p988
aVto
p989
aVpave
p990
aVthe
p991
aVsidewalks
p992
aV,
aVhomer
p993
aVis
p994
aVan
p995
aVemblem
p996
aVof
p997
aVthe
p998
aVnorth
p999
aVand
p1000
aVthe
p1001
aVchanges
p1002
aVthat
p1003
aVgrip
p1004
aVthe
p1005
aVonce
p1006
aVinsular
p1007
aVand
p1008
aVgenteel
p1009
aVworld
p1010
aVof
p1011
aVthe
p1012
aVsouth
p1013
aV.
aa(lp1014
Vwith
p1015
aVhis
p1016
aVmachinery
p1017
aV,
aVhomer
p1018
aVrepresents
p1019
aVmodernity
p1020
aVand
p1021
aVindustrialization
p1022
aV,
aVthe
p1023
aVforce
p1024
aVof
p1025
aVprogress
p1026
aVthat
p1027
aVis
p1028
aVupending
p1029
aVtraditional
p1030
aVvalues
p1031
aVand
p1032
aVprovoking
p1033
aVresistance
p1034
aVand
p1035
aValarm
p1036
aVamong
p1037
aVtraditionalists
p1038
aV.
aa(lp1039
Vhomer
p1040
aVbrings
p1041
aVinnovation
p1042
aVto
p1043
aVthe
p1044
aVrapidly
p1045
aVchanging
p1046
aVworld
p1047
aVof
p1048
aVthis
p1049
aVsouthern
p1050
aVtown
p1051
aV,
aVwhose
p1052
aVnew
p1053
aVleaders
p1054
aVare
p1055
aVthemselves
p1056
aVpursuing
p1057
aVmore
p1058
aV``
p1059
aVmodern
p1060
aV''
p1061
aVideas
p1062
aV.
aa(lp1063
Vthe
p1064
aVchange
p1065
aVthat
p1066
aVhomer
p1067
aVbrings
p1068
aVto
p1069
aVemily
p1070
aV's
p1071
aVlife
p1072
aV,
aVas
p1073
aVher
p1074
aVfirst
p1075
aVreal
p1076
aVlover
p1077
aV,
aVis
p1078
aVequally
p1079
aVas
p1080
aVprofound
p1081
aVand
p1082
aVseals
p1083
aVhis
p1084
aVgrim
p1085
aVfate
p1086
aVas
p1087
aVthe
p1088
aVvictim
p1089
aVof
p1090
aVher
p1091
aVplan
p1092
aVto
p1093
aVkeep
p1094
aVhim
p1095
aVpermanently
p1096
aVby
p1097
aVher
p1098
aVside
p1099
aV.
aasssS'mainText'
p1100
(lp1101
(lp1102
Vi
aVwhen
p1103
aVmiss
p1104
aVemily
p1105
aVgrierson
p1106
aVdied
p1107
aV,
aVour
p1108
aVwhole
p1109
aVtown
p1110
aVwent
p1111
aVto
p1112
aVher
p1113
aVfuneral
p1114
aV:
aVthe
p1115
aVmen
p1116
aVthrough
p1117
aVa
aVsort
p1118
aVof
p1119
aVrespectful
p1120
aVaffection
p1121
aVfor
p1122
aVa
aVfallen
p1123
aVmonument
p1124
aV,
aVthe
p1125
aVwomen
p1126
aVmostly
p1127
aVout
p1128
aVof
p1129
aVcuriosity
p1130
aVto
p1131
aVsee
p1132
aVthe
p1133
aVinside
p1134
aVof
p1135
aVher
p1136
aVhouse
p1137
aV,
aVwhich
p1138
aVno
p1139
aVone
p1140
aVsave
p1141
aVan
p1142
aVold
p1143
aVman-servant
p1144
aV--
p1145
aVa
aVcombined
p1146
aVgardener
p1147
aVand
p1148
aVcook
p1149
aV--
p1150
aVhad
p1151
aVseen
p1152
aVin
p1153
aVat
p1154
aVleast
p1155
aVten
p1156
aVyears
p1157
aV.
aa(lp1158
Vit
p1159
aVwas
p1160
aVa
aVbig
p1161
aV,
aVsquarish
p1162
aVframe
p1163
aVhouse
p1164
aVthat
p1165
aVhad
p1166
aVonce
p1167
aVbeen
p1168
aVwhite
p1169
aV,
aVdecorated
p1170
aVwith
p1171
aVcupolas
p1172
aVand
p1173
aVspires
p1174
aVand
p1175
aVscrolled
p1176
aVbalconies
p1177
aVin
p1178
aVthe
p1179
aVheavily
p1180
aVlightsome
p1181
aVstyle
p1182
aVof
p1183
aVthe
p1184
aVseventies
p1185
aV,
aVset
p1186
aVon
p1187
aVwhat
p1188
aVhad
p1189
aVonce
p1190
aVbeen
p1191
aVour
p1192
aVmost
p1193
aVselect
p1194
aVstreet
p1195
aV.
aa(lp1196
Vbut
p1197
aVgarages
p1198
aVand
p1199
aVcotton
p1200
aVgins
p1201
aVhad
p1202
aVencroached
p1203
aVand
p1204
aVobliterated
p1205
aVeven
p1206
aVthe
p1207
aVaugust
p1208
aVnames
p1209
aVof
p1210
aVthat
p1211
aVneighborhood
p1212
aV;
aVonly
p1213
aVmiss
p1214
aVemily
p1215
aV's
p1216
aVhouse
p1217
aVwas
p1218
aVleft
p1219
aV,
aVlifting
p1220
aVits
p1221
aVstubborn
p1222
aVand
p1223
aVcoquettish
p1224
aVdecay
p1225
aVabove
p1226
aVthe
p1227
aVcotton
p1228
aVwagons
p1229
aVand
p1230
aVthe
p1231
aVgasoline
p1232
aVpumps-an
p1233
aVeyesore
p1234
aVamong
p1235
aVeyesores
p1236
aV.
aa(lp1237
Vand
p1238
aVnow
p1239
aVmiss
p1240
aVemily
p1241
aVhad
p1242
aVgone
p1243
aVto
p1244
aVjoin
p1245
aVthe
p1246
aVrepresentatives
p1247
aVof
p1248
aVthose
p1249
aVaugust
p1250
aVnames
p1251
aVwhere
p1252
aVthey
p1253
aVlay
p1254
aVin
p1255
aVthe
p1256
aVcedar-bemused
p1257
aVcemetery
p1258
aVamong
p1259
aVthe
p1260
aVranked
p1261
aVand
p1262
aVanonymous
p1263
aVgraves
p1264
aVof
p1265
aVunion
p1266
aVand
p1267
aVconfederate
p1268
aVsoldiers
p1269
aVwho
p1270
aVfell
p1271
aVat
p1272
aVthe
p1273
aVbattle
p1274
aVof
p1275
aVjefferson
p1276
aV.
aa(lp1277
Valive
p1278
aV,
aVmiss
p1279
aVemily
p1280
aVhad
p1281
aVbeen
p1282
aVa
aVtradition
p1283
aV,
aVa
aVduty
p1284
aV,
aVand
p1285
aVa
aVcare
p1286
aV;
aVa
aVsort
p1287
aVof
p1288
aVhereditary
p1289
aVobligation
p1290
aVupon
p1291
aVthe
p1292
aVtown
p1293
aV,
aVdating
p1294
aVfrom
p1295
aVthat
p1296
aVday
p1297
aVin
p1298
aV1894
p1299
aVwhen
p1300
aVcolonel
p1301
aVsartoris
p1302
aV,
aVthe
p1303
aVmayor
p1304
aV--
p1305
aVhe
p1306
aVwho
p1307
aVfathered
p1308
aVthe
p1309
aVedict
p1310
aVthat
p1311
aVno
p1312
aVnegro
p1313
aVwoman
p1314
aVshould
p1315
aVappear
p1316
aVon
p1317
aVthe
p1318
aVstreets
p1319
aVwithout
p1320
aVan
p1321
aVapron-remitted
p1322
aVher
p1323
aVtaxes
p1324
aV,
aVthe
p1325
aVdispensation
p1326
aVdating
p1327
aVfrom
p1328
aVthe
p1329
aVdeath
p1330
aVof
p1331
aVher
p1332
aVfather
p1333
aVon
p1334
aVinto
p1335
aVperpetuity
p1336
aV.
aa(lp1337
Vnot
p1338
aVthat
p1339
aVmiss
p1340
aVemily
p1341
aVwould
p1342
aVhave
p1343
aVaccepted
p1344
aVcharity
p1345
aV.
aa(lp1346
Vcolonel
p1347
aVsartoris
p1348
aVinvented
p1349
aVan
p1350
aVinvolved
p1351
aVtale
p1352
aVto
p1353
aVthe
p1354
aVeffect
p1355
aVthat
p1356
aVmiss
p1357
aVemily
p1358
aV's
p1359
aVfather
p1360
aVhad
p1361
aVloaned
p1362
aVmoney
p1363
aVto
p1364
aVthe
p1365
aVtown
p1366
aV,
aVwhich
p1367
aVthe
p1368
aVtown
p1369
aV,
aVas
p1370
aVa
aVmatter
p1371
aVof
p1372
aVbusiness
p1373
aV,
aVpreferred
p1374
aVthis
p1375
aVway
p1376
aVof
p1377
aVrepaying
p1378
aV.
aa(lp1379
Vonly
p1380
aVa
aVman
p1381
aVof
p1382
aVcolonel
p1383
aVsartoris
p1384
aV'
aVgeneration
p1385
aVand
p1386
aVthought
p1387
aVcould
p1388
aVhave
p1389
aVinvented
p1390
aVit
p1391
aV,
aVand
p1392
aVonly
p1393
aVa
aVwoman
p1394
aVcould
p1395
aVhave
p1396
aVbelieved
p1397
aVit
p1398
aV.
aa(lp1399
Vwhen
p1400
aVthe
p1401
aVnext
p1402
aVgeneration
p1403
aV,
aVwith
p1404
aVits
p1405
aVmore
p1406
aVmodern
p1407
aVideas
p1408
aV,
aVbecame
p1409
aVmayors
p1410
aVand
p1411
aValdermen
p1412
aV,
aVthis
p1413
aVarrangement
p1414
aVcreated
p1415
aVsome
p1416
aVlittle
p1417
aVdissatisfaction
p1418
aV.
aa(lp1419
Von
p1420
aVthe
p1421
aVfirst
p1422
aVof
p1423
aVthe
p1424
aVyear
p1425
aVthey
p1426
aVmailed
p1427
aVher
p1428
aVa
aVtax
p1429
aVnotice
p1430
aV.
aa(lp1431
Vfebruary
p1432
aVcame
p1433
aV,
aVand
p1434
aVthere
p1435
aVwas
p1436
aVno
p1437
aVreply
p1438
aV.
aa(lp1439
Vthey
p1440
aVwrote
p1441
aVher
p1442
aVa
aVformal
p1443
aVletter
p1444
aV,
aVasking
p1445
aVher
p1446
aVto
p1447
aVcall
p1448
aVat
p1449
aVthe
p1450
aVsheriff
p1451
aV's
p1452
aVoffice
p1453
aVat
p1454
aVher
p1455
aVconvenience
p1456
aV.
aa(lp1457
Va
aVweek
p1458
aVlater
p1459
aVthe
p1460
aVmayor
p1461
aVwrote
p1462
aVher
p1463
aVhimself
p1464
aV,
aVoffering
p1465
aVto
p1466
aVcall
p1467
aVor
p1468
aVto
p1469
aVsend
p1470
aVhis
p1471
aVcar
p1472
aVfor
p1473
aVher
p1474
aV,
aVand
p1475
aVreceived
p1476
aVin
p1477
aVreply
p1478
aVa
aVnote
p1479
aVon
p1480
aVpaper
p1481
aVof
p1482
aVan
p1483
aVarchaic
p1484
aVshape
p1485
aV,
aVin
p1486
aVa
aVthin
p1487
aV,
aVflowing
p1488
aVcalligraphy
p1489
aVin
p1490
aVfaded
p1491
aVink
p1492
aV,
aVto
p1493
aVthe
p1494
aVeffect
p1495
aVthat
p1496
aVshe
p1497
aVno
p1498
aVlonger
p1499
aVwent
p1500
aVout
p1501
aVat
p1502
aVall
p1503
aV.
aa(lp1504
Vthe
p1505
aVtax
p1506
aVnotice
p1507
aVwas
p1508
aValso
p1509
aVenclosed
p1510
aV,
aVwithout
p1511
aVcomment
p1512
aV.
aa(lp1513
Vthey
p1514
aVcalled
p1515
aVa
aVspecial
p1516
aVmeeting
p1517
aVof
p1518
aVthe
p1519
aVboard
p1520
aVof
p1521
aValdermen
p1522
aV.
aa(lp1523
Va
aVdeputation
p1524
aVwaited
p1525
aVupon
p1526
aVher
p1527
aV,
aVknocked
p1528
aVat
p1529
aVthe
p1530
aVdoor
p1531
aVthrough
p1532
aVwhich
p1533
aVno
p1534
aVvisitor
p1535
aVhad
p1536
aVpassed
p1537
aVsince
p1538
aVshe
p1539
aVceased
p1540
aVgiving
p1541
aVchina-painting
p1542
aVlessons
p1543
aVeight
p1544
aVor
p1545
aVten
p1546
aVyears
p1547
aVearlier
p1548
aV.
aa(lp1549
Vthey
p1550
aVwere
p1551
aVadmitted
p1552
aVby
p1553
aVthe
p1554
aVold
p1555
aVnegro
p1556
aVinto
p1557
aVa
aVdim
p1558
aVhall
p1559
aVfrom
p1560
aVwhich
p1561
aVa
aVstairway
p1562
aVmounted
p1563
aVinto
p1564
aVstill
p1565
aVmore
p1566
aVshadow
p1567
aV.
aa(lp1568
Vit
p1569
aVsmelled
p1570
aVof
p1571
aVdust
p1572
aVand
p1573
aVdisuse
p1574
aV--
p1575
aVa
aVclose
p1576
aV,
aVdank
p1577
aVsmell
p1578
aV.
aa(lp1579
Vthe
p1580
aVnegro
p1581
aVled
p1582
aVthem
p1583
aVinto
p1584
aVthe
p1585
aVparlor
p1586
aV.
aa(lp1587
Vit
p1588
aVwas
p1589
aVfurnished
p1590
aVin
p1591
aVheavy
p1592
aV,
aVleather-covered
p1593
aVfurniture
p1594
aV.
aa(lp1595
Vwhen
p1596
aVthe
p1597
aVnegro
p1598
aVopened
p1599
aVthe
p1600
aVblinds
p1601
aVof
p1602
aVone
p1603
aVwindow
p1604
aV,
aVthey
p1605
aVcould
p1606
aVsee
p1607
aVthat
p1608
aVthe
p1609
aVleather
p1610
aVwas
p1611
aVcracked
p1612
aV;
aVand
p1613
aVwhen
p1614
aVthey
p1615
aVsat
p1616
aVdown
p1617
aV,
aVa
aVfaint
p1618
aVdust
p1619
aVrose
p1620
aVsluggishly
p1621
aVabout
p1622
aVtheir
p1623
aVthighs
p1624
aV,
aVspinning
p1625
aVwith
p1626
aVslow
p1627
aVmotes
p1628
aVin
p1629
aVthe
p1630
aVsingle
p1631
aVsun-ray
p1632
aV.
aa(lp1633
Von
p1634
aVa
aVtarnished
p1635
aVgilt
p1636
aVeasel
p1637
aVbefore
p1638
aVthe
p1639
aVfireplace
p1640
aVstood
p1641
aVa
aVcrayon
p1642
aVportrait
p1643
aVof
p1644
aVmiss
p1645
aVemily
p1646
aV's
p1647
aVfather
p1648
aV.
aa(lp1649
Vthey
p1650
aVrose
p1651
aVwhen
p1652
aVshe
p1653
aVentered
p1654
aV--
p1655
aVa
aVsmall
p1656
aV,
aVfat
p1657
aVwoman
p1658
aVin
p1659
aVblack
p1660
aV,
aVwith
p1661
aVa
aVthin
p1662
aVgold
p1663
aVchain
p1664
aVdescending
p1665
aVto
p1666
aVher
p1667
aVwaist
p1668
aVand
p1669
aVvanishing
p1670
aVinto
p1671
aVher
p1672
aVbelt
p1673
aV,
aVleaning
p1674
aVon
p1675
aVan
p1676
aVebony
p1677
aVcane
p1678
aVwith
p1679
aVa
aVtarnished
p1680
aVgold
p1681
aVhead
p1682
aV.
aa(lp1683
Vher
p1684
aVskeleton
p1685
aVwas
p1686
aVsmall
p1687
aVand
p1688
aVspare
p1689
aV;
aVperhaps
p1690
aVthat
p1691
aVwas
p1692
aVwhy
p1693
aVwhat
p1694
aVwould
p1695
aVhave
p1696
aVbeen
p1697
aVmerely
p1698
aVplumpness
p1699
aVin
p1700
aVanother
p1701
aVwas
p1702
aVobesity
p1703
aVin
p1704
aVher
p1705
aV.
aa(lp1706
Vshe
p1707
aVlooked
p1708
aVbloated
p1709
aV,
aVlike
p1710
aVa
aVbody
p1711
aVlong
p1712
aVsubmerged
p1713
aVin
p1714
aVmotionless
p1715
aVwater
p1716
aV,
aVand
p1717
aVof
p1718
aVthat
p1719
aVpallid
p1720
aVhue
p1721
aV.
aa(lp1722
Vher
p1723
aVeyes
p1724
aV,
aVlost
p1725
aVin
p1726
aVthe
p1727
aVfatty
p1728
aVridges
p1729
aVof
p1730
aVher
p1731
aVface
p1732
aV,
aVlooked
p1733
aVlike
p1734
aVtwo
p1735
aVsmall
p1736
aVpieces
p1737
aVof
p1738
aVcoal
p1739
aVpressed
p1740
aVinto
p1741
aVa
aVlump
p1742
aVof
p1743
aVdough
p1744
aVas
p1745
aVthey
p1746
aVmoved
p1747
aVfrom
p1748
aVone
p1749
aVface
p1750
aVto
p1751
aVanother
p1752
aVwhile
p1753
aVthe
p1754
aVvisitors
p1755
aVstated
p1756
aVtheir
p1757
aVerrand
p1758
aV.
aa(lp1759
Vshe
p1760
aVdid
p1761
aVnot
p1762
aVask
p1763
aVthem
p1764
aVto
p1765
aVsit
p1766
aV.
aa(lp1767
Vshe
p1768
aVjust
p1769
aVstood
p1770
aVin
p1771
aVthe
p1772
aVdoor
p1773
aVand
p1774
aVlistened
p1775
aVquietly
p1776
aVuntil
p1777
aVthe
p1778
aVspokesman
p1779
aVcame
p1780
aVto
p1781
aVa
aVstumbling
p1782
aVhalt
p1783
aV.
aa(lp1784
Vthen
p1785
aVthey
p1786
aVcould
p1787
aVhear
p1788
aVthe
p1789
aVinvisible
p1790
aVwatch
p1791
aVticking
p1792
aVat
p1793
aVthe
p1794
aVend
p1795
aVof
p1796
aVthe
p1797
aVgold
p1798
aVchain
p1799
aV.
aa(lp1800
Vher
p1801
aVvoice
p1802
aVwas
p1803
aVdry
p1804
aVand
p1805
aVcold
p1806
aV.
aa(lp1807
V``
p1808
aVi
aVhave
p1809
aVno
p1810
aVtaxes
p1811
aVin
p1812
aVjefferson
p1813
aV.
aa(lp1814
Vcolonel
p1815
aVsartoris
p1816
aVexplained
p1817
aVit
p1818
aVto
p1819
aVme
p1820
aV.
aa(lp1821
Vperhaps
p1822
aVone
p1823
aVof
p1824
aVyou
p1825
aVcan
p1826
aVgain
p1827
aVaccess
p1828
aVto
p1829
aVthe
p1830
aVcity
p1831
aVrecords
p1832
aVand
p1833
aVsatisfy
p1834
aVyourselves
p1835
aV.
aV''
p1836
aa(lp1837
V``
p1838
aVbut
p1839
aVwe
p1840
aVhave
p1841
aV.
aa(lp1842
Vwe
p1843
aVare
p1844
aVthe
p1845
aVcity
p1846
aVauthorities
p1847
aV,
aVmiss
p1848
aVemily
p1849
aV.
aa(lp1850
Vdid
p1851
aVn't
p1852
aVyou
p1853
aVget
p1854
aVa
aVnotice
p1855
aVfrom
p1856
aVthe
p1857
aVsheriff
p1858
aV,
aVsigned
p1859
aVby
p1860
aVhim
p1861
aV?
aV''
p1862
aa(lp1863
V``
p1864
aVi
aVreceived
p1865
aVa
aVpaper
p1866
aV,
aVyes
p1867
aV,
aV''
p1868
aVmiss
p1869
aVemily
p1870
aVsaid
p1871
aV.
aa(lp1872
V``
p1873
aVperhaps
p1874
aVhe
p1875
aVconsiders
p1876
aVhimself
p1877
aVthe
p1878
aVsheriff
p1879
aV.
aa(lp1880
V.
aa(lp1881
V.
aa(lp1882
Vi
aVhave
p1883
aVno
p1884
aVtaxes
p1885
aVin
p1886
aVjefferson
p1887
aV.
aV''
p1888
aa(lp1889
V``
p1890
aVbut
p1891
aVthere
p1892
aVis
p1893
aVnothing
p1894
aVon
p1895
aVthe
p1896
aVbooks
p1897
aVto
p1898
aVshow
p1899
aVthat
p1900
aV,
aVyou
p1901
aVsee
p1902
aVwe
p1903
aVmust
p1904
aVgo
p1905
aVby
p1906
aVthe
p1907
aV--
p1908
aV''
p1909
aV''
p1910
aVsee
p1911
aVcolonel
p1912
aVsartoris
p1913
aV.
aa(lp1914
Vi
aVhave
p1915
aVno
p1916
aVtaxes
p1917
aVin
p1918
aVjefferson
p1919
aV.
aV''
p1920
aa(lp1921
V``
p1922
aVbut
p1923
aV,
aVmiss
p1924
aVemily
p1925
aV--
p1926
aV''
p1927
aV''
p1928
aVsee
p1929
aVcolonel
p1930
aVsartoris
p1931
aV.
aV''
p1932
aa(lp1933
V(
aVcolonel
p1934
aVsartoris
p1935
aVhad
p1936
aVbeen
p1937
aVdead
p1938
aValmost
p1939
aVten
p1940
aVyears
p1941
aV.
aV)
aa(lp1942
V``
p1943
aVi
aVhave
p1944
aVno
p1945
aVtaxes
p1946
aVin
p1947
aVjefferson
p1948
aV.
aa(lp1949
Vtobe
p1950
aV!
aV''
p1951
aa(lp1952
Vthe
p1953
aVnegro
p1954
aVappeared
p1955
aV.
aa(lp1956
V``
p1957
aVshow
p1958
aVthese
p1959
aVgentlemen
p1960
aVout
p1961
aV.
aV''
p1962
aa(lp1963
Vii
p1964
aVso
p1965
aVshe
p1966
aVvanquished
p1967
aVthem
p1968
aV,
aVhorse
p1969
aVand
p1970
aVfoot
p1971
aV,
aVjust
p1972
aVas
p1973
aVshe
p1974
aVhad
p1975
aVvanquished
p1976
aVtheir
p1977
aVfathers
p1978
aVthirty
p1979
aVyears
p1980
aVbefore
p1981
aVabout
p1982
aVthe
p1983
aVsmell
p1984
aV.
aa(lp1985
Vthat
p1986
aVwas
p1987
aVtwo
p1988
aVyears
p1989
aVafter
p1990
aVher
p1991
aVfather
p1992
aV's
p1993
aVdeath
p1994
aVand
p1995
aVa
aVshort
p1996
aVtime
p1997
aVafter
p1998
aVher
p1999
aVsweetheart
p2000
aV--
p2001
aVthe
p2002
aVone
p2003
aVwe
p2004
aVbelieved
p2005
aVwould
p2006
aVmarry
p2007
aVher
p2008
aV--
p2009
aVhad
p2010
aVdeserted
p2011
aVher
p2012
aV.
aa(lp2013
Vafter
p2014
aVher
p2015
aVfather
p2016
aV's
p2017
aVdeath
p2018
aVshe
p2019
aVwent
p2020
aVout
p2021
aVvery
p2022
aVlittle
p2023
aV;
aVafter
p2024
aVher
p2025
aVsweetheart
p2026
aVwent
p2027
aVaway
p2028
aV,
aVpeople
p2029
aVhardly
p2030
aVsaw
p2031
aVher
p2032
aVat
p2033
aVall
p2034
aV.
aa(lp2035
Va
aVfew
p2036
aVof
p2037
aVthe
p2038
aVladies
p2039
aVhad
p2040
aVthe
p2041
aVtemerity
p2042
aVto
p2043
aVcall
p2044
aV,
aVbut
p2045
aVwere
p2046
aVnot
p2047
aVreceived
p2048
aV,
aVand
p2049
aVthe
p2050
aVonly
p2051
aVsign
p2052
aVof
p2053
aVlife
p2054
aVabout
p2055
aVthe
p2056
aVplace
p2057
aVwas
p2058
aVthe
p2059
aVnegro
p2060
aVman
p2061
aV--
p2062
aVa
aVyoung
p2063
aVman
p2064
aVthen
p2065
aV--
p2066
aVgoing
p2067
aVin
p2068
aVand
p2069
aVout
p2070
aVwith
p2071
aVa
aVmarket
p2072
aVbasket
p2073
aV.
aa(lp2074
V``
p2075
aVjust
p2076
aVas
p2077
aVif
p2078
aVa
aVman
p2079
aV--
p2080
aVany
p2081
aVman
p2082
aV--
p2083
aVcould
p2084
aVkeep
p2085
aVa
aVkitchen
p2086
aVproperly
p2087
aV,
aV``
p2088
aVthe
p2089
aVladies
p2090
aVsaid
p2091
aV;
aVso
p2092
aVthey
p2093
aVwere
p2094
aVnot
p2095
aVsurprised
p2096
aVwhen
p2097
aVthe
p2098
aVsmell
p2099
aVdeveloped
p2100
aV.
aa(lp2101
Vit
p2102
aVwas
p2103
aVanother
p2104
aVlink
p2105
aVbetween
p2106
aVthe
p2107
aVgross
p2108
aV,
aVteeming
p2109
aVworld
p2110
aVand
p2111
aVthe
p2112
aVhigh
p2113
aVand
p2114
aVmighty
p2115
aVgriersons
p2116
aV.
aa(lp2117
Va
aVneighbor
p2118
aV,
aVa
aVwoman
p2119
aV,
aVcomplained
p2120
aVto
p2121
aVthe
p2122
aVmayor
p2123
aV,
aVjudge
p2124
aVstevens
p2125
aV,
aVeighty
p2126
aVyears
p2127
aVold
p2128
aV.
aa(lp2129
V``
p2130
aVbut
p2131
aVwhat
p2132
aVwill
p2133
aVyou
p2134
aVhave
p2135
aVme
p2136
aVdo
p2137
aVabout
p2138
aVit
p2139
aV,
aVmadam
p2140
aV?
aV''
p2141
aa(lp2142
Vhe
p2143
aVsaid
p2144
aV.
aa(lp2145
V``
p2146
aVwhy
p2147
aV,
aVsend
p2148
aVher
p2149
aVword
p2150
aVto
p2151
aVstop
p2152
aVit
p2153
aV,
aV''
p2154
aVthe
p2155
aVwoman
p2156
aVsaid
p2157
aV.
aa(lp2158
V``
p2159
aVis
p2160
aVn't
p2161
aVthere
p2162
aVa
aVlaw
p2163
aV?
aV``
p2164
aa(lp2165
V``
p2166
aVi
aV'm
p2167
aVsure
p2168
aVthat
p2169
aVwo
p2170
aVn't
p2171
aVbe
p2172
aVnecessary
p2173
aV,
aV''
p2174
aVjudge
p2175
aVstevens
p2176
aVsaid
p2177
aV.
aa(lp2178
V``
p2179
aVit
p2180
aV's
p2181
aVprobably
p2182
aVjust
p2183
aVa
aVsnake
p2184
aVor
p2185
aVa
aVrat
p2186
aVthat
p2187
aVnigger
p2188
aVof
p2189
aVhers
p2190
aVkilled
p2191
aVin
p2192
aVthe
p2193
aVyard
p2194
aV.
aa(lp2195
Vi
aV'll
p2196
aVspeak
p2197
aVto
p2198
aVhim
p2199
aVabout
p2200
aVit
p2201
aV.
aV''
p2202
aa(lp2203
Vthe
p2204
aVnext
p2205
aVday
p2206
aVhe
p2207
aVreceived
p2208
aVtwo
p2209
aVmore
p2210
aVcomplaints
p2211
aV,
aVone
p2212
aVfrom
p2213
aVa
aVman
p2214
aVwho
p2215
aVcame
p2216
aVin
p2217
aVdiffident
p2218
aVdeprecation
p2219
aV.
aa(lp2220
V``
p2221
aVwe
p2222
aVreally
p2223
aVmust
p2224
aVdo
p2225
aVsomething
p2226
aVabout
p2227
aVit
p2228
aV,
aVjudge
p2229
aV.
aa(lp2230
Vi
aV'd
p2231
aVbe
p2232
aVthe
p2233
aVlast
p2234
aVone
p2235
aVin
p2236
aVthe
p2237
aVworld
p2238
aVto
p2239
aVbother
p2240
aVmiss
p2241
aVemily
p2242
aV,
aVbut
p2243
aVwe
p2244
aV've
p2245
aVgot
p2246
aVto
p2247
aVdo
p2248
aVsomething
p2249
aV.
aV''
p2250
aa(lp2251
Vthat
p2252
aVnight
p2253
aVthe
p2254
aVboard
p2255
aVof
p2256
aValdermen
p2257
aVmet
p2258
aV--
p2259
aVthree
p2260
aVgraybeards
p2261
aVand
p2262
aVone
p2263
aVyounger
p2264
aVman
p2265
aV,
aVa
aVmember
p2266
aVof
p2267
aVthe
p2268
aVrising
p2269
aVgeneration
p2270
aV.
aa(lp2271
V``
p2272
aVit
p2273
aV's
p2274
aVsimple
p2275
aVenough
p2276
aV,
aV''
p2277
aVhe
p2278
aVsaid
p2279
aV.
aa(lp2280
V``
p2281
aVsend
p2282
aVher
p2283
aVword
p2284
aVto
p2285
aVhave
p2286
aVher
p2287
aVplace
p2288
aVcleaned
p2289
aVup
p2290
aV.
aa(lp2291
Vgive
p2292
aVher
p2293
aVa
aVcertain
p2294
aVtime
p2295
aVto
p2296
aVdo
p2297
aVit
p2298
aVin
p2299
aV,
aVand
p2300
aVif
p2301
aVshe
p2302
aVdo
p2303
aVn't
p2304
aV.
aa(lp2305
V..
p2306
aV''
p2307
aV''
p2308
aVdammit
p2309
aV,
aVsir
p2310
aV,
aV''
p2311
aVjudge
p2312
aVstevens
p2313
aVsaid
p2314
aV,
aV``
p2315
aVwill
p2316
aVyou
p2317
aVaccuse
p2318
aVa
aVlady
p2319
aVto
p2320
aVher
p2321
aVface
p2322
aVof
p2323
aVsmelling
p2324
aVbad
p2325
aV?
aV''
p2326
aa(lp2327
Vso
p2328
aVthe
p2329
aVnext
p2330
aVnight
p2331
aV,
aVafter
p2332
aVmidnight
p2333
aV,
aVfour
p2334
aVmen
p2335
aVcrossed
p2336
aVmiss
p2337
aVemily
p2338
aV's
p2339
aVlawn
p2340
aVand
p2341
aVslunk
p2342
aVabout
p2343
aVthe
p2344
aVhouse
p2345
aVlike
p2346
aVburglars
p2347
aV,
aVsniffing
p2348
aValong
p2349
aVthe
p2350
aVbase
p2351
aVof
p2352
aVthe
p2353
aVbrickwork
p2354
aVand
p2355
aVat
p2356
aVthe
p2357
aVcellar
p2358
aVopenings
p2359
aVwhile
p2360
aVone
p2361
aVof
p2362
aVthem
p2363
aVperformed
p2364
aVa
aVregular
p2365
aVsowing
p2366
aVmotion
p2367
aVwith
p2368
aVhis
p2369
aVhand
p2370
aVout
p2371
aVof
p2372
aVa
aVsack
p2373
aVslung
p2374
aVfrom
p2375
aVhis
p2376
aVshoulder
p2377
aV.
aa(lp2378
Vthey
p2379
aVbroke
p2380
aVopen
p2381
aVthe
p2382
aVcellar
p2383
aVdoor
p2384
aVand
p2385
aVsprinkled
p2386
aVlime
p2387
aVthere
p2388
aV,
aVand
p2389
aVin
p2390
aVall
p2391
aVthe
p2392
aVoutbuildings
p2393
aV.
aa(lp2394
Vas
p2395
aVthey
p2396
aVrecrossed
p2397
aVthe
p2398
aVlawn
p2399
aV,
aVa
aVwindow
p2400
aVthat
p2401
aVhad
p2402
aVbeen
p2403
aVdark
p2404
aVwas
p2405
aVlighted
p2406
aVand
p2407
aVmiss
p2408
aVemily
p2409
aVsat
p2410
aVin
p2411
aVit
p2412
aV,
aVthe
p2413
aVlight
p2414
aVbehind
p2415
aVher
p2416
aV,
aVand
p2417
aVher
p2418
aVupright
p2419
aVtorso
p2420
aVmotionless
p2421
aVas
p2422
aVthat
p2423
aVof
p2424
aVan
p2425
aVidol
p2426
aV.
aa(lp2427
Vthey
p2428
aVcrept
p2429
aVquietly
p2430
aVacross
p2431
aVthe
p2432
aVlawn
p2433
aVand
p2434
aVinto
p2435
aVthe
p2436
aVshadow
p2437
aVof
p2438
aVthe
p2439
aVlocusts
p2440
aVthat
p2441
aVlined
p2442
aVthe
p2443
aVstreet
p2444
aV.
aa(lp2445
Vafter
p2446
aVa
aVweek
p2447
aVor
p2448
aVtwo
p2449
aVthe
p2450
aVsmell
p2451
aVwent
p2452
aVaway
p2453
aV.
aa(lp2454
Vthat
p2455
aVwas
p2456
aVwhen
p2457
aVpeople
p2458
aVhad
p2459
aVbegun
p2460
aVto
p2461
aVfeel
p2462
aVreally
p2463
aVsorry
p2464
aVfor
p2465
aVher
p2466
aV.
aa(lp2467
Vpeople
p2468
aVin
p2469
aVour
p2470
aVtown
p2471
aV,
aVremembering
p2472
aVhow
p2473
aVold
p2474
aVlady
p2475
aVwyatt
p2476
aV,
aVher
p2477
aVgreat-aunt
p2478
aV,
aVhad
p2479
aVgone
p2480
aVcompletely
p2481
aVcrazy
p2482
aVat
p2483
aVlast
p2484
aV,
aVbelieved
p2485
aVthat
p2486
aVthe
p2487
aVgriersons
p2488
aVheld
p2489
aVthemselves
p2490
aVa
aVlittle
p2491
aVtoo
p2492
aVhigh
p2493
aVfor
p2494
aVwhat
p2495
aVthey
p2496
aVreally
p2497
aVwere
p2498
aV.
aa(lp2499
Vnone
p2500
aVof
p2501
aVthe
p2502
aVyoung
p2503
aVmen
p2504
aVwere
p2505
aVquite
p2506
aVgood
p2507
aVenough
p2508
aVfor
p2509
aVmiss
p2510
aVemily
p2511
aVand
p2512
aVsuch
p2513
aV.
aa(lp2514
Vwe
p2515
aVhad
p2516
aVlong
p2517
aVthought
p2518
aVof
p2519
aVthem
p2520
aVas
p2521
aVa
aVtableau
p2522
aV,
aVmiss
p2523
aVemily
p2524
aVa
aVslender
p2525
aVfigure
p2526
aVin
p2527
aVwhite
p2528
aVin
p2529
aVthe
p2530
aVbackground
p2531
aV,
aVher
p2532
aVfather
p2533
aVa
aVspraddled
p2534
aVsilhouette
p2535
aVin
p2536
aVthe
p2537
aVforeground
p2538
aV,
aVhis
p2539
aVback
p2540
aVto
p2541
aVher
p2542
aVand
p2543
aVclutching
p2544
aVa
aVhorsewhip
p2545
aV,
aVthe
p2546
aVtwo
p2547
aVof
p2548
aVthem
p2549
aVframed
p2550
aVby
p2551
aVthe
p2552
aVback-flung
p2553
aVfront
p2554
aVdoor
p2555
aV.
aa(lp2556
Vso
p2557
aVwhen
p2558
aVshe
p2559
aVgot
p2560
aVto
p2561
aVbe
p2562
aVthirty
p2563
aVand
p2564
aVwas
p2565
aVstill
p2566
aVsingle
p2567
aV,
aVwe
p2568
aVwere
p2569
aVnot
p2570
aVpleased
p2571
aVexactly
p2572
aV,
aVbut
p2573
aVvindicated
p2574
aV;
aVeven
p2575
aVwith
p2576
aVinsanity
p2577
aVin
p2578
aVthe
p2579
aVfamily
p2580
aVshe
p2581
aVwould
p2582
aVn't
p2583
aVhave
p2584
aVturned
p2585
aVdown
p2586
aVall
p2587
aVof
p2588
aVher
p2589
aVchances
p2590
aVif
p2591
aVthey
p2592
aVhad
p2593
aVreally
p2594
aVmaterialized
p2595
aV.
aa(lp2596
Vwhen
p2597
aVher
p2598
aVfather
p2599
aVdied
p2600
aV,
aVit
p2601
aVgot
p2602
aVabout
p2603
aVthat
p2604
aVthe
p2605
aVhouse
p2606
aVwas
p2607
aVall
p2608
aVthat
p2609
aVwas
p2610
aVleft
p2611
aVto
p2612
aVher
p2613
aV;
aVand
p2614
aVin
p2615
aVa
aVway
p2616
aV,
aVpeople
p2617
aVwere
p2618
aVglad
p2619
aV.
aa(lp2620
Vat
p2621
aVlast
p2622
aVthey
p2623
aVcould
p2624
aVpity
p2625
aVmiss
p2626
aVemily
p2627
aV.
aa(lp2628
Vbeing
p2629
aVleft
p2630
aValone
p2631
aV,
aVand
p2632
aVa
aVpauper
p2633
aV,
aVshe
p2634
aVhad
p2635
aVbecome
p2636
aVhumanized
p2637
aV.
aa(lp2638
Vnow
p2639
aVshe
p2640
aVtoo
p2641
aVwould
p2642
aVknow
p2643
aVthe
p2644
aVold
p2645
aVthrill
p2646
aVand
p2647
aVthe
p2648
aVold
p2649
aVdespair
p2650
aVof
p2651
aVa
aVpenny
p2652
aVmore
p2653
aVor
p2654
aVless
p2655
aV.
aa(lp2656
Vthe
p2657
aVday
p2658
aVafter
p2659
aVhis
p2660
aVdeath
p2661
aVall
p2662
aVthe
p2663
aVladies
p2664
aVprepared
p2665
aVto
p2666
aVcall
p2667
aVat
p2668
aVthe
p2669
aVhouse
p2670
aVand
p2671
aVoffer
p2672
aVcondolence
p2673
aVand
p2674
aVaid
p2675
aV,
aVas
p2676
aVis
p2677
aVour
p2678
aVcustom
p2679
aVmiss
p2680
aVemily
p2681
aVmet
p2682
aVthem
p2683
aVat
p2684
aVthe
p2685
aVdoor
p2686
aV,
aVdressed
p2687
aVas
p2688
aVusual
p2689
aVand
p2690
aVwith
p2691
aVno
p2692
aVtrace
p2693
aVof
p2694
aVgrief
p2695
aVon
p2696
aVher
p2697
aVface
p2698
aV.
aa(lp2699
Vshe
p2700
aVtold
p2701
aVthem
p2702
aVthat
p2703
aVher
p2704
aVfather
p2705
aVwas
p2706
aVnot
p2707
aVdead
p2708
aV.
aa(lp2709
Vshe
p2710
aVdid
p2711
aVthat
p2712
aVfor
p2713
aVthree
p2714
aVdays
p2715
aV,
aVwith
p2716
aVthe
p2717
aVministers
p2718
aVcalling
p2719
aVon
p2720
aVher
p2721
aV,
aVand
p2722
aVthe
p2723
aVdoctors
p2724
aV,
aVtrying
p2725
aVto
p2726
aVpersuade
p2727
aVher
p2728
aVto
p2729
aVlet
p2730
aVthem
p2731
aVdispose
p2732
aVof
p2733
aVthe
p2734
aVbody
p2735
aV.
aa(lp2736
Vjust
p2737
aVas
p2738
aVthey
p2739
aVwere
p2740
aVabout
p2741
aVto
p2742
aVresort
p2743
aVto
p2744
aVlaw
p2745
aVand
p2746
aVforce
p2747
aV,
aVshe
p2748
aVbroke
p2749
aVdown
p2750
aV,
aVand
p2751
aVthey
p2752
aVburied
p2753
aVher
p2754
aVfather
p2755
aVquickly
p2756
aV.
aa(lp2757
Vwe
p2758
aVdid
p2759
aVnot
p2760
aVsay
p2761
aVshe
p2762
aVwas
p2763
aVcrazy
p2764
aVthen
p2765
aV.
aa(lp2766
Vwe
p2767
aVbelieved
p2768
aVshe
p2769
aVhad
p2770
aVto
p2771
aVdo
p2772
aVthat
p2773
aV.
aa(lp2774
Vwe
p2775
aVremembered
p2776
aVall
p2777
aVthe
p2778
aVyoung
p2779
aVmen
p2780
aVher
p2781
aVfather
p2782
aVhad
p2783
aVdriven
p2784
aVaway
p2785
aV,
aVand
p2786
aVwe
p2787
aVknew
p2788
aVthat
p2789
aVwith
p2790
aVnothing
p2791
aVleft
p2792
aV,
aVshe
p2793
aVwould
p2794
aVhave
p2795
aVto
p2796
aVcling
p2797
aVto
p2798
aVthat
p2799
aVwhich
p2800
aVhad
p2801
aVrobbed
p2802
aVher
p2803
aV,
aVas
p2804
aVpeople
p2805
aVwill
p2806
aV.
aa(lp2807
Viii
p2808
aVshe
p2809
aVwas
p2810
aVsick
p2811
aVfor
p2812
aVa
aVlong
p2813
aVtime
p2814
aV.
aa(lp2815
Vwhen
p2816
aVwe
p2817
aVsaw
p2818
aVher
p2819
aVagain
p2820
aV,
aVher
p2821
aVhair
p2822
aVwas
p2823
aVcut
p2824
aVshort
p2825
aV,
aVmaking
p2826
aVher
p2827
aVlook
p2828
aVlike
p2829
aVa
aVgirl
p2830
aV,
aVwith
p2831
aVa
aVvague
p2832
aVresemblance
p2833
aVto
p2834
aVthose
p2835
aVangels
p2836
aVin
p2837
aVcolored
p2838
aVchurch
p2839
aVwindows
p2840
aV--
p2841
aVsort
p2842
aVof
p2843
aVtragic
p2844
aVand
p2845
aVserene
p2846
aV.
aa(lp2847
Vthe
p2848
aVtown
p2849
aVhad
p2850
aVjust
p2851
aVlet
p2852
aVthe
p2853
aVcontracts
p2854
aVfor
p2855
aVpaving
p2856
aVthe
p2857
aVsidewalks
p2858
aV,
aVand
p2859
aVin
p2860
aVthe
p2861
aVsummer
p2862
aVafter
p2863
aVher
p2864
aVfather
p2865
aV's
p2866
aVdeath
p2867
aVthey
p2868
aVbegan
p2869
aVthe
p2870
aVwork
p2871
aV.
aa(lp2872
Vthe
p2873
aVconstruction
p2874
aVcompany
p2875
aVcame
p2876
aVwith
p2877
aVniggers
p2878
aVand
p2879
aVmules
p2880
aVand
p2881
aVmachinery
p2882
aV,
aVand
p2883
aVa
aVforeman
p2884
aVnamed
p2885
aVhomer
p2886
aVbarron
p2887
aV,
aVa
aVyankee
p2888
aV--
p2889
aVa
aVbig
p2890
aV,
aVdark
p2891
aV,
aVready
p2892
aVman
p2893
aV,
aVwith
p2894
aVa
aVbig
p2895
aVvoice
p2896
aVand
p2897
aVeyes
p2898
aVlighter
p2899
aVthan
p2900
aVhis
p2901
aVface
p2902
aV.
aa(lp2903
Vthe
p2904
aVlittle
p2905
aVboys
p2906
aVwould
p2907
aVfollow
p2908
aVin
p2909
aVgroups
p2910
aVto
p2911
aVhear
p2912
aVhim
p2913
aVcuss
p2914
aVthe
p2915
aVniggers
p2916
aV,
aVand
p2917
aVthe
p2918
aVniggers
p2919
aVsinging
p2920
aVin
p2921
aVtime
p2922
aVto
p2923
aVthe
p2924
aVrise
p2925
aVand
p2926
aVfall
p2927
aVof
p2928
aVpicks
p2929
aV.
aa(lp2930
Vpretty
p2931
aVsoon
p2932
aVhe
p2933
aVknew
p2934
aVeverybody
p2935
aVin
p2936
aVtown
p2937
aV.
aa(lp2938
Vwhenever
p2939
aVyou
p2940
aVheard
p2941
aVa
aVlot
p2942
aVof
p2943
aVlaughing
p2944
aVanywhere
p2945
aVabout
p2946
aVthe
p2947
aVsquare
p2948
aV,
aVhomer
p2949
aVbarron
p2950
aVwould
p2951
aVbe
p2952
aVin
p2953
aVthe
p2954
aVcenter
p2955
aVof
p2956
aVthe
p2957
aVgroup
p2958
aV.
aa(lp2959
Vpresently
p2960
aVwe
p2961
aVbegan
p2962
aVto
p2963
aVsee
p2964
aVhim
p2965
aVand
p2966
aVmiss
p2967
aVemily
p2968
aVon
p2969
aVsunday
p2970
aVafternoons
p2971
aVdriving
p2972
aVin
p2973
aVthe
p2974
aVyellow-wheeled
p2975
aVbuggy
p2976
aVand
p2977
aVthe
p2978
aVmatched
p2979
aVteam
p2980
aVof
p2981
aVbays
p2982
aVfrom
p2983
aVthe
p2984
aVlivery
p2985
aVstable
p2986
aV.
aa(lp2987
Vat
p2988
aVfirst
p2989
aVwe
p2990
aVwere
p2991
aVglad
p2992
aVthat
p2993
aVmiss
p2994
aVemily
p2995
aVwould
p2996
aVhave
p2997
aVan
p2998
aVinterest
p2999
aV,
aVbecause
p3000
aVthe
p3001
aVladies
p3002
aVall
p3003
aVsaid
p3004
aV,
aV``
p3005
aVof
p3006
aVcourse
p3007
aVa
aVgrierson
p3008
aVwould
p3009
aVnot
p3010
aVthink
p3011
aVseriously
p3012
aVof
p3013
aVa
aVnortherner
p3014
aV,
aVa
aVday
p3015
aVlaborer
p3016
aV.
aV''
p3017
aa(lp3018
Vbut
p3019
aVthere
p3020
aVwere
p3021
aVstill
p3022
aVothers
p3023
aV,
aVolder
p3024
aVpeople
p3025
aV,
aVwho
p3026
aVsaid
p3027
aVthat
p3028
aVeven
p3029
aVgrief
p3030
aVcould
p3031
aVnot
p3032
aVcause
p3033
aVa
aVreal
p3034
aVlady
p3035
aVto
p3036
aVforget
p3037
aVnoblesse
p3038
aVoblige-
p3039
aV-
aVwithout
p3040
aVcalling
p3041
aVit
p3042
aVnoblesse
p3043
aVoblige
p3044
aV.
aa(lp3045
Vthey
p3046
aVjust
p3047
aVsaid
p3048
aV,
aV``
p3049
aVpoor
p3050
aVemily
p3051
aV.
aa(lp3052
Vher
p3053
aVkinsfolk
p3054
aVshould
p3055
aVcome
p3056
aVto
p3057
aVher
p3058
aV.
aV''
p3059
aa(lp3060
Vshe
p3061
aVhad
p3062
aVsome
p3063
aVkin
p3064
aVin
p3065
aValabama
p3066
aV;
aVbut
p3067
aVyears
p3068
aVago
p3069
aVher
p3070
aVfather
p3071
aVhad
p3072
aVfallen
p3073
aVout
p3074
aVwith
p3075
aVthem
p3076
aVover
p3077
aVthe
p3078
aVestate
p3079
aVof
p3080
aVold
p3081
aVlady
p3082
aVwyatt
p3083
aV,
aVthe
p3084
aVcrazy
p3085
aVwoman
p3086
aV,
aVand
p3087
aVthere
p3088
aVwas
p3089
aVno
p3090
aVcommunication
p3091
aVbetween
p3092
aVthe
p3093
aVtwo
p3094
aVfamilies
p3095
aV.
aa(lp3096
Vthey
p3097
aVhad
p3098
aVnot
p3099
aVeven
p3100
aVbeen
p3101
aVrepresented
p3102
aVat
p3103
aVthe
p3104
aVfuneral
p3105
aV.
aa(lp3106
Vand
p3107
aVas
p3108
aVsoon
p3109
aVas
p3110
aVthe
p3111
aVold
p3112
aVpeople
p3113
aVsaid
p3114
aV,
aV``
p3115
aVpoor
p3116
aVemily
p3117
aV,
aV''
p3118
aVthe
p3119
aVwhispering
p3120
aVbegan
p3121
aV.
aa(lp3122
V``
p3123
aVdo
p3124
aVyou
p3125
aVsuppose
p3126
aVit
p3127
aV's
p3128
aVreally
p3129
aVso
p3130
aV?
aV''
p3131
aa(lp3132
Vthey
p3133
aVsaid
p3134
aVto
p3135
aVone
p3136
aVanother
p3137
aV.
aa(lp3138
V``
p3139
aVof
p3140
aVcourse
p3141
aVit
p3142
aVis
p3143
aV.
aa(lp3144
Vwhat
p3145
aVelse
p3146
aVcould
p3147
aV.
aa(lp3148
V.
aa(lp3149
V.
aV''
p3150
aa(lp3151
Vthis
p3152
aVbehind
p3153
aVtheir
p3154
aVhands
p3155
aV;
aVrustling
p3156
aVof
p3157
aVcraned
p3158
aVsilk
p3159
aVand
p3160
aVsatin
p3161
aVbehind
p3162
aVjalousies
p3163
aVclosed
p3164
aVupon
p3165
aVthe
p3166
aVsun
p3167
aVof
p3168
aVsunday
p3169
aVafternoon
p3170
aVas
p3171
aVthe
p3172
aVthin
p3173
aV,
aVswift
p3174
aVclop-clop-clop
p3175
aVof
p3176
aVthe
p3177
aVmatched
p3178
aVteam
p3179
aVpassed
p3180
aV:
aV``
p3181
aVpoor
p3182
aVemily
p3183
aV.
aV''
p3184
aa(lp3185
Vshe
p3186
aVcarried
p3187
aVher
p3188
aVhead
p3189
aVhigh
p3190
aVenough
p3191
aV--
p3192
aVeven
p3193
aVwhen
p3194
aVwe
p3195
aVbelieved
p3196
aVthat
p3197
aVshe
p3198
aVwas
p3199
aVfallen
p3200
aV.
aa(lp3201
Vit
p3202
aVwas
p3203
aVas
p3204
aVif
p3205
aVshe
p3206
aVdemanded
p3207
aVmore
p3208
aVthan
p3209
aVever
p3210
aVthe
p3211
aVrecognition
p3212
aVof
p3213
aVher
p3214
aVdignity
p3215
aVas
p3216
aVthe
p3217
aVlast
p3218
aVgrierson
p3219
aV;
aVas
p3220
aVif
p3221
aVit
p3222
aVhad
p3223
aVwanted
p3224
aVthat
p3225
aVtouch
p3226
aVof
p3227
aVearthiness
p3228
aVto
p3229
aVreaffirm
p3230
aVher
p3231
aVimperviousness
p3232
aV.
aa(lp3233
Vlike
p3234
aVwhen
p3235
aVshe
p3236
aVbought
p3237
aVthe
p3238
aVrat
p3239
aVpoison
p3240
aV,
aVthe
p3241
aVarsenic
p3242
aV.
aa(lp3243
Vthat
p3244
aVwas
p3245
aVover
p3246
aVa
aVyear
p3247
aVafter
p3248
aVthey
p3249
aVhad
p3250
aVbegun
p3251
aVto
p3252
aVsay
p3253
aV``
p3254
aVpoor
p3255
aVemily
p3256
aV,
aV''
p3257
aVand
p3258
aVwhile
p3259
aVthe
p3260
aVtwo
p3261
aVfemale
p3262
aVcousins
p3263
aVwere
p3264
aVvisiting
p3265
aVher
p3266
aV.
aa(lp3267
V``
p3268
aVi
aVwant
p3269
aVsome
p3270
aVpoison
p3271
aV,
aV''
p3272
aVshe
p3273
aVsaid
p3274
aVto
p3275
aVthe
p3276
aVdruggist
p3277
aV.
aa(lp3278
Vshe
p3279
aVwas
p3280
aVover
p3281
aVthirty
p3282
aVthen
p3283
aV,
aVstill
p3284
aVa
aVslight
p3285
aVwoman
p3286
aV,
aVthough
p3287
aVthinner
p3288
aVthan
p3289
aVusual
p3290
aV,
aVwith
p3291
aVcold
p3292
aV,
aVhaughty
p3293
aVblack
p3294
aVeyes
p3295
aVin
p3296
aVa
aVface
p3297
aVthe
p3298
aVflesh
p3299
aVof
p3300
aVwhich
p3301
aVwas
p3302
aVstrained
p3303
aVacross
p3304
aVthe
p3305
aVtemples
p3306
aVand
p3307
aVabout
p3308
aVthe
p3309
aVeyesockets
p3310
aVas
p3311
aVyou
p3312
aVimagine
p3313
aVa
aVlighthouse-keeper
p3314
aV's
p3315
aVface
p3316
aVought
p3317
aVto
p3318
aVlook
p3319
aV.
aa(lp3320
V``
p3321
aVi
aVwant
p3322
aVsome
p3323
aVpoison
p3324
aV,
aV''
p3325
aVshe
p3326
aVsaid
p3327
aV.
aa(lp3328
V``
p3329
aVyes
p3330
aV,
aVmiss
p3331
aVemily
p3332
aV.
aa(lp3333
Vwhat
p3334
aVkind
p3335
aV?
aa(lp3336
Vfor
p3337
aVrats
p3338
aVand
p3339
aVsuch
p3340
aV?
aa(lp3341
Vi
aV'd
p3342
aVrecom
p3343
aV--
p3344
aV''
p3345
aV''
p3346
aVi
aVwant
p3347
aVthe
p3348
aVbest
p3349
aVyou
p3350
aVhave
p3351
aV.
aa(lp3352
Vi
aVdo
p3353
aVn't
p3354
aVcare
p3355
aVwhat
p3356
aVkind
p3357
aV.
aV''
p3358
aa(lp3359
Vthe
p3360
aVdruggist
p3361
aVnamed
p3362
aVseveral
p3363
aV.
aa(lp3364
V``
p3365
aVthey
p3366
aV'll
p3367
aVkill
p3368
aVanything
p3369
aVup
p3370
aVto
p3371
aVan
p3372
aVelephant
p3373
aV.
aa(lp3374
Vbut
p3375
aVwhat
p3376
aVyou
p3377
aVwant
p3378
aVis
p3379
aV--
p3380
aV''
p3381
aV''
p3382
aVarsenic
p3383
aV,
aV''
p3384
aVmiss
p3385
aVemily
p3386
aVsaid
p3387
aV.
aa(lp3388
V``
p3389
aVis
p3390
aVthat
p3391
aVa
aVgood
p3392
aVone
p3393
aV?
aV''
p3394
aa(lp3395
V``
p3396
aVis
p3397
aV.
aa(lp3398
V.
aa(lp3399
V.
aa(lp3400
Varsenic
p3401
aV?
aa(lp3402
Vyes
p3403
aV,
aVma'am
p3404
aV.
aa(lp3405
Vbut
p3406
aVwhat
p3407
aVyou
p3408
aVwant
p3409
aV--
p3410
aV''
p3411
aV''
p3412
aVi
aVwant
p3413
aVarsenic
p3414
aV.
aV''
p3415
aa(lp3416
Vthe
p3417
aVdruggist
p3418
aVlooked
p3419
aVdown
p3420
aVat
p3421
aVher
p3422
aV.
aa(lp3423
Vshe
p3424
aVlooked
p3425
aVback
p3426
aVat
p3427
aVhim
p3428
aV,
aVerect
p3429
aV,
aVher
p3430
aVface
p3431
aVlike
p3432
aVa
aVstrained
p3433
aVflag
p3434
aV.
aa(lp3435
V``
p3436
aVwhy
p3437
aV,
aVof
p3438
aVcourse
p3439
aV,
aV''
p3440
aVthe
p3441
aVdruggist
p3442
aVsaid
p3443
aV.
aa(lp3444
V``
p3445
aVif
p3446
aVthat
p3447
aV's
p3448
aVwhat
p3449
aVyou
p3450
aVwant
p3451
aV.
aa(lp3452
Vbut
p3453
aVthe
p3454
aVlaw
p3455
aVrequires
p3456
aVyou
p3457
aVto
p3458
aVtell
p3459
aVwhat
p3460
aVyou
p3461
aVare
p3462
aVgoing
p3463
aVto
p3464
aVuse
p3465
aVit
p3466
aVfor
p3467
aV.
aV''
p3468
aa(lp3469
Vmiss
p3470
aVemily
p3471
aVjust
p3472
aVstared
p3473
aVat
p3474
aVhim
p3475
aV,
aVher
p3476
aVhead
p3477
aVtilted
p3478
aVback
p3479
aVin
p3480
aVorder
p3481
aVto
p3482
aVlook
p3483
aVhim
p3484
aVeye
p3485
aVfor
p3486
aVeye
p3487
aV,
aVuntil
p3488
aVhe
p3489
aVlooked
p3490
aVaway
p3491
aVand
p3492
aVwent
p3493
aVand
p3494
aVgot
p3495
aVthe
p3496
aVarsenic
p3497
aVand
p3498
aVwrapped
p3499
aVit
p3500
aVup
p3501
aV.
aa(lp3502
Vthe
p3503
aVnegro
p3504
aVdelivery
p3505
aVboy
p3506
aVbrought
p3507
aVher
p3508
aVthe
p3509
aVpackage
p3510
aV;
aVthe
p3511
aVdruggist
p3512
aVdid
p3513
aVn't
p3514
aVcome
p3515
aVback
p3516
aV.
aa(lp3517
Vwhen
p3518
aVshe
p3519
aVopened
p3520
aVthe
p3521
aVpackage
p3522
aVat
p3523
aVhome
p3524
aVthere
p3525
aVwas
p3526
aVwritten
p3527
aVon
p3528
aVthe
p3529
aVbox
p3530
aV,
aVunder
p3531
aVthe
p3532
aVskull
p3533
aVand
p3534
aVbones
p3535
aV:
aV``
p3536
aVfor
p3537
aVrats
p3538
aV.
aV''
p3539
aa(lp3540
Viv
p3541
aVso
p3542
aVthe
p3543
aVnext
p3544
aVday
p3545
aVwe
p3546
aVall
p3547
aVsaid
p3548
aV,
aV``
p3549
aVshe
p3550
aVwill
p3551
aVkill
p3552
aVherself
p3553
aV''
p3554
aV;
aVand
p3555
aVwe
p3556
aVsaid
p3557
aVit
p3558
aVwould
p3559
aVbe
p3560
aVthe
p3561
aVbest
p3562
aVthing
p3563
aV.
aa(lp3564
Vwhen
p3565
aVshe
p3566
aVhad
p3567
aVfirst
p3568
aVbegun
p3569
aVto
p3570
aVbe
p3571
aVseen
p3572
aVwith
p3573
aVhomer
p3574
aVbarron
p3575
aV,
aVwe
p3576
aVhad
p3577
aVsaid
p3578
aV,
aV``
p3579
aVshe
p3580
aVwill
p3581
aVmarry
p3582
aVhim
p3583
aV.
aV''
p3584
aa(lp3585
Vthen
p3586
aVwe
p3587
aVsaid
p3588
aV,
aV``
p3589
aVshe
p3590
aVwill
p3591
aVpersuade
p3592
aVhim
p3593
aVyet
p3594
aV,
aV''
p3595
aVbecause
p3596
aVhomer
p3597
aVhimself
p3598
aVhad
p3599
aVremarked
p3600
aV--
p3601
aVhe
p3602
aVliked
p3603
aVmen
p3604
aV,
aVand
p3605
aVit
p3606
aVwas
p3607
aVknown
p3608
aVthat
p3609
aVhe
p3610
aVdrank
p3611
aVwith
p3612
aVthe
p3613
aVyounger
p3614
aVmen
p3615
aVin
p3616
aVthe
p3617
aVelks
p3618
aV'
aVclub
p3619
aV--
p3620
aVthat
p3621
aVhe
p3622
aVwas
p3623
aVnot
p3624
aVa
aVmarrying
p3625
aVman
p3626
aV.
aa(lp3627
Vlater
p3628
aVwe
p3629
aVsaid
p3630
aV,
aV``
p3631
aVpoor
p3632
aVemily
p3633
aV''
p3634
aVbehind
p3635
aVthe
p3636
aVjalousies
p3637
aVas
p3638
aVthey
p3639
aVpassed
p3640
aVon
p3641
aVsunday
p3642
aVafternoon
p3643
aVin
p3644
aVthe
p3645
aVglittering
p3646
aVbuggy
p3647
aV,
aVmiss
p3648
aVemily
p3649
aVwith
p3650
aVher
p3651
aVhead
p3652
aVhigh
p3653
aVand
p3654
aVhomer
p3655
aVbarron
p3656
aVwith
p3657
aVhis
p3658
aVhat
p3659
aVcocked
p3660
aVand
p3661
aVa
aVcigar
p3662
aVin
p3663
aVhis
p3664
aVteeth
p3665
aV,
aVreins
p3666
aVand
p3667
aVwhip
p3668
aVin
p3669
aVa
aVyellow
p3670
aVglove
p3671
aV.
aa(lp3672
Vthen
p3673
aVsome
p3674
aVof
p3675
aVthe
p3676
aVladies
p3677
aVbegan
p3678
aVto
p3679
aVsay
p3680
aVthat
p3681
aVit
p3682
aVwas
p3683
aVa
aVdisgrace
p3684
aVto
p3685
aVthe
p3686
aVtown
p3687
aVand
p3688
aVa
aVbad
p3689
aVexample
p3690
aVto
p3691
aVthe
p3692
aVyoung
p3693
aVpeople
p3694
aV.
aa(lp3695
Vthe
p3696
aVmen
p3697
aVdid
p3698
aVnot
p3699
aVwant
p3700
aVto
p3701
aVinterfere
p3702
aV,
aVbut
p3703
aVat
p3704
aVlast
p3705
aVthe
p3706
aVladies
p3707
aVforced
p3708
aVthe
p3709
aVbaptist
p3710
aVminister
p3711
aV--
p3712
aVmiss
p3713
aVemily
p3714
aV's
p3715
aVpeople
p3716
aVwere
p3717
aVepiscopal
p3718
aV--
p3719
aVto
p3720
aVcall
p3721
aVupon
p3722
aVher
p3723
aV.
aa(lp3724
Vhe
p3725
aVwould
p3726
aVnever
p3727
aVdivulge
p3728
aVwhat
p3729
aVhappened
p3730
aVduring
p3731
aVthat
p3732
aVinterview
p3733
aV,
aVbut
p3734
aVhe
p3735
aVrefused
p3736
aVto
p3737
aVgo
p3738
aVback
p3739
aVagain
p3740
aV.
aa(lp3741
Vthe
p3742
aVnext
p3743
aVsunday
p3744
aVthey
p3745
aVagain
p3746
aVdrove
p3747
aVabout
p3748
aVthe
p3749
aVstreets
p3750
aV,
aVand
p3751
aVthe
p3752
aVfollowing
p3753
aVday
p3754
aVthe
p3755
aVminister
p3756
aV's
p3757
aVwife
p3758
aVwrote
p3759
aVto
p3760
aVmiss
p3761
aVemily
p3762
aV's
p3763
aVrelations
p3764
aVin
p3765
aValabama
p3766
aV.
aa(lp3767
Vso
p3768
aVshe
p3769
aVhad
p3770
aVblood-kin
p3771
aVunder
p3772
aVher
p3773
aVroof
p3774
aVagain
p3775
aVand
p3776
aVwe
p3777
aVsat
p3778
aVback
p3779
aVto
p3780
aVwatch
p3781
aVdevelopments
p3782
aV.
aa(lp3783
Vat
p3784
aVfirst
p3785
aVnothing
p3786
aVhappened
p3787
aV.
aa(lp3788
Vthen
p3789
aVwe
p3790
aVwere
p3791
aVsure
p3792
aVthat
p3793
aVthey
p3794
aVwere
p3795
aVto
p3796
aVbe
p3797
aVmarried
p3798
aV.
aa(lp3799
Vwe
p3800
aVlearned
p3801
aVthat
p3802
aVmiss
p3803
aVemily
p3804
aVhad
p3805
aVbeen
p3806
aVto
p3807
aVthe
p3808
aVjeweler
p3809
aV's
p3810
aVand
p3811
aVordered
p3812
aVa
aVman
p3813
aV's
p3814
aVtoilet
p3815
aVset
p3816
aVin
p3817
aVsilver
p3818
aV,
aVwith
p3819
aVthe
p3820
aVletters
p3821
aVh.
p3822
aVb.
p3823
aVon
p3824
aVeach
p3825
aVpiece
p3826
aV.
aa(lp3827
Vtwo
p3828
aVdays
p3829
aVlater
p3830
aVwe
p3831
aVlearned
p3832
aVthat
p3833
aVshe
p3834
aVhad
p3835
aVbought
p3836
aVa
aVcomplete
p3837
aVoutfit
p3838
aVof
p3839
aVmen
p3840
aV's
p3841
aVclothing
p3842
aV,
aVincluding
p3843
aVa
aVnightshirt
p3844
aV,
aVand
p3845
aVwe
p3846
aVsaid
p3847
aV,
aV``
p3848
aVthey
p3849
aVare
p3850
aVmarried
p3851
aV.
aV''
p3852
aa(lp3853
Vwe
p3854
aVwere
p3855
aVreally
p3856
aVglad
p3857
aV.
aa(lp3858
Vwe
p3859
aVwere
p3860
aVglad
p3861
aVbecause
p3862
aVthe
p3863
aVtwo
p3864
aVfemale
p3865
aVcousins
p3866
aVwere
p3867
aVeven
p3868
aVmore
p3869
aVgrierson
p3870
aVthan
p3871
aVmiss
p3872
aVemily
p3873
aVhad
p3874
aVever
p3875
aVbeen
p3876
aV.
aa(lp3877
Vso
p3878
aVwe
p3879
aVwere
p3880
aVnot
p3881
aVsurprised
p3882
aVwhen
p3883
aVhomer
p3884
aVbarron
p3885
aV--
p3886
aVthe
p3887
aVstreets
p3888
aVhad
p3889
aVbeen
p3890
aVfinished
p3891
aVsome
p3892
aVtime
p3893
aVsince
p3894
aV--
p3895
aVwas
p3896
aVgone
p3897
aV.
aa(lp3898
Vwe
p3899
aVwere
p3900
aVa
aVlittle
p3901
aVdisappointed
p3902
aVthat
p3903
aVthere
p3904
aVwas
p3905
aVnot
p3906
aVa
aVpublic
p3907
aVblowing-off
p3908
aV,
aVbut
p3909
aVwe
p3910
aVbelieved
p3911
aVthat
p3912
aVhe
p3913
aVhad
p3914
aVgone
p3915
aVon
p3916
aVto
p3917
aVprepare
p3918
aVfor
p3919
aVmiss
p3920
aVemily
p3921
aV's
p3922
aVcoming
p3923
aV,
aVor
p3924
aVto
p3925
aVgive
p3926
aVher
p3927
aVa
aVchance
p3928
aVto
p3929
aVget
p3930
aVrid
p3931
aVof
p3932
aVthe
p3933
aVcousins
p3934
aV.
aa(lp3935
V(
aVby
p3936
aVthat
p3937
aVtime
p3938
aVit
p3939
aVwas
p3940
aVa
aVcabal
p3941
aV,
aVand
p3942
aVwe
p3943
aVwere
p3944
aVall
p3945
aVmiss
p3946
aVemily
p3947
aV's
p3948
aVallies
p3949
aVto
p3950
aVhelp
p3951
aVcircumvent
p3952
aVthe
p3953
aVcousins
p3954
aV.
aV)
aa(lp3955
Vsure
p3956
aVenough
p3957
aV,
aVafter
p3958
aVanother
p3959
aVweek
p3960
aVthey
p3961
aVdeparted
p3962
aV.
aa(lp3963
Vand
p3964
aV,
aVas
p3965
aVwe
p3966
aVhad
p3967
aVexpected
p3968
aVall
p3969
aValong
p3970
aV,
aVwithin
p3971
aVthree
p3972
aVdays
p3973
aVhomer
p3974
aVbarron
p3975
aVwas
p3976
aVback
p3977
aVin
p3978
aVtown
p3979
aV.
aa(lp3980
Va
aVneighbor
p3981
aVsaw
p3982
aVthe
p3983
aVnegro
p3984
aVman
p3985
aVadmit
p3986
aVhim
p3987
aVat
p3988
aVthe
p3989
aVkitchen
p3990
aVdoor
p3991
aVat
p3992
aVdusk
p3993
aVone
p3994
aVevening
p3995
aV.
aa(lp3996
Vand
p3997
aVthat
p3998
aVwas
p3999
aVthe
p4000
aVlast
p4001
aVwe
p4002
aVsaw
p4003
aVof
p4004
aVhomer
p4005
aVbarron
p4006
aV.
aa(lp4007
Vand
p4008
aVof
p4009
aVmiss
p4010
aVemily
p4011
aVfor
p4012
aVsome
p4013
aVtime
p4014
aV.
aa(lp4015
Vthe
p4016
aVnegro
p4017
aVman
p4018
aVwent
p4019
aVin
p4020
aVand
p4021
aVout
p4022
aVwith
p4023
aVthe
p4024
aVmarket
p4025
aVbasket
p4026
aV,
aVbut
p4027
aVthe
p4028
aVfront
p4029
aVdoor
p4030
aVremained
p4031
aVclosed
p4032
aV.
aa(lp4033
Vnow
p4034
aVand
p4035
aVthen
p4036
aVwe
p4037
aVwould
p4038
aVsee
p4039
aVher
p4040
aVat
p4041
aVa
aVwindow
p4042
aVfor
p4043
aVa
aVmoment
p4044
aV,
aVas
p4045
aVthe
p4046
aVmen
p4047
aVdid
p4048
aVthat
p4049
aVnight
p4050
aVwhen
p4051
aVthey
p4052
aVsprinkled
p4053
aVthe
p4054
aVlime
p4055
aV,
aVbut
p4056
aVfor
p4057
aValmost
p4058
aVsix
p4059
aVmonths
p4060
aVshe
p4061
aVdid
p4062
aVnot
p4063
aVappear
p4064
aVon
p4065
aVthe
p4066
aVstreets
p4067
aV.
aa(lp4068
Vthen
p4069
aVwe
p4070
aVknew
p4071
aVthat
p4072
aVthis
p4073
aVwas
p4074
aVto
p4075
aVbe
p4076
aVexpected
p4077
aVtoo
p4078
aV;
aVas
p4079
aVif
p4080
aVthat
p4081
aVquality
p4082
aVof
p4083
aVher
p4084
aVfather
p4085
aVwhich
p4086
aVhad
p4087
aVthwarted
p4088
aVher
p4089
aVwoman
p4090
aV's
p4091
aVlife
p4092
aVso
p4093
aVmany
p4094
aVtimes
p4095
aVhad
p4096
aVbeen
p4097
aVtoo
p4098
aVvirulent
p4099
aVand
p4100
aVtoo
p4101
aVfurious
p4102
aVto
p4103
aVdie
p4104
aV.
aa(lp4105
Vwhen
p4106
aVwe
p4107
aVnext
p4108
aVsaw
p4109
aVmiss
p4110
aVemily
p4111
aV,
aVshe
p4112
aVhad
p4113
aVgrown
p4114
aVfat
p4115
aVand
p4116
aVher
p4117
aVhair
p4118
aVwas
p4119
aVturning
p4120
aVgray
p4121
aV.
aa(lp4122
Vduring
p4123
aVthe
p4124
aVnext
p4125
aVfew
p4126
aVyears
p4127
aVit
p4128
aVgrew
p4129
aVgrayer
p4130
aVand
p4131
aVgrayer
p4132
aVuntil
p4133
aVit
p4134
aVattained
p4135
aVan
p4136
aVeven
p4137
aVpepper-and-salt
p4138
aViron-gray
p4139
aV,
aVwhen
p4140
aVit
p4141
aVceased
p4142
aVturning
p4143
aV.
aa(lp4144
Vup
p4145
aVto
p4146
aVthe
p4147
aVday
p4148
aVof
p4149
aVher
p4150
aVdeath
p4151
aVat
p4152
aVseventy-four
p4153
aVit
p4154
aVwas
p4155
aVstill
p4156
aVthat
p4157
aVvigorous
p4158
aViron-gray
p4159
aV,
aVlike
p4160
aVthe
p4161
aVhair
p4162
aVof
p4163
aVan
p4164
aVactive
p4165
aVman
p4166
aV.
aa(lp4167
Vfrom
p4168
aVthat
p4169
aVtime
p4170
aVon
p4171
aVher
p4172
aVfront
p4173
aVdoor
p4174
aVremained
p4175
aVclosed
p4176
aV,
aVsave
p4177
aVfor
p4178
aVa
aVperiod
p4179
aVof
p4180
aVsix
p4181
aVor
p4182
aVseven
p4183
aVyears
p4184
aV,
aVwhen
p4185
aVshe
p4186
aVwas
p4187
aVabout
p4188
aVforty
p4189
aV,
aVduring
p4190
aVwhich
p4191
aVshe
p4192
aVgave
p4193
aVlessons
p4194
aVin
p4195
aVchina-painting
p4196
aV.
aa(lp4197
Vshe
p4198
aVfitted
p4199
aVup
p4200
aVa
aVstudio
p4201
aVin
p4202
aVone
p4203
aVof
p4204
aVthe
p4205
aVdownstairs
p4206
aVrooms
p4207
aV,
aVwhere
p4208
aVthe
p4209
aVdaughters
p4210
aVand
p4211
aVgranddaughters
p4212
aVof
p4213
aVcolonel
p4214
aVsartoris
p4215
aV'
aVcontemporaries
p4216
aVwere
p4217
aVsent
p4218
aVto
p4219
aVher
p4220
aVwith
p4221
aVthe
p4222
aVsame
p4223
aVregularity
p4224
aVand
p4225
aVin
p4226
aVthe
p4227
aVsame
p4228
aVspirit
p4229
aVthat
p4230
aVthey
p4231
aVwere
p4232
aVsent
p4233
aVto
p4234
aVchurch
p4235
aVon
p4236
aVsundays
p4237
aVwith
p4238
aVa
aVtwenty-five-cent
p4239
aVpiece
p4240
aVfor
p4241
aVthe
p4242
aVcollection
p4243
aVplate
p4244
aV.
aa(lp4245
Vmeanwhile
p4246
aVher
p4247
aVtaxes
p4248
aVhad
p4249
aVbeen
p4250
aVremitted
p4251
aV.
aa(lp4252
Vthen
p4253
aVthe
p4254
aVnewer
p4255
aVgeneration
p4256
aVbecame
p4257
aVthe
p4258
aVbackbone
p4259
aVand
p4260
aVthe
p4261
aVspirit
p4262
aVof
p4263
aVthe
p4264
aVtown
p4265
aV,
aVand
p4266
aVthe
p4267
aVpainting
p4268
aVpupils
p4269
aVgrew
p4270
aVup
p4271
aVand
p4272
aVfell
p4273
aVaway
p4274
aVand
p4275
aVdid
p4276
aVnot
p4277
aVsend
p4278
aVtheir
p4279
aVchildren
p4280
aVto
p4281
aVher
p4282
aVwith
p4283
aVboxes
p4284
aVof
p4285
aVcolor
p4286
aVand
p4287
aVtedious
p4288
aVbrushes
p4289
aVand
p4290
aVpictures
p4291
aVcut
p4292
aVfrom
p4293
aVthe
p4294
aVladies
p4295
aV'
aVmagazines
p4296
aV.
aa(lp4297
Vthe
p4298
aVfront
p4299
aVdoor
p4300
aVclosed
p4301
aVupon
p4302
aVthe
p4303
aVlast
p4304
aVone
p4305
aVand
p4306
aVremained
p4307
aVclosed
p4308
aVfor
p4309
aVgood
p4310
aV.
aa(lp4311
Vwhen
p4312
aVthe
p4313
aVtown
p4314
aVgot
p4315
aVfree
p4316
aVpostal
p4317
aVdelivery
p4318
aV,
aVmiss
p4319
aVemily
p4320
aValone
p4321
aVrefused
p4322
aVto
p4323
aVlet
p4324
aVthem
p4325
aVfasten
p4326
aVthe
p4327
aVmetal
p4328
aVnumbers
p4329
aVabove
p4330
aVher
p4331
aVdoor
p4332
aVand
p4333
aVattach
p4334
aVa
aVmailbox
p4335
aVto
p4336
aVit
p4337
aV.
aa(lp4338
Vshe
p4339
aVwould
p4340
aVnot
p4341
aVlisten
p4342
aVto
p4343
aVthem
p4344
aV.
aa(lp4345
Vdaily
p4346
aV,
aVmonthly
p4347
aV,
aVyearly
p4348
aVwe
p4349
aVwatched
p4350
aVthe
p4351
aVnegro
p4352
aVgrow
p4353
aVgrayer
p4354
aVand
p4355
aVmore
p4356
aVstooped
p4357
aV,
aVgoing
p4358
aVin
p4359
aVand
p4360
aVout
p4361
aVwith
p4362
aVthe
p4363
aVmarket
p4364
aVbasket
p4365
aV.
aa(lp4366
Veach
p4367
aVdecember
p4368
aVwe
p4369
aVsent
p4370
aVher
p4371
aVa
aVtax
p4372
aVnotice
p4373
aV,
aVwhich
p4374
aVwould
p4375
aVbe
p4376
aVreturned
p4377
aVby
p4378
aVthe
p4379
aVpost
p4380
aVoffice
p4381
aVa
aVweek
p4382
aVlater
p4383
aV,
aVunclaimed
p4384
aV.
aa(lp4385
Vnow
p4386
aVand
p4387
aVthen
p4388
aVwe
p4389
aVwould
p4390
aVsee
p4391
aVher
p4392
aVin
p4393
aVone
p4394
aVof
p4395
aVthe
p4396
aVdownstairs
p4397
aVwindows
p4398
aV--
p4399
aVshe
p4400
aVhad
p4401
aVevidently
p4402
aVshut
p4403
aVup
p4404
aVthe
p4405
aVtop
p4406
aVfloor
p4407
aVof
p4408
aVthe
p4409
aVhouse
p4410
aV--
p4411
aVlike
p4412
aVthe
p4413
aVcarven
p4414
aVtorso
p4415
aVof
p4416
aVan
p4417
aVidol
p4418
aVin
p4419
aVa
aVniche
p4420
aV,
aVlooking
p4421
aVor
p4422
aVnot
p4423
aVlooking
p4424
aVat
p4425
aVus
p4426
aV,
aVwe
p4427
aVcould
p4428
aVnever
p4429
aVtell
p4430
aVwhich
p4431
aV.
aa(lp4432
Vthus
p4433
aVshe
p4434
aVpassed
p4435
aVfrom
p4436
aVgeneration
p4437
aVto
p4438
aVgeneration
p4439
aV--
p4440
aVdear
p4441
aV,
aVinescapable
p4442
aV,
aVimpervious
p4443
aV,
aVtranquil
p4444
aV,
aVand
p4445
aVperverse
p4446
aV.
aa(lp4447
Vand
p4448
aVso
p4449
aVshe
p4450
aVdied
p4451
aV.
aa(lp4452
Vfell
p4453
aVill
p4454
aVin
p4455
aVthe
p4456
aVhouse
p4457
aVfilled
p4458
aVwith
p4459
aVdust
p4460
aVand
p4461
aVshadows
p4462
aV,
aVwith
p4463
aVonly
p4464
aVa
aVdoddering
p4465
aVnegro
p4466
aVman
p4467
aVto
p4468
aVwait
p4469
aVon
p4470
aVher
p4471
aV.
aa(lp4472
Vwe
p4473
aVdid
p4474
aVnot
p4475
aVeven
p4476
aVknow
p4477
aVshe
p4478
aVwas
p4479
aVsick
p4480
aV;
aVwe
p4481
aVhad
p4482
aVlong
p4483
aVsince
p4484
aVgiven
p4485
aVup
p4486
aVtrying
p4487
aVto
p4488
aVget
p4489
aVany
p4490
aVinformation
p4491
aVfrom
p4492
aVthe
p4493
aVnegro
p4494
aVhe
p4495
aVtalked
p4496
aVto
p4497
aVno
p4498
aVone
p4499
aV,
aVprobably
p4500
aVnot
p4501
aVeven
p4502
aVto
p4503
aVher
p4504
aV,
aVfor
p4505
aVhis
p4506
aVvoice
p4507
aVhad
p4508
aVgrown
p4509
aVharsh
p4510
aVand
p4511
aVrusty
p4512
aV,
aVas
p4513
aVif
p4514
aVfrom
p4515
aVdisuse
p4516
aV.
aa(lp4517
Vshe
p4518
aVdied
p4519
aVin
p4520
aVone
p4521
aVof
p4522
aVthe
p4523
aVdownstairs
p4524
aVrooms
p4525
aV,
aVin
p4526
aVa
aVheavy
p4527
aVwalnut
p4528
aVbed
p4529
aVwith
p4530
aVa
aVcurtain
p4531
aV,
aVher
p4532
aVgray
p4533
aVhead
p4534
aVpropped
p4535
aVon
p4536
aVa
aVpillow
p4537
aVyellow
p4538
aVand
p4539
aVmoldy
p4540
aVwith
p4541
aVage
p4542
aVand
p4543
aVlack
p4544
aVof
p4545
aVsunlight
p4546
aV.
aa(lp4547
Vv
aVthe
p4548
aVnegro
p4549
aVmet
p4550
aVthe
p4551
aVfirst
p4552
aVof
p4553
aVthe
p4554
aVladies
p4555
aVat
p4556
aVthe
p4557
aVfront
p4558
aVdoor
p4559
aVand
p4560
aVlet
p4561
aVthem
p4562
aVin
p4563
aV,
aVwith
p4564
aVtheir
p4565
aVhushed
p4566
aV,
aVsibilant
p4567
aVvoices
p4568
aVand
p4569
aVtheir
p4570
aVquick
p4571
aV,
aVcurious
p4572
aVglances
p4573
aV,
aVand
p4574
aVthen
p4575
aVhe
p4576
aVdisappeared
p4577
aV.
aa(lp4578
Vhe
p4579
aVwalked
p4580
aVright
p4581
aVthrough
p4582
aVthe
p4583
aVhouse
p4584
aVand
p4585
aVout
p4586
aVthe
p4587
aVback
p4588
aVand
p4589
aVwas
p4590
aVnot
p4591
aVseen
p4592
aVagain
p4593
aV.
aa(lp4594
Vthe
p4595
aVtwo
p4596
aVfemale
p4597
aVcousins
p4598
aVcame
p4599
aVat
p4600
aVonce
p4601
aV.
aa(lp4602
Vthey
p4603
aVheld
p4604
aVthe
p4605
aVfuneral
p4606
aVon
p4607
aVthe
p4608
aVsecond
p4609
aVday
p4610
aV,
aVwith
p4611
aVthe
p4612
aVtown
p4613
aVcoming
p4614
aVto
p4615
aVlook
p4616
aVat
p4617
aVmiss
p4618
aVemily
p4619
aVbeneath
p4620
aVa
aVmass
p4621
aVof
p4622
aVbought
p4623
aVflowers
p4624
aV,
aVwith
p4625
aVthe
p4626
aVcrayon
p4627
aVface
p4628
aVof
p4629
aVher
p4630
aVfather
p4631
aVmusing
p4632
aVprofoundly
p4633
aVabove
p4634
aVthe
p4635
aVbier
p4636
aVand
p4637
aVthe
p4638
aVladies
p4639
aVsibilant
p4640
aVand
p4641
aVmacabre
p4642
aV;
aVand
p4643
aVthe
p4644
aVvery
p4645
aVold
p4646
aVmen
p4647
aV--
p4648
aVsome
p4649
aVin
p4650
aVtheir
p4651
aVbrushed
p4652
aVconfederate
p4653
aVuniforms
p4654
aV--
p4655
aVon
p4656
aVthe
p4657
aVporch
p4658
aVand
p4659
aVthe
p4660
aVlawn
p4661
aV,
aVtalking
p4662
aVof
p4663
aVmiss
p4664
aVemily
p4665
aVas
p4666
aVif
p4667
aVshe
p4668
aVhad
p4669
aVbeen
p4670
aVa
aVcontemporary
p4671
aVof
p4672
aVtheirs
p4673
aV,
aVbelieving
p4674
aVthat
p4675
aVthey
p4676
aVhad
p4677
aVdanced
p4678
aVwith
p4679
aVher
p4680
aVand
p4681
aVcourted
p4682
aVher
p4683
aVperhaps
p4684
aV,
aVconfusing
p4685
aVtime
p4686
aVwith
p4687
aVits
p4688
aVmathematical
p4689
aVprogression
p4690
aV,
aVas
p4691
aVthe
p4692
aVold
p4693
aVdo
p4694
aV,
aVto
p4695
aVwhom
p4696
aVall
p4697
aVthe
p4698
aVpast
p4699
aVis
p4700
aVnot
p4701
aVa
aVdiminishing
p4702
aVroad
p4703
aVbut
p4704
aV,
aVinstead
p4705
aV,
aVa
aVhuge
p4706
aVmeadow
p4707
aVwhich
p4708
aVno
p4709
aVwinter
p4710
aVever
p4711
aVquite
p4712
aVtouches
p4713
aV,
aVdivided
p4714
aVfrom
p4715
aVthem
p4716
aVnow
p4717
aVby
p4718
aVthe
p4719
aVnarrow
p4720
aVbottle-neck
p4721
aVof
p4722
aVthe
p4723
aVmost
p4724
aVrecent
p4725
aVdecade
p4726
aVof
p4727
aVyears
p4728
aV.
aa(lp4729
Valready
p4730
aVwe
p4731
aVknew
p4732
aVthat
p4733
aVthere
p4734
aVwas
p4735
aVone
p4736
aVroom
p4737
aVin
p4738
aVthat
p4739
aVregion
p4740
aVabove
p4741
aVstairs
p4742
aVwhich
p4743
aVno
p4744
aVone
p4745
aVhad
p4746
aVseen
p4747
aVin
p4748
aVforty
p4749
aVyears
p4750
aV,
aVand
p4751
aVwhich
p4752
aVwould
p4753
aVhave
p4754
aVto
p4755
aVbe
p4756
aVforced
p4757
aV.
aa(lp4758
Vthey
p4759
aVwaited
p4760
aVuntil
p4761
aVmiss
p4762
aVemily
p4763
aVwas
p4764
aVdecently
p4765
aVin
p4766
aVthe
p4767
aVground
p4768
aVbefore
p4769
aVthey
p4770
aVopened
p4771
aVit
p4772
aV.
aa(lp4773
Vthe
p4774
aVviolence
p4775
aVof
p4776
aVbreaking
p4777
aVdown
p4778
aVthe
p4779
aVdoor
p4780
aVseemed
p4781
aVto
p4782
aVfill
p4783
aVthis
p4784
aVroom
p4785
aVwith
p4786
aVpervading
p4787
aVdust
p4788
aV.
aa(lp4789
Va
aVthin
p4790
aV,
aVacrid
p4791
aVpall
p4792
aVas
p4793
aVof
p4794
aVthe
p4795
aVtomb
p4796
aVseemed
p4797
aVto
p4798
aVlie
p4799
aVeverywhere
p4800
aVupon
p4801
aVthis
p4802
aVroom
p4803
aVdecked
p4804
aVand
p4805
aVfurnished
p4806
aVas
p4807
aVfor
p4808
aVa
aVbridal
p4809
aV:
aVupon
p4810
aVthe
p4811
aVvalance
p4812
aVcurtains
p4813
aVof
p4814
aVfaded
p4815
aVrose
p4816
aVcolor
p4817
aV,
aVupon
p4818
aVthe
p4819
aVrose-shaded
p4820
aVlights
p4821
aV,
aVupon
p4822
aVthe
p4823
aVdressing
p4824
aVtable
p4825
aV,
aVupon
p4826
aVthe
p4827
aVdelicate
p4828
aVarray
p4829
aVof
p4830
aVcrystal
p4831
aVand
p4832
aVthe
p4833
aVman
p4834
aV's
p4835
aVtoilet
p4836
aVthings
p4837
aVbacked
p4838
aVwith
p4839
aVtarnished
p4840
aVsilver
p4841
aV,
aVsilver
p4842
aVso
p4843
aVtarnished
p4844
aVthat
p4845
aVthe
p4846
aVmonogram
p4847
aVwas
p4848
aVobscured
p4849
aV.
aa(lp4850
Vamong
p4851
aVthem
p4852
aVlay
p4853
aVa
aVcollar
p4854
aVand
p4855
aVtie
p4856
aV,
aVas
p4857
aVif
p4858
aVthey
p4859
aVhad
p4860
aVjust
p4861
aVbeen
p4862
aVremoved
p4863
aV,
aVwhich
p4864
aV,
aVlifted
p4865
aV,
aVleft
p4866
aVupon
p4867
aVthe
p4868
aVsurface
p4869
aVa
aVpale
p4870
aVcrescent
p4871
aVin
p4872
aVthe
p4873
aVdust
p4874
aV.
aa(lp4875
Vupon
p4876
aVa
aVchair
p4877
aVhung
p4878
aVthe
p4879
aVsuit
p4880
aV,
aVcarefully
p4881
aVfolded
p4882
aV;
aVbeneath
p4883
aVit
p4884
aVthe
p4885
aVtwo
p4886
aVmute
p4887
aVshoes
p4888
aVand
p4889
aVthe
p4890
aVdiscarded
p4891
aVsocks
p4892
aV.
aa(lp4893
Vthe
p4894
aVman
p4895
aVhimself
p4896
aVlay
p4897
aVin
p4898
aVthe
p4899
aVbed
p4900
aV.
aa(lp4901
Vfor
p4902
aVa
aVlong
p4903
aVwhile
p4904
aVwe
p4905
aVjust
p4906
aVstood
p4907
aVthere
p4908
aV,
aVlooking
p4909
aVdown
p4910
aVat
p4911
aVthe
p4912
aVprofound
p4913
aVand
p4914
aVfleshless
p4915
aVgrin
p4916
aV.
aa(lp4917
Vthe
p4918
aVbody
p4919
aVhad
p4920
aVapparently
p4921
aVonce
p4922
aVlain
p4923
aVin
p4924
aVthe
p4925
aVattitude
p4926
aVof
p4927
aVan
p4928
aVembrace
p4929
aV,
aVbut
p4930
aVnow
p4931
aVthe
p4932
aVlong
p4933
aVsleep
p4934
aVthat
p4935
aVoutlasts
p4936
aVlove
p4937
aV,
aVthat
p4938
aVconquers
p4939
aVeven
p4940
aVthe
p4941
aVgrimace
p4942
aVof
p4943
aVlove
p4944
aV,
aVhad
p4945
aVcuckolded
p4946
aVhim
p4947
aV.
aa(lp4948
Vwhat
p4949
aVwas
p4950
aVleft
p4951
aVof
p4952
aVhim
p4953
aV,
aVrotted
p4954
aVbeneath
p4955
aVwhat
p4956
aVwas
p4957
aVleft
p4958
aVof
p4959
aVthe
p4960
aVnightshirt
p4961
aV,
aVhad
p4962
aVbecome
p4963
aVinextricable
p4964
aVfrom
p4965
aVthe
p4966
aVbed
p4967
aVin
p4968
aVwhich
p4969
aVhe
p4970
aVlay
p4971
aV;
aVand
p4972
aVupon
p4973
aVhim
p4974
aVand
p4975
aVupon
p4976
aVthe
p4977
aVpillow
p4978
aVbeside
p4979
aVhim
p4980
aVlay
p4981
aVthat
p4982
aVeven
p4983
aVcoating
p4984
aVof
p4985
aVthe
p4986
aVpatient
p4987
aVand
p4988
aVbiding
p4989
aVdust
p4990
aV.
aa(lp4991
Vthen
p4992
aVwe
p4993
aVnoticed
p4994
aVthat
p4995
aVin
p4996
aVthe
p4997
aVsecond
p4998
aVpillow
p4999
aVwas
p5000
aVthe
p5001
aVindentation
p5002
aVof
p5003
aVa
aVhead
p5004
aV.
aa(lp5005
Vone
p5006
aVof
p5007
aVus
p5008
aVlifted
p5009
aVsomething
p5010
aVfrom
p5011
aVit
p5012
aV,
aVand
p5013
aVleaning
p5014
aVforward
p5015
aV,
aVthat
p5016
aVfaint
p5017
aVand
p5018
aVinvisible
p5019
aVdust
p5020
aVdry
p5021
aVand
p5022
aVacrid
p5023
aVin
p5024
aVthe
p5025
aVnostrils
p5026
aV,
aVwe
p5027
aVsaw
p5028
aVa
aVlong
p5029
aVstrand
p5030
aVof
p5031
aViron-gray
p5032
aVhair
p5033
aV.
aasb.