ccopy_reg
_reconstructor
p1
(cData.Book
Book
p2
c__builtin__
object
p3
NtRp4
(dp5
S'stored_object'
p6
S'Books/A_Rose_for_Emily/Book_object.p'
p7
sS'title'
p8
S'A Rose for Emily'
p9
sS'main_text_path'
p10
S'Books/A_Rose_for_Emily/main_cleaned.txt'
p11
sS'metadata_path'
p12
S'Books/A_Rose_for_Emily/meta_data.csv'
p13
sS'book_path'
p14
S'Books/A_Rose_for_Emily/'
p15
sS'characters'
p16
(dp17
S'judge stevens'
p18
(dp19
S'list'
p20
(lp21
(lp22
V[
aVCHARACTER
p23
aV]
aV-
aVa
aVmayor
p24
aVof
p25
aVjefferson
p26
aV.
aa(lp27
Veighty
p28
aVyears
p29
aVold
p30
aV,
aV[
aVCHARACTER
p31
aV]
aVattempts
p32
aVto
p33
aVdelicately
p34
aVhandle
p35
aVthe
p36
aVcomplaints
p37
aVabout
p38
aVthe
p39
aVsmell
p40
aVemanating
p41
aVfrom
p42
aVthe
p43
aVgrierson
p44
aVproperty
p45
aV.
aa(lp46
Vto
p47
aVbe
p48
aVrespectful
p49
aVof
p50
aVemily
p51
aV's
p52
aVpride
p53
aVand
p54
aVformer
p55
aVposition
p56
aVin
p57
aVthe
p58
aVcommunity
p59
aV,
aVhe
p60
aVand
p61
aVthe
p62
aValdermen
p63
aVdecide
p64
aVto
p65
aVsprinkle
p66
aVlime
p67
aVon
p68
aVthe
p69
aVproperty
p70
aVin
p71
aVthe
p72
aVmiddle
p73
aVof
p74
aVthe
p75
aVnight
p76
aV.
aasS'relevant_text'
p77
(lp78
(lp79
(lp80
Vetheart
p81
aVwent
p82
aVaway
p83
aV,
aVpeople
p84
aVhardly
p85
aVsaw
p86
aVher
p87
aVat
p88
aVall
p89
aV.
aa(lp90
Va
aVfew
p91
aVof
p92
aVthe
p93
aVladies
p94
aVhad
p95
aVthe
p96
aVtemerity
p97
aVto
p98
aVcall
p99
aV,
aVbut
p100
aVwere
p101
aVnot
p102
aVreceived
p103
aV,
aVand
p104
aVthe
p105
aVonly
p106
aVsign
p107
aVof
p108
aVlife
p109
aVabout
p110
aVthe
p111
aVplace
p112
aVwas
p113
aVthe
p114
aVnegro
p115
aVman
p116
aV--
p117
aVa
aVyoung
p118
aVman
p119
aVthen
p120
aV--
p121
aVgoing
p122
aVin
p123
aVand
p124
aVout
p125
aVwith
p126
aVa
aVmarket
p127
aVbasket
p128
aV.
aa(lp129
V``
p130
aVjust
p131
aVas
p132
aVif
p133
aVa
aVman
p134
aV--
p135
aVany
p136
aVman
p137
aV--
p138
aVcould
p139
aVkeep
p140
aVa
aVkitchen
p141
aVproperly
p142
aV,
aV``
p143
aVthe
p144
aVladies
p145
aVsaid
p146
aV;
aVso
p147
aVthey
p148
aVwere
p149
aVnot
p150
aVsurprised
p151
aVwhen
p152
aVthe
p153
aVsmell
p154
aVdeveloped
p155
aV.
aa(lp156
Vit
p157
aVwas
p158
aVanother
p159
aVlink
p160
aVbetween
p161
aVthe
p162
aVgross
p163
aV,
aVteeming
p164
aVworld
p165
aVand
p166
aVthe
p167
aVhigh
p168
aVand
p169
aVmighty
p170
aVgriersons
p171
aV.
aa(lp172
Va
aVneighbor
p173
aV,
aVa
aVwoman
p174
aV,
aVcomplained
p175
aVto
p176
aVthe
p177
aVmayor
p178
aV,
aVjudge
p179
aVstevens
p180
aV,
aVeighty
p181
aVyears
p182
aVold
p183
aV.
aa(lp184
V``
p185
aVbut
p186
aVwhat
p187
aVwill
p188
aVyou
p189
aVhave
p190
aVme
p191
aVdo
p192
aVabout
p193
aVit
p194
aV,
aVmadam
p195
aV?
aV''
p196
aa(lp197
Vhe
p198
aVsaid
p199
aV.
aa(lp200
V``
p201
aVwhy
p202
aV,
aVsend
p203
aVher
p204
aVword
p205
aVto
p206
aVstop
p207
aVit
p208
aV,
aV''
p209
aVthe
p210
aVwoman
p211
aVsaid
p212
aV.
aa(lp213
V``
p214
aVis
p215
aVn't
p216
aVthere
p217
aVa
aVlaw
p218
aV?
aV``
p219
aa(lp220
V``
p221
aVi
aV'm
p222
aVsure
p223
aVthat
p224
aVwo
p225
aVn't
p226
aVbe
p227
aVnecessary
p228
aV,
aV''
p229
aVjudge
p230
aVstevens
p231
aVsaid
p232
aV.
aa(lp233
V``
p234
aVit
p235
aV's
p236
aVprobably
p237
aVjust
p238
aVa
aVsnake
p239
aVor
p240
aVa
aVrat
p241
aVthat
p242
aVnigger
p243
aVof
p244
aVhers
p245
aVkilled
p246
aVin
p247
aVthe
p248
aVyard
p249
aV.
aa(lp250
Vi
aV'll
p251
aVspeak
p252
aVto
p253
aVhim
p254
aVabout
p255
aVit
p256
aV.
aV''
p257
aa(lp258
Vthe
p259
aVnext
p260
aVday
p261
aVhe
p262
aVreceived
p263
aVtwo
p264
aVmore
p265
aVcomplaints
p266
aV,
aVone
p267
aVfrom
p268
aVa
aVman
p269
aVwho
p270
aVcame
p271
aVin
p272
aVdiffident
p273
aVdeprecation
p274
aV.
aa(lp275
V``
p276
aVwe
p277
aVreally
p278
aVmust
p279
aVdo
p280
aVsomething
p281
aVabout
p282
aVit
p283
aV,
aVjudge
p284
aV.
aa(lp285
Vi
aV'd
p286
aVbe
p287
aVthe
p288
aVlast
p289
aVone
p290
aVin
p291
aVthe
p292
aVworld
p293
aVto
p294
aVbother
p295
aVmiss
p296
aaa(lp297
(lp298
Vemily
p299
aV,
aVbut
p300
aVwe
p301
aV've
p302
aVgot
p303
aVto
p304
aVdo
p305
aVsomething
p306
aV.
aV''
p307
aa(lp308
Vthat
p309
aVnight
p310
aVthe
p311
aVboard
p312
aVof
p313
aValdermen
p314
aVmet
p315
aV--
p316
aVthree
p317
aVgraybeards
p318
aVand
p319
aVone
p320
aVyounger
p321
aVman
p322
aV,
aVa
aVmember
p323
aVof
p324
aVthe
p325
aVrising
p326
aVgeneration
p327
aV.
aa(lp328
V``
p329
aVit
p330
aV's
p331
aVsimple
p332
aVenough
p333
aV,
aV''
p334
aVhe
p335
aVsaid
p336
aV.
aa(lp337
V``
p338
aVsend
p339
aVher
p340
aVword
p341
aVto
p342
aVhave
p343
aVher
p344
aVplace
p345
aVcleaned
p346
aVup
p347
aV.
aa(lp348
Vgive
p349
aVher
p350
aVa
aVcertain
p351
aVtime
p352
aVto
p353
aVdo
p354
aVit
p355
aVin
p356
aV,
aVand
p357
aVif
p358
aVshe
p359
aVdo
p360
aVn't
p361
aV.
aa(lp362
V..
p363
aV''
p364
aV''
p365
aVdammit
p366
aV,
aVsir
p367
aV,
aV''
p368
aVjudge
p369
aVstevens
p370
aVsaid
p371
aV,
aV``
p372
aVwill
p373
aVyou
p374
aVaccuse
p375
aVa
aVlady
p376
aVto
p377
aVher
p378
aVface
p379
aVof
p380
aVsmelling
p381
aVbad
p382
aV?
aV''
p383
aa(lp384
Vso
p385
aVthe
p386
aVnext
p387
aVnight
p388
aV,
aVafter
p389
aVmidnight
p390
aV,
aVfour
p391
aVmen
p392
aVcrossed
p393
aVmiss
p394
aVemily
p395
aV's
p396
aVlawn
p397
aVand
p398
aVslunk
p399
aVabout
p400
aVthe
p401
aVhouse
p402
aVlike
p403
aVburglars
p404
aV,
aVsniffing
p405
aValong
p406
aVthe
p407
aVbase
p408
aVof
p409
aVthe
p410
aVbrickwork
p411
aVand
p412
aVat
p413
aVthe
p414
aVcellar
p415
aVopenings
p416
aVwhile
p417
aVone
p418
aVof
p419
aVthem
p420
aVperformed
p421
aVa
aVregular
p422
aVsowing
p423
aVmotion
p424
aVwith
p425
aVhis
p426
aVhand
p427
aVout
p428
aVof
p429
aVa
aVsack
p430
aVslung
p431
aVfrom
p432
aVhis
p433
aVshoulder
p434
aV.
aa(lp435
Vthey
p436
aVbroke
p437
aVopen
p438
aVthe
p439
aVcellar
p440
aVdoor
p441
aVand
p442
aVsprinkled
p443
aVlime
p444
aVthere
p445
aV,
aVand
p446
aVin
p447
aVall
p448
aVthe
p449
aVoutbuildings
p450
aV.
aa(lp451
Vas
p452
aVthey
p453
aVrecrossed
p454
aVthe
p455
aVlawn
p456
aV,
aVa
aVwindow
p457
aVthat
p458
aVhad
p459
aVbeen
p460
aVdark
p461
aVwas
p462
aVlighted
p463
aaasS'analysis'
p464
NssS'mr. grierson'
p465
(dp466
g20
(lp467
(lp468
Vmr.
p469
aV[
aVCHARACTER
p470
aV]
aV-
aVemily
p471
aV's
p472
aVfather
p473
aV.
aa(lp474
Vmr.
p475
aV[
aVCHARACTER
p476
aV]
aVis
p477
aVa
aVcontrolling
p478
aV,
aVlooming
p479
aVpresence
p480
aVeven
p481
aVin
p482
aVdeath
p483
aV,
aVand
p484
aVthe
p485
aVcommunity
p486
aVclearly
p487
aVsees
p488
aVhis
p489
aVlasting
p490
aVinfluence
p491
aVover
p492
aVemily
p493
aV.
aa(lp494
Vhe
p495
aVdeliberately
p496
aVthwarts
p497
aVemily
p498
aV's
p499
aVattempts
p500
aVto
p501
aVfind
p502
aVa
aVhusband
p503
aVin
p504
aVorder
p505
aVto
p506
aVkeep
p507
aVher
p508
aVunder
p509
aVhis
p510
aVcontrol
p511
aV.
aa(lp512
Vwe
p513
aVget
p514
aVglimpses
p515
aVof
p516
aVhim
p517
aVin
p518
aVthe
p519
aVstory
p520
aV:
aVin
p521
aVthe
p522
aVcrayon
p523
aVportrait
p524
aVkept
p525
aVon
p526
aVthe
p527
aVgilt-edged
p528
aVeasel
p529
aVin
p530
aVthe
p531
aVparlor
p532
aV,
aVand
p533
aVsilhouetted
p534
aVin
p535
aVthe
p536
aVdoorway
p537
aV,
aVhorsewhip
p538
aVin
p539
aVhand
p540
aV,
aVhaving
p541
aVchased
p542
aVoff
p543
aVanother
p544
aVof
p545
aVemily
p546
aV's
p547
aVsuitors
p548
aV.
aasg77
(lp549
(lp550
(lp551
Vi
aVwhen
p552
aVmiss
p553
aVemily
p554
aVgrierson
p555
aVdied
p556
aV,
aVour
p557
aVwhole
p558
aVtown
p559
aVwent
p560
aVto
p561
aVher
p562
aVfuneral
p563
aV:
aVthe
p564
aVmen
p565
aVthrough
p566
aVa
aVsort
p567
aVof
p568
aVrespectful
p569
aVaffection
p570
aVfor
p571
aVa
aVfallen
p572
aVmonument
p573
aV,
aVthe
p574
aVwomen
p575
aVmostly
p576
aVout
p577
aVof
p578
aVcuriosity
p579
aVto
p580
aVsee
p581
aVthe
p582
aVinside
p583
aVof
p584
aVher
p585
aVhouse
p586
aV,
aVwhich
p587
aVno
p588
aVone
p589
aVsave
p590
aVan
p591
aVold
p592
aVman-servant
p593
aV--
p594
aVa
aVcombined
p595
aVgardener
p596
aVand
p597
aVcook
p598
aV--
p599
aVhad
p600
aVseen
p601
aVin
p602
aVat
p603
aVleast
p604
aVten
p605
aVyears
p606
aV.
aa(lp607
Vit
p608
aVwas
p609
aVa
aVbig
p610
aV,
aVsquarish
p611
aVframe
p612
aVhouse
p613
aVthat
p614
aVhad
p615
aVonce
p616
aVbeen
p617
aVwhite
p618
aV,
aVdecorated
p619
aVwith
p620
aVcupolas
p621
aVand
p622
aVspires
p623
aVand
p624
aVscrolled
p625
aVbalconies
p626
aVin
p627
aVthe
p628
aVheavily
p629
aVlightsome
p630
aVstyle
p631
aVof
p632
aVthe
p633
aVseventies
p634
aV,
aVset
p635
aVon
p636
aVwhat
p637
aVhad
p638
aVonce
p639
aVbeen
p640
aVour
p641
aVmost
p642
aVselect
p643
aVstreet
p644
aV.
aa(lp645
Vbut
p646
aaa(lp647
(lp648
Vher
p649
aVfather
p650
aV's
p651
aVdeath
p652
aVshe
p653
aVwent
p654
aVout
p655
aVvery
p656
aVlittle
p657
aV;
aVafter
p658
aVher
p659
aVsweetheart
p660
aVwent
p661
aVaway
p662
aV,
aVpeople
p663
aVhardly
p664
aVsaw
p665
aVher
p666
aVat
p667
aVall
p668
aV.
aa(lp669
Va
aVfew
p670
aVof
p671
aVthe
p672
aVladies
p673
aVhad
p674
aVthe
p675
aVtemerity
p676
aVto
p677
aVcall
p678
aV,
aVbut
p679
aVwere
p680
aVnot
p681
aVreceived
p682
aV,
aVand
p683
aVthe
p684
aVonly
p685
aVsign
p686
aVof
p687
aVlife
p688
aVabout
p689
aVthe
p690
aVplace
p691
aVwas
p692
aVthe
p693
aVnegro
p694
aVman
p695
aV--
p696
aVa
aVyoung
p697
aVman
p698
aVthen
p699
aV--
p700
aVgoing
p701
aVin
p702
aVand
p703
aVout
p704
aVwith
p705
aVa
aVmarket
p706
aVbasket
p707
aV.
aa(lp708
V``
p709
aVjust
p710
aVas
p711
aVif
p712
aVa
aVman
p713
aV--
p714
aVany
p715
aVman
p716
aV--
p717
aVcould
p718
aVkeep
p719
aVa
aVkitchen
p720
aVproperly
p721
aV,
aV``
p722
aVthe
p723
aVladies
p724
aVsaid
p725
aV;
aVso
p726
aVthey
p727
aVwere
p728
aVnot
p729
aVsurprised
p730
aVwhen
p731
aVthe
p732
aVsmell
p733
aVdeveloped
p734
aV.
aa(lp735
Vit
p736
aVwas
p737
aVanother
p738
aVlink
p739
aVbetween
p740
aVthe
p741
aVgross
p742
aV,
aVteeming
p743
aVworld
p744
aVand
p745
aVthe
p746
aVhigh
p747
aVand
p748
aVmighty
p749
aVgriersons
p750
aV.
aa(lp751
Va
aVneighbor
p752
aV,
aVa
aVwoman
p753
aV,
aVcomplained
p754
aVto
p755
aVthe
p756
aVmayor
p757
aV,
aVjudge
p758
aVstevens
p759
aV,
aVeighty
p760
aVyears
p761
aVold
p762
aV.
aa(lp763
V``
p764
aVbut
p765
aVwhat
p766
aVwill
p767
aVyou
p768
aVhave
p769
aVme
p770
aVdo
p771
aVabout
p772
aVit
p773
aV,
aVmadam
p774
aV?
aV''
p775
aa(lp776
Vhe
p777
aVsaid
p778
aV.
aa(lp779
V``
p780
aVwhy
p781
aV,
aVsend
p782
aVher
p783
aVword
p784
aVto
p785
aVstop
p786
aVit
p787
aV,
aV''
p788
aVthe
p789
aVwoman
p790
aVsaid
p791
aV.
aa(lp792
V``
p793
aVis
p794
aVn't
p795
aVthere
p796
aVa
aVlaw
p797
aV?
aV``
p798
aa(lp799
V``
p800
aVi
aV'm
p801
aVsure
p802
aVthat
p803
aVwo
p804
aVn't
p805
aVbe
p806
aVnecessary
p807
aV,
aV''
p808
aVjudge
p809
aVstevens
p810
aVsaid
p811
aV.
aa(lp812
V``
p813
aVit
p814
aV's
p815
aVprobably
p816
aVjust
p817
aVa
aVsnake
p818
aVor
p819
aVa
aVrat
p820
aVthat
p821
aVnigger
p822
aVof
p823
aVhers
p824
aVkilled
p825
aVin
p826
aVthe
p827
aVyard
p828
aV.
aa(lp829
Vi
aV'll
p830
aVspeak
p831
aVto
p832
aVhim
p833
aVabout
p834
aVit
p835
aV.
aV''
p836
aa(lp837
Vthe
p838
aVnext
p839
aVday
p840
aVhe
p841
aVreceived
p842
aVtwo
p843
aVmore
p844
aVcomplaints
p845
aV,
aVone
p846
aVfrom
p847
aVa
aVman
p848
aVwho
p849
aVcame
p850
aVin
p851
aVdiffident
p852
aVdeprecation
p853
aV.
aa(lp854
V``
p855
aVwe
p856
aVreally
p857
aVmust
p858
aVdo
p859
aVsomething
p860
aVabo
p861
aaa(lp862
(lp863
Ve
aVoutbuildings
p864
aV.
aa(lp865
Vas
p866
aVthey
p867
aVrecrossed
p868
aVthe
p869
aVlawn
p870
aV,
aVa
aVwindow
p871
aVthat
p872
aVhad
p873
aVbeen
p874
aVdark
p875
aVwas
p876
aVlighted
p877
aVand
p878
aVmiss
p879
aVemily
p880
aVsat
p881
aVin
p882
aVit
p883
aV,
aVthe
p884
aVlight
p885
aVbehind
p886
aVher
p887
aV,
aVand
p888
aVher
p889
aVupright
p890
aVtorso
p891
aVmotionless
p892
aVas
p893
aVthat
p894
aVof
p895
aVan
p896
aVidol
p897
aV.
aa(lp898
Vthey
p899
aVcrept
p900
aVquietly
p901
aVacross
p902
aVthe
p903
aVlawn
p904
aVand
p905
aVinto
p906
aVthe
p907
aVshadow
p908
aVof
p909
aVthe
p910
aVlocusts
p911
aVthat
p912
aVlined
p913
aVthe
p914
aVstreet
p915
aV.
aa(lp916
Vafter
p917
aVa
aVweek
p918
aVor
p919
aVtwo
p920
aVthe
p921
aVsmell
p922
aVwent
p923
aVaway
p924
aV.
aa(lp925
Vthat
p926
aVwas
p927
aVwhen
p928
aVpeople
p929
aVhad
p930
aVbegun
p931
aVto
p932
aVfeel
p933
aVreally
p934
aVsorry
p935
aVfor
p936
aVher
p937
aV.
aa(lp938
Vpeople
p939
aVin
p940
aVour
p941
aVtown
p942
aV,
aVremembering
p943
aVhow
p944
aVold
p945
aVlady
p946
aVwyatt
p947
aV,
aVher
p948
aVgreat-aunt
p949
aV,
aVhad
p950
aVgone
p951
aVcompletely
p952
aVcrazy
p953
aVat
p954
aVlast
p955
aV,
aVbelieved
p956
aVthat
p957
aVthe
p958
aVgriersons
p959
aVheld
p960
aVthemselves
p961
aVa
aVlittle
p962
aVtoo
p963
aVhigh
p964
aVfor
p965
aVwhat
p966
aVthey
p967
aVreally
p968
aVwere
p969
aV.
aa(lp970
Vnone
p971
aVof
p972
aVthe
p973
aVyoung
p974
aVmen
p975
aVwere
p976
aVquite
p977
aVgood
p978
aVenough
p979
aVfor
p980
aVmiss
p981
aVemily
p982
aVand
p983
aVsuch
p984
aV.
aa(lp985
Vwe
p986
aVhad
p987
aVlong
p988
aVthought
p989
aVof
p990
aVthem
p991
aVas
p992
aVa
aVtableau
p993
aV,
aVmiss
p994
aVemily
p995
aVa
aVslender
p996
aVfigure
p997
aVin
p998
aVwhite
p999
aVin
p1000
aVthe
p1001
aVbackground
p1002
aV,
aVher
p1003
aVfather
p1004
aVa
aVspraddled
p1005
aVsilhouette
p1006
aVin
p1007
aVthe
p1008
aVforeground
p1009
aV,
aVhis
p1010
aVback
p1011
aVto
p1012
aVher
p1013
aVand
p1014
aVclutching
p1015
aVa
aVhorsewhip
p1016
aV,
aVthe
p1017
aVtwo
p1018
aVof
p1019
aVthem
p1020
aVframed
p1021
aVby
p1022
aVthe
p1023
aVback-flung
p1024
aVfront
p1025
aVdoor
p1026
aV.
aa(lp1027
Vso
p1028
aVwhen
p1029
aVshe
p1030
aVgot
p1031
aVto
p1032
aVbe
p1033
aVthirty
p1034
aVand
p1035
aVwas
p1036
aVstill
p1037
aVsingle
p1038
aV,
aVwe
p1039
aVwere
p1040
aVnot
p1041
aVpleased
p1042
aVexactly
p1043
aV,
aVbut
p1044
aVvindicated
p1045
aV;
aVeven
p1046
aVwith
p1047
aVinsanity
p1048
aVin
p1049
aVth
p1050
aaa(lp1051
(lp1052
Vear
p1053
aVhim
p1054
aVcuss
p1055
aVthe
p1056
aVniggers
p1057
aV,
aVand
p1058
aVthe
p1059
aVniggers
p1060
aVsinging
p1061
aVin
p1062
aVtime
p1063
aVto
p1064
aVthe
p1065
aVrise
p1066
aVand
p1067
aVfall
p1068
aVof
p1069
aVpicks
p1070
aV.
aa(lp1071
Vpretty
p1072
aVsoon
p1073
aVhe
p1074
aVknew
p1075
aVeverybody
p1076
aVin
p1077
aVtown
p1078
aV.
aa(lp1079
Vwhenever
p1080
aVyou
p1081
aVheard
p1082
aVa
aVlot
p1083
aVof
p1084
aVlaughing
p1085
aVanywhere
p1086
aVabout
p1087
aVthe
p1088
aVsquare
p1089
aV,
aVhomer
p1090
aVbarron
p1091
aVwould
p1092
aVbe
p1093
aVin
p1094
aVthe
p1095
aVcenter
p1096
aVof
p1097
aVthe
p1098
aVgroup
p1099
aV.
aa(lp1100
Vpresently
p1101
aVwe
p1102
aVbegan
p1103
aVto
p1104
aVsee
p1105
aVhim
p1106
aVand
p1107
aVmiss
p1108
aVemily
p1109
aVon
p1110
aVsunday
p1111
aVafternoons
p1112
aVdriving
p1113
aVin
p1114
aVthe
p1115
aVyellow-wheeled
p1116
aVbuggy
p1117
aVand
p1118
aVthe
p1119
aVmatched
p1120
aVteam
p1121
aVof
p1122
aVbays
p1123
aVfrom
p1124
aVthe
p1125
aVlivery
p1126
aVstable
p1127
aV.
aa(lp1128
Vat
p1129
aVfirst
p1130
aVwe
p1131
aVwere
p1132
aVglad
p1133
aVthat
p1134
aVmiss
p1135
aVemily
p1136
aVwould
p1137
aVhave
p1138
aVan
p1139
aVinterest
p1140
aV,
aVbecause
p1141
aVthe
p1142
aVladies
p1143
aVall
p1144
aVsaid
p1145
aV,
aV``
p1146
aVof
p1147
aVcourse
p1148
aVa
aVgrierson
p1149
aVwould
p1150
aVnot
p1151
aVthink
p1152
aVseriously
p1153
aVof
p1154
aVa
aVnortherner
p1155
aV,
aVa
aVday
p1156
aVlaborer
p1157
aV.
aV''
p1158
aa(lp1159
Vbut
p1160
aVthere
p1161
aVwere
p1162
aVstill
p1163
aVothers
p1164
aV,
aVolder
p1165
aVpeople
p1166
aV,
aVwho
p1167
aVsaid
p1168
aVthat
p1169
aVeven
p1170
aVgrief
p1171
aVcould
p1172
aVnot
p1173
aVcause
p1174
aVa
aVreal
p1175
aVlady
p1176
aVto
p1177
aVforget
p1178
aVnoblesse
p1179
aVoblige-
p1180
aV-
aVwithout
p1181
aVcalling
p1182
aVit
p1183
aVnoblesse
p1184
aVoblige
p1185
aV.
aa(lp1186
Vthey
p1187
aVjust
p1188
aVsaid
p1189
aV,
aV``
p1190
aVpoor
p1191
aVemily
p1192
aV.
aa(lp1193
Vher
p1194
aVkinsfolk
p1195
aVshould
p1196
aVcome
p1197
aVto
p1198
aVher
p1199
aV.
aV''
p1200
aa(lp1201
Vshe
p1202
aVhad
p1203
aVsome
p1204
aVkin
p1205
aVin
p1206
aValabama
p1207
aV;
aVbut
p1208
aVyears
p1209
aVago
p1210
aVher
p1211
aVfather
p1212
aVhad
p1213
aVfallen
p1214
aVout
p1215
aVwith
p1216
aVthem
p1217
aVover
p1218
aVthe
p1219
aVestate
p1220
aVof
p1221
aVold
p1222
aVlady
p1223
aVwyatt
p1224
aV,
aVthe
p1225
aVcrazy
p1226
aVwoman
p1227
aV,
aVand
p1228
aVthere
p1229
aVwas
p1230
aVno
p1231
aVcommunication
p1232
aVbetween
p1233
aVthe
p1234
aVtwo
p1235
aVfamilies
p1236
aV.
aa(lp1237
Vthey
p1238
aVhad
p1239
aVnot
p1240
aVeven
p1241
aVbeen
p1242
aVrepre
p1243
aaa(lp1244
(lp1245
Veople
p1246
aVsaid
p1247
aV,
aV``
p1248
aVpoor
p1249
aVemily
p1250
aV,
aV''
p1251
aVthe
p1252
aVwhispering
p1253
aVbegan
p1254
aV.
aa(lp1255
V``
p1256
aVdo
p1257
aVyou
p1258
aVsuppose
p1259
aVit
p1260
aV's
p1261
aVreally
p1262
aVso
p1263
aV?
aV''
p1264
aa(lp1265
Vthey
p1266
aVsaid
p1267
aVto
p1268
aVone
p1269
aVanother
p1270
aV.
aa(lp1271
V``
p1272
aVof
p1273
aVcourse
p1274
aVit
p1275
aVis
p1276
aV.
aa(lp1277
Vwhat
p1278
aVelse
p1279
aVcould
p1280
aV.
aa(lp1281
V.
aa(lp1282
V.
aV''
p1283
aa(lp1284
Vthis
p1285
aVbehind
p1286
aVtheir
p1287
aVhands
p1288
aV;
aVrustling
p1289
aVof
p1290
aVcraned
p1291
aVsilk
p1292
aVand
p1293
aVsatin
p1294
aVbehind
p1295
aVjalousies
p1296
aVclosed
p1297
aVupon
p1298
aVthe
p1299
aVsun
p1300
aVof
p1301
aVsunday
p1302
aVafternoon
p1303
aVas
p1304
aVthe
p1305
aVthin
p1306
aV,
aVswift
p1307
aVclop-clop-clop
p1308
aVof
p1309
aVthe
p1310
aVmatched
p1311
aVteam
p1312
aVpassed
p1313
aV:
aV``
p1314
aVpoor
p1315
aVemily
p1316
aV.
aV''
p1317
aa(lp1318
Vshe
p1319
aVcarried
p1320
aVher
p1321
aVhead
p1322
aVhigh
p1323
aVenough
p1324
aV--
p1325
aVeven
p1326
aVwhen
p1327
aVwe
p1328
aVbelieved
p1329
aVthat
p1330
aVshe
p1331
aVwas
p1332
aVfallen
p1333
aV.
aa(lp1334
Vit
p1335
aVwas
p1336
aVas
p1337
aVif
p1338
aVshe
p1339
aVdemanded
p1340
aVmore
p1341
aVthan
p1342
aVever
p1343
aVthe
p1344
aVrecognition
p1345
aVof
p1346
aVher
p1347
aVdignity
p1348
aVas
p1349
aVthe
p1350
aVlast
p1351
aVgrierson
p1352
aV;
aVas
p1353
aVif
p1354
aVit
p1355
aVhad
p1356
aVwanted
p1357
aVthat
p1358
aVtouch
p1359
aVof
p1360
aVearthiness
p1361
aVto
p1362
aVreaffirm
p1363
aVher
p1364
aVimperviousness
p1365
aV.
aa(lp1366
Vlike
p1367
aVwhen
p1368
aVshe
p1369
aVbought
p1370
aVthe
p1371
aVrat
p1372
aVpoison
p1373
aV,
aVthe
p1374
aVarsenic
p1375
aV.
aa(lp1376
Vthat
p1377
aVwas
p1378
aVover
p1379
aVa
aVyear
p1380
aVafter
p1381
aVthey
p1382
aVhad
p1383
aVbegun
p1384
aVto
p1385
aVsay
p1386
aV``
p1387
aVpoor
p1388
aVemily
p1389
aV,
aV''
p1390
aVand
p1391
aVwhile
p1392
aVthe
p1393
aVtwo
p1394
aVfemale
p1395
aVcousins
p1396
aVwere
p1397
aVvisiting
p1398
aVher
p1399
aV.
aa(lp1400
V``
p1401
aVi
aVwant
p1402
aVsome
p1403
aVpoison
p1404
aV,
aV''
p1405
aVshe
p1406
aVsaid
p1407
aVto
p1408
aVthe
p1409
aVdruggist
p1410
aV.
aa(lp1411
Vshe
p1412
aVwas
p1413
aVover
p1414
aVthirty
p1415
aVthen
p1416
aV,
aVstill
p1417
aVa
aVslight
p1418
aVwoman
p1419
aV,
aVthough
p1420
aVthinner
p1421
aVthan
p1422
aVusual
p1423
aV,
aVwith
p1424
aVcold
p1425
aV,
aVhaughty
p1426
aVblack
p1427
aVeyes
p1428
aVin
p1429
aVa
aVface
p1430
aVthe
p1431
aVflesh
p1432
aVof
p1433
aVwhich
p1434
aVwas
p1435
aVstrained
p1436
aVacross
p1437
aVthe
p1438
aVtemples
p1439
aVand
p1440
aVabout
p1441
aVthe
p1442
aVeyesockets
p1443
aVas
p1444
aVyou
p1445
aVimagine
p1446
aVa
aaa(lp1447
(lp1448
Vad
p1449
aVblood-kin
p1450
aVunder
p1451
aVher
p1452
aVroof
p1453
aVagain
p1454
aVand
p1455
aVwe
p1456
aVsat
p1457
aVback
p1458
aVto
p1459
aVwatch
p1460
aVdevelopments
p1461
aV.
aa(lp1462
Vat
p1463
aVfirst
p1464
aVnothing
p1465
aVhappened
p1466
aV.
aa(lp1467
Vthen
p1468
aVwe
p1469
aVwere
p1470
aVsure
p1471
aVthat
p1472
aVthey
p1473
aVwere
p1474
aVto
p1475
aVbe
p1476
aVmarried
p1477
aV.
aa(lp1478
Vwe
p1479
aVlearned
p1480
aVthat
p1481
aVmiss
p1482
aVemily
p1483
aVhad
p1484
aVbeen
p1485
aVto
p1486
aVthe
p1487
aVjeweler
p1488
aV's
p1489
aVand
p1490
aVordered
p1491
aVa
aVman
p1492
aV's
p1493
aVtoilet
p1494
aVset
p1495
aVin
p1496
aVsilver
p1497
aV,
aVwith
p1498
aVthe
p1499
aVletters
p1500
aVh.
p1501
aVb.
p1502
aVon
p1503
aVeach
p1504
aVpiece
p1505
aV.
aa(lp1506
Vtwo
p1507
aVdays
p1508
aVlater
p1509
aVwe
p1510
aVlearned
p1511
aVthat
p1512
aVshe
p1513
aVhad
p1514
aVbought
p1515
aVa
aVcomplete
p1516
aVoutfit
p1517
aVof
p1518
aVmen
p1519
aV's
p1520
aVclothing
p1521
aV,
aVincluding
p1522
aVa
aVnightshirt
p1523
aV,
aVand
p1524
aVwe
p1525
aVsaid
p1526
aV,
aV``
p1527
aVthey
p1528
aVare
p1529
aVmarried
p1530
aV.
aV''
p1531
aa(lp1532
Vwe
p1533
aVwere
p1534
aVreally
p1535
aVglad
p1536
aV.
aa(lp1537
Vwe
p1538
aVwere
p1539
aVglad
p1540
aVbecause
p1541
aVthe
p1542
aVtwo
p1543
aVfemale
p1544
aVcousins
p1545
aVwere
p1546
aVeven
p1547
aVmore
p1548
aVgrierson
p1549
aVthan
p1550
aVmiss
p1551
aVemily
p1552
aVhad
p1553
aVever
p1554
aVbeen
p1555
aV.
aa(lp1556
Vso
p1557
aVwe
p1558
aVwere
p1559
aVnot
p1560
aVsurprised
p1561
aVwhen
p1562
aVhomer
p1563
aVbarron
p1564
aV--
p1565
aVthe
p1566
aVstreets
p1567
aVhad
p1568
aVbeen
p1569
aVfinished
p1570
aVsome
p1571
aVtime
p1572
aVsince
p1573
aV--
p1574
aVwas
p1575
aVgone
p1576
aV.
aa(lp1577
Vwe
p1578
aVwere
p1579
aVa
aVlittle
p1580
aVdisappointed
p1581
aVthat
p1582
aVthere
p1583
aVwas
p1584
aVnot
p1585
aVa
aVpublic
p1586
aVblowing-off
p1587
aV,
aVbut
p1588
aVwe
p1589
aVbelieved
p1590
aVthat
p1591
aVhe
p1592
aVhad
p1593
aVgone
p1594
aVon
p1595
aVto
p1596
aVprepare
p1597
aVfor
p1598
aVmiss
p1599
aVemily
p1600
aV's
p1601
aVcoming
p1602
aV,
aVor
p1603
aVto
p1604
aVgive
p1605
aVher
p1606
aVa
aVchance
p1607
aVto
p1608
aVget
p1609
aVrid
p1610
aVof
p1611
aVthe
p1612
aVcousins
p1613
aV.
aa(lp1614
V(
aVby
p1615
aVthat
p1616
aVtime
p1617
aVit
p1618
aVwas
p1619
aVa
aVcabal
p1620
aV,
aVand
p1621
aVwe
p1622
aVwere
p1623
aVall
p1624
aVmiss
p1625
aVemily
p1626
aV's
p1627
aVallies
p1628
aVto
p1629
aVhelp
p1630
aVcircumvent
p1631
aVthe
p1632
aVcousins
p1633
aV.
aV)
aa(lp1634
Vsure
p1635
aVenough
p1636
aV,
aVafter
p1637
aVanother
p1638
aVweek
p1639
aVthey
p1640
aVdeparted
p1641
aV.
aa(lp1642
Vand
p1643
aV,
aVas
p1644
aVwe
p1645
aVhad
p1646
aVexpected
p1647
aVall
p1648
aaasg464
NssS'tobe'
p1649
(dp1650
g20
(lp1651
(lp1652
V[
aVCHARACTER
p1653
aV]
aV-
aVemily
p1654
aV's
p1655
aVservant
p1656
aV.
aa(lp1657
V[
aVCHARACTER
p1658
aV]
aV,
aVhis
p1659
aVvoice
p1660
aVsupposedly
p1661
aVrusty
p1662
aVfrom
p1663
aVlack
p1664
aVof
p1665
aVuse
p1666
aV,
aVis
p1667
aVthe
p1668
aVonly
p1669
aVlifeline
p1670
aVthat
p1671
aVemily
p1672
aVhas
p1673
aVto
p1674
aVthe
p1675
aVoutside
p1676
aVworld
p1677
aV.
aa(lp1678
Vfor
p1679
aVyears
p1680
aV,
aVhe
p1681
aVdutifully
p1682
aVcares
p1683
aVfor
p1684
aVher
p1685
aVand
p1686
aVtends
p1687
aVto
p1688
aVher
p1689
aVneeds
p1690
aV.
aa(lp1691
Veventually
p1692
aVthe
p1693
aVtownspeople
p1694
aVstop
p1695
aVgrilling
p1696
aVhim
p1697
aVfor
p1698
aVinformation
p1699
aVabout
p1700
aVemily
p1701
aV.
aa(lp1702
Vafter
p1703
aVemily
p1704
aV's
p1705
aVdeath
p1706
aV,
aVhe
p1707
aVwalks
p1708
aVout
p1709
aVthe
p1710
aVback
p1711
aVdoor
p1712
aVand
p1713
aVnever
p1714
aVreturns
p1715
aV.
aasg77
(lp1716
(lp1717
(lp1718
Vves
p1719
aV.
aV''
p1720
aa(lp1721
V``
p1722
aVbut
p1723
aVwe
p1724
aVhave
p1725
aV.
aa(lp1726
Vwe
p1727
aVare
p1728
aVthe
p1729
aVcity
p1730
aVauthorities
p1731
aV,
aVmiss
p1732
aVemily
p1733
aV.
aa(lp1734
Vdid
p1735
aVn't
p1736
aVyou
p1737
aVget
p1738
aVa
aVnotice
p1739
aVfrom
p1740
aVthe
p1741
aVsheriff
p1742
aV,
aVsigned
p1743
aVby
p1744
aVhim
p1745
aV?
aV''
p1746
aa(lp1747
V``
p1748
aVi
aVreceived
p1749
aVa
aVpaper
p1750
aV,
aVyes
p1751
aV,
aV''
p1752
aVmiss
p1753
aVemily
p1754
aVsaid
p1755
aV.
aa(lp1756
V``
p1757
aVperhaps
p1758
aVhe
p1759
aVconsiders
p1760
aVhimself
p1761
aVthe
p1762
aVsheriff
p1763
aV.
aa(lp1764
V.
aa(lp1765
V.
aa(lp1766
Vi
aVhave
p1767
aVno
p1768
aVtaxes
p1769
aVin
p1770
aVjefferson
p1771
aV.
aV''
p1772
aa(lp1773
V``
p1774
aVbut
p1775
aVthere
p1776
aVis
p1777
aVnothing
p1778
aVon
p1779
aVthe
p1780
aVbooks
p1781
aVto
p1782
aVshow
p1783
aVthat
p1784
aV,
aVyou
p1785
aVsee
p1786
aVwe
p1787
aVmust
p1788
aVgo
p1789
aVby
p1790
aVthe
p1791
aV--
p1792
aV''
p1793
aV''
p1794
aVsee
p1795
aVcolonel
p1796
aVsartoris
p1797
aV.
aa(lp1798
Vi
aVhave
p1799
aVno
p1800
aVtaxes
p1801
aVin
p1802
aVjefferson
p1803
aV.
aV''
p1804
aa(lp1805
V``
p1806
aVbut
p1807
aV,
aVmiss
p1808
aVemily
p1809
aV--
p1810
aV''
p1811
aV''
p1812
aVsee
p1813
aVcolonel
p1814
aVsartoris
p1815
aV.
aV''
p1816
aa(lp1817
V(
aVcolonel
p1818
aVsartoris
p1819
aVhad
p1820
aVbeen
p1821
aVdead
p1822
aValmost
p1823
aVten
p1824
aVyears
p1825
aV.
aV)
aa(lp1826
V``
p1827
aVi
aVhave
p1828
aVno
p1829
aVtaxes
p1830
aVin
p1831
aVjefferson
p1832
aV.
aa(lp1833
Vtobe
p1834
aV!
aV''
p1835
aa(lp1836
Vthe
p1837
aVnegro
p1838
aVappeared
p1839
aV.
aa(lp1840
V``
p1841
aVshow
p1842
aVthese
p1843
aVgentlemen
p1844
aVout
p1845
aV.
aV''
p1846
aa(lp1847
Vii
p1848
aVso
p1849
aVshe
p1850
aVvanquished
p1851
aVthem
p1852
aV,
aVhorse
p1853
aVand
p1854
aVfoot
p1855
aV,
aVjust
p1856
aVas
p1857
aVshe
p1858
aVhad
p1859
aVvanquished
p1860
aVtheir
p1861
aVfathers
p1862
aVthirty
p1863
aVyears
p1864
aVbefore
p1865
aVabout
p1866
aVthe
p1867
aVsmell
p1868
aV.
aa(lp1869
Vthat
p1870
aVwas
p1871
aVtwo
p1872
aVyears
p1873
aVafter
p1874
aVher
p1875
aVfather
p1876
aV's
p1877
aVdeath
p1878
aVand
p1879
aVa
aVshort
p1880
aVtime
p1881
aVafter
p1882
aVher
p1883
aVsweetheart
p1884
aV--
p1885
aVthe
p1886
aVone
p1887
aVwe
p1888
aVbelieved
p1889
aVwould
p1890
aVmarry
p1891
aVher
p1892
aV--
p1893
aVhad
p1894
aVdeserted
p1895
aVher
p1896
aV.
aa(lp1897
Vafter
p1898
aVher
p1899
aVfather
p1900
aV's
p1901
aVdeath
p1902
aVshe
p1903
aVwent
p1904
aVout
p1905
aVvery
p1906
aVlittle
p1907
aV;
aVafter
p1908
aVher
p1909
aVsweetheart
p1910
aVwent
p1911
aVaway
p1912
aV,
aVpeople
p1913
aVhardly
p1914
aVsaw
p1915
aVher
p1916
aVat
p1917
aVall
p1918
aV.
aa(lp1919
Va
aVfew
p1920
aVof
p1921
aVthe
p1922
aVladies
p1923
aVhad
p1924
aVthe
p1925
aVtemerity
p1926
aVto
p1927
aVcall
p1928
aV,
aVbut
p1929
aVwere
p1930
aVnot
p1931
aVreceived
p1932
aV,
aVand
p1933
aVth
p1934
aaasg464
NssS'emily grierson'
p1935
(dp1936
g20
(lp1937
(lp1938
V[
aVCHARACTER
p1939
aV]
aV-
aVthe
p1940
aVobject
p1941
aVof
p1942
aVfascination
p1943
aVin
p1944
aVthe
p1945
aVstory
p1946
aV.
aa(lp1947
Va
aVeccentric
p1948
aVrecluse
p1949
aV,
aVemily
p1950
aVis
p1951
aVa
aVmysterious
p1952
aVfigure
p1953
aVwho
p1954
aVchanges
p1955
aVfrom
p1956
aVa
aVvibrant
p1957
aVand
p1958
aVhopeful
p1959
aVyoung
p1960
aVgirl
p1961
aVto
p1962
aVa
aVcloistered
p1963
aVand
p1964
aVsecretive
p1965
aVold
p1966
aVwoman
p1967
aV.
aa(lp1968
Vdevastated
p1969
aVand
p1970
aValone
p1971
aVafter
p1972
aVher
p1973
aVfather
p1974
aV's
p1975
aVdeath
p1976
aV,
aVshe
p1977
aVis
p1978
aVan
p1979
aVobject
p1980
aVof
p1981
aVpity
p1982
aVfor
p1983
aVthe
p1984
aVtownspeople
p1985
aV.
aa(lp1986
Vafter
p1987
aVa
aVlife
p1988
aVof
p1989
aVhaving
p1990
aVpotential
p1991
aVsuitors
p1992
aVrejected
p1993
aVby
p1994
aVher
p1995
aVfather
p1996
aV,
aVshe
p1997
aVspends
p1998
aVtime
p1999
aVafter
p2000
aVhis
p2001
aVdeath
p2002
aVwith
p2003
aVa
aVnewcomer
p2004
aV,
aVhomer
p2005
aVbarron
p2006
aV,
aValthough
p2007
aVthe
p2008
aVchances
p2009
aVof
p2010
aVhis
p2011
aVmarrying
p2012
aVher
p2013
aVdecrease
p2014
aVas
p2015
aVthe
p2016
aVyears
p2017
aVpass
p2018
aV.
aa(lp2019
Vbloated
p2020
aVand
p2021
aVpallid
p2022
aVin
p2023
aVher
p2024
aVlater
p2025
aVyears
p2026
aV,
aVher
p2027
aVhair
p2028
aVturns
p2029
aVsteel
p2030
aVgray
p2031
aV.
aa(lp2032
Vshe
p2033
aVultimately
p2034
aVpoisons
p2035
aVhomer
p2036
aVand
p2037
aVseals
p2038
aVhis
p2039
aVcorpse
p2040
aVinto
p2041
aVan
p2042
aVupstairs
p2043
aVroom
p2044
aV.
aasg77
(lp2045
(lp2046
(lp2047
Vi
aVwhen
p2048
aVmiss
p2049
aVemily
p2050
aVgrierson
p2051
aVdied
p2052
aV,
aVour
p2053
aVwhole
p2054
aVtown
p2055
aVwent
p2056
aVto
p2057
aVher
p2058
aVfuneral
p2059
aV:
aVthe
p2060
aVmen
p2061
aVthrough
p2062
aVa
aVsort
p2063
aVof
p2064
aVrespectful
p2065
aVaffection
p2066
aVfor
p2067
aVa
aVfallen
p2068
aVmonument
p2069
aV,
aVthe
p2070
aVwomen
p2071
aVmostly
p2072
aVout
p2073
aVof
p2074
aVcuriosity
p2075
aVto
p2076
aVsee
p2077
aVthe
p2078
aVinside
p2079
aVof
p2080
aVher
p2081
aVhouse
p2082
aV,
aVwhich
p2083
aVno
p2084
aVone
p2085
aVsave
p2086
aVan
p2087
aVold
p2088
aVman-servant
p2089
aV--
p2090
aVa
aVcombined
p2091
aVgardener
p2092
aVand
p2093
aVcook
p2094
aV--
p2095
aVhad
p2096
aVseen
p2097
aVin
p2098
aVat
p2099
aVleast
p2100
aVten
p2101
aVyears
p2102
aV.
aa(lp2103
Vit
p2104
aVwas
p2105
aVa
aVbig
p2106
aV,
aVsquarish
p2107
aVframe
p2108
aVhouse
p2109
aVthat
p2110
aVhad
p2111
aVonce
p2112
aVbeen
p2113
aVwhite
p2114
aV,
aVdecorated
p2115
aVwith
p2116
aVcupolas
p2117
aVand
p2118
aVspires
p2119
aVand
p2120
aVscrolled
p2121
aVbalconies
p2122
aVin
p2123
aVthe
p2124
aVheavily
p2125
aVlightsome
p2126
aVstyle
p2127
aVof
p2128
aVthe
p2129
aVseventies
p2130
aV,
aVset
p2131
aVon
p2132
aVwhat
p2133
aVhad
p2134
aVonce
p2135
aVbeen
p2136
aVour
p2137
aVmost
p2138
aVselect
p2139
aVstreet
p2140
aV.
aa(lp2141
Vbut
p2142
aaasg464
(lp2143
(lp2144
V[
aVCHARACTER
p2145
aV]
aVemily
p2146
aVis
p2147
aVthe
p2148
aVclassic
p2149
aVoutsider
p2150
aV,
aVcontrolling
p2151
aVand
p2152
aVlimiting
p2153
aVthe
p2154
aVtown
p2155
aV's
p2156
aVaccess
p2157
aVto
p2158
aVher
p2159
aVtrue
p2160
aVidentity
p2161
aVby
p2162
aVremaining
p2163
aVhidden
p2164
aV.
aa(lp2165
Vthe
p2166
aVhouse
p2167
aVthat
p2168
aVshields
p2169
aVemily
p2170
aVfrom
p2171
aVthe
p2172
aVworld
p2173
aVsuggests
p2174
aVthe
p2175
aVmind
p2176
aVof
p2177
aVthe
p2178
aVwoman
p2179
aVwho
p2180
aVinhabits
p2181
aVit
p2182
aV:
aVshuttered
p2183
aV,
aVdusty
p2184
aV,
aVand
p2185
aVdark
p2186
aV.
aa(lp2187
Vthe
p2188
aVobject
p2189
aVof
p2190
aVthe
p2191
aVtown
p2192
aV's
p2193
aVintense
p2194
aVscrutiny
p2195
aV,
aVemily
p2196
aVis
p2197
aVa
aVmuted
p2198
aVand
p2199
aVmysterious
p2200
aVfigure
p2201
aV.
aa(lp2202
Von
p2203
aVone
p2204
aVlevel
p2205
aV,
aVshe
p2206
aVexhibits
p2207
aVthe
p2208
aVqualities
p2209
aVof
p2210
aVthe
p2211
aVstereotypical
p2212
aVsouthern
p2213
aV``
p2214
aVeccentric
p2215
aV''
p2216
aV:
aVunbalanced
p2217
aV,
aVexcessively
p2218
aVtragic
p2219
aV,
aVand
p2220
aVsubject
p2221
aVto
p2222
aVbizarre
p2223
aVbehavior
p2224
aV.
aa(lp2225
Vemily
p2226
aVenforces
p2227
aVher
p2228
aVown
p2229
aVsense
p2230
aVof
p2231
aVlaw
p2232
aVand
p2233
aVconduct
p2234
aV,
aVsuch
p2235
aVas
p2236
aVwhen
p2237
aVshe
p2238
aVrefuses
p2239
aVto
p2240
aVpay
p2241
aVher
p2242
aVtaxes
p2243
aVor
p2244
aVstate
p2245
aVher
p2246
aVpurpose
p2247
aVfor
p2248
aVbuying
p2249
aVthe
p2250
aVpoison
p2251
aV.
aa(lp2252
Vemily
p2253
aValso
p2254
aVskirts
p2255
aVthe
p2256
aVlaw
p2257
aVwhen
p2258
aVshe
p2259
aVrefuses
p2260
aVto
p2261
aVhave
p2262
aVnumbers
p2263
aVattached
p2264
aVto
p2265
aVher
p2266
aVhouse
p2267
aVwhen
p2268
aVfederal
p2269
aVmail
p2270
aVservice
p2271
aVis
p2272
aVinstituted
p2273
aV.
aa(lp2274
Vher
p2275
aVdismissal
p2276
aVof
p2277
aVthe
p2278
aVlaw
p2279
aVeventually
p2280
aVtakes
p2281
aVon
p2282
aVmore
p2283
aVsinister
p2284
aVconsequences
p2285
aV,
aVas
p2286
aVshe
p2287
aVtakes
p2288
aVthe
p2289
aVlife
p2290
aVof
p2291
aVthe
p2292
aVman
p2293
aVwhom
p2294
aVshe
p2295
aVrefuses
p2296
aVto
p2297
aVallow
p2298
aVto
p2299
aVabandon
p2300
aVher
p2301
aV.
aa(lp2302
Vthe
p2303
aVnarrator
p2304
aVportrays
p2305
aVemily
p2306
aVas
p2307
aVa
aVmonument
p2308
aV,
aVbut
p2309
aVat
p2310
aVthe
p2311
aVsame
p2312
aVtime
p2313
aVshe
p2314
aVis
p2315
aVpitied
p2316
aVand
p2317
aVoften
p2318
aVirritating
p2319
aV,
aVdemanding
p2320
aVto
p2321
aVlive
p2322
aVlife
p2323
aVon
p2324
aVher
p2325
aVown
p2326
aVterms
p2327
aV.
aa(lp2328
Vthe
p2329
aVsubject
p2330
aVof
p2331
aVgossip
p2332
aVand
p2333
aVspeculation
p2334
aV,
aVthe
p2335
aVtownspeople
p2336
aVcluck
p2337
aVtheir
p2338
aVtongues
p2339
aVat
p2340
aVthe
p2341
aVfact
p2342
aVthat
p2343
aVshe
p2344
aVaccepts
p2345
aVhomer
p2346
aV's
p2347
aVattentions
p2348
aVwith
p2349
aVno
p2350
aVfirm
p2351
aVwedding
p2352
aVplans
p2353
aV.
aa(lp2354
Vafter
p2355
aVshe
p2356
aVpurchases
p2357
aVthe
p2358
aVpoison
p2359
aV,
aVthe
p2360
aVtownspeople
p2361
aVconclude
p2362
aVthat
p2363
aVshe
p2364
aVwill
p2365
aVkill
p2366
aVherself
p2367
aV.
aa(lp2368
Vemily
p2369
aV's
p2370
aVinstabilities
p2371
aV,
aVhowever
p2372
aV,
aVlead
p2373
aVher
p2374
aVin
p2375
aVa
aVdifferent
p2376
aVdirection
p2377
aV,
aVand
p2378
aVthe
p2379
aVfinal
p2380
aVscene
p2381
aVof
p2382
aVthe
p2383
aVstory
p2384
aVsuggests
p2385
aVthat
p2386
aVshe
p2387
aVis
p2388
aVa
aVnecrophiliac
p2389
aV.
aa(lp2390
Vnecrophilia
p2391
aVtypically
p2392
aVmeans
p2393
aVa
aVsexual
p2394
aVattraction
p2395
aVto
p2396
aVdead
p2397
aVbodies
p2398
aV.
aa(lp2399
Vin
p2400
aVa
aVbroader
p2401
aVsense
p2402
aV,
aVthe
p2403
aVterm
p2404
aValso
p2405
aVdescribes
p2406
aVa
aVpowerful
p2407
aVdesire
p2408
aVto
p2409
aVcontrol
p2410
aVanother
p2411
aV,
aVusually
p2412
aVin
p2413
aVthe
p2414
aVcontext
p2415
aVof
p2416
aVa
aVromantic
p2417
aVor
p2418
aVdeeply
p2419
aVpersonal
p2420
aVrelationship
p2421
aV.
aa(lp2422
Vnecrophiliacs
p2423
aVtend
p2424
aVto
p2425
aVbe
p2426
aVso
p2427
aVcontrolling
p2428
aVin
p2429
aVtheir
p2430
aVrelationships
p2431
aVthat
p2432
aVthey
p2433
aVultimately
p2434
aVresort
p2435
aVto
p2436
aVbonding
p2437
aVwith
p2438
aVunresponsive
p2439
aVentities
p2440
aVwith
p2441
aVno
p2442
aVresistance
p2443
aVor
p2444
aVwill
p2445
aV--
p2446
aVin
p2447
aVother
p2448
aVwords
p2449
aV,
aVwith
p2450
aVdead
p2451
aVbodies
p2452
aV.
aa(lp2453
Vmr.
p2454
aVgrierson
p2455
aVcontrolled
p2456
aVemily
p2457
aV,
aVand
p2458
aVafter
p2459
aVhis
p2460
aVdeath
p2461
aV,
aVemily
p2462
aVtemporarily
p2463
aVcontrols
p2464
aVhim
p2465
aVby
p2466
aVrefusing
p2467
aVto
p2468
aVgive
p2469
aVup
p2470
aVhis
p2471
aVdead
p2472
aVbody
p2473
aV.
aa(lp2474
Vshe
p2475
aVultimately
p2476
aVtransfers
p2477
aVthis
p2478
aVcontrol
p2479
aVto
p2480
aVhomer
p2481
aV,
aVthe
p2482
aVobject
p2483
aVof
p2484
aVher
p2485
aVaffection
p2486
aV.
aa(lp2487
Vunable
p2488
aVto
p2489
aVfind
p2490
aVa
aVtraditional
p2491
aVway
p2492
aVto
p2493
aVexpress
p2494
aVher
p2495
aVdesire
p2496
aVto
p2497
aVpossess
p2498
aVhomer
p2499
aV,
aVemily
p2500
aVtakes
p2501
aVhis
p2502
aVlife
p2503
aVto
p2504
aVachieve
p2505
aVtotal
p2506
aVpower
p2507
aVover
p2508
aVhim
p2509
aV.
aassS'colonel sartoris'
p2510
(dp2511
g20
(lp2512
(lp2513
V[
aVCHARACTER
p2514
aV]
aV-
aVa
aVformer
p2515
aVmayor
p2516
aVof
p2517
aVjefferson
p2518
aV.
aa(lp2519
V[
aVCHARACTER
p2520
aV]
aVabsolves
p2521
aVemily
p2522
aVof
p2523
aVany
p2524
aVtax
p2525
aVburden
p2526
aVafter
p2527
aVthe
p2528
aVdeath
p2529
aVof
p2530
aVher
p2531
aVfather
p2532
aV.
aa(lp2533
Vhis
p2534
aVelaborate
p2535
aVand
p2536
aVbenevolent
p2537
aVgesture
p2538
aVis
p2539
aVnot
p2540
aVheeded
p2541
aVby
p2542
aVthe
p2543
aVsucceeding
p2544
aVgeneration
p2545
aVof
p2546
aVtown
p2547
aVleaders
p2548
aV.
aasg77
(lp2549
(lp2550
(lp2551
Vwas
p2552
aVleft
p2553
aV,
aVlifting
p2554
aVits
p2555
aVstubborn
p2556
aVand
p2557
aVcoquettish
p2558
aVdecay
p2559
aVabove
p2560
aVthe
p2561
aVcotton
p2562
aVwagons
p2563
aVand
p2564
aVthe
p2565
aVgasoline
p2566
aVpumps-an
p2567
aVeyesore
p2568
aVamong
p2569
aVeyesores
p2570
aV.
aa(lp2571
Vand
p2572
aVnow
p2573
aVmiss
p2574
aVemily
p2575
aVhad
p2576
aVgone
p2577
aVto
p2578
aVjoin
p2579
aVthe
p2580
aVrepresentatives
p2581
aVof
p2582
aVthose
p2583
aVaugust
p2584
aVnames
p2585
aVwhere
p2586
aVthey
p2587
aVlay
p2588
aVin
p2589
aVthe
p2590
aVcedar-bemused
p2591
aVcemetery
p2592
aVamong
p2593
aVthe
p2594
aVranked
p2595
aVand
p2596
aVanonymous
p2597
aVgraves
p2598
aVof
p2599
aVunion
p2600
aVand
p2601
aVconfederate
p2602
aVsoldiers
p2603
aVwho
p2604
aVfell
p2605
aVat
p2606
aVthe
p2607
aVbattle
p2608
aVof
p2609
aVjefferson
p2610
aV.
aa(lp2611
Valive
p2612
aV,
aVmiss
p2613
aVemily
p2614
aVhad
p2615
aVbeen
p2616
aVa
aVtradition
p2617
aV,
aVa
aVduty
p2618
aV,
aVand
p2619
aVa
aVcare
p2620
aV;
aVa
aVsort
p2621
aVof
p2622
aVhereditary
p2623
aVobligation
p2624
aVupon
p2625
aVthe
p2626
aVtown
p2627
aV,
aVdating
p2628
aVfrom
p2629
aVthat
p2630
aVday
p2631
aVin
p2632
aV1894
p2633
aVwhen
p2634
aVcolonel
p2635
aVsartoris
p2636
aV,
aVthe
p2637
aVmayor
p2638
aV--
p2639
aVhe
p2640
aVwho
p2641
aVfathered
p2642
aVthe
p2643
aVedict
p2644
aVthat
p2645
aVno
p2646
aVnegro
p2647
aVwoman
p2648
aVshould
p2649
aVappear
p2650
aVon
p2651
aVthe
p2652
aVstreets
p2653
aVwithout
p2654
aVan
p2655
aVapron-remitted
p2656
aVher
p2657
aVtaxes
p2658
aV,
aVthe
p2659
aVdispensation
p2660
aVdating
p2661
aVfrom
p2662
aVthe
p2663
aVdeath
p2664
aVof
p2665
aVher
p2666
aVfather
p2667
aVon
p2668
aVinto
p2669
aVperpetuity
p2670
aV.
aa(lp2671
Vnot
p2672
aVthat
p2673
aVmiss
p2674
aVemily
p2675
aVwould
p2676
aVhave
p2677
aVaccepted
p2678
aVcharity
p2679
aV.
aa(lp2680
Vcolonel
p2681
aVsartoris
p2682
aVinvented
p2683
aVan
p2684
aVinvolved
p2685
aVtale
p2686
aVto
p2687
aVthe
p2688
aVeffect
p2689
aVthat
p2690
aVmiss
p2691
aVemily
p2692
aV's
p2693
aVfather
p2694
aVhad
p2695
aVloaned
p2696
aVmoney
p2697
aVto
p2698
aVthe
p2699
aVtown
p2700
aV,
aVwhich
p2701
aVthe
p2702
aVtown
p2703
aV,
aVas
p2704
aVa
aVmatter
p2705
aVof
p2706
aVbusiness
p2707
aV,
aVpreferred
p2708
aVthis
p2709
aVway
p2710
aVof
p2711
aVrepaying
p2712
aV.
aa(lp2713
Vonly
p2714
aVa
aVman
p2715
aVof
p2716
aVcolonel
p2717
aVsartoris
p2718
aV'
aVgeneration
p2719
aVand
p2720
aVthought
p2721
aVcould
p2722
aVhave
p2723
aVin
p2724
aaa(lp2725
(lp2726
Vin
p2727
aVmotionless
p2728
aVwater
p2729
aV,
aVand
p2730
aVof
p2731
aVthat
p2732
aVpallid
p2733
aVhue
p2734
aV.
aa(lp2735
Vher
p2736
aVeyes
p2737
aV,
aVlost
p2738
aVin
p2739
aVthe
p2740
aVfatty
p2741
aVridges
p2742
aVof
p2743
aVher
p2744
aVface
p2745
aV,
aVlooked
p2746
aVlike
p2747
aVtwo
p2748
aVsmall
p2749
aVpieces
p2750
aVof
p2751
aVcoal
p2752
aVpressed
p2753
aVinto
p2754
aVa
aVlump
p2755
aVof
p2756
aVdough
p2757
aVas
p2758
aVthey
p2759
aVmoved
p2760
aVfrom
p2761
aVone
p2762
aVface
p2763
aVto
p2764
aVanother
p2765
aVwhile
p2766
aVthe
p2767
aVvisitors
p2768
aVstated
p2769
aVtheir
p2770
aVerrand
p2771
aV.
aa(lp2772
Vshe
p2773
aVdid
p2774
aVnot
p2775
aVask
p2776
aVthem
p2777
aVto
p2778
aVsit
p2779
aV.
aa(lp2780
Vshe
p2781
aVjust
p2782
aVstood
p2783
aVin
p2784
aVthe
p2785
aVdoor
p2786
aVand
p2787
aVlistened
p2788
aVquietly
p2789
aVuntil
p2790
aVthe
p2791
aVspokesman
p2792
aVcame
p2793
aVto
p2794
aVa
aVstumbling
p2795
aVhalt
p2796
aV.
aa(lp2797
Vthen
p2798
aVthey
p2799
aVcould
p2800
aVhear
p2801
aVthe
p2802
aVinvisible
p2803
aVwatch
p2804
aVticking
p2805
aVat
p2806
aVthe
p2807
aVend
p2808
aVof
p2809
aVthe
p2810
aVgold
p2811
aVchain
p2812
aV.
aa(lp2813
Vher
p2814
aVvoice
p2815
aVwas
p2816
aVdry
p2817
aVand
p2818
aVcold
p2819
aV.
aa(lp2820
V``
p2821
aVi
aVhave
p2822
aVno
p2823
aVtaxes
p2824
aVin
p2825
aVjefferson
p2826
aV.
aa(lp2827
Vcolonel
p2828
aVsartoris
p2829
aVexplained
p2830
aVit
p2831
aVto
p2832
aVme
p2833
aV.
aa(lp2834
Vperhaps
p2835
aVone
p2836
aVof
p2837
aVyou
p2838
aVcan
p2839
aVgain
p2840
aVaccess
p2841
aVto
p2842
aVthe
p2843
aVcity
p2844
aVrecords
p2845
aVand
p2846
aVsatisfy
p2847
aVyourselves
p2848
aV.
aV''
p2849
aa(lp2850
V``
p2851
aVbut
p2852
aVwe
p2853
aVhave
p2854
aV.
aa(lp2855
Vwe
p2856
aVare
p2857
aVthe
p2858
aVcity
p2859
aVauthorities
p2860
aV,
aVmiss
p2861
aVemily
p2862
aV.
aa(lp2863
Vdid
p2864
aVn't
p2865
aVyou
p2866
aVget
p2867
aVa
aVnotice
p2868
aVfrom
p2869
aVthe
p2870
aVsheriff
p2871
aV,
aVsigned
p2872
aVby
p2873
aVhim
p2874
aV?
aV''
p2875
aa(lp2876
V``
p2877
aVi
aVreceived
p2878
aVa
aVpaper
p2879
aV,
aVyes
p2880
aV,
aV''
p2881
aVmiss
p2882
aVemily
p2883
aVsaid
p2884
aV.
aa(lp2885
V``
p2886
aVperhaps
p2887
aVhe
p2888
aVconsiders
p2889
aVhimself
p2890
aVthe
p2891
aVsheriff
p2892
aV.
aa(lp2893
V.
aa(lp2894
V.
aa(lp2895
Vi
aVhave
p2896
aVno
p2897
aVtaxes
p2898
aVin
p2899
aVjefferson
p2900
aV.
aV''
p2901
aa(lp2902
V``
p2903
aVbut
p2904
aVthere
p2905
aVis
p2906
aVnothing
p2907
aVon
p2908
aVthe
p2909
aVbooks
p2910
aVto
p2911
aVshow
p2912
aVthat
p2913
aV,
aVyou
p2914
aVsee
p2915
aVwe
p2916
aVmust
p2917
aVgo
p2918
aVby
p2919
aVthe
p2920
aV--
p2921
aV''
p2922
aV''
p2923
aVsee
p2924
aVcolonel
p2925
aVsartoris
p2926
aV.
aa(lp2927
Vi
aVhave
p2928
aVno
p2929
aVtaxes
p2930
aVin
p2931
aVjefferson
p2932
aV.
aV''
p2933
aa(lp2934
V``
p2935
aVbut
p2936
aV,
aVmiss
p2937
aVemily
p2938
aV--
p2939
aV''
p2940
aV''
p2941
aVsee
p2942
aVcolone
p2943
aaa(lp2944
(lp2945
Vl
aVsartoris
p2946
aV.
aV''
p2947
aa(lp2948
V(
aVcolonel
p2949
aVsartoris
p2950
aVhad
p2951
aVbeen
p2952
aVdead
p2953
aValmost
p2954
aVten
p2955
aVyears
p2956
aV.
aV)
aa(lp2957
V``
p2958
aVi
aVhave
p2959
aVno
p2960
aVtaxes
p2961
aVin
p2962
aVjefferson
p2963
aV.
aa(lp2964
Vtobe
p2965
aV!
aV''
p2966
aa(lp2967
Vthe
p2968
aVnegro
p2969
aVappeared
p2970
aV.
aa(lp2971
V``
p2972
aVshow
p2973
aVthese
p2974
aVgentlemen
p2975
aVout
p2976
aV.
aV''
p2977
aa(lp2978
Vii
p2979
aVso
p2980
aVshe
p2981
aVvanquished
p2982
aVthem
p2983
aV,
aVhorse
p2984
aVand
p2985
aVfoot
p2986
aV,
aVjust
p2987
aVas
p2988
aVshe
p2989
aVhad
p2990
aVvanquished
p2991
aVtheir
p2992
aVfathers
p2993
aVthirty
p2994
aVyears
p2995
aVbefore
p2996
aVabout
p2997
aVthe
p2998
aVsmell
p2999
aV.
aa(lp3000
Vthat
p3001
aVwas
p3002
aVtwo
p3003
aVyears
p3004
aVafter
p3005
aVher
p3006
aVfather
p3007
aV's
p3008
aVdeath
p3009
aVand
p3010
aVa
aVshort
p3011
aVtime
p3012
aVafter
p3013
aVher
p3014
aVsweetheart
p3015
aV--
p3016
aVthe
p3017
aVone
p3018
aVwe
p3019
aVbelieved
p3020
aVwould
p3021
aVmarry
p3022
aVher
p3023
aV--
p3024
aVhad
p3025
aVdeserted
p3026
aVher
p3027
aV.
aa(lp3028
Vafter
p3029
aVher
p3030
aVfather
p3031
aV's
p3032
aVdeath
p3033
aVshe
p3034
aVwent
p3035
aVout
p3036
aVvery
p3037
aVlittle
p3038
aV;
aVafter
p3039
aVher
p3040
aVsweetheart
p3041
aVwent
p3042
aVaway
p3043
aV,
aVpeople
p3044
aVhardly
p3045
aVsaw
p3046
aVher
p3047
aVat
p3048
aVall
p3049
aV.
aa(lp3050
Va
aVfew
p3051
aaa(lp3052
(lp3053
Vg
aVthe
p3054
aVnext
p3055
aVfew
p3056
aVyears
p3057
aVit
p3058
aVgrew
p3059
aVgrayer
p3060
aVand
p3061
aVgrayer
p3062
aVuntil
p3063
aVit
p3064
aVattained
p3065
aVan
p3066
aVeven
p3067
aVpepper-and-salt
p3068
aViron-gray
p3069
aV,
aVwhen
p3070
aVit
p3071
aVceased
p3072
aVturning
p3073
aV.
aa(lp3074
Vup
p3075
aVto
p3076
aVthe
p3077
aVday
p3078
aVof
p3079
aVher
p3080
aVdeath
p3081
aVat
p3082
aVseventy-four
p3083
aVit
p3084
aVwas
p3085
aVstill
p3086
aVthat
p3087
aVvigorous
p3088
aViron-gray
p3089
aV,
aVlike
p3090
aVthe
p3091
aVhair
p3092
aVof
p3093
aVan
p3094
aVactive
p3095
aVman
p3096
aV.
aa(lp3097
Vfrom
p3098
aVthat
p3099
aVtime
p3100
aVon
p3101
aVher
p3102
aVfront
p3103
aVdoor
p3104
aVremained
p3105
aVclosed
p3106
aV,
aVsave
p3107
aVfor
p3108
aVa
aVperiod
p3109
aVof
p3110
aVsix
p3111
aVor
p3112
aVseven
p3113
aVyears
p3114
aV,
aVwhen
p3115
aVshe
p3116
aVwas
p3117
aVabout
p3118
aVforty
p3119
aV,
aVduring
p3120
aVwhich
p3121
aVshe
p3122
aVgave
p3123
aVlessons
p3124
aVin
p3125
aVchina-painting
p3126
aV.
aa(lp3127
Vshe
p3128
aVfitted
p3129
aVup
p3130
aVa
aVstudio
p3131
aVin
p3132
aVone
p3133
aVof
p3134
aVthe
p3135
aVdownstairs
p3136
aVrooms
p3137
aV,
aVwhere
p3138
aVthe
p3139
aVdaughters
p3140
aVand
p3141
aVgranddaughters
p3142
aVof
p3143
aVcolonel
p3144
aVsartoris
p3145
aV'
aVcontemporaries
p3146
aVwere
p3147
aVsent
p3148
aVto
p3149
aVher
p3150
aVwith
p3151
aVthe
p3152
aVsame
p3153
aVregularity
p3154
aVand
p3155
aVin
p3156
aVthe
p3157
aVsame
p3158
aVspirit
p3159
aVthat
p3160
aVthey
p3161
aVwere
p3162
aVsent
p3163
aVto
p3164
aVchurch
p3165
aVon
p3166
aVsundays
p3167
aVwith
p3168
aVa
aVtwenty-five-cent
p3169
aVpiece
p3170
aVfor
p3171
aVthe
p3172
aVcollection
p3173
aVplate
p3174
aV.
aa(lp3175
Vmeanwhile
p3176
aVher
p3177
aVtaxes
p3178
aVhad
p3179
aVbeen
p3180
aVremitted
p3181
aV.
aa(lp3182
Vthen
p3183
aVthe
p3184
aVnewer
p3185
aVgeneration
p3186
aVbecame
p3187
aVthe
p3188
aVbackbone
p3189
aVand
p3190
aVthe
p3191
aVspirit
p3192
aVof
p3193
aVthe
p3194
aVtown
p3195
aV,
aVand
p3196
aVthe
p3197
aVpainting
p3198
aVpupils
p3199
aVgrew
p3200
aVup
p3201
aVand
p3202
aVfell
p3203
aVaway
p3204
aVand
p3205
aVdid
p3206
aVnot
p3207
aVsend
p3208
aVtheir
p3209
aVchildren
p3210
aVto
p3211
aVher
p3212
aVwith
p3213
aVboxes
p3214
aVof
p3215
aVcolor
p3216
aVand
p3217
aVtedious
p3218
aVbrushes
p3219
aVand
p3220
aVpictures
p3221
aVcut
p3222
aVfrom
p3223
aVthe
p3224
aVladies
p3225
aV'
aVmagazines
p3226
aV.
aa(lp3227
Vthe
p3228
aVfront
p3229
aVdoor
p3230
aVclosed
p3231
aVupon
p3232
aVthe
p3233
aVlast
p3234
aVon
p3235
aaasg464
NssS'homer barron'
p3236
(dp3237
g20
(lp3238
(lp3239
V[
aVCHARACTER
p3240
aV]
aV-
aVa
aVforeman
p3241
aVfrom
p3242
aVthe
p3243
aVnorth
p3244
aV.
aa(lp3245
Vhomer
p3246
aVis
p3247
aVa
aVlarge
p3248
aVman
p3249
aVwith
p3250
aVa
aVdark
p3251
aVcomplexion
p3252
aV,
aVa
aVbooming
p3253
aVvoice
p3254
aV,
aVand
p3255
aVlight-colored
p3256
aVeyes
p3257
aV.
aa(lp3258
Va
aVgruff
p3259
aVand
p3260
aVdemanding
p3261
aVboss
p3262
aV,
aVhe
p3263
aVwins
p3264
aVmany
p3265
aVadmirers
p3266
aVin
p3267
aVjefferson
p3268
aVbecause
p3269
aVof
p3270
aVhis
p3271
aVgregarious
p3272
aVnature
p3273
aVand
p3274
aVgood
p3275
aVsense
p3276
aVof
p3277
aVhumor
p3278
aV.
aa(lp3279
Vhe
p3280
aVdevelops
p3281
aVan
p3282
aVinterest
p3283
aVin
p3284
aVemily
p3285
aVand
p3286
aVtakes
p3287
aVher
p3288
aVfor
p3289
aVsunday
p3290
aVdrives
p3291
aVin
p3292
aVa
aVyellow-wheeled
p3293
aVbuggy
p3294
aV.
aa(lp3295
Vdespite
p3296
aVhis
p3297
aVattributes
p3298
aV,
aVthe
p3299
aVtownspeople
p3300
aVview
p3301
aVhim
p3302
aVas
p3303
aVa
aVpoor
p3304
aV,
aVif
p3305
aVnot
p3306
aVscandalous
p3307
aV,
aVchoice
p3308
aVfor
p3309
aVa
aVmate
p3310
aV.
aa(lp3311
Vhe
p3312
aVdisappears
p3313
aVin
p3314
aVemily
p3315
aV's
p3316
aVhouse
p3317
aVand
p3318
aVdecomposes
p3319
aVin
p3320
aVan
p3321
aVattic
p3322
aVbedroom
p3323
aVafter
p3324
aVshe
p3325
aVkills
p3326
aVhim
p3327
aV.
aasg77
(lp3328
(lp3329
(lp3330
Ving
p3331
aVleft
p3332
aV,
aVshe
p3333
aVwould
p3334
aVhave
p3335
aVto
p3336
aVcling
p3337
aVto
p3338
aVthat
p3339
aVwhich
p3340
aVhad
p3341
aVrobbed
p3342
aVher
p3343
aV,
aVas
p3344
aVpeople
p3345
aVwill
p3346
aV.
aa(lp3347
Viii
p3348
aVshe
p3349
aVwas
p3350
aVsick
p3351
aVfor
p3352
aVa
aVlong
p3353
aVtime
p3354
aV.
aa(lp3355
Vwhen
p3356
aVwe
p3357
aVsaw
p3358
aVher
p3359
aVagain
p3360
aV,
aVher
p3361
aVhair
p3362
aVwas
p3363
aVcut
p3364
aVshort
p3365
aV,
aVmaking
p3366
aVher
p3367
aVlook
p3368
aVlike
p3369
aVa
aVgirl
p3370
aV,
aVwith
p3371
aVa
aVvague
p3372
aVresemblance
p3373
aVto
p3374
aVthose
p3375
aVangels
p3376
aVin
p3377
aVcolored
p3378
aVchurch
p3379
aVwindows
p3380
aV--
p3381
aVsort
p3382
aVof
p3383
aVtragic
p3384
aVand
p3385
aVserene
p3386
aV.
aa(lp3387
Vthe
p3388
aVtown
p3389
aVhad
p3390
aVjust
p3391
aVlet
p3392
aVthe
p3393
aVcontracts
p3394
aVfor
p3395
aVpaving
p3396
aVthe
p3397
aVsidewalks
p3398
aV,
aVand
p3399
aVin
p3400
aVthe
p3401
aVsummer
p3402
aVafter
p3403
aVher
p3404
aVfather
p3405
aV's
p3406
aVdeath
p3407
aVthey
p3408
aVbegan
p3409
aVthe
p3410
aVwork
p3411
aV.
aa(lp3412
Vthe
p3413
aVconstruction
p3414
aVcompany
p3415
aVcame
p3416
aVwith
p3417
aVniggers
p3418
aVand
p3419
aVmules
p3420
aVand
p3421
aVmachinery
p3422
aV,
aVand
p3423
aVa
aVforeman
p3424
aVnamed
p3425
aVhomer
p3426
aVbarron
p3427
aV,
aVa
aVyankee
p3428
aV--
p3429
aVa
aVbig
p3430
aV,
aVdark
p3431
aV,
aVready
p3432
aVman
p3433
aV,
aVwith
p3434
aVa
aVbig
p3435
aVvoice
p3436
aVand
p3437
aVeyes
p3438
aVlighter
p3439
aVthan
p3440
aVhis
p3441
aVface
p3442
aV.
aa(lp3443
Vthe
p3444
aVlittle
p3445
aVboys
p3446
aVwould
p3447
aVfollow
p3448
aVin
p3449
aVgroups
p3450
aVto
p3451
aVhear
p3452
aVhim
p3453
aVcuss
p3454
aVthe
p3455
aVniggers
p3456
aV,
aVand
p3457
aVthe
p3458
aVniggers
p3459
aVsinging
p3460
aVin
p3461
aVtime
p3462
aVto
p3463
aVthe
p3464
aVrise
p3465
aVand
p3466
aVfall
p3467
aVof
p3468
aVpicks
p3469
aV.
aa(lp3470
Vpretty
p3471
aVsoon
p3472
aVhe
p3473
aVknew
p3474
aVeverybody
p3475
aVin
p3476
aVtown
p3477
aV.
aa(lp3478
Vwhenever
p3479
aVyou
p3480
aVheard
p3481
aVa
aVlot
p3482
aVof
p3483
aVlaughing
p3484
aVanywhere
p3485
aVabout
p3486
aVthe
p3487
aVsquare
p3488
aV,
aVhomer
p3489
aVbarron
p3490
aVwould
p3491
aVbe
p3492
aVin
p3493
aVthe
p3494
aVcenter
p3495
aVof
p3496
aVthe
p3497
aVgroup
p3498
aV.
aa(lp3499
Vpresently
p3500
aVwe
p3501
aVbegan
p3502
aVto
p3503
aVsee
p3504
aVhim
p3505
aVand
p3506
aVmiss
p3507
aVemily
p3508
aVon
p3509
aVsunday
p3510
aVafternoons
p3511
aVdriving
p3512
aVin
p3513
aVthe
p3514
aVyellow-wheeled
p3515
aVbuggy
p3516
aVand
p3517
aVthe
p3518
aVmatched
p3519
aVteam
p3520
aVof
p3521
aVbays
p3522
aaa(lp3523
(lp3524
Vgoing
p3525
aVto
p3526
aVuse
p3527
aVit
p3528
aVfor
p3529
aV.
aV''
p3530
aa(lp3531
Vmiss
p3532
aVemily
p3533
aVjust
p3534
aVstared
p3535
aVat
p3536
aVhim
p3537
aV,
aVher
p3538
aVhead
p3539
aVtilted
p3540
aVback
p3541
aVin
p3542
aVorder
p3543
aVto
p3544
aVlook
p3545
aVhim
p3546
aVeye
p3547
aVfor
p3548
aVeye
p3549
aV,
aVuntil
p3550
aVhe
p3551
aVlooked
p3552
aVaway
p3553
aVand
p3554
aVwent
p3555
aVand
p3556
aVgot
p3557
aVthe
p3558
aVarsenic
p3559
aVand
p3560
aVwrapped
p3561
aVit
p3562
aVup
p3563
aV.
aa(lp3564
Vthe
p3565
aVnegro
p3566
aVdelivery
p3567
aVboy
p3568
aVbrought
p3569
aVher
p3570
aVthe
p3571
aVpackage
p3572
aV;
aVthe
p3573
aVdruggist
p3574
aVdid
p3575
aVn't
p3576
aVcome
p3577
aVback
p3578
aV.
aa(lp3579
Vwhen
p3580
aVshe
p3581
aVopened
p3582
aVthe
p3583
aVpackage
p3584
aVat
p3585
aVhome
p3586
aVthere
p3587
aVwas
p3588
aVwritten
p3589
aVon
p3590
aVthe
p3591
aVbox
p3592
aV,
aVunder
p3593
aVthe
p3594
aVskull
p3595
aVand
p3596
aVbones
p3597
aV:
aV``
p3598
aVfor
p3599
aVrats
p3600
aV.
aV''
p3601
aa(lp3602
Viv
p3603
aVso
p3604
aVthe
p3605
aVnext
p3606
aVday
p3607
aVwe
p3608
aVall
p3609
aVsaid
p3610
aV,
aV``
p3611
aVshe
p3612
aVwill
p3613
aVkill
p3614
aVherself
p3615
aV''
p3616
aV;
aVand
p3617
aVwe
p3618
aVsaid
p3619
aVit
p3620
aVwould
p3621
aVbe
p3622
aVthe
p3623
aVbest
p3624
aVthing
p3625
aV.
aa(lp3626
Vwhen
p3627
aVshe
p3628
aVhad
p3629
aVfirst
p3630
aVbegun
p3631
aVto
p3632
aVbe
p3633
aVseen
p3634
aVwith
p3635
aVhomer
p3636
aVbarron
p3637
aV,
aVwe
p3638
aVhad
p3639
aVsaid
p3640
aV,
aV``
p3641
aVshe
p3642
aVwill
p3643
aVmarry
p3644
aVhim
p3645
aV.
aV''
p3646
aa(lp3647
Vthen
p3648
aVwe
p3649
aVsaid
p3650
aV,
aV``
p3651
aVshe
p3652
aVwill
p3653
aVpersuade
p3654
aVhim
p3655
aVyet
p3656
aV,
aV''
p3657
aVbecause
p3658
aVhomer
p3659
aVhimself
p3660
aVhad
p3661
aVremarked
p3662
aV--
p3663
aVhe
p3664
aVliked
p3665
aVmen
p3666
aV,
aVand
p3667
aVit
p3668
aVwas
p3669
aVknown
p3670
aVthat
p3671
aVhe
p3672
aVdrank
p3673
aVwith
p3674
aVthe
p3675
aVyounger
p3676
aVmen
p3677
aVin
p3678
aVthe
p3679
aVelks
p3680
aV'
aVclub
p3681
aV--
p3682
aVthat
p3683
aVhe
p3684
aVwas
p3685
aVnot
p3686
aVa
aVmarrying
p3687
aVman
p3688
aV.
aa(lp3689
Vlater
p3690
aVwe
p3691
aVsaid
p3692
aV,
aV``
p3693
aVpoor
p3694
aVemily
p3695
aV''
p3696
aVbehind
p3697
aVthe
p3698
aVjalousies
p3699
aVas
p3700
aVthey
p3701
aVpassed
p3702
aVon
p3703
aVsunday
p3704
aVafternoon
p3705
aVin
p3706
aVthe
p3707
aVglittering
p3708
aVbuggy
p3709
aV,
aVmiss
p3710
aVemily
p3711
aVwith
p3712
aVher
p3713
aVhead
p3714
aVhigh
p3715
aVand
p3716
aVhomer
p3717
aVbarron
p3718
aVwith
p3719
aVhis
p3720
aVhat
p3721
aVcocked
p3722
aVand
p3723
aVa
aVcigar
p3724
aVin
p3725
aVhis
p3726
aVteeth
p3727
aV,
aVreins
p3728
aVand
p3729
aVwhip
p3730
aVin
p3731
aVa
aVyellow
p3732
aVglove
p3733
aV.
aa(lp3734
Vthen
p3735
aVsome
p3736
aVof
p3737
aVthe
p3738
aVladies
p3739
aVbegan
p3740
aVt
aaa(lp3741
(lp3742
V.
aa(lp3743
Vat
p3744
aVfirst
p3745
aVnothing
p3746
aVhappened
p3747
aV.
aa(lp3748
Vthen
p3749
aVwe
p3750
aVwere
p3751
aVsure
p3752
aVthat
p3753
aVthey
p3754
aVwere
p3755
aVto
p3756
aVbe
p3757
aVmarried
p3758
aV.
aa(lp3759
Vwe
p3760
aVlearned
p3761
aVthat
p3762
aVmiss
p3763
aVemily
p3764
aVhad
p3765
aVbeen
p3766
aVto
p3767
aVthe
p3768
aVjeweler
p3769
aV's
p3770
aVand
p3771
aVordered
p3772
aVa
aVman
p3773
aV's
p3774
aVtoilet
p3775
aVset
p3776
aVin
p3777
aVsilver
p3778
aV,
aVwith
p3779
aVthe
p3780
aVletters
p3781
aVh.
p3782
aVb.
p3783
aVon
p3784
aVeach
p3785
aVpiece
p3786
aV.
aa(lp3787
Vtwo
p3788
aVdays
p3789
aVlater
p3790
aVwe
p3791
aVlearned
p3792
aVthat
p3793
aVshe
p3794
aVhad
p3795
aVbought
p3796
aVa
aVcomplete
p3797
aVoutfit
p3798
aVof
p3799
aVmen
p3800
aV's
p3801
aVclothing
p3802
aV,
aVincluding
p3803
aVa
aVnightshirt
p3804
aV,
aVand
p3805
aVwe
p3806
aVsaid
p3807
aV,
aV``
p3808
aVthey
p3809
aVare
p3810
aVmarried
p3811
aV.
aV''
p3812
aa(lp3813
Vwe
p3814
aVwere
p3815
aVreally
p3816
aVglad
p3817
aV.
aa(lp3818
Vwe
p3819
aVwere
p3820
aVglad
p3821
aVbecause
p3822
aVthe
p3823
aVtwo
p3824
aVfemale
p3825
aVcousins
p3826
aVwere
p3827
aVeven
p3828
aVmore
p3829
aVgrierson
p3830
aVthan
p3831
aVmiss
p3832
aVemily
p3833
aVhad
p3834
aVever
p3835
aVbeen
p3836
aV.
aa(lp3837
Vso
p3838
aVwe
p3839
aVwere
p3840
aVnot
p3841
aVsurprised
p3842
aVwhen
p3843
aVhomer
p3844
aVbarron
p3845
aV--
p3846
aVthe
p3847
aVstreets
p3848
aVhad
p3849
aVbeen
p3850
aVfinished
p3851
aVsome
p3852
aVtime
p3853
aVsince
p3854
aV--
p3855
aVwas
p3856
aVgone
p3857
aV.
aa(lp3858
Vwe
p3859
aVwere
p3860
aVa
aVlittle
p3861
aVdisappointed
p3862
aVthat
p3863
aVthere
p3864
aVwas
p3865
aVnot
p3866
aVa
aVpublic
p3867
aVblowing-off
p3868
aV,
aVbut
p3869
aVwe
p3870
aVbelieved
p3871
aVthat
p3872
aVhe
p3873
aVhad
p3874
aVgone
p3875
aVon
p3876
aVto
p3877
aVprepare
p3878
aVfor
p3879
aVmiss
p3880
aVemily
p3881
aV's
p3882
aVcoming
p3883
aV,
aVor
p3884
aVto
p3885
aVgive
p3886
aVher
p3887
aVa
aVchance
p3888
aVto
p3889
aVget
p3890
aVrid
p3891
aVof
p3892
aVthe
p3893
aVcousins
p3894
aV.
aa(lp3895
V(
aVby
p3896
aVthat
p3897
aVtime
p3898
aVit
p3899
aVwas
p3900
aVa
aVcabal
p3901
aV,
aVand
p3902
aVwe
p3903
aVwere
p3904
aVall
p3905
aVmiss
p3906
aVemily
p3907
aV's
p3908
aVallies
p3909
aVto
p3910
aVhelp
p3911
aVcircumvent
p3912
aVthe
p3913
aVcousins
p3914
aV.
aV)
aa(lp3915
Vsure
p3916
aVenough
p3917
aV,
aVafter
p3918
aVanother
p3919
aVweek
p3920
aVthey
p3921
aVdeparted
p3922
aV.
aa(lp3923
Vand
p3924
aV,
aVas
p3925
aVwe
p3926
aVhad
p3927
aVexpected
p3928
aVall
p3929
aValong
p3930
aV,
aVwithin
p3931
aVthree
p3932
aVdays
p3933
aVhomer
p3934
aVbarron
p3935
aVwas
p3936
aVback
p3937
aVin
p3938
aVtown
p3939
aV.
aa(lp3940
Va
aVneighbor
p3941
aVsaw
p3942
aVth
p3943
aaa(lp3944
(lp3945
Ve
aVnegro
p3946
aVman
p3947
aVadmit
p3948
aVhim
p3949
aVat
p3950
aVthe
p3951
aVkitchen
p3952
aVdoor
p3953
aVat
p3954
aVdusk
p3955
aVone
p3956
aVevening
p3957
aV.
aa(lp3958
Vand
p3959
aVthat
p3960
aVwas
p3961
aVthe
p3962
aVlast
p3963
aVwe
p3964
aVsaw
p3965
aVof
p3966
aVhomer
p3967
aVbarron
p3968
aV.
aa(lp3969
Vand
p3970
aVof
p3971
aVmiss
p3972
aVemily
p3973
aVfor
p3974
aVsome
p3975
aVtime
p3976
aV.
aa(lp3977
Vthe
p3978
aVnegro
p3979
aVman
p3980
aVwent
p3981
aVin
p3982
aVand
p3983
aVout
p3984
aVwith
p3985
aVthe
p3986
aVmarket
p3987
aVbasket
p3988
aV,
aVbut
p3989
aVthe
p3990
aVfront
p3991
aVdoor
p3992
aVremained
p3993
aVclosed
p3994
aV.
aa(lp3995
Vnow
p3996
aVand
p3997
aVthen
p3998
aVwe
p3999
aVwould
p4000
aVsee
p4001
aVher
p4002
aVat
p4003
aVa
aVwindow
p4004
aVfor
p4005
aVa
aVmoment
p4006
aV,
aVas
p4007
aVthe
p4008
aVmen
p4009
aVdid
p4010
aVthat
p4011
aVnight
p4012
aVwhen
p4013
aVthey
p4014
aVsprinkled
p4015
aVthe
p4016
aVlime
p4017
aV,
aVbut
p4018
aVfor
p4019
aValmost
p4020
aVsix
p4021
aVmonths
p4022
aVshe
p4023
aVdid
p4024
aVnot
p4025
aVappear
p4026
aVon
p4027
aVthe
p4028
aVstreets
p4029
aV.
aa(lp4030
Vthen
p4031
aVwe
p4032
aVknew
p4033
aVthat
p4034
aVthis
p4035
aVwas
p4036
aVto
p4037
aVbe
p4038
aVexpected
p4039
aVtoo
p4040
aV;
aVas
p4041
aVif
p4042
aVthat
p4043
aVquality
p4044
aVof
p4045
aVher
p4046
aVfather
p4047
aVwhich
p4048
aVhad
p4049
aVthwarted
p4050
aVher
p4051
aVwoman
p4052
aV's
p4053
aVlife
p4054
aVso
p4055
aVmany
p4056
aVtimes
p4057
aVhad
p4058
aVbeen
p4059
aVtoo
p4060
aVvirulent
p4061
aVand
p4062
aVtoo
p4063
aVfurious
p4064
aVto
p4065
aVdie
p4066
aV.
aa(lp4067
Vwhen
p4068
aVwe
p4069
aVnext
p4070
aVsaw
p4071
aVmiss
p4072
aVemil
p4073
aaasg464
(lp4074
(lp4075
V[
aVCHARACTER
p4076
aV]
aVhomer
p4077
aV,
aVmuch
p4078
aVlike
p4079
aVemily
p4080
aV,
aVis
p4081
aVan
p4082
aVoutsider
p4083
aV,
aVa
aVstranger
p4084
aVin
p4085
aVtown
p4086
aVwho
p4087
aVbecomes
p4088
aVthe
p4089
aVsubject
p4090
aVof
p4091
aVgossip
p4092
aV.
aa(lp4093
Vunlike
p4094
aVemily
p4095
aV,
aVhowever
p4096
aV,
aVhomer
p4097
aVswoops
p4098
aVinto
p4099
aVtown
p4100
aVbrimming
p4101
aVwith
p4102
aVcharm
p4103
aV,
aVand
p4104
aVhe
p4105
aVinitially
p4106
aVbecomes
p4107
aVthe
p4108
aVcenter
p4109
aVof
p4110
aVattention
p4111
aVand
p4112
aVthe
p4113
aVobject
p4114
aVof
p4115
aVaffection
p4116
aV.
aa(lp4117
Vsome
p4118
aVtownspeople
p4119
aVdistrust
p4120
aVhim
p4121
aVbecause
p4122
aVhe
p4123
aVis
p4124
aVboth
p4125
aVa
aVnortherner
p4126
aVand
p4127
aVday
p4128
aVlaborer
p4129
aV,
aVand
p4130
aVhis
p4131
aVsunday
p4132
aVoutings
p4133
aVwith
p4134
aVemily
p4135
aVare
p4136
aVin
p4137
aVmany
p4138
aVways
p4139
aVscandalous
p4140
aV,
aVbecause
p4141
aVthe
p4142
aVtownspeople
p4143
aVregard
p4144
aVemily
p4145
aV--
p4146
aVdespite
p4147
aVher
p4148
aVeccentricities
p4149
aV--
p4150
aVas
p4151
aVbeing
p4152
aVfrom
p4153
aVa
aVhigher
p4154
aVsocial
p4155
aVclass
p4156
aV.
aa(lp4157
Vhomer
p4158
aV's
p4159
aVfailure
p4160
aVto
p4161
aVproperly
p4162
aVcourt
p4163
aVand
p4164
aVmarry
p4165
aVemily
p4166
aVprompts
p4167
aVspeculation
p4168
aVand
p4169
aVsuspicion
p4170
aV.
aa(lp4171
Vhe
p4172
aVcarouses
p4173
aVwith
p4174
aVyounger
p4175
aVmen
p4176
aVat
p4177
aVthe
p4178
aVelks
p4179
aVclub
p4180
aV,
aVand
p4181
aVthe
p4182
aVnarrator
p4183
aVportrays
p4184
aVhim
p4185
aVas
p4186
aVeither
p4187
aVa
aVhomosexual
p4188
aVor
p4189
aVsimply
p4190
aVan
p4191
aVeternal
p4192
aVbachelor
p4193
aV,
aVdedicated
p4194
aVto
p4195
aVhis
p4196
aVsingle
p4197
aVstatus
p4198
aVand
p4199
aVuninterested
p4200
aVin
p4201
aVmarriage
p4202
aV.
aa(lp4203
Vhomer
p4204
aVsays
p4205
aVonly
p4206
aVthat
p4207
aVhe
p4208
aVis
p4209
aV``
p4210
aVnot
p4211
aVa
aVmarrying
p4212
aVman
p4213
aV.
aV''
p4214
aa(lp4215
Vas
p4216
aVthe
p4217
aVforeman
p4218
aVof
p4219
aVa
aVcompany
p4220
aVthat
p4221
aVhas
p4222
aVarrived
p4223
aVin
p4224
aVtown
p4225
aVto
p4226
aVpave
p4227
aVthe
p4228
aVsidewalks
p4229
aV,
aVhomer
p4230
aVis
p4231
aVan
p4232
aVemblem
p4233
aVof
p4234
aVthe
p4235
aVnorth
p4236
aVand
p4237
aVthe
p4238
aVchanges
p4239
aVthat
p4240
aVgrip
p4241
aVthe
p4242
aVonce
p4243
aVinsular
p4244
aVand
p4245
aVgenteel
p4246
aVworld
p4247
aVof
p4248
aVthe
p4249
aVsouth
p4250
aV.
aa(lp4251
Vwith
p4252
aVhis
p4253
aVmachinery
p4254
aV,
aVhomer
p4255
aVrepresents
p4256
aVmodernity
p4257
aVand
p4258
aVindustrialization
p4259
aV,
aVthe
p4260
aVforce
p4261
aVof
p4262
aVprogress
p4263
aVthat
p4264
aVis
p4265
aVupending
p4266
aVtraditional
p4267
aVvalues
p4268
aVand
p4269
aVprovoking
p4270
aVresistance
p4271
aVand
p4272
aValarm
p4273
aVamong
p4274
aVtraditionalists
p4275
aV.
aa(lp4276
Vhomer
p4277
aVbrings
p4278
aVinnovation
p4279
aVto
p4280
aVthe
p4281
aVrapidly
p4282
aVchanging
p4283
aVworld
p4284
aVof
p4285
aVthis
p4286
aVsouthern
p4287
aVtown
p4288
aV,
aVwhose
p4289
aVnew
p4290
aVleaders
p4291
aVare
p4292
aVthemselves
p4293
aVpursuing
p4294
aVmore
p4295
aV``
p4296
aVmodern
p4297
aV''
p4298
aVideas
p4299
aV.
aa(lp4300
Vthe
p4301
aVchange
p4302
aVthat
p4303
aVhomer
p4304
aVbrings
p4305
aVto
p4306
aVemily
p4307
aV's
p4308
aVlife
p4309
aV,
aVas
p4310
aVher
p4311
aVfirst
p4312
aVreal
p4313
aVlover
p4314
aV,
aVis
p4315
aVequally
p4316
aVas
p4317
aVprofound
p4318
aVand
p4319
aVseals
p4320
aVhis
p4321
aVgrim
p4322
aVfate
p4323
aVas
p4324
aVthe
p4325
aVvictim
p4326
aVof
p4327
aVher
p4328
aVplan
p4329
aVto
p4330
aVkeep
p4331
aVhim
p4332
aVpermanently
p4333
aVby
p4334
aVher
p4335
aVside
p4336
aV.
aasssS'mainText'
p4337
(lp4338
(lp4339
Vi
aVwhen
p4340
aVmiss
p4341
aVemily
p4342
aVgrierson
p4343
aVdied
p4344
aV,
aVour
p4345
aVwhole
p4346
aVtown
p4347
aVwent
p4348
aVto
p4349
aVher
p4350
aVfuneral
p4351
aV:
aVthe
p4352
aVmen
p4353
aVthrough
p4354
aVa
aVsort
p4355
aVof
p4356
aVrespectful
p4357
aVaffection
p4358
aVfor
p4359
aVa
aVfallen
p4360
aVmonument
p4361
aV,
aVthe
p4362
aVwomen
p4363
aVmostly
p4364
aVout
p4365
aVof
p4366
aVcuriosity
p4367
aVto
p4368
aVsee
p4369
aVthe
p4370
aVinside
p4371
aVof
p4372
aVher
p4373
aVhouse
p4374
aV,
aVwhich
p4375
aVno
p4376
aVone
p4377
aVsave
p4378
aVan
p4379
aVold
p4380
aVman-servant
p4381
aV--
p4382
aVa
aVcombined
p4383
aVgardener
p4384
aVand
p4385
aVcook
p4386
aV--
p4387
aVhad
p4388
aVseen
p4389
aVin
p4390
aVat
p4391
aVleast
p4392
aVten
p4393
aVyears
p4394
aV.
aa(lp4395
Vit
p4396
aVwas
p4397
aVa
aVbig
p4398
aV,
aVsquarish
p4399
aVframe
p4400
aVhouse
p4401
aVthat
p4402
aVhad
p4403
aVonce
p4404
aVbeen
p4405
aVwhite
p4406
aV,
aVdecorated
p4407
aVwith
p4408
aVcupolas
p4409
aVand
p4410
aVspires
p4411
aVand
p4412
aVscrolled
p4413
aVbalconies
p4414
aVin
p4415
aVthe
p4416
aVheavily
p4417
aVlightsome
p4418
aVstyle
p4419
aVof
p4420
aVthe
p4421
aVseventies
p4422
aV,
aVset
p4423
aVon
p4424
aVwhat
p4425
aVhad
p4426
aVonce
p4427
aVbeen
p4428
aVour
p4429
aVmost
p4430
aVselect
p4431
aVstreet
p4432
aV.
aa(lp4433
Vbut
p4434
aVgarages
p4435
aVand
p4436
aVcotton
p4437
aVgins
p4438
aVhad
p4439
aVencroached
p4440
aVand
p4441
aVobliterated
p4442
aVeven
p4443
aVthe
p4444
aVaugust
p4445
aVnames
p4446
aVof
p4447
aVthat
p4448
aVneighborhood
p4449
aV;
aVonly
p4450
aVmiss
p4451
aVemily
p4452
aV's
p4453
aVhouse
p4454
aVwas
p4455
aVleft
p4456
aV,
aVlifting
p4457
aVits
p4458
aVstubborn
p4459
aVand
p4460
aVcoquettish
p4461
aVdecay
p4462
aVabove
p4463
aVthe
p4464
aVcotton
p4465
aVwagons
p4466
aVand
p4467
aVthe
p4468
aVgasoline
p4469
aVpumps-an
p4470
aVeyesore
p4471
aVamong
p4472
aVeyesores
p4473
aV.
aa(lp4474
Vand
p4475
aVnow
p4476
aVmiss
p4477
aVemily
p4478
aVhad
p4479
aVgone
p4480
aVto
p4481
aVjoin
p4482
aVthe
p4483
aVrepresentatives
p4484
aVof
p4485
aVthose
p4486
aVaugust
p4487
aVnames
p4488
aVwhere
p4489
aVthey
p4490
aVlay
p4491
aVin
p4492
aVthe
p4493
aVcedar-bemused
p4494
aVcemetery
p4495
aVamong
p4496
aVthe
p4497
aVranked
p4498
aVand
p4499
aVanonymous
p4500
aVgraves
p4501
aVof
p4502
aVunion
p4503
aVand
p4504
aVconfederate
p4505
aVsoldiers
p4506
aVwho
p4507
aVfell
p4508
aVat
p4509
aVthe
p4510
aVbattle
p4511
aVof
p4512
aVjefferson
p4513
aV.
aa(lp4514
Valive
p4515
aV,
aVmiss
p4516
aVemily
p4517
aVhad
p4518
aVbeen
p4519
aVa
aVtradition
p4520
aV,
aVa
aVduty
p4521
aV,
aVand
p4522
aVa
aVcare
p4523
aV;
aVa
aVsort
p4524
aVof
p4525
aVhereditary
p4526
aVobligation
p4527
aVupon
p4528
aVthe
p4529
aVtown
p4530
aV,
aVdating
p4531
aVfrom
p4532
aVthat
p4533
aVday
p4534
aVin
p4535
aV1894
p4536
aVwhen
p4537
aVcolonel
p4538
aVsartoris
p4539
aV,
aVthe
p4540
aVmayor
p4541
aV--
p4542
aVhe
p4543
aVwho
p4544
aVfathered
p4545
aVthe
p4546
aVedict
p4547
aVthat
p4548
aVno
p4549
aVnegro
p4550
aVwoman
p4551
aVshould
p4552
aVappear
p4553
aVon
p4554
aVthe
p4555
aVstreets
p4556
aVwithout
p4557
aVan
p4558
aVapron-remitted
p4559
aVher
p4560
aVtaxes
p4561
aV,
aVthe
p4562
aVdispensation
p4563
aVdating
p4564
aVfrom
p4565
aVthe
p4566
aVdeath
p4567
aVof
p4568
aVher
p4569
aVfather
p4570
aVon
p4571
aVinto
p4572
aVperpetuity
p4573
aV.
aa(lp4574
Vnot
p4575
aVthat
p4576
aVmiss
p4577
aVemily
p4578
aVwould
p4579
aVhave
p4580
aVaccepted
p4581
aVcharity
p4582
aV.
aa(lp4583
Vcolonel
p4584
aVsartoris
p4585
aVinvented
p4586
aVan
p4587
aVinvolved
p4588
aVtale
p4589
aVto
p4590
aVthe
p4591
aVeffect
p4592
aVthat
p4593
aVmiss
p4594
aVemily
p4595
aV's
p4596
aVfather
p4597
aVhad
p4598
aVloaned
p4599
aVmoney
p4600
aVto
p4601
aVthe
p4602
aVtown
p4603
aV,
aVwhich
p4604
aVthe
p4605
aVtown
p4606
aV,
aVas
p4607
aVa
aVmatter
p4608
aVof
p4609
aVbusiness
p4610
aV,
aVpreferred
p4611
aVthis
p4612
aVway
p4613
aVof
p4614
aVrepaying
p4615
aV.
aa(lp4616
Vonly
p4617
aVa
aVman
p4618
aVof
p4619
aVcolonel
p4620
aVsartoris
p4621
aV'
aVgeneration
p4622
aVand
p4623
aVthought
p4624
aVcould
p4625
aVhave
p4626
aVinvented
p4627
aVit
p4628
aV,
aVand
p4629
aVonly
p4630
aVa
aVwoman
p4631
aVcould
p4632
aVhave
p4633
aVbelieved
p4634
aVit
p4635
aV.
aa(lp4636
Vwhen
p4637
aVthe
p4638
aVnext
p4639
aVgeneration
p4640
aV,
aVwith
p4641
aVits
p4642
aVmore
p4643
aVmodern
p4644
aVideas
p4645
aV,
aVbecame
p4646
aVmayors
p4647
aVand
p4648
aValdermen
p4649
aV,
aVthis
p4650
aVarrangement
p4651
aVcreated
p4652
aVsome
p4653
aVlittle
p4654
aVdissatisfaction
p4655
aV.
aa(lp4656
Von
p4657
aVthe
p4658
aVfirst
p4659
aVof
p4660
aVthe
p4661
aVyear
p4662
aVthey
p4663
aVmailed
p4664
aVher
p4665
aVa
aVtax
p4666
aVnotice
p4667
aV.
aa(lp4668
Vfebruary
p4669
aVcame
p4670
aV,
aVand
p4671
aVthere
p4672
aVwas
p4673
aVno
p4674
aVreply
p4675
aV.
aa(lp4676
Vthey
p4677
aVwrote
p4678
aVher
p4679
aVa
aVformal
p4680
aVletter
p4681
aV,
aVasking
p4682
aVher
p4683
aVto
p4684
aVcall
p4685
aVat
p4686
aVthe
p4687
aVsheriff
p4688
aV's
p4689
aVoffice
p4690
aVat
p4691
aVher
p4692
aVconvenience
p4693
aV.
aa(lp4694
Va
aVweek
p4695
aVlater
p4696
aVthe
p4697
aVmayor
p4698
aVwrote
p4699
aVher
p4700
aVhimself
p4701
aV,
aVoffering
p4702
aVto
p4703
aVcall
p4704
aVor
p4705
aVto
p4706
aVsend
p4707
aVhis
p4708
aVcar
p4709
aVfor
p4710
aVher
p4711
aV,
aVand
p4712
aVreceived
p4713
aVin
p4714
aVreply
p4715
aVa
aVnote
p4716
aVon
p4717
aVpaper
p4718
aVof
p4719
aVan
p4720
aVarchaic
p4721
aVshape
p4722
aV,
aVin
p4723
aVa
aVthin
p4724
aV,
aVflowing
p4725
aVcalligraphy
p4726
aVin
p4727
aVfaded
p4728
aVink
p4729
aV,
aVto
p4730
aVthe
p4731
aVeffect
p4732
aVthat
p4733
aVshe
p4734
aVno
p4735
aVlonger
p4736
aVwent
p4737
aVout
p4738
aVat
p4739
aVall
p4740
aV.
aa(lp4741
Vthe
p4742
aVtax
p4743
aVnotice
p4744
aVwas
p4745
aValso
p4746
aVenclosed
p4747
aV,
aVwithout
p4748
aVcomment
p4749
aV.
aa(lp4750
Vthey
p4751
aVcalled
p4752
aVa
aVspecial
p4753
aVmeeting
p4754
aVof
p4755
aVthe
p4756
aVboard
p4757
aVof
p4758
aValdermen
p4759
aV.
aa(lp4760
Va
aVdeputation
p4761
aVwaited
p4762
aVupon
p4763
aVher
p4764
aV,
aVknocked
p4765
aVat
p4766
aVthe
p4767
aVdoor
p4768
aVthrough
p4769
aVwhich
p4770
aVno
p4771
aVvisitor
p4772
aVhad
p4773
aVpassed
p4774
aVsince
p4775
aVshe
p4776
aVceased
p4777
aVgiving
p4778
aVchina-painting
p4779
aVlessons
p4780
aVeight
p4781
aVor
p4782
aVten
p4783
aVyears
p4784
aVearlier
p4785
aV.
aa(lp4786
Vthey
p4787
aVwere
p4788
aVadmitted
p4789
aVby
p4790
aVthe
p4791
aVold
p4792
aVnegro
p4793
aVinto
p4794
aVa
aVdim
p4795
aVhall
p4796
aVfrom
p4797
aVwhich
p4798
aVa
aVstairway
p4799
aVmounted
p4800
aVinto
p4801
aVstill
p4802
aVmore
p4803
aVshadow
p4804
aV.
aa(lp4805
Vit
p4806
aVsmelled
p4807
aVof
p4808
aVdust
p4809
aVand
p4810
aVdisuse
p4811
aV--
p4812
aVa
aVclose
p4813
aV,
aVdank
p4814
aVsmell
p4815
aV.
aa(lp4816
Vthe
p4817
aVnegro
p4818
aVled
p4819
aVthem
p4820
aVinto
p4821
aVthe
p4822
aVparlor
p4823
aV.
aa(lp4824
Vit
p4825
aVwas
p4826
aVfurnished
p4827
aVin
p4828
aVheavy
p4829
aV,
aVleather-covered
p4830
aVfurniture
p4831
aV.
aa(lp4832
Vwhen
p4833
aVthe
p4834
aVnegro
p4835
aVopened
p4836
aVthe
p4837
aVblinds
p4838
aVof
p4839
aVone
p4840
aVwindow
p4841
aV,
aVthey
p4842
aVcould
p4843
aVsee
p4844
aVthat
p4845
aVthe
p4846
aVleather
p4847
aVwas
p4848
aVcracked
p4849
aV;
aVand
p4850
aVwhen
p4851
aVthey
p4852
aVsat
p4853
aVdown
p4854
aV,
aVa
aVfaint
p4855
aVdust
p4856
aVrose
p4857
aVsluggishly
p4858
aVabout
p4859
aVtheir
p4860
aVthighs
p4861
aV,
aVspinning
p4862
aVwith
p4863
aVslow
p4864
aVmotes
p4865
aVin
p4866
aVthe
p4867
aVsingle
p4868
aVsun-ray
p4869
aV.
aa(lp4870
Von
p4871
aVa
aVtarnished
p4872
aVgilt
p4873
aVeasel
p4874
aVbefore
p4875
aVthe
p4876
aVfireplace
p4877
aVstood
p4878
aVa
aVcrayon
p4879
aVportrait
p4880
aVof
p4881
aVmiss
p4882
aVemily
p4883
aV's
p4884
aVfather
p4885
aV.
aa(lp4886
Vthey
p4887
aVrose
p4888
aVwhen
p4889
aVshe
p4890
aVentered
p4891
aV--
p4892
aVa
aVsmall
p4893
aV,
aVfat
p4894
aVwoman
p4895
aVin
p4896
aVblack
p4897
aV,
aVwith
p4898
aVa
aVthin
p4899
aVgold
p4900
aVchain
p4901
aVdescending
p4902
aVto
p4903
aVher
p4904
aVwaist
p4905
aVand
p4906
aVvanishing
p4907
aVinto
p4908
aVher
p4909
aVbelt
p4910
aV,
aVleaning
p4911
aVon
p4912
aVan
p4913
aVebony
p4914
aVcane
p4915
aVwith
p4916
aVa
aVtarnished
p4917
aVgold
p4918
aVhead
p4919
aV.
aa(lp4920
Vher
p4921
aVskeleton
p4922
aVwas
p4923
aVsmall
p4924
aVand
p4925
aVspare
p4926
aV;
aVperhaps
p4927
aVthat
p4928
aVwas
p4929
aVwhy
p4930
aVwhat
p4931
aVwould
p4932
aVhave
p4933
aVbeen
p4934
aVmerely
p4935
aVplumpness
p4936
aVin
p4937
aVanother
p4938
aVwas
p4939
aVobesity
p4940
aVin
p4941
aVher
p4942
aV.
aa(lp4943
Vshe
p4944
aVlooked
p4945
aVbloated
p4946
aV,
aVlike
p4947
aVa
aVbody
p4948
aVlong
p4949
aVsubmerged
p4950
aVin
p4951
aVmotionless
p4952
aVwater
p4953
aV,
aVand
p4954
aVof
p4955
aVthat
p4956
aVpallid
p4957
aVhue
p4958
aV.
aa(lp4959
Vher
p4960
aVeyes
p4961
aV,
aVlost
p4962
aVin
p4963
aVthe
p4964
aVfatty
p4965
aVridges
p4966
aVof
p4967
aVher
p4968
aVface
p4969
aV,
aVlooked
p4970
aVlike
p4971
aVtwo
p4972
aVsmall
p4973
aVpieces
p4974
aVof
p4975
aVcoal
p4976
aVpressed
p4977
aVinto
p4978
aVa
aVlump
p4979
aVof
p4980
aVdough
p4981
aVas
p4982
aVthey
p4983
aVmoved
p4984
aVfrom
p4985
aVone
p4986
aVface
p4987
aVto
p4988
aVanother
p4989
aVwhile
p4990
aVthe
p4991
aVvisitors
p4992
aVstated
p4993
aVtheir
p4994
aVerrand
p4995
aV.
aa(lp4996
Vshe
p4997
aVdid
p4998
aVnot
p4999
aVask
p5000
aVthem
p5001
aVto
p5002
aVsit
p5003
aV.
aa(lp5004
Vshe
p5005
aVjust
p5006
aVstood
p5007
aVin
p5008
aVthe
p5009
aVdoor
p5010
aVand
p5011
aVlistened
p5012
aVquietly
p5013
aVuntil
p5014
aVthe
p5015
aVspokesman
p5016
aVcame
p5017
aVto
p5018
aVa
aVstumbling
p5019
aVhalt
p5020
aV.
aa(lp5021
Vthen
p5022
aVthey
p5023
aVcould
p5024
aVhear
p5025
aVthe
p5026
aVinvisible
p5027
aVwatch
p5028
aVticking
p5029
aVat
p5030
aVthe
p5031
aVend
p5032
aVof
p5033
aVthe
p5034
aVgold
p5035
aVchain
p5036
aV.
aa(lp5037
Vher
p5038
aVvoice
p5039
aVwas
p5040
aVdry
p5041
aVand
p5042
aVcold
p5043
aV.
aa(lp5044
V``
p5045
aVi
aVhave
p5046
aVno
p5047
aVtaxes
p5048
aVin
p5049
aVjefferson
p5050
aV.
aa(lp5051
Vcolonel
p5052
aVsartoris
p5053
aVexplained
p5054
aVit
p5055
aVto
p5056
aVme
p5057
aV.
aa(lp5058
Vperhaps
p5059
aVone
p5060
aVof
p5061
aVyou
p5062
aVcan
p5063
aVgain
p5064
aVaccess
p5065
aVto
p5066
aVthe
p5067
aVcity
p5068
aVrecords
p5069
aVand
p5070
aVsatisfy
p5071
aVyourselves
p5072
aV.
aV''
p5073
aa(lp5074
V``
p5075
aVbut
p5076
aVwe
p5077
aVhave
p5078
aV.
aa(lp5079
Vwe
p5080
aVare
p5081
aVthe
p5082
aVcity
p5083
aVauthorities
p5084
aV,
aVmiss
p5085
aVemily
p5086
aV.
aa(lp5087
Vdid
p5088
aVn't
p5089
aVyou
p5090
aVget
p5091
aVa
aVnotice
p5092
aVfrom
p5093
aVthe
p5094
aVsheriff
p5095
aV,
aVsigned
p5096
aVby
p5097
aVhim
p5098
aV?
aV''
p5099
aa(lp5100
V``
p5101
aVi
aVreceived
p5102
aVa
aVpaper
p5103
aV,
aVyes
p5104
aV,
aV''
p5105
aVmiss
p5106
aVemily
p5107
aVsaid
p5108
aV.
aa(lp5109
V``
p5110
aVperhaps
p5111
aVhe
p5112
aVconsiders
p5113
aVhimself
p5114
aVthe
p5115
aVsheriff
p5116
aV.
aa(lp5117
V.
aa(lp5118
V.
aa(lp5119
Vi
aVhave
p5120
aVno
p5121
aVtaxes
p5122
aVin
p5123
aVjefferson
p5124
aV.
aV''
p5125
aa(lp5126
V``
p5127
aVbut
p5128
aVthere
p5129
aVis
p5130
aVnothing
p5131
aVon
p5132
aVthe
p5133
aVbooks
p5134
aVto
p5135
aVshow
p5136
aVthat
p5137
aV,
aVyou
p5138
aVsee
p5139
aVwe
p5140
aVmust
p5141
aVgo
p5142
aVby
p5143
aVthe
p5144
aV--
p5145
aV''
p5146
aV''
p5147
aVsee
p5148
aVcolonel
p5149
aVsartoris
p5150
aV.
aa(lp5151
Vi
aVhave
p5152
aVno
p5153
aVtaxes
p5154
aVin
p5155
aVjefferson
p5156
aV.
aV''
p5157
aa(lp5158
V``
p5159
aVbut
p5160
aV,
aVmiss
p5161
aVemily
p5162
aV--
p5163
aV''
p5164
aV''
p5165
aVsee
p5166
aVcolonel
p5167
aVsartoris
p5168
aV.
aV''
p5169
aa(lp5170
V(
aVcolonel
p5171
aVsartoris
p5172
aVhad
p5173
aVbeen
p5174
aVdead
p5175
aValmost
p5176
aVten
p5177
aVyears
p5178
aV.
aV)
aa(lp5179
V``
p5180
aVi
aVhave
p5181
aVno
p5182
aVtaxes
p5183
aVin
p5184
aVjefferson
p5185
aV.
aa(lp5186
Vtobe
p5187
aV!
aV''
p5188
aa(lp5189
Vthe
p5190
aVnegro
p5191
aVappeared
p5192
aV.
aa(lp5193
V``
p5194
aVshow
p5195
aVthese
p5196
aVgentlemen
p5197
aVout
p5198
aV.
aV''
p5199
aa(lp5200
Vii
p5201
aVso
p5202
aVshe
p5203
aVvanquished
p5204
aVthem
p5205
aV,
aVhorse
p5206
aVand
p5207
aVfoot
p5208
aV,
aVjust
p5209
aVas
p5210
aVshe
p5211
aVhad
p5212
aVvanquished
p5213
aVtheir
p5214
aVfathers
p5215
aVthirty
p5216
aVyears
p5217
aVbefore
p5218
aVabout
p5219
aVthe
p5220
aVsmell
p5221
aV.
aa(lp5222
Vthat
p5223
aVwas
p5224
aVtwo
p5225
aVyears
p5226
aVafter
p5227
aVher
p5228
aVfather
p5229
aV's
p5230
aVdeath
p5231
aVand
p5232
aVa
aVshort
p5233
aVtime
p5234
aVafter
p5235
aVher
p5236
aVsweetheart
p5237
aV--
p5238
aVthe
p5239
aVone
p5240
aVwe
p5241
aVbelieved
p5242
aVwould
p5243
aVmarry
p5244
aVher
p5245
aV--
p5246
aVhad
p5247
aVdeserted
p5248
aVher
p5249
aV.
aa(lp5250
Vafter
p5251
aVher
p5252
aVfather
p5253
aV's
p5254
aVdeath
p5255
aVshe
p5256
aVwent
p5257
aVout
p5258
aVvery
p5259
aVlittle
p5260
aV;
aVafter
p5261
aVher
p5262
aVsweetheart
p5263
aVwent
p5264
aVaway
p5265
aV,
aVpeople
p5266
aVhardly
p5267
aVsaw
p5268
aVher
p5269
aVat
p5270
aVall
p5271
aV.
aa(lp5272
Va
aVfew
p5273
aVof
p5274
aVthe
p5275
aVladies
p5276
aVhad
p5277
aVthe
p5278
aVtemerity
p5279
aVto
p5280
aVcall
p5281
aV,
aVbut
p5282
aVwere
p5283
aVnot
p5284
aVreceived
p5285
aV,
aVand
p5286
aVthe
p5287
aVonly
p5288
aVsign
p5289
aVof
p5290
aVlife
p5291
aVabout
p5292
aVthe
p5293
aVplace
p5294
aVwas
p5295
aVthe
p5296
aVnegro
p5297
aVman
p5298
aV--
p5299
aVa
aVyoung
p5300
aVman
p5301
aVthen
p5302
aV--
p5303
aVgoing
p5304
aVin
p5305
aVand
p5306
aVout
p5307
aVwith
p5308
aVa
aVmarket
p5309
aVbasket
p5310
aV.
aa(lp5311
V``
p5312
aVjust
p5313
aVas
p5314
aVif
p5315
aVa
aVman
p5316
aV--
p5317
aVany
p5318
aVman
p5319
aV--
p5320
aVcould
p5321
aVkeep
p5322
aVa
aVkitchen
p5323
aVproperly
p5324
aV,
aV``
p5325
aVthe
p5326
aVladies
p5327
aVsaid
p5328
aV;
aVso
p5329
aVthey
p5330
aVwere
p5331
aVnot
p5332
aVsurprised
p5333
aVwhen
p5334
aVthe
p5335
aVsmell
p5336
aVdeveloped
p5337
aV.
aa(lp5338
Vit
p5339
aVwas
p5340
aVanother
p5341
aVlink
p5342
aVbetween
p5343
aVthe
p5344
aVgross
p5345
aV,
aVteeming
p5346
aVworld
p5347
aVand
p5348
aVthe
p5349
aVhigh
p5350
aVand
p5351
aVmighty
p5352
aVgriersons
p5353
aV.
aa(lp5354
Va
aVneighbor
p5355
aV,
aVa
aVwoman
p5356
aV,
aVcomplained
p5357
aVto
p5358
aVthe
p5359
aVmayor
p5360
aV,
aVjudge
p5361
aVstevens
p5362
aV,
aVeighty
p5363
aVyears
p5364
aVold
p5365
aV.
aa(lp5366
V``
p5367
aVbut
p5368
aVwhat
p5369
aVwill
p5370
aVyou
p5371
aVhave
p5372
aVme
p5373
aVdo
p5374
aVabout
p5375
aVit
p5376
aV,
aVmadam
p5377
aV?
aV''
p5378
aa(lp5379
Vhe
p5380
aVsaid
p5381
aV.
aa(lp5382
V``
p5383
aVwhy
p5384
aV,
aVsend
p5385
aVher
p5386
aVword
p5387
aVto
p5388
aVstop
p5389
aVit
p5390
aV,
aV''
p5391
aVthe
p5392
aVwoman
p5393
aVsaid
p5394
aV.
aa(lp5395
V``
p5396
aVis
p5397
aVn't
p5398
aVthere
p5399
aVa
aVlaw
p5400
aV?
aV``
p5401
aa(lp5402
V``
p5403
aVi
aV'm
p5404
aVsure
p5405
aVthat
p5406
aVwo
p5407
aVn't
p5408
aVbe
p5409
aVnecessary
p5410
aV,
aV''
p5411
aVjudge
p5412
aVstevens
p5413
aVsaid
p5414
aV.
aa(lp5415
V``
p5416
aVit
p5417
aV's
p5418
aVprobably
p5419
aVjust
p5420
aVa
aVsnake
p5421
aVor
p5422
aVa
aVrat
p5423
aVthat
p5424
aVnigger
p5425
aVof
p5426
aVhers
p5427
aVkilled
p5428
aVin
p5429
aVthe
p5430
aVyard
p5431
aV.
aa(lp5432
Vi
aV'll
p5433
aVspeak
p5434
aVto
p5435
aVhim
p5436
aVabout
p5437
aVit
p5438
aV.
aV''
p5439
aa(lp5440
Vthe
p5441
aVnext
p5442
aVday
p5443
aVhe
p5444
aVreceived
p5445
aVtwo
p5446
aVmore
p5447
aVcomplaints
p5448
aV,
aVone
p5449
aVfrom
p5450
aVa
aVman
p5451
aVwho
p5452
aVcame
p5453
aVin
p5454
aVdiffident
p5455
aVdeprecation
p5456
aV.
aa(lp5457
V``
p5458
aVwe
p5459
aVreally
p5460
aVmust
p5461
aVdo
p5462
aVsomething
p5463
aVabout
p5464
aVit
p5465
aV,
aVjudge
p5466
aV.
aa(lp5467
Vi
aV'd
p5468
aVbe
p5469
aVthe
p5470
aVlast
p5471
aVone
p5472
aVin
p5473
aVthe
p5474
aVworld
p5475
aVto
p5476
aVbother
p5477
aVmiss
p5478
aVemily
p5479
aV,
aVbut
p5480
aVwe
p5481
aV've
p5482
aVgot
p5483
aVto
p5484
aVdo
p5485
aVsomething
p5486
aV.
aV''
p5487
aa(lp5488
Vthat
p5489
aVnight
p5490
aVthe
p5491
aVboard
p5492
aVof
p5493
aValdermen
p5494
aVmet
p5495
aV--
p5496
aVthree
p5497
aVgraybeards
p5498
aVand
p5499
aVone
p5500
aVyounger
p5501
aVman
p5502
aV,
aVa
aVmember
p5503
aVof
p5504
aVthe
p5505
aVrising
p5506
aVgeneration
p5507
aV.
aa(lp5508
V``
p5509
aVit
p5510
aV's
p5511
aVsimple
p5512
aVenough
p5513
aV,
aV''
p5514
aVhe
p5515
aVsaid
p5516
aV.
aa(lp5517
V``
p5518
aVsend
p5519
aVher
p5520
aVword
p5521
aVto
p5522
aVhave
p5523
aVher
p5524
aVplace
p5525
aVcleaned
p5526
aVup
p5527
aV.
aa(lp5528
Vgive
p5529
aVher
p5530
aVa
aVcertain
p5531
aVtime
p5532
aVto
p5533
aVdo
p5534
aVit
p5535
aVin
p5536
aV,
aVand
p5537
aVif
p5538
aVshe
p5539
aVdo
p5540
aVn't
p5541
aV.
aa(lp5542
V..
p5543
aV''
p5544
aV''
p5545
aVdammit
p5546
aV,
aVsir
p5547
aV,
aV''
p5548
aVjudge
p5549
aVstevens
p5550
aVsaid
p5551
aV,
aV``
p5552
aVwill
p5553
aVyou
p5554
aVaccuse
p5555
aVa
aVlady
p5556
aVto
p5557
aVher
p5558
aVface
p5559
aVof
p5560
aVsmelling
p5561
aVbad
p5562
aV?
aV''
p5563
aa(lp5564
Vso
p5565
aVthe
p5566
aVnext
p5567
aVnight
p5568
aV,
aVafter
p5569
aVmidnight
p5570
aV,
aVfour
p5571
aVmen
p5572
aVcrossed
p5573
aVmiss
p5574
aVemily
p5575
aV's
p5576
aVlawn
p5577
aVand
p5578
aVslunk
p5579
aVabout
p5580
aVthe
p5581
aVhouse
p5582
aVlike
p5583
aVburglars
p5584
aV,
aVsniffing
p5585
aValong
p5586
aVthe
p5587
aVbase
p5588
aVof
p5589
aVthe
p5590
aVbrickwork
p5591
aVand
p5592
aVat
p5593
aVthe
p5594
aVcellar
p5595
aVopenings
p5596
aVwhile
p5597
aVone
p5598
aVof
p5599
aVthem
p5600
aVperformed
p5601
aVa
aVregular
p5602
aVsowing
p5603
aVmotion
p5604
aVwith
p5605
aVhis
p5606
aVhand
p5607
aVout
p5608
aVof
p5609
aVa
aVsack
p5610
aVslung
p5611
aVfrom
p5612
aVhis
p5613
aVshoulder
p5614
aV.
aa(lp5615
Vthey
p5616
aVbroke
p5617
aVopen
p5618
aVthe
p5619
aVcellar
p5620
aVdoor
p5621
aVand
p5622
aVsprinkled
p5623
aVlime
p5624
aVthere
p5625
aV,
aVand
p5626
aVin
p5627
aVall
p5628
aVthe
p5629
aVoutbuildings
p5630
aV.
aa(lp5631
Vas
p5632
aVthey
p5633
aVrecrossed
p5634
aVthe
p5635
aVlawn
p5636
aV,
aVa
aVwindow
p5637
aVthat
p5638
aVhad
p5639
aVbeen
p5640
aVdark
p5641
aVwas
p5642
aVlighted
p5643
aVand
p5644
aVmiss
p5645
aVemily
p5646
aVsat
p5647
aVin
p5648
aVit
p5649
aV,
aVthe
p5650
aVlight
p5651
aVbehind
p5652
aVher
p5653
aV,
aVand
p5654
aVher
p5655
aVupright
p5656
aVtorso
p5657
aVmotionless
p5658
aVas
p5659
aVthat
p5660
aVof
p5661
aVan
p5662
aVidol
p5663
aV.
aa(lp5664
Vthey
p5665
aVcrept
p5666
aVquietly
p5667
aVacross
p5668
aVthe
p5669
aVlawn
p5670
aVand
p5671
aVinto
p5672
aVthe
p5673
aVshadow
p5674
aVof
p5675
aVthe
p5676
aVlocusts
p5677
aVthat
p5678
aVlined
p5679
aVthe
p5680
aVstreet
p5681
aV.
aa(lp5682
Vafter
p5683
aVa
aVweek
p5684
aVor
p5685
aVtwo
p5686
aVthe
p5687
aVsmell
p5688
aVwent
p5689
aVaway
p5690
aV.
aa(lp5691
Vthat
p5692
aVwas
p5693
aVwhen
p5694
aVpeople
p5695
aVhad
p5696
aVbegun
p5697
aVto
p5698
aVfeel
p5699
aVreally
p5700
aVsorry
p5701
aVfor
p5702
aVher
p5703
aV.
aa(lp5704
Vpeople
p5705
aVin
p5706
aVour
p5707
aVtown
p5708
aV,
aVremembering
p5709
aVhow
p5710
aVold
p5711
aVlady
p5712
aVwyatt
p5713
aV,
aVher
p5714
aVgreat-aunt
p5715
aV,
aVhad
p5716
aVgone
p5717
aVcompletely
p5718
aVcrazy
p5719
aVat
p5720
aVlast
p5721
aV,
aVbelieved
p5722
aVthat
p5723
aVthe
p5724
aVgriersons
p5725
aVheld
p5726
aVthemselves
p5727
aVa
aVlittle
p5728
aVtoo
p5729
aVhigh
p5730
aVfor
p5731
aVwhat
p5732
aVthey
p5733
aVreally
p5734
aVwere
p5735
aV.
aa(lp5736
Vnone
p5737
aVof
p5738
aVthe
p5739
aVyoung
p5740
aVmen
p5741
aVwere
p5742
aVquite
p5743
aVgood
p5744
aVenough
p5745
aVfor
p5746
aVmiss
p5747
aVemily
p5748
aVand
p5749
aVsuch
p5750
aV.
aa(lp5751
Vwe
p5752
aVhad
p5753
aVlong
p5754
aVthought
p5755
aVof
p5756
aVthem
p5757
aVas
p5758
aVa
aVtableau
p5759
aV,
aVmiss
p5760
aVemily
p5761
aVa
aVslender
p5762
aVfigure
p5763
aVin
p5764
aVwhite
p5765
aVin
p5766
aVthe
p5767
aVbackground
p5768
aV,
aVher
p5769
aVfather
p5770
aVa
aVspraddled
p5771
aVsilhouette
p5772
aVin
p5773
aVthe
p5774
aVforeground
p5775
aV,
aVhis
p5776
aVback
p5777
aVto
p5778
aVher
p5779
aVand
p5780
aVclutching
p5781
aVa
aVhorsewhip
p5782
aV,
aVthe
p5783
aVtwo
p5784
aVof
p5785
aVthem
p5786
aVframed
p5787
aVby
p5788
aVthe
p5789
aVback-flung
p5790
aVfront
p5791
aVdoor
p5792
aV.
aa(lp5793
Vso
p5794
aVwhen
p5795
aVshe
p5796
aVgot
p5797
aVto
p5798
aVbe
p5799
aVthirty
p5800
aVand
p5801
aVwas
p5802
aVstill
p5803
aVsingle
p5804
aV,
aVwe
p5805
aVwere
p5806
aVnot
p5807
aVpleased
p5808
aVexactly
p5809
aV,
aVbut
p5810
aVvindicated
p5811
aV;
aVeven
p5812
aVwith
p5813
aVinsanity
p5814
aVin
p5815
aVthe
p5816
aVfamily
p5817
aVshe
p5818
aVwould
p5819
aVn't
p5820
aVhave
p5821
aVturned
p5822
aVdown
p5823
aVall
p5824
aVof
p5825
aVher
p5826
aVchances
p5827
aVif
p5828
aVthey
p5829
aVhad
p5830
aVreally
p5831
aVmaterialized
p5832
aV.
aa(lp5833
Vwhen
p5834
aVher
p5835
aVfather
p5836
aVdied
p5837
aV,
aVit
p5838
aVgot
p5839
aVabout
p5840
aVthat
p5841
aVthe
p5842
aVhouse
p5843
aVwas
p5844
aVall
p5845
aVthat
p5846
aVwas
p5847
aVleft
p5848
aVto
p5849
aVher
p5850
aV;
aVand
p5851
aVin
p5852
aVa
aVway
p5853
aV,
aVpeople
p5854
aVwere
p5855
aVglad
p5856
aV.
aa(lp5857
Vat
p5858
aVlast
p5859
aVthey
p5860
aVcould
p5861
aVpity
p5862
aVmiss
p5863
aVemily
p5864
aV.
aa(lp5865
Vbeing
p5866
aVleft
p5867
aValone
p5868
aV,
aVand
p5869
aVa
aVpauper
p5870
aV,
aVshe
p5871
aVhad
p5872
aVbecome
p5873
aVhumanized
p5874
aV.
aa(lp5875
Vnow
p5876
aVshe
p5877
aVtoo
p5878
aVwould
p5879
aVknow
p5880
aVthe
p5881
aVold
p5882
aVthrill
p5883
aVand
p5884
aVthe
p5885
aVold
p5886
aVdespair
p5887
aVof
p5888
aVa
aVpenny
p5889
aVmore
p5890
aVor
p5891
aVless
p5892
aV.
aa(lp5893
Vthe
p5894
aVday
p5895
aVafter
p5896
aVhis
p5897
aVdeath
p5898
aVall
p5899
aVthe
p5900
aVladies
p5901
aVprepared
p5902
aVto
p5903
aVcall
p5904
aVat
p5905
aVthe
p5906
aVhouse
p5907
aVand
p5908
aVoffer
p5909
aVcondolence
p5910
aVand
p5911
aVaid
p5912
aV,
aVas
p5913
aVis
p5914
aVour
p5915
aVcustom
p5916
aVmiss
p5917
aVemily
p5918
aVmet
p5919
aVthem
p5920
aVat
p5921
aVthe
p5922
aVdoor
p5923
aV,
aVdressed
p5924
aVas
p5925
aVusual
p5926
aVand
p5927
aVwith
p5928
aVno
p5929
aVtrace
p5930
aVof
p5931
aVgrief
p5932
aVon
p5933
aVher
p5934
aVface
p5935
aV.
aa(lp5936
Vshe
p5937
aVtold
p5938
aVthem
p5939
aVthat
p5940
aVher
p5941
aVfather
p5942
aVwas
p5943
aVnot
p5944
aVdead
p5945
aV.
aa(lp5946
Vshe
p5947
aVdid
p5948
aVthat
p5949
aVfor
p5950
aVthree
p5951
aVdays
p5952
aV,
aVwith
p5953
aVthe
p5954
aVministers
p5955
aVcalling
p5956
aVon
p5957
aVher
p5958
aV,
aVand
p5959
aVthe
p5960
aVdoctors
p5961
aV,
aVtrying
p5962
aVto
p5963
aVpersuade
p5964
aVher
p5965
aVto
p5966
aVlet
p5967
aVthem
p5968
aVdispose
p5969
aVof
p5970
aVthe
p5971
aVbody
p5972
aV.
aa(lp5973
Vjust
p5974
aVas
p5975
aVthey
p5976
aVwere
p5977
aVabout
p5978
aVto
p5979
aVresort
p5980
aVto
p5981
aVlaw
p5982
aVand
p5983
aVforce
p5984
aV,
aVshe
p5985
aVbroke
p5986
aVdown
p5987
aV,
aVand
p5988
aVthey
p5989
aVburied
p5990
aVher
p5991
aVfather
p5992
aVquickly
p5993
aV.
aa(lp5994
Vwe
p5995
aVdid
p5996
aVnot
p5997
aVsay
p5998
aVshe
p5999
aVwas
p6000
aVcrazy
p6001
aVthen
p6002
aV.
aa(lp6003
Vwe
p6004
aVbelieved
p6005
aVshe
p6006
aVhad
p6007
aVto
p6008
aVdo
p6009
aVthat
p6010
aV.
aa(lp6011
Vwe
p6012
aVremembered
p6013
aVall
p6014
aVthe
p6015
aVyoung
p6016
aVmen
p6017
aVher
p6018
aVfather
p6019
aVhad
p6020
aVdriven
p6021
aVaway
p6022
aV,
aVand
p6023
aVwe
p6024
aVknew
p6025
aVthat
p6026
aVwith
p6027
aVnothing
p6028
aVleft
p6029
aV,
aVshe
p6030
aVwould
p6031
aVhave
p6032
aVto
p6033
aVcling
p6034
aVto
p6035
aVthat
p6036
aVwhich
p6037
aVhad
p6038
aVrobbed
p6039
aVher
p6040
aV,
aVas
p6041
aVpeople
p6042
aVwill
p6043
aV.
aa(lp6044
Viii
p6045
aVshe
p6046
aVwas
p6047
aVsick
p6048
aVfor
p6049
aVa
aVlong
p6050
aVtime
p6051
aV.
aa(lp6052
Vwhen
p6053
aVwe
p6054
aVsaw
p6055
aVher
p6056
aVagain
p6057
aV,
aVher
p6058
aVhair
p6059
aVwas
p6060
aVcut
p6061
aVshort
p6062
aV,
aVmaking
p6063
aVher
p6064
aVlook
p6065
aVlike
p6066
aVa
aVgirl
p6067
aV,
aVwith
p6068
aVa
aVvague
p6069
aVresemblance
p6070
aVto
p6071
aVthose
p6072
aVangels
p6073
aVin
p6074
aVcolored
p6075
aVchurch
p6076
aVwindows
p6077
aV--
p6078
aVsort
p6079
aVof
p6080
aVtragic
p6081
aVand
p6082
aVserene
p6083
aV.
aa(lp6084
Vthe
p6085
aVtown
p6086
aVhad
p6087
aVjust
p6088
aVlet
p6089
aVthe
p6090
aVcontracts
p6091
aVfor
p6092
aVpaving
p6093
aVthe
p6094
aVsidewalks
p6095
aV,
aVand
p6096
aVin
p6097
aVthe
p6098
aVsummer
p6099
aVafter
p6100
aVher
p6101
aVfather
p6102
aV's
p6103
aVdeath
p6104
aVthey
p6105
aVbegan
p6106
aVthe
p6107
aVwork
p6108
aV.
aa(lp6109
Vthe
p6110
aVconstruction
p6111
aVcompany
p6112
aVcame
p6113
aVwith
p6114
aVniggers
p6115
aVand
p6116
aVmules
p6117
aVand
p6118
aVmachinery
p6119
aV,
aVand
p6120
aVa
aVforeman
p6121
aVnamed
p6122
aVhomer
p6123
aVbarron
p6124
aV,
aVa
aVyankee
p6125
aV--
p6126
aVa
aVbig
p6127
aV,
aVdark
p6128
aV,
aVready
p6129
aVman
p6130
aV,
aVwith
p6131
aVa
aVbig
p6132
aVvoice
p6133
aVand
p6134
aVeyes
p6135
aVlighter
p6136
aVthan
p6137
aVhis
p6138
aVface
p6139
aV.
aa(lp6140
Vthe
p6141
aVlittle
p6142
aVboys
p6143
aVwould
p6144
aVfollow
p6145
aVin
p6146
aVgroups
p6147
aVto
p6148
aVhear
p6149
aVhim
p6150
aVcuss
p6151
aVthe
p6152
aVniggers
p6153
aV,
aVand
p6154
aVthe
p6155
aVniggers
p6156
aVsinging
p6157
aVin
p6158
aVtime
p6159
aVto
p6160
aVthe
p6161
aVrise
p6162
aVand
p6163
aVfall
p6164
aVof
p6165
aVpicks
p6166
aV.
aa(lp6167
Vpretty
p6168
aVsoon
p6169
aVhe
p6170
aVknew
p6171
aVeverybody
p6172
aVin
p6173
aVtown
p6174
aV.
aa(lp6175
Vwhenever
p6176
aVyou
p6177
aVheard
p6178
aVa
aVlot
p6179
aVof
p6180
aVlaughing
p6181
aVanywhere
p6182
aVabout
p6183
aVthe
p6184
aVsquare
p6185
aV,
aVhomer
p6186
aVbarron
p6187
aVwould
p6188
aVbe
p6189
aVin
p6190
aVthe
p6191
aVcenter
p6192
aVof
p6193
aVthe
p6194
aVgroup
p6195
aV.
aa(lp6196
Vpresently
p6197
aVwe
p6198
aVbegan
p6199
aVto
p6200
aVsee
p6201
aVhim
p6202
aVand
p6203
aVmiss
p6204
aVemily
p6205
aVon
p6206
aVsunday
p6207
aVafternoons
p6208
aVdriving
p6209
aVin
p6210
aVthe
p6211
aVyellow-wheeled
p6212
aVbuggy
p6213
aVand
p6214
aVthe
p6215
aVmatched
p6216
aVteam
p6217
aVof
p6218
aVbays
p6219
aVfrom
p6220
aVthe
p6221
aVlivery
p6222
aVstable
p6223
aV.
aa(lp6224
Vat
p6225
aVfirst
p6226
aVwe
p6227
aVwere
p6228
aVglad
p6229
aVthat
p6230
aVmiss
p6231
aVemily
p6232
aVwould
p6233
aVhave
p6234
aVan
p6235
aVinterest
p6236
aV,
aVbecause
p6237
aVthe
p6238
aVladies
p6239
aVall
p6240
aVsaid
p6241
aV,
aV``
p6242
aVof
p6243
aVcourse
p6244
aVa
aVgrierson
p6245
aVwould
p6246
aVnot
p6247
aVthink
p6248
aVseriously
p6249
aVof
p6250
aVa
aVnortherner
p6251
aV,
aVa
aVday
p6252
aVlaborer
p6253
aV.
aV''
p6254
aa(lp6255
Vbut
p6256
aVthere
p6257
aVwere
p6258
aVstill
p6259
aVothers
p6260
aV,
aVolder
p6261
aVpeople
p6262
aV,
aVwho
p6263
aVsaid
p6264
aVthat
p6265
aVeven
p6266
aVgrief
p6267
aVcould
p6268
aVnot
p6269
aVcause
p6270
aVa
aVreal
p6271
aVlady
p6272
aVto
p6273
aVforget
p6274
aVnoblesse
p6275
aVoblige-
p6276
aV-
aVwithout
p6277
aVcalling
p6278
aVit
p6279
aVnoblesse
p6280
aVoblige
p6281
aV.
aa(lp6282
Vthey
p6283
aVjust
p6284
aVsaid
p6285
aV,
aV``
p6286
aVpoor
p6287
aVemily
p6288
aV.
aa(lp6289
Vher
p6290
aVkinsfolk
p6291
aVshould
p6292
aVcome
p6293
aVto
p6294
aVher
p6295
aV.
aV''
p6296
aa(lp6297
Vshe
p6298
aVhad
p6299
aVsome
p6300
aVkin
p6301
aVin
p6302
aValabama
p6303
aV;
aVbut
p6304
aVyears
p6305
aVago
p6306
aVher
p6307
aVfather
p6308
aVhad
p6309
aVfallen
p6310
aVout
p6311
aVwith
p6312
aVthem
p6313
aVover
p6314
aVthe
p6315
aVestate
p6316
aVof
p6317
aVold
p6318
aVlady
p6319
aVwyatt
p6320
aV,
aVthe
p6321
aVcrazy
p6322
aVwoman
p6323
aV,
aVand
p6324
aVthere
p6325
aVwas
p6326
aVno
p6327
aVcommunication
p6328
aVbetween
p6329
aVthe
p6330
aVtwo
p6331
aVfamilies
p6332
aV.
aa(lp6333
Vthey
p6334
aVhad
p6335
aVnot
p6336
aVeven
p6337
aVbeen
p6338
aVrepresented
p6339
aVat
p6340
aVthe
p6341
aVfuneral
p6342
aV.
aa(lp6343
Vand
p6344
aVas
p6345
aVsoon
p6346
aVas
p6347
aVthe
p6348
aVold
p6349
aVpeople
p6350
aVsaid
p6351
aV,
aV``
p6352
aVpoor
p6353
aVemily
p6354
aV,
aV''
p6355
aVthe
p6356
aVwhispering
p6357
aVbegan
p6358
aV.
aa(lp6359
V``
p6360
aVdo
p6361
aVyou
p6362
aVsuppose
p6363
aVit
p6364
aV's
p6365
aVreally
p6366
aVso
p6367
aV?
aV''
p6368
aa(lp6369
Vthey
p6370
aVsaid
p6371
aVto
p6372
aVone
p6373
aVanother
p6374
aV.
aa(lp6375
V``
p6376
aVof
p6377
aVcourse
p6378
aVit
p6379
aVis
p6380
aV.
aa(lp6381
Vwhat
p6382
aVelse
p6383
aVcould
p6384
aV.
aa(lp6385
V.
aa(lp6386
V.
aV''
p6387
aa(lp6388
Vthis
p6389
aVbehind
p6390
aVtheir
p6391
aVhands
p6392
aV;
aVrustling
p6393
aVof
p6394
aVcraned
p6395
aVsilk
p6396
aVand
p6397
aVsatin
p6398
aVbehind
p6399
aVjalousies
p6400
aVclosed
p6401
aVupon
p6402
aVthe
p6403
aVsun
p6404
aVof
p6405
aVsunday
p6406
aVafternoon
p6407
aVas
p6408
aVthe
p6409
aVthin
p6410
aV,
aVswift
p6411
aVclop-clop-clop
p6412
aVof
p6413
aVthe
p6414
aVmatched
p6415
aVteam
p6416
aVpassed
p6417
aV:
aV``
p6418
aVpoor
p6419
aVemily
p6420
aV.
aV''
p6421
aa(lp6422
Vshe
p6423
aVcarried
p6424
aVher
p6425
aVhead
p6426
aVhigh
p6427
aVenough
p6428
aV--
p6429
aVeven
p6430
aVwhen
p6431
aVwe
p6432
aVbelieved
p6433
aVthat
p6434
aVshe
p6435
aVwas
p6436
aVfallen
p6437
aV.
aa(lp6438
Vit
p6439
aVwas
p6440
aVas
p6441
aVif
p6442
aVshe
p6443
aVdemanded
p6444
aVmore
p6445
aVthan
p6446
aVever
p6447
aVthe
p6448
aVrecognition
p6449
aVof
p6450
aVher
p6451
aVdignity
p6452
aVas
p6453
aVthe
p6454
aVlast
p6455
aVgrierson
p6456
aV;
aVas
p6457
aVif
p6458
aVit
p6459
aVhad
p6460
aVwanted
p6461
aVthat
p6462
aVtouch
p6463
aVof
p6464
aVearthiness
p6465
aVto
p6466
aVreaffirm
p6467
aVher
p6468
aVimperviousness
p6469
aV.
aa(lp6470
Vlike
p6471
aVwhen
p6472
aVshe
p6473
aVbought
p6474
aVthe
p6475
aVrat
p6476
aVpoison
p6477
aV,
aVthe
p6478
aVarsenic
p6479
aV.
aa(lp6480
Vthat
p6481
aVwas
p6482
aVover
p6483
aVa
aVyear
p6484
aVafter
p6485
aVthey
p6486
aVhad
p6487
aVbegun
p6488
aVto
p6489
aVsay
p6490
aV``
p6491
aVpoor
p6492
aVemily
p6493
aV,
aV''
p6494
aVand
p6495
aVwhile
p6496
aVthe
p6497
aVtwo
p6498
aVfemale
p6499
aVcousins
p6500
aVwere
p6501
aVvisiting
p6502
aVher
p6503
aV.
aa(lp6504
V``
p6505
aVi
aVwant
p6506
aVsome
p6507
aVpoison
p6508
aV,
aV''
p6509
aVshe
p6510
aVsaid
p6511
aVto
p6512
aVthe
p6513
aVdruggist
p6514
aV.
aa(lp6515
Vshe
p6516
aVwas
p6517
aVover
p6518
aVthirty
p6519
aVthen
p6520
aV,
aVstill
p6521
aVa
aVslight
p6522
aVwoman
p6523
aV,
aVthough
p6524
aVthinner
p6525
aVthan
p6526
aVusual
p6527
aV,
aVwith
p6528
aVcold
p6529
aV,
aVhaughty
p6530
aVblack
p6531
aVeyes
p6532
aVin
p6533
aVa
aVface
p6534
aVthe
p6535
aVflesh
p6536
aVof
p6537
aVwhich
p6538
aVwas
p6539
aVstrained
p6540
aVacross
p6541
aVthe
p6542
aVtemples
p6543
aVand
p6544
aVabout
p6545
aVthe
p6546
aVeyesockets
p6547
aVas
p6548
aVyou
p6549
aVimagine
p6550
aVa
aVlighthouse-keeper
p6551
aV's
p6552
aVface
p6553
aVought
p6554
aVto
p6555
aVlook
p6556
aV.
aa(lp6557
V``
p6558
aVi
aVwant
p6559
aVsome
p6560
aVpoison
p6561
aV,
aV''
p6562
aVshe
p6563
aVsaid
p6564
aV.
aa(lp6565
V``
p6566
aVyes
p6567
aV,
aVmiss
p6568
aVemily
p6569
aV.
aa(lp6570
Vwhat
p6571
aVkind
p6572
aV?
aa(lp6573
Vfor
p6574
aVrats
p6575
aVand
p6576
aVsuch
p6577
aV?
aa(lp6578
Vi
aV'd
p6579
aVrecom
p6580
aV--
p6581
aV''
p6582
aV''
p6583
aVi
aVwant
p6584
aVthe
p6585
aVbest
p6586
aVyou
p6587
aVhave
p6588
aV.
aa(lp6589
Vi
aVdo
p6590
aVn't
p6591
aVcare
p6592
aVwhat
p6593
aVkind
p6594
aV.
aV''
p6595
aa(lp6596
Vthe
p6597
aVdruggist
p6598
aVnamed
p6599
aVseveral
p6600
aV.
aa(lp6601
V``
p6602
aVthey
p6603
aV'll
p6604
aVkill
p6605
aVanything
p6606
aVup
p6607
aVto
p6608
aVan
p6609
aVelephant
p6610
aV.
aa(lp6611
Vbut
p6612
aVwhat
p6613
aVyou
p6614
aVwant
p6615
aVis
p6616
aV--
p6617
aV''
p6618
aV''
p6619
aVarsenic
p6620
aV,
aV''
p6621
aVmiss
p6622
aVemily
p6623
aVsaid
p6624
aV.
aa(lp6625
V``
p6626
aVis
p6627
aVthat
p6628
aVa
aVgood
p6629
aVone
p6630
aV?
aV''
p6631
aa(lp6632
V``
p6633
aVis
p6634
aV.
aa(lp6635
V.
aa(lp6636
V.
aa(lp6637
Varsenic
p6638
aV?
aa(lp6639
Vyes
p6640
aV,
aVma'am
p6641
aV.
aa(lp6642
Vbut
p6643
aVwhat
p6644
aVyou
p6645
aVwant
p6646
aV--
p6647
aV''
p6648
aV''
p6649
aVi
aVwant
p6650
aVarsenic
p6651
aV.
aV''
p6652
aa(lp6653
Vthe
p6654
aVdruggist
p6655
aVlooked
p6656
aVdown
p6657
aVat
p6658
aVher
p6659
aV.
aa(lp6660
Vshe
p6661
aVlooked
p6662
aVback
p6663
aVat
p6664
aVhim
p6665
aV,
aVerect
p6666
aV,
aVher
p6667
aVface
p6668
aVlike
p6669
aVa
aVstrained
p6670
aVflag
p6671
aV.
aa(lp6672
V``
p6673
aVwhy
p6674
aV,
aVof
p6675
aVcourse
p6676
aV,
aV''
p6677
aVthe
p6678
aVdruggist
p6679
aVsaid
p6680
aV.
aa(lp6681
V``
p6682
aVif
p6683
aVthat
p6684
aV's
p6685
aVwhat
p6686
aVyou
p6687
aVwant
p6688
aV.
aa(lp6689
Vbut
p6690
aVthe
p6691
aVlaw
p6692
aVrequires
p6693
aVyou
p6694
aVto
p6695
aVtell
p6696
aVwhat
p6697
aVyou
p6698
aVare
p6699
aVgoing
p6700
aVto
p6701
aVuse
p6702
aVit
p6703
aVfor
p6704
aV.
aV''
p6705
aa(lp6706
Vmiss
p6707
aVemily
p6708
aVjust
p6709
aVstared
p6710
aVat
p6711
aVhim
p6712
aV,
aVher
p6713
aVhead
p6714
aVtilted
p6715
aVback
p6716
aVin
p6717
aVorder
p6718
aVto
p6719
aVlook
p6720
aVhim
p6721
aVeye
p6722
aVfor
p6723
aVeye
p6724
aV,
aVuntil
p6725
aVhe
p6726
aVlooked
p6727
aVaway
p6728
aVand
p6729
aVwent
p6730
aVand
p6731
aVgot
p6732
aVthe
p6733
aVarsenic
p6734
aVand
p6735
aVwrapped
p6736
aVit
p6737
aVup
p6738
aV.
aa(lp6739
Vthe
p6740
aVnegro
p6741
aVdelivery
p6742
aVboy
p6743
aVbrought
p6744
aVher
p6745
aVthe
p6746
aVpackage
p6747
aV;
aVthe
p6748
aVdruggist
p6749
aVdid
p6750
aVn't
p6751
aVcome
p6752
aVback
p6753
aV.
aa(lp6754
Vwhen
p6755
aVshe
p6756
aVopened
p6757
aVthe
p6758
aVpackage
p6759
aVat
p6760
aVhome
p6761
aVthere
p6762
aVwas
p6763
aVwritten
p6764
aVon
p6765
aVthe
p6766
aVbox
p6767
aV,
aVunder
p6768
aVthe
p6769
aVskull
p6770
aVand
p6771
aVbones
p6772
aV:
aV``
p6773
aVfor
p6774
aVrats
p6775
aV.
aV''
p6776
aa(lp6777
Viv
p6778
aVso
p6779
aVthe
p6780
aVnext
p6781
aVday
p6782
aVwe
p6783
aVall
p6784
aVsaid
p6785
aV,
aV``
p6786
aVshe
p6787
aVwill
p6788
aVkill
p6789
aVherself
p6790
aV''
p6791
aV;
aVand
p6792
aVwe
p6793
aVsaid
p6794
aVit
p6795
aVwould
p6796
aVbe
p6797
aVthe
p6798
aVbest
p6799
aVthing
p6800
aV.
aa(lp6801
Vwhen
p6802
aVshe
p6803
aVhad
p6804
aVfirst
p6805
aVbegun
p6806
aVto
p6807
aVbe
p6808
aVseen
p6809
aVwith
p6810
aVhomer
p6811
aVbarron
p6812
aV,
aVwe
p6813
aVhad
p6814
aVsaid
p6815
aV,
aV``
p6816
aVshe
p6817
aVwill
p6818
aVmarry
p6819
aVhim
p6820
aV.
aV''
p6821
aa(lp6822
Vthen
p6823
aVwe
p6824
aVsaid
p6825
aV,
aV``
p6826
aVshe
p6827
aVwill
p6828
aVpersuade
p6829
aVhim
p6830
aVyet
p6831
aV,
aV''
p6832
aVbecause
p6833
aVhomer
p6834
aVhimself
p6835
aVhad
p6836
aVremarked
p6837
aV--
p6838
aVhe
p6839
aVliked
p6840
aVmen
p6841
aV,
aVand
p6842
aVit
p6843
aVwas
p6844
aVknown
p6845
aVthat
p6846
aVhe
p6847
aVdrank
p6848
aVwith
p6849
aVthe
p6850
aVyounger
p6851
aVmen
p6852
aVin
p6853
aVthe
p6854
aVelks
p6855
aV'
aVclub
p6856
aV--
p6857
aVthat
p6858
aVhe
p6859
aVwas
p6860
aVnot
p6861
aVa
aVmarrying
p6862
aVman
p6863
aV.
aa(lp6864
Vlater
p6865
aVwe
p6866
aVsaid
p6867
aV,
aV``
p6868
aVpoor
p6869
aVemily
p6870
aV''
p6871
aVbehind
p6872
aVthe
p6873
aVjalousies
p6874
aVas
p6875
aVthey
p6876
aVpassed
p6877
aVon
p6878
aVsunday
p6879
aVafternoon
p6880
aVin
p6881
aVthe
p6882
aVglittering
p6883
aVbuggy
p6884
aV,
aVmiss
p6885
aVemily
p6886
aVwith
p6887
aVher
p6888
aVhead
p6889
aVhigh
p6890
aVand
p6891
aVhomer
p6892
aVbarron
p6893
aVwith
p6894
aVhis
p6895
aVhat
p6896
aVcocked
p6897
aVand
p6898
aVa
aVcigar
p6899
aVin
p6900
aVhis
p6901
aVteeth
p6902
aV,
aVreins
p6903
aVand
p6904
aVwhip
p6905
aVin
p6906
aVa
aVyellow
p6907
aVglove
p6908
aV.
aa(lp6909
Vthen
p6910
aVsome
p6911
aVof
p6912
aVthe
p6913
aVladies
p6914
aVbegan
p6915
aVto
p6916
aVsay
p6917
aVthat
p6918
aVit
p6919
aVwas
p6920
aVa
aVdisgrace
p6921
aVto
p6922
aVthe
p6923
aVtown
p6924
aVand
p6925
aVa
aVbad
p6926
aVexample
p6927
aVto
p6928
aVthe
p6929
aVyoung
p6930
aVpeople
p6931
aV.
aa(lp6932
Vthe
p6933
aVmen
p6934
aVdid
p6935
aVnot
p6936
aVwant
p6937
aVto
p6938
aVinterfere
p6939
aV,
aVbut
p6940
aVat
p6941
aVlast
p6942
aVthe
p6943
aVladies
p6944
aVforced
p6945
aVthe
p6946
aVbaptist
p6947
aVminister
p6948
aV--
p6949
aVmiss
p6950
aVemily
p6951
aV's
p6952
aVpeople
p6953
aVwere
p6954
aVepiscopal
p6955
aV--
p6956
aVto
p6957
aVcall
p6958
aVupon
p6959
aVher
p6960
aV.
aa(lp6961
Vhe
p6962
aVwould
p6963
aVnever
p6964
aVdivulge
p6965
aVwhat
p6966
aVhappened
p6967
aVduring
p6968
aVthat
p6969
aVinterview
p6970
aV,
aVbut
p6971
aVhe
p6972
aVrefused
p6973
aVto
p6974
aVgo
p6975
aVback
p6976
aVagain
p6977
aV.
aa(lp6978
Vthe
p6979
aVnext
p6980
aVsunday
p6981
aVthey
p6982
aVagain
p6983
aVdrove
p6984
aVabout
p6985
aVthe
p6986
aVstreets
p6987
aV,
aVand
p6988
aVthe
p6989
aVfollowing
p6990
aVday
p6991
aVthe
p6992
aVminister
p6993
aV's
p6994
aVwife
p6995
aVwrote
p6996
aVto
p6997
aVmiss
p6998
aVemily
p6999
aV's
p7000
aVrelations
p7001
aVin
p7002
aValabama
p7003
aV.
aa(lp7004
Vso
p7005
aVshe
p7006
aVhad
p7007
aVblood-kin
p7008
aVunder
p7009
aVher
p7010
aVroof
p7011
aVagain
p7012
aVand
p7013
aVwe
p7014
aVsat
p7015
aVback
p7016
aVto
p7017
aVwatch
p7018
aVdevelopments
p7019
aV.
aa(lp7020
Vat
p7021
aVfirst
p7022
aVnothing
p7023
aVhappened
p7024
aV.
aa(lp7025
Vthen
p7026
aVwe
p7027
aVwere
p7028
aVsure
p7029
aVthat
p7030
aVthey
p7031
aVwere
p7032
aVto
p7033
aVbe
p7034
aVmarried
p7035
aV.
aa(lp7036
Vwe
p7037
aVlearned
p7038
aVthat
p7039
aVmiss
p7040
aVemily
p7041
aVhad
p7042
aVbeen
p7043
aVto
p7044
aVthe
p7045
aVjeweler
p7046
aV's
p7047
aVand
p7048
aVordered
p7049
aVa
aVman
p7050
aV's
p7051
aVtoilet
p7052
aVset
p7053
aVin
p7054
aVsilver
p7055
aV,
aVwith
p7056
aVthe
p7057
aVletters
p7058
aVh.
p7059
aVb.
p7060
aVon
p7061
aVeach
p7062
aVpiece
p7063
aV.
aa(lp7064
Vtwo
p7065
aVdays
p7066
aVlater
p7067
aVwe
p7068
aVlearned
p7069
aVthat
p7070
aVshe
p7071
aVhad
p7072
aVbought
p7073
aVa
aVcomplete
p7074
aVoutfit
p7075
aVof
p7076
aVmen
p7077
aV's
p7078
aVclothing
p7079
aV,
aVincluding
p7080
aVa
aVnightshirt
p7081
aV,
aVand
p7082
aVwe
p7083
aVsaid
p7084
aV,
aV``
p7085
aVthey
p7086
aVare
p7087
aVmarried
p7088
aV.
aV''
p7089
aa(lp7090
Vwe
p7091
aVwere
p7092
aVreally
p7093
aVglad
p7094
aV.
aa(lp7095
Vwe
p7096
aVwere
p7097
aVglad
p7098
aVbecause
p7099
aVthe
p7100
aVtwo
p7101
aVfemale
p7102
aVcousins
p7103
aVwere
p7104
aVeven
p7105
aVmore
p7106
aVgrierson
p7107
aVthan
p7108
aVmiss
p7109
aVemily
p7110
aVhad
p7111
aVever
p7112
aVbeen
p7113
aV.
aa(lp7114
Vso
p7115
aVwe
p7116
aVwere
p7117
aVnot
p7118
aVsurprised
p7119
aVwhen
p7120
aVhomer
p7121
aVbarron
p7122
aV--
p7123
aVthe
p7124
aVstreets
p7125
aVhad
p7126
aVbeen
p7127
aVfinished
p7128
aVsome
p7129
aVtime
p7130
aVsince
p7131
aV--
p7132
aVwas
p7133
aVgone
p7134
aV.
aa(lp7135
Vwe
p7136
aVwere
p7137
aVa
aVlittle
p7138
aVdisappointed
p7139
aVthat
p7140
aVthere
p7141
aVwas
p7142
aVnot
p7143
aVa
aVpublic
p7144
aVblowing-off
p7145
aV,
aVbut
p7146
aVwe
p7147
aVbelieved
p7148
aVthat
p7149
aVhe
p7150
aVhad
p7151
aVgone
p7152
aVon
p7153
aVto
p7154
aVprepare
p7155
aVfor
p7156
aVmiss
p7157
aVemily
p7158
aV's
p7159
aVcoming
p7160
aV,
aVor
p7161
aVto
p7162
aVgive
p7163
aVher
p7164
aVa
aVchance
p7165
aVto
p7166
aVget
p7167
aVrid
p7168
aVof
p7169
aVthe
p7170
aVcousins
p7171
aV.
aa(lp7172
V(
aVby
p7173
aVthat
p7174
aVtime
p7175
aVit
p7176
aVwas
p7177
aVa
aVcabal
p7178
aV,
aVand
p7179
aVwe
p7180
aVwere
p7181
aVall
p7182
aVmiss
p7183
aVemily
p7184
aV's
p7185
aVallies
p7186
aVto
p7187
aVhelp
p7188
aVcircumvent
p7189
aVthe
p7190
aVcousins
p7191
aV.
aV)
aa(lp7192
Vsure
p7193
aVenough
p7194
aV,
aVafter
p7195
aVanother
p7196
aVweek
p7197
aVthey
p7198
aVdeparted
p7199
aV.
aa(lp7200
Vand
p7201
aV,
aVas
p7202
aVwe
p7203
aVhad
p7204
aVexpected
p7205
aVall
p7206
aValong
p7207
aV,
aVwithin
p7208
aVthree
p7209
aVdays
p7210
aVhomer
p7211
aVbarron
p7212
aVwas
p7213
aVback
p7214
aVin
p7215
aVtown
p7216
aV.
aa(lp7217
Va
aVneighbor
p7218
aVsaw
p7219
aVthe
p7220
aVnegro
p7221
aVman
p7222
aVadmit
p7223
aVhim
p7224
aVat
p7225
aVthe
p7226
aVkitchen
p7227
aVdoor
p7228
aVat
p7229
aVdusk
p7230
aVone
p7231
aVevening
p7232
aV.
aa(lp7233
Vand
p7234
aVthat
p7235
aVwas
p7236
aVthe
p7237
aVlast
p7238
aVwe
p7239
aVsaw
p7240
aVof
p7241
aVhomer
p7242
aVbarron
p7243
aV.
aa(lp7244
Vand
p7245
aVof
p7246
aVmiss
p7247
aVemily
p7248
aVfor
p7249
aVsome
p7250
aVtime
p7251
aV.
aa(lp7252
Vthe
p7253
aVnegro
p7254
aVman
p7255
aVwent
p7256
aVin
p7257
aVand
p7258
aVout
p7259
aVwith
p7260
aVthe
p7261
aVmarket
p7262
aVbasket
p7263
aV,
aVbut
p7264
aVthe
p7265
aVfront
p7266
aVdoor
p7267
aVremained
p7268
aVclosed
p7269
aV.
aa(lp7270
Vnow
p7271
aVand
p7272
aVthen
p7273
aVwe
p7274
aVwould
p7275
aVsee
p7276
aVher
p7277
aVat
p7278
aVa
aVwindow
p7279
aVfor
p7280
aVa
aVmoment
p7281
aV,
aVas
p7282
aVthe
p7283
aVmen
p7284
aVdid
p7285
aVthat
p7286
aVnight
p7287
aVwhen
p7288
aVthey
p7289
aVsprinkled
p7290
aVthe
p7291
aVlime
p7292
aV,
aVbut
p7293
aVfor
p7294
aValmost
p7295
aVsix
p7296
aVmonths
p7297
aVshe
p7298
aVdid
p7299
aVnot
p7300
aVappear
p7301
aVon
p7302
aVthe
p7303
aVstreets
p7304
aV.
aa(lp7305
Vthen
p7306
aVwe
p7307
aVknew
p7308
aVthat
p7309
aVthis
p7310
aVwas
p7311
aVto
p7312
aVbe
p7313
aVexpected
p7314
aVtoo
p7315
aV;
aVas
p7316
aVif
p7317
aVthat
p7318
aVquality
p7319
aVof
p7320
aVher
p7321
aVfather
p7322
aVwhich
p7323
aVhad
p7324
aVthwarted
p7325
aVher
p7326
aVwoman
p7327
aV's
p7328
aVlife
p7329
aVso
p7330
aVmany
p7331
aVtimes
p7332
aVhad
p7333
aVbeen
p7334
aVtoo
p7335
aVvirulent
p7336
aVand
p7337
aVtoo
p7338
aVfurious
p7339
aVto
p7340
aVdie
p7341
aV.
aa(lp7342
Vwhen
p7343
aVwe
p7344
aVnext
p7345
aVsaw
p7346
aVmiss
p7347
aVemily
p7348
aV,
aVshe
p7349
aVhad
p7350
aVgrown
p7351
aVfat
p7352
aVand
p7353
aVher
p7354
aVhair
p7355
aVwas
p7356
aVturning
p7357
aVgray
p7358
aV.
aa(lp7359
Vduring
p7360
aVthe
p7361
aVnext
p7362
aVfew
p7363
aVyears
p7364
aVit
p7365
aVgrew
p7366
aVgrayer
p7367
aVand
p7368
aVgrayer
p7369
aVuntil
p7370
aVit
p7371
aVattained
p7372
aVan
p7373
aVeven
p7374
aVpepper-and-salt
p7375
aViron-gray
p7376
aV,
aVwhen
p7377
aVit
p7378
aVceased
p7379
aVturning
p7380
aV.
aa(lp7381
Vup
p7382
aVto
p7383
aVthe
p7384
aVday
p7385
aVof
p7386
aVher
p7387
aVdeath
p7388
aVat
p7389
aVseventy-four
p7390
aVit
p7391
aVwas
p7392
aVstill
p7393
aVthat
p7394
aVvigorous
p7395
aViron-gray
p7396
aV,
aVlike
p7397
aVthe
p7398
aVhair
p7399
aVof
p7400
aVan
p7401
aVactive
p7402
aVman
p7403
aV.
aa(lp7404
Vfrom
p7405
aVthat
p7406
aVtime
p7407
aVon
p7408
aVher
p7409
aVfront
p7410
aVdoor
p7411
aVremained
p7412
aVclosed
p7413
aV,
aVsave
p7414
aVfor
p7415
aVa
aVperiod
p7416
aVof
p7417
aVsix
p7418
aVor
p7419
aVseven
p7420
aVyears
p7421
aV,
aVwhen
p7422
aVshe
p7423
aVwas
p7424
aVabout
p7425
aVforty
p7426
aV,
aVduring
p7427
aVwhich
p7428
aVshe
p7429
aVgave
p7430
aVlessons
p7431
aVin
p7432
aVchina-painting
p7433
aV.
aa(lp7434
Vshe
p7435
aVfitted
p7436
aVup
p7437
aVa
aVstudio
p7438
aVin
p7439
aVone
p7440
aVof
p7441
aVthe
p7442
aVdownstairs
p7443
aVrooms
p7444
aV,
aVwhere
p7445
aVthe
p7446
aVdaughters
p7447
aVand
p7448
aVgranddaughters
p7449
aVof
p7450
aVcolonel
p7451
aVsartoris
p7452
aV'
aVcontemporaries
p7453
aVwere
p7454
aVsent
p7455
aVto
p7456
aVher
p7457
aVwith
p7458
aVthe
p7459
aVsame
p7460
aVregularity
p7461
aVand
p7462
aVin
p7463
aVthe
p7464
aVsame
p7465
aVspirit
p7466
aVthat
p7467
aVthey
p7468
aVwere
p7469
aVsent
p7470
aVto
p7471
aVchurch
p7472
aVon
p7473
aVsundays
p7474
aVwith
p7475
aVa
aVtwenty-five-cent
p7476
aVpiece
p7477
aVfor
p7478
aVthe
p7479
aVcollection
p7480
aVplate
p7481
aV.
aa(lp7482
Vmeanwhile
p7483
aVher
p7484
aVtaxes
p7485
aVhad
p7486
aVbeen
p7487
aVremitted
p7488
aV.
aa(lp7489
Vthen
p7490
aVthe
p7491
aVnewer
p7492
aVgeneration
p7493
aVbecame
p7494
aVthe
p7495
aVbackbone
p7496
aVand
p7497
aVthe
p7498
aVspirit
p7499
aVof
p7500
aVthe
p7501
aVtown
p7502
aV,
aVand
p7503
aVthe
p7504
aVpainting
p7505
aVpupils
p7506
aVgrew
p7507
aVup
p7508
aVand
p7509
aVfell
p7510
aVaway
p7511
aVand
p7512
aVdid
p7513
aVnot
p7514
aVsend
p7515
aVtheir
p7516
aVchildren
p7517
aVto
p7518
aVher
p7519
aVwith
p7520
aVboxes
p7521
aVof
p7522
aVcolor
p7523
aVand
p7524
aVtedious
p7525
aVbrushes
p7526
aVand
p7527
aVpictures
p7528
aVcut
p7529
aVfrom
p7530
aVthe
p7531
aVladies
p7532
aV'
aVmagazines
p7533
aV.
aa(lp7534
Vthe
p7535
aVfront
p7536
aVdoor
p7537
aVclosed
p7538
aVupon
p7539
aVthe
p7540
aVlast
p7541
aVone
p7542
aVand
p7543
aVremained
p7544
aVclosed
p7545
aVfor
p7546
aVgood
p7547
aV.
aa(lp7548
Vwhen
p7549
aVthe
p7550
aVtown
p7551
aVgot
p7552
aVfree
p7553
aVpostal
p7554
aVdelivery
p7555
aV,
aVmiss
p7556
aVemily
p7557
aValone
p7558
aVrefused
p7559
aVto
p7560
aVlet
p7561
aVthem
p7562
aVfasten
p7563
aVthe
p7564
aVmetal
p7565
aVnumbers
p7566
aVabove
p7567
aVher
p7568
aVdoor
p7569
aVand
p7570
aVattach
p7571
aVa
aVmailbox
p7572
aVto
p7573
aVit
p7574
aV.
aa(lp7575
Vshe
p7576
aVwould
p7577
aVnot
p7578
aVlisten
p7579
aVto
p7580
aVthem
p7581
aV.
aa(lp7582
Vdaily
p7583
aV,
aVmonthly
p7584
aV,
aVyearly
p7585
aVwe
p7586
aVwatched
p7587
aVthe
p7588
aVnegro
p7589
aVgrow
p7590
aVgrayer
p7591
aVand
p7592
aVmore
p7593
aVstooped
p7594
aV,
aVgoing
p7595
aVin
p7596
aVand
p7597
aVout
p7598
aVwith
p7599
aVthe
p7600
aVmarket
p7601
aVbasket
p7602
aV.
aa(lp7603
Veach
p7604
aVdecember
p7605
aVwe
p7606
aVsent
p7607
aVher
p7608
aVa
aVtax
p7609
aVnotice
p7610
aV,
aVwhich
p7611
aVwould
p7612
aVbe
p7613
aVreturned
p7614
aVby
p7615
aVthe
p7616
aVpost
p7617
aVoffice
p7618
aVa
aVweek
p7619
aVlater
p7620
aV,
aVunclaimed
p7621
aV.
aa(lp7622
Vnow
p7623
aVand
p7624
aVthen
p7625
aVwe
p7626
aVwould
p7627
aVsee
p7628
aVher
p7629
aVin
p7630
aVone
p7631
aVof
p7632
aVthe
p7633
aVdownstairs
p7634
aVwindows
p7635
aV--
p7636
aVshe
p7637
aVhad
p7638
aVevidently
p7639
aVshut
p7640
aVup
p7641
aVthe
p7642
aVtop
p7643
aVfloor
p7644
aVof
p7645
aVthe
p7646
aVhouse
p7647
aV--
p7648
aVlike
p7649
aVthe
p7650
aVcarven
p7651
aVtorso
p7652
aVof
p7653
aVan
p7654
aVidol
p7655
aVin
p7656
aVa
aVniche
p7657
aV,
aVlooking
p7658
aVor
p7659
aVnot
p7660
aVlooking
p7661
aVat
p7662
aVus
p7663
aV,
aVwe
p7664
aVcould
p7665
aVnever
p7666
aVtell
p7667
aVwhich
p7668
aV.
aa(lp7669
Vthus
p7670
aVshe
p7671
aVpassed
p7672
aVfrom
p7673
aVgeneration
p7674
aVto
p7675
aVgeneration
p7676
aV--
p7677
aVdear
p7678
aV,
aVinescapable
p7679
aV,
aVimpervious
p7680
aV,
aVtranquil
p7681
aV,
aVand
p7682
aVperverse
p7683
aV.
aa(lp7684
Vand
p7685
aVso
p7686
aVshe
p7687
aVdied
p7688
aV.
aa(lp7689
Vfell
p7690
aVill
p7691
aVin
p7692
aVthe
p7693
aVhouse
p7694
aVfilled
p7695
aVwith
p7696
aVdust
p7697
aVand
p7698
aVshadows
p7699
aV,
aVwith
p7700
aVonly
p7701
aVa
aVdoddering
p7702
aVnegro
p7703
aVman
p7704
aVto
p7705
aVwait
p7706
aVon
p7707
aVher
p7708
aV.
aa(lp7709
Vwe
p7710
aVdid
p7711
aVnot
p7712
aVeven
p7713
aVknow
p7714
aVshe
p7715
aVwas
p7716
aVsick
p7717
aV;
aVwe
p7718
aVhad
p7719
aVlong
p7720
aVsince
p7721
aVgiven
p7722
aVup
p7723
aVtrying
p7724
aVto
p7725
aVget
p7726
aVany
p7727
aVinformation
p7728
aVfrom
p7729
aVthe
p7730
aVnegro
p7731
aVhe
p7732
aVtalked
p7733
aVto
p7734
aVno
p7735
aVone
p7736
aV,
aVprobably
p7737
aVnot
p7738
aVeven
p7739
aVto
p7740
aVher
p7741
aV,
aVfor
p7742
aVhis
p7743
aVvoice
p7744
aVhad
p7745
aVgrown
p7746
aVharsh
p7747
aVand
p7748
aVrusty
p7749
aV,
aVas
p7750
aVif
p7751
aVfrom
p7752
aVdisuse
p7753
aV.
aa(lp7754
Vshe
p7755
aVdied
p7756
aVin
p7757
aVone
p7758
aVof
p7759
aVthe
p7760
aVdownstairs
p7761
aVrooms
p7762
aV,
aVin
p7763
aVa
aVheavy
p7764
aVwalnut
p7765
aVbed
p7766
aVwith
p7767
aVa
aVcurtain
p7768
aV,
aVher
p7769
aVgray
p7770
aVhead
p7771
aVpropped
p7772
aVon
p7773
aVa
aVpillow
p7774
aVyellow
p7775
aVand
p7776
aVmoldy
p7777
aVwith
p7778
aVage
p7779
aVand
p7780
aVlack
p7781
aVof
p7782
aVsunlight
p7783
aV.
aa(lp7784
Vv
aVthe
p7785
aVnegro
p7786
aVmet
p7787
aVthe
p7788
aVfirst
p7789
aVof
p7790
aVthe
p7791
aVladies
p7792
aVat
p7793
aVthe
p7794
aVfront
p7795
aVdoor
p7796
aVand
p7797
aVlet
p7798
aVthem
p7799
aVin
p7800
aV,
aVwith
p7801
aVtheir
p7802
aVhushed
p7803
aV,
aVsibilant
p7804
aVvoices
p7805
aVand
p7806
aVtheir
p7807
aVquick
p7808
aV,
aVcurious
p7809
aVglances
p7810
aV,
aVand
p7811
aVthen
p7812
aVhe
p7813
aVdisappeared
p7814
aV.
aa(lp7815
Vhe
p7816
aVwalked
p7817
aVright
p7818
aVthrough
p7819
aVthe
p7820
aVhouse
p7821
aVand
p7822
aVout
p7823
aVthe
p7824
aVback
p7825
aVand
p7826
aVwas
p7827
aVnot
p7828
aVseen
p7829
aVagain
p7830
aV.
aa(lp7831
Vthe
p7832
aVtwo
p7833
aVfemale
p7834
aVcousins
p7835
aVcame
p7836
aVat
p7837
aVonce
p7838
aV.
aa(lp7839
Vthey
p7840
aVheld
p7841
aVthe
p7842
aVfuneral
p7843
aVon
p7844
aVthe
p7845
aVsecond
p7846
aVday
p7847
aV,
aVwith
p7848
aVthe
p7849
aVtown
p7850
aVcoming
p7851
aVto
p7852
aVlook
p7853
aVat
p7854
aVmiss
p7855
aVemily
p7856
aVbeneath
p7857
aVa
aVmass
p7858
aVof
p7859
aVbought
p7860
aVflowers
p7861
aV,
aVwith
p7862
aVthe
p7863
aVcrayon
p7864
aVface
p7865
aVof
p7866
aVher
p7867
aVfather
p7868
aVmusing
p7869
aVprofoundly
p7870
aVabove
p7871
aVthe
p7872
aVbier
p7873
aVand
p7874
aVthe
p7875
aVladies
p7876
aVsibilant
p7877
aVand
p7878
aVmacabre
p7879
aV;
aVand
p7880
aVthe
p7881
aVvery
p7882
aVold
p7883
aVmen
p7884
aV--
p7885
aVsome
p7886
aVin
p7887
aVtheir
p7888
aVbrushed
p7889
aVconfederate
p7890
aVuniforms
p7891
aV--
p7892
aVon
p7893
aVthe
p7894
aVporch
p7895
aVand
p7896
aVthe
p7897
aVlawn
p7898
aV,
aVtalking
p7899
aVof
p7900
aVmiss
p7901
aVemily
p7902
aVas
p7903
aVif
p7904
aVshe
p7905
aVhad
p7906
aVbeen
p7907
aVa
aVcontemporary
p7908
aVof
p7909
aVtheirs
p7910
aV,
aVbelieving
p7911
aVthat
p7912
aVthey
p7913
aVhad
p7914
aVdanced
p7915
aVwith
p7916
aVher
p7917
aVand
p7918
aVcourted
p7919
aVher
p7920
aVperhaps
p7921
aV,
aVconfusing
p7922
aVtime
p7923
aVwith
p7924
aVits
p7925
aVmathematical
p7926
aVprogression
p7927
aV,
aVas
p7928
aVthe
p7929
aVold
p7930
aVdo
p7931
aV,
aVto
p7932
aVwhom
p7933
aVall
p7934
aVthe
p7935
aVpast
p7936
aVis
p7937
aVnot
p7938
aVa
aVdiminishing
p7939
aVroad
p7940
aVbut
p7941
aV,
aVinstead
p7942
aV,
aVa
aVhuge
p7943
aVmeadow
p7944
aVwhich
p7945
aVno
p7946
aVwinter
p7947
aVever
p7948
aVquite
p7949
aVtouches
p7950
aV,
aVdivided
p7951
aVfrom
p7952
aVthem
p7953
aVnow
p7954
aVby
p7955
aVthe
p7956
aVnarrow
p7957
aVbottle-neck
p7958
aVof
p7959
aVthe
p7960
aVmost
p7961
aVrecent
p7962
aVdecade
p7963
aVof
p7964
aVyears
p7965
aV.
aa(lp7966
Valready
p7967
aVwe
p7968
aVknew
p7969
aVthat
p7970
aVthere
p7971
aVwas
p7972
aVone
p7973
aVroom
p7974
aVin
p7975
aVthat
p7976
aVregion
p7977
aVabove
p7978
aVstairs
p7979
aVwhich
p7980
aVno
p7981
aVone
p7982
aVhad
p7983
aVseen
p7984
aVin
p7985
aVforty
p7986
aVyears
p7987
aV,
aVand
p7988
aVwhich
p7989
aVwould
p7990
aVhave
p7991
aVto
p7992
aVbe
p7993
aVforced
p7994
aV.
aa(lp7995
Vthey
p7996
aVwaited
p7997
aVuntil
p7998
aVmiss
p7999
aVemily
p8000
aVwas
p8001
aVdecently
p8002
aVin
p8003
aVthe
p8004
aVground
p8005
aVbefore
p8006
aVthey
p8007
aVopened
p8008
aVit
p8009
aV.
aa(lp8010
Vthe
p8011
aVviolence
p8012
aVof
p8013
aVbreaking
p8014
aVdown
p8015
aVthe
p8016
aVdoor
p8017
aVseemed
p8018
aVto
p8019
aVfill
p8020
aVthis
p8021
aVroom
p8022
aVwith
p8023
aVpervading
p8024
aVdust
p8025
aV.
aa(lp8026
Va
aVthin
p8027
aV,
aVacrid
p8028
aVpall
p8029
aVas
p8030
aVof
p8031
aVthe
p8032
aVtomb
p8033
aVseemed
p8034
aVto
p8035
aVlie
p8036
aVeverywhere
p8037
aVupon
p8038
aVthis
p8039
aVroom
p8040
aVdecked
p8041
aVand
p8042
aVfurnished
p8043
aVas
p8044
aVfor
p8045
aVa
aVbridal
p8046
aV:
aVupon
p8047
aVthe
p8048
aVvalance
p8049
aVcurtains
p8050
aVof
p8051
aVfaded
p8052
aVrose
p8053
aVcolor
p8054
aV,
aVupon
p8055
aVthe
p8056
aVrose-shaded
p8057
aVlights
p8058
aV,
aVupon
p8059
aVthe
p8060
aVdressing
p8061
aVtable
p8062
aV,
aVupon
p8063
aVthe
p8064
aVdelicate
p8065
aVarray
p8066
aVof
p8067
aVcrystal
p8068
aVand
p8069
aVthe
p8070
aVman
p8071
aV's
p8072
aVtoilet
p8073
aVthings
p8074
aVbacked
p8075
aVwith
p8076
aVtarnished
p8077
aVsilver
p8078
aV,
aVsilver
p8079
aVso
p8080
aVtarnished
p8081
aVthat
p8082
aVthe
p8083
aVmonogram
p8084
aVwas
p8085
aVobscured
p8086
aV.
aa(lp8087
Vamong
p8088
aVthem
p8089
aVlay
p8090
aVa
aVcollar
p8091
aVand
p8092
aVtie
p8093
aV,
aVas
p8094
aVif
p8095
aVthey
p8096
aVhad
p8097
aVjust
p8098
aVbeen
p8099
aVremoved
p8100
aV,
aVwhich
p8101
aV,
aVlifted
p8102
aV,
aVleft
p8103
aVupon
p8104
aVthe
p8105
aVsurface
p8106
aVa
aVpale
p8107
aVcrescent
p8108
aVin
p8109
aVthe
p8110
aVdust
p8111
aV.
aa(lp8112
Vupon
p8113
aVa
aVchair
p8114
aVhung
p8115
aVthe
p8116
aVsuit
p8117
aV,
aVcarefully
p8118
aVfolded
p8119
aV;
aVbeneath
p8120
aVit
p8121
aVthe
p8122
aVtwo
p8123
aVmute
p8124
aVshoes
p8125
aVand
p8126
aVthe
p8127
aVdiscarded
p8128
aVsocks
p8129
aV.
aa(lp8130
Vthe
p8131
aVman
p8132
aVhimself
p8133
aVlay
p8134
aVin
p8135
aVthe
p8136
aVbed
p8137
aV.
aa(lp8138
Vfor
p8139
aVa
aVlong
p8140
aVwhile
p8141
aVwe
p8142
aVjust
p8143
aVstood
p8144
aVthere
p8145
aV,
aVlooking
p8146
aVdown
p8147
aVat
p8148
aVthe
p8149
aVprofound
p8150
aVand
p8151
aVfleshless
p8152
aVgrin
p8153
aV.
aa(lp8154
Vthe
p8155
aVbody
p8156
aVhad
p8157
aVapparently
p8158
aVonce
p8159
aVlain
p8160
aVin
p8161
aVthe
p8162
aVattitude
p8163
aVof
p8164
aVan
p8165
aVembrace
p8166
aV,
aVbut
p8167
aVnow
p8168
aVthe
p8169
aVlong
p8170
aVsleep
p8171
aVthat
p8172
aVoutlasts
p8173
aVlove
p8174
aV,
aVthat
p8175
aVconquers
p8176
aVeven
p8177
aVthe
p8178
aVgrimace
p8179
aVof
p8180
aVlove
p8181
aV,
aVhad
p8182
aVcuckolded
p8183
aVhim
p8184
aV.
aa(lp8185
Vwhat
p8186
aVwas
p8187
aVleft
p8188
aVof
p8189
aVhim
p8190
aV,
aVrotted
p8191
aVbeneath
p8192
aVwhat
p8193
aVwas
p8194
aVleft
p8195
aVof
p8196
aVthe
p8197
aVnightshirt
p8198
aV,
aVhad
p8199
aVbecome
p8200
aVinextricable
p8201
aVfrom
p8202
aVthe
p8203
aVbed
p8204
aVin
p8205
aVwhich
p8206
aVhe
p8207
aVlay
p8208
aV;
aVand
p8209
aVupon
p8210
aVhim
p8211
aVand
p8212
aVupon
p8213
aVthe
p8214
aVpillow
p8215
aVbeside
p8216
aVhim
p8217
aVlay
p8218
aVthat
p8219
aVeven
p8220
aVcoating
p8221
aVof
p8222
aVthe
p8223
aVpatient
p8224
aVand
p8225
aVbiding
p8226
aVdust
p8227
aV.
aa(lp8228
Vthen
p8229
aVwe
p8230
aVnoticed
p8231
aVthat
p8232
aVin
p8233
aVthe
p8234
aVsecond
p8235
aVpillow
p8236
aVwas
p8237
aVthe
p8238
aVindentation
p8239
aVof
p8240
aVa
aVhead
p8241
aV.
aa(lp8242
Vone
p8243
aVof
p8244
aVus
p8245
aVlifted
p8246
aVsomething
p8247
aVfrom
p8248
aVit
p8249
aV,
aVand
p8250
aVleaning
p8251
aVforward
p8252
aV,
aVthat
p8253
aVfaint
p8254
aVand
p8255
aVinvisible
p8256
aVdust
p8257
aVdry
p8258
aVand
p8259
aVacrid
p8260
aVin
p8261
aVthe
p8262
aVnostrils
p8263
aV,
aVwe
p8264
aVsaw
p8265
aVa
aVlong
p8266
aVstrand
p8267
aVof
p8268
aViron-gray
p8269
aVhair
p8270
aV.
aasb.