ccopy_reg
_reconstructor
p1
(cData.Book
Book
p2
c__builtin__
object
p3
NtRp4
(dp5
S'stored_object'
p6
S'Books/The_Yellow_Wallpaper/Book_object.p'
p7
sS'title'
p8
S'The Yellow Wallpaper'
p9
sS'main_text_path'
p10
S'Books/The_Yellow_Wallpaper/main_cleaned.txt'
p11
sS'metadata_path'
p12
S'Books/The_Yellow_Wallpaper/meta_data.csv'
p13
sS'book_path'
p14
S'Books/The_Yellow_Wallpaper/'
p15
sS'characters'
p16
(dp17
S'the narrator'
p18
(dp19
S'list'
p20
(lp21
(lp22
Vthe
p23
aV[
aVCHARACTER
p24
aV]
aV-
aVa
aVyoung
p25
aV,
aVupper-middle-class
p26
aVwoman
p27
aV,
aVnewly
p28
aVmarried
p29
aVand
p30
aVa
aVmother
p31
aV,
aVwho
p32
aVis
p33
aVundergoing
p34
aVcare
p35
aVfor
p36
aVdepression
p37
aV.
aa(lp38
Vthe
p39
aV[
aVCHARACTER
p40
aV]
aV--
p41
aVwhose
p42
aVname
p43
aVmay
p44
aVor
p45
aVmay
p46
aVnot
p47
aVbe
p48
aVjane
p49
aV--
p50
aVis
p51
aVhighly
p52
aVimaginative
p53
aVand
p54
aVa
aVnatural
p55
aVstoryteller
p56
aV,
aVthough
p57
aVher
p58
aVdoctors
p59
aVbelieve
p60
aVshe
p61
aVhas
p62
aVa
aV``
p63
aVslight
p64
aVhysterical
p65
aVtendency
p66
aV.
aV''
p67
aa(lp68
Vthe
p69
aVstory
p70
aVis
p71
aVtold
p72
aVin
p73
aVthe
p74
aVform
p75
aVof
p76
aVher
p77
aVsecret
p78
aVdiary
p79
aV,
aVin
p80
aVwhich
p81
aVshe
p82
aVrecords
p83
aVher
p84
aVthoughts
p85
aVas
p86
aVher
p87
aVobsession
p88
aVwith
p89
aVthe
p90
aVwallpaper
p91
aVgrows
p92
aV.
aasS'analysis'
p93
(lp94
(lp95
Vthe
p96
aV[
aVCHARACTER
p97
aV]
aVthe
p98
aV[
aVCHARACTER
p99
aV]
aVof
p100
aV``
p101
aVthe
p102
aVyellow
p103
aVwallpaper
p104
aV''
p105
aVis
p106
aVa
aVparadox
p107
aV:
aVas
p108
aVshe
p109
aVloses
p110
aVtouch
p111
aVwith
p112
aVthe
p113
aVouter
p114
aVworld
p115
aV,
aVshe
p116
aVcomes
p117
aVto
p118
aVa
aVgreater
p119
aVunderstanding
p120
aVof
p121
aVthe
p122
aVinner
p123
aVreality
p124
aVof
p125
aVher
p126
aVlife
p127
aV.
aa(lp128
Vthis
p129
aVinner/outer
p130
aVsplit
p131
aVis
p132
aVcrucial
p133
aVto
p134
aVunderstanding
p135
aVthe
p136
aVnature
p137
aVof
p138
aVthe
p139
aV[
aVCHARACTER
p140
aV]
aV's
p141
aVsuffering
p142
aV.
aa(lp143
Vat
p144
aVevery
p145
aVpoint
p146
aV,
aVshe
p147
aVis
p148
aVfaced
p149
aVwith
p150
aVrelationships
p151
aV,
aVobjects
p152
aV,
aVand
p153
aVsituations
p154
aVthat
p155
aVseem
p156
aVinnocent
p157
aVand
p158
aVnatural
p159
aVbut
p160
aVthat
p161
aVare
p162
aVactually
p163
aVquite
p164
aVbizarre
p165
aVand
p166
aVeven
p167
aVoppressive
p168
aV.
aa(lp169
Vin
p170
aVa
aVsense
p171
aV,
aVthe
p172
aVplot
p173
aVof
p174
aV``
p175
aVthe
p176
aVyellow
p177
aVwallpaper
p178
aV''
p179
aVis
p180
aVthe
p181
aV[
aVCHARACTER
p182
aV]
aV's
p183
aVattempt
p184
aVto
p185
aVavoid
p186
aVacknowledging
p187
aVthe
p188
aVextent
p189
aVto
p190
aVwhich
p191
aVher
p192
aVexternal
p193
aVsituation
p194
aVstifles
p195
aVher
p196
aVinner
p197
aVimpulses
p198
aV.
aa(lp199
Vfrom
p200
aVthe
p201
aVbeginning
p202
aV,
aVwe
p203
aVsee
p204
aVthat
p205
aVthe
p206
aV[
aVCHARACTER
p207
aV]
aVis
p208
aVan
p209
aVimaginative
p210
aV,
aVhighly
p211
aVexpressive
p212
aVwoman
p213
aV.
aa(lp214
Vshe
p215
aVremembers
p216
aVterrifying
p217
aVherself
p218
aVwith
p219
aVimaginary
p220
aVnighttime
p221
aVmonsters
p222
aVas
p223
aVa
aVchild
p224
aV,
aVand
p225
aVshe
p226
aVenjoys
p227
aVthe
p228
aVnotion
p229
aVthat
p230
aVthe
p231
aVhouse
p232
aVthey
p233
aVhave
p234
aVtaken
p235
aVis
p236
aVhaunted
p237
aV.
aa(lp238
Vyet
p239
aVas
p240
aVpart
p241
aVof
p242
aVher
p243
aV``
p244
aVcure
p245
aV,
aV''
p246
aVher
p247
aVhusband
p248
aVforbids
p249
aVher
p250
aVto
p251
aVexercise
p252
aVher
p253
aVimagination
p254
aVin
p255
aVany
p256
aVway
p257
aV.
aa(lp258
Vboth
p259
aVher
p260
aVreason
p261
aVand
p262
aVher
p263
aVemotions
p264
aVrebel
p265
aVat
p266
aVthis
p267
aVtreatment
p268
aV,
aVand
p269
aVshe
p270
aVturns
p271
aVher
p272
aVimagination
p273
aVonto
p274
aVseemingly
p275
aVneutral
p276
aVobjects
p277
aV--
p278
aVthe
p279
aVhouse
p280
aVand
p281
aVthe
p282
aVwallpaper
p283
aV--
p284
aVin
p285
aVan
p286
aVattempt
p287
aVto
p288
aVignore
p289
aVher
p290
aVgrowing
p291
aVfrustration
p292
aV.
aa(lp293
Vher
p294
aVnegative
p295
aVfeelings
p296
aVcolor
p297
aVher
p298
aVdescription
p299
aVof
p300
aVher
p301
aVsurroundings
p302
aV,
aVmaking
p303
aVthem
p304
aVseem
p305
aVuncanny
p306
aVand
p307
aVsinister
p308
aV,
aVand
p309
aVshe
p310
aVbecomes
p311
aVfixated
p312
aVon
p313
aVthe
p314
aVwallpaper
p315
aV.
aa(lp316
Vas
p317
aVthe
p318
aV[
aVCHARACTER
p319
aV]
aVsinks
p320
aVfurther
p321
aVinto
p322
aVher
p323
aVinner
p324
aVfascination
p325
aVwith
p326
aVthe
p327
aVwallpaper
p328
aV,
aVshe
p329
aVbecomes
p330
aVprogressively
p331
aVmore
p332
aVdissociated
p333
aVfrom
p334
aVher
p335
aVday-to-day
p336
aVlife
p337
aV.
aa(lp338
Vthis
p339
aVprocess
p340
aVof
p341
aVdissociation
p342
aVbegins
p343
aVwhen
p344
aVthe
p345
aVstory
p346
aVdoes
p347
aV,
aVat
p348
aVthe
p349
aVvery
p350
aVmoment
p351
aVshe
p352
aVdecides
p353
aVto
p354
aVkeep
p355
aVa
aVsecret
p356
aVdiary
p357
aVas
p358
aV``
p359
aVa
aVrelief
p360
aVto
p361
aVher
p362
aVmind
p363
aV.
aV''
p364
aa(lp365
Vfrom
p366
aVthat
p367
aVpoint
p368
aV,
aVher
p369
aVtrue
p370
aVthoughts
p371
aVare
p372
aVhidden
p373
aVfrom
p374
aVthe
p375
aVouter
p376
aVworld
p377
aV,
aVand
p378
aVthe
p379
aV[
aVCHARACTER
p380
aV]
aVbegins
p381
aVto
p382
aVslip
p383
aVinto
p384
aVa
aVfantasy
p385
aVworld
p386
aVin
p387
aVwhich
p388
aVthe
p389
aVnature
p390
aVof
p391
aV``
p392
aVher
p393
aVsituation
p394
aV''
p395
aVis
p396
aVmade
p397
aVclear
p398
aVin
p399
aVsymbolic
p400
aVterms
p401
aV.
aa(lp402
Vgilman
p403
aVshows
p404
aVus
p405
aVthis
p406
aVdivision
p407
aVin
p408
aVthe
p409
aV[
aVCHARACTER
p410
aV]
aV's
p411
aVconsciousness
p412
aVby
p413
aVhaving
p414
aVthe
p415
aV[
aVCHARACTER
p416
aV]
aVpuzzle
p417
aVover
p418
aVeffects
p419
aVin
p420
aVthe
p421
aVworld
p422
aVthat
p423
aVshe
p424
aVherself
p425
aVhas
p426
aVcaused
p427
aV.
aa(lp428
Vfor
p429
aVexample
p430
aV,
aVthe
p431
aV[
aVCHARACTER
p432
aV]
aVdoes
p433
aVn't
p434
aVimmediately
p435
aVunderstand
p436
aVthat
p437
aVthe
p438
aVyellow
p439
aVstains
p440
aVon
p441
aVher
p442
aVclothing
p443
aVand
p444
aVthe
p445
aVlong
p446
aV``
p447
aVsmootch
p448
aV''
p449
aVon
p450
aVthe
p451
aVwallpaper
p452
aVare
p453
aVconnected
p454
aV.
aa(lp455
Vsimilarly
p456
aV,
aVthe
p457
aV[
aVCHARACTER
p458
aV]
aVfights
p459
aVthe
p460
aVrealization
p461
aVthat
p462
aVthe
p463
aVpredicament
p464
aVof
p465
aVthe
p466
aVwoman
p467
aVin
p468
aVthe
p469
aVwallpaper
p470
aVis
p471
aVa
aVsymbolic
p472
aVversion
p473
aVof
p474
aVher
p475
aVown
p476
aVsituation
p477
aV.
aa(lp478
Vat
p479
aVfirst
p480
aVshe
p481
aVeven
p482
aVdisapproves
p483
aVof
p484
aVthe
p485
aVwoman
p486
aV's
p487
aVefforts
p488
aVto
p489
aVescape
p490
aVand
p491
aVintends
p492
aVto
p493
aV``
p494
aVtie
p495
aVher
p496
aVup
p497
aV.
aV''
p498
aa(lp499
Vwhen
p500
aVthe
p501
aV[
aVCHARACTER
p502
aV]
aVfinally
p503
aVidentifies
p504
aVherself
p505
aVwith
p506
aVthe
p507
aVwoman
p508
aVtrapped
p509
aVin
p510
aVthe
p511
aVwallpaper
p512
aV,
aVshe
p513
aVis
p514
aVable
p515
aVto
p516
aVsee
p517
aVthat
p518
aVother
p519
aVwomen
p520
aVare
p521
aVforced
p522
aVto
p523
aVcreep
p524
aVand
p525
aVhide
p526
aVbehind
p527
aVthe
p528
aVdomestic
p529
aV``
p530
aVpatterns
p531
aV''
p532
aVof
p533
aVtheir
p534
aVlives
p535
aV,
aVand
p536
aVthat
p537
aVshe
p538
aVherself
p539
aVis
p540
aVthe
p541
aVone
p542
aVin
p543
aVneed
p544
aVof
p545
aVrescue
p546
aV.
aa(lp547
Vthe
p548
aVhorror
p549
aVof
p550
aVthis
p551
aVstory
p552
aVis
p553
aVthat
p554
aVthe
p555
aV[
aVCHARACTER
p556
aV]
aVmust
p557
aVlose
p558
aVherself
p559
aVto
p560
aVunderstand
p561
aVherself
p562
aV.
aa(lp563
Vshe
p564
aVhas
p565
aVuntangled
p566
aVthe
p567
aVpattern
p568
aVof
p569
aVher
p570
aVlife
p571
aV,
aVbut
p572
aVshe
p573
aVhas
p574
aVtorn
p575
aVherself
p576
aVapart
p577
aVin
p578
aVgetting
p579
aVfree
p580
aVof
p581
aVit
p582
aV.
aa(lp583
Van
p584
aVodd
p585
aVdetail
p586
aVat
p587
aVthe
p588
aVend
p589
aVof
p590
aVthe
p591
aVstory
p592
aVreveals
p593
aVhow
p594
aVmuch
p595
aVthe
p596
aV[
aVCHARACTER
p597
aV]
aVhas
p598
aVsacrificed
p599
aV.
aa(lp600
Vduring
p601
aVher
p602
aVfinal
p603
aVsplit
p604
aVfrom
p605
aVreality
p606
aV,
aVthe
p607
aV[
aVCHARACTER
p608
aV]
aVsays
p609
aV,
aV``
p610
aVi
aV've
p611
aVgot
p612
aVout
p613
aVat
p614
aVlast
p615
aV,
aVin
p616
aVspite
p617
aVof
p618
aVyou
p619
aVand
p620
aVjane
p621
aV.
aV''
p622
aa(lp623
Vwho
p624
aVis
p625
aVthis
p626
aVjane
p627
aV?
aa(lp628
Vsome
p629
aVcritics
p630
aVclaim
p631
aV``
p632
aVjane
p633
aV''
p634
aVis
p635
aVa
aVmisprint
p636
aVfor
p637
aV``
p638
aVjennie
p639
aV,
aV''
p640
aVthe
p641
aVsister-in-law
p642
aV.
aa(lp643
Vit
p644
aVis
p645
aVmore
p646
aVlikely
p647
aV,
aVhowever
p648
aV,
aVthat
p649
aV``
p650
aVjane
p651
aV''
p652
aVis
p653
aVthe
p654
aVname
p655
aVof
p656
aVthe
p657
aVunnamed
p658
aV[
aVCHARACTER
p659
aV]
aV,
aVwho
p660
aVhas
p661
aVbeen
p662
aVa
aVstranger
p663
aVto
p664
aVherself
p665
aVand
p666
aVher
p667
aVjailers
p668
aV.
aa(lp669
Vnow
p670
aVshe
p671
aVis
p672
aVhorribly
p673
aV``
p674
aVfree
p675
aV''
p676
aVof
p677
aVthe
p678
aVconstraints
p679
aVof
p680
aVher
p681
aVmarriage
p682
aV,
aVher
p683
aVsociety
p684
aV,
aVand
p685
aVher
p686
aVown
p687
aVefforts
p688
aVto
p689
aVrepress
p690
aVher
p691
aVmind
p692
aV.
aassS'john'
p693
(dp694
g20
(lp695
(lp696
V[
aVCHARACTER
p697
aV]
aV-
aVthe
p698
aVnarrator
p699
aV's
p700
aVhusband
p701
aVand
p702
aVher
p703
aVphysician
p704
aV.
aa(lp705
V[
aVCHARACTER
p706
aV]
aVrestricts
p707
aVher
p708
aVbehavior
p709
aVas
p710
aVpart
p711
aVof
p712
aVher
p713
aVtreatment
p714
aV.
aa(lp715
Vunlike
p716
aVhis
p717
aVimaginative
p718
aVwife
p719
aV,
aV[
aVCHARACTER
p720
aV]
aVis
p721
aVextremely
p722
aVpractical
p723
aV,
aVpreferring
p724
aVfacts
p725
aVand
p726
aVfigures
p727
aVto
p728
aV``
p729
aVfancy
p730
aV,
aV''
p731
aVat
p732
aVwhich
p733
aVhe
p734
aV``
p735
aVscoffs
p736
aVopenly
p737
aV.
aV''
p738
aa(lp739
Vhe
p740
aVseems
p741
aVto
p742
aVlove
p743
aVhis
p744
aVwife
p745
aV,
aVbut
p746
aVhe
p747
aVdoes
p748
aVnot
p749
aVunderstand
p750
aVthe
p751
aVnegative
p752
aVeffect
p753
aVhis
p754
aVtreatment
p755
aVhas
p756
aVon
p757
aVher
p758
aV.
aasg93
(lp759
(lp760
V[
aVCHARACTER
p761
aV]
aVthough
p762
aV[
aVCHARACTER
p763
aV]
aVseems
p764
aVlike
p765
aVthe
p766
aVobvious
p767
aVvillain
p768
aVof
p769
aV``
p770
aVthe
p771
aVyellow
p772
aVwallpaper
p773
aV,
aV''
p774
aVthe
p775
aVstory
p776
aVdoes
p777
aVnot
p778
aVallow
p779
aVus
p780
aVto
p781
aVsee
p782
aVhim
p783
aVas
p784
aVwholly
p785
aVevil
p786
aV.
aa(lp787
V[
aVCHARACTER
p788
aV]
aV's
p789
aVtreatment
p790
aVof
p791
aVthe
p792
aVnarrator
p793
aV's
p794
aVdepression
p795
aVgoes
p796
aVterribly
p797
aVwrong
p798
aV,
aVbut
p799
aVin
p800
aVall
p801
aVlikelihood
p802
aVhe
p803
aVwas
p804
aVtrying
p805
aVto
p806
aVhelp
p807
aVher
p808
aV,
aVnot
p809
aVmake
p810
aVher
p811
aVworse
p812
aV.
aa(lp813
Vthe
p814
aVreal
p815
aVproblem
p816
aVwith
p817
aV[
aVCHARACTER
p818
aV]
aVis
p819
aVthe
p820
aVall-encompassing
p821
aVauthority
p822
aVhe
p823
aVhas
p824
aVin
p825
aVhis
p826
aVcombined
p827
aVrole
p828
aVas
p829
aVthe
p830
aVnarrator
p831
aV's
p832
aVhusband
p833
aVand
p834
aVdoctor
p835
aV.
aa(lp836
V[
aVCHARACTER
p837
aV]
aVis
p838
aVso
p839
aVsure
p840
aVthat
p841
aVhe
p842
aVknows
p843
aVwhat
p844
aV's
p845
aVbest
p846
aVfor
p847
aVhis
p848
aVwife
p849
aVthat
p850
aVhe
p851
aVdisregards
p852
aVher
p853
aVown
p854
aVopinion
p855
aVof
p856
aVthe
p857
aVmatter
p858
aV,
aVforcing
p859
aVher
p860
aVto
p861
aVhide
p862
aVher
p863
aVtrue
p864
aVfeelings
p865
aV.
aa(lp866
Vhe
p867
aVconsistently
p868
aVpatronizes
p869
aVher
p870
aV.
aa(lp871
Vhe
p872
aVcalls
p873
aVher
p874
aV``
p875
aVa
aVblessed
p876
aVlittle
p877
aVgoose
p878
aV''
p879
aVand
p880
aVvetoes
p881
aVher
p882
aVsmallest
p883
aVwishes
p884
aV,
aVsuch
p885
aVas
p886
aVwhen
p887
aVhe
p888
aVrefuses
p889
aVto
p890
aVswitch
p891
aVbedrooms
p892
aVso
p893
aVas
p894
aVnot
p895
aVto
p896
aVoverindulge
p897
aVher
p898
aV``
p899
aVfancies
p900
aV.
aV''
p901
aa(lp902
Vfurther
p903
aV,
aVhis
p904
aVdry
p905
aV,
aVclinical
p906
aVrationality
p907
aVrenders
p908
aVhim
p909
aVuniquely
p910
aVunsuited
p911
aVto
p912
aVunderstand
p913
aVhis
p914
aVimaginative
p915
aVwife
p916
aV.
aa(lp917
Vhe
p918
aVdoes
p919
aVnot
p920
aVintend
p921
aVto
p922
aVharm
p923
aVher
p924
aV,
aVbut
p925
aVhis
p926
aVignorance
p927
aVabout
p928
aVwhat
p929
aVshe
p930
aVreally
p931
aVneeds
p932
aVultimately
p933
aVproves
p934
aVdangerous
p935
aV.
aa(lp936
V[
aVCHARACTER
p937
aV]
aVknows
p938
aVhis
p939
aVwife
p940
aVonly
p941
aVsuperficially
p942
aV.
aa(lp943
Vhe
p944
aVsees
p945
aVthe
p946
aV``
p947
aVouter
p948
aVpattern
p949
aV''
p950
aVbut
p951
aVmisses
p952
aVthe
p953
aVtrapped
p954
aV,
aVstruggling
p955
aVwoman
p956
aVinside
p957
aV.
aa(lp958
Vthis
p959
aVignorance
p960
aVis
p961
aVwhy
p962
aV[
aVCHARACTER
p963
aV]
aVis
p964
aVno
p965
aVmere
p966
aVcardboard
p967
aVvillain
p968
aV.
aa(lp969
Vhe
p970
aVcares
p971
aVfor
p972
aVhis
p973
aVwife
p974
aV,
aVbut
p975
aVthe
p976
aVunequal
p977
aVrelationship
p978
aVin
p979
aVwhich
p980
aVthey
p981
aVfind
p982
aVthemselves
p983
aVprevents
p984
aVhim
p985
aVfrom
p986
aVtruly
p987
aVunderstanding
p988
aVher
p989
aVand
p990
aVher
p991
aVproblems
p992
aV.
aa(lp993
Vby
p994
aVtreating
p995
aVher
p996
aVas
p997
aVa
aV``
p998
aVcase
p999
aV''
p1000
aVor
p1001
aVa
aV``
p1002
aVwife
p1003
aV''
p1004
aVand
p1005
aVnot
p1006
aVas
p1007
aVa
aVperson
p1008
aVwith
p1009
aVa
aVwill
p1010
aVof
p1011
aVher
p1012
aVown
p1013
aV,
aVhe
p1014
aVhelps
p1015
aVdestroy
p1016
aVher
p1017
aV,
aVwhich
p1018
aVis
p1019
aVthe
p1020
aVlast
p1021
aVthing
p1022
aVhe
p1023
aVwants
p1024
aV.
aa(lp1025
Vthat
p1026
aV[
aVCHARACTER
p1027
aV]
aVhas
p1028
aVbeen
p1029
aVdestroyed
p1030
aVby
p1031
aVthis
p1032
aVimprisoning
p1033
aVrelationship
p1034
aVis
p1035
aVmade
p1036
aVclear
p1037
aVby
p1038
aVthe
p1039
aVstory
p1040
aV's
p1041
aVchilling
p1042
aVfinale
p1043
aV.
aa(lp1044
Vafter
p1045
aVbreaking
p1046
aVin
p1047
aVon
p1048
aVhis
p1049
aVinsane
p1050
aVwife
p1051
aV,
aV[
aVCHARACTER
p1052
aV]
aVfaints
p1053
aVin
p1054
aVshock
p1055
aVand
p1056
aVgoes
p1057
aVunrecognized
p1058
aVby
p1059
aVhis
p1060
aVwife
p1061
aV,
aVwho
p1062
aVcalls
p1063
aVhim
p1064
aV``
p1065
aVthat
p1066
aVman
p1067
aV''
p1068
aVand
p1069
aVcomplains
p1070
aVabout
p1071
aVhaving
p1072
aVto
p1073
aV``
p1074
aVcreep
p1075
aVover
p1076
aVhim
p1077
aV''
p1078
aVas
p1079
aVshe
p1080
aVmakes
p1081
aVher
p1082
aVway
p1083
aValong
p1084
aVthe
p1085
aVwall
p1086
aV.
aassS'jennie'
p1087
(dp1088
g20
(lp1089
(lp1090
V[
aVCHARACTER
p1091
aV]
aV-
aVjohn
p1092
aV's
p1093
aVsister
p1094
aV.
aa(lp1095
V[
aVCHARACTER
p1096
aV]
aVacts
p1097
aVas
p1098
aVhousekeeper
p1099
aVfor
p1100
aVthe
p1101
aVcouple
p1102
aV.
aa(lp1103
Vher
p1104
aVpresence
p1105
aVand
p1106
aVher
p1107
aVcontentment
p1108
aVwith
p1109
aVa
aVdomestic
p1110
aVrole
p1111
aVintensify
p1112
aVthe
p1113
aVnarrator's
p1114
aVfeelings
p1115
aVof
p1116
aVguilt
p1117
aVover
p1118
aVher
p1119
aVown
p1120
aVinability
p1121
aVto
p1122
aVact
p1123
aVas
p1124
aVa
aVtraditional
p1125
aVwife
p1126
aVand
p1127
aVmother
p1128
aV.
aa(lp1129
V[
aVCHARACTER
p1130
aV]
aVseems
p1131
aV,
aVat
p1132
aVtimes
p1133
aV,
aVto
p1134
aVsuspect
p1135
aVthat
p1136
aVthe
p1137
aVnarrator
p1138
aVis
p1139
aVmore
p1140
aVtroubled
p1141
aVthan
p1142
aVshe
p1143
aVlets
p1144
aVon
p1145
aV.
aasg93
NsssS'mainText'
p1146
(lp1147
(lp1148
Vthe
p1149
aVyellow
p1150
aVwallpaper
p1151
aVit
p1152
aVis
p1153
aVvery
p1154
aVseldom
p1155
aVthat
p1156
aVmere
p1157
aVordinary
p1158
aVpeople
p1159
aVlike
p1160
aVjohn
p1161
aVand
p1162
aVmyself
p1163
aVsecure
p1164
aVancestral
p1165
aVhalls
p1166
aVfor
p1167
aVthe
p1168
aVsummer
p1169
aV.
aa(lp1170
Va
aVcolonial
p1171
aVmansion
p1172
aV,
aVa
aVhereditary
p1173
aVestate
p1174
aV,
aVi
aVwould
p1175
aVsay
p1176
aVa
aVhaunted
p1177
aVhouse
p1178
aV,
aVand
p1179
aVreach
p1180
aVthe
p1181
aVheight
p1182
aVof
p1183
aVromantic
p1184
aVfelicity
p1185
aV--
p1186
aVbut
p1187
aVthat
p1188
aVwould
p1189
aVbe
p1190
aVasking
p1191
aVtoo
p1192
aVmuch
p1193
aVof
p1194
aVfate
p1195
aV!
aa(lp1196
Vstill
p1197
aVi
aVwill
p1198
aVproudly
p1199
aVdeclare
p1200
aVthat
p1201
aVthere
p1202
aVis
p1203
aVsomething
p1204
aVqueer
p1205
aVabout
p1206
aVit
p1207
aV.
aa(lp1208
Velse
p1209
aV,
aVwhy
p1210
aVshould
p1211
aVit
p1212
aVbe
p1213
aVlet
p1214
aVso
p1215
aVcheaply
p1216
aV?
aa(lp1217
Vand
p1218
aVwhy
p1219
aVhave
p1220
aVstood
p1221
aVso
p1222
aVlong
p1223
aVuntenanted
p1224
aV?
aa(lp1225
Vjohn
p1226
aVlaughs
p1227
aVat
p1228
aVme
p1229
aV,
aVof
p1230
aVcourse
p1231
aV,
aVbut
p1232
aVone
p1233
aVexpects
p1234
aVthat
p1235
aVin
p1236
aVmarriage
p1237
aV.
aa(lp1238
Vjohn
p1239
aVis
p1240
aVpractical
p1241
aVin
p1242
aVthe
p1243
aVextreme
p1244
aV.
aa(lp1245
Vhe
p1246
aVhas
p1247
aVno
p1248
aVpatience
p1249
aVwith
p1250
aVfaith
p1251
aV,
aVan
p1252
aVintense
p1253
aVhorror
p1254
aVof
p1255
aVsuperstition
p1256
aV,
aVand
p1257
aVhe
p1258
aVscoffs
p1259
aVopenly
p1260
aVat
p1261
aVany
p1262
aVtalk
p1263
aVof
p1264
aVthings
p1265
aVnot
p1266
aVto
p1267
aVbe
p1268
aVfelt
p1269
aVand
p1270
aVseen
p1271
aVand
p1272
aVput
p1273
aVdown
p1274
aVin
p1275
aVfigures
p1276
aV.
aa(lp1277
Vjohn
p1278
aVis
p1279
aVa
aVphysician
p1280
aV,
aVand
p1281
aVperhaps
p1282
aV--
p1283
aV(
aVi
aVwould
p1284
aVnot
p1285
aVsay
p1286
aVit
p1287
aVto
p1288
aVa
aVliving
p1289
aVsoul
p1290
aV,
aVof
p1291
aVcourse
p1292
aV,
aVbut
p1293
aVthis
p1294
aVis
p1295
aVdead
p1296
aVpaper
p1297
aVand
p1298
aVa
aVgreat
p1299
aVrelief
p1300
aVto
p1301
aVmy
p1302
aVmind
p1303
aV)
aV--
p1304
aVperhaps
p1305
aVthat
p1306
aVis
p1307
aVone
p1308
aVreason
p1309
aVi
aVdo
p1310
aVnot
p1311
aVget
p1312
aVwell
p1313
aVfaster
p1314
aV.
aa(lp1315
Vyou
p1316
aVsee
p1317
aVhe
p1318
aVdoes
p1319
aVnot
p1320
aVbelieve
p1321
aVi
aVam
p1322
aVsick
p1323
aV!
aa(lp1324
Vand
p1325
aVwhat
p1326
aVcan
p1327
aVone
p1328
aVdo
p1329
aV?
aa(lp1330
Vif
p1331
aVa
aVphysician
p1332
aVof
p1333
aVhigh
p1334
aVstanding
p1335
aV,
aVand
p1336
aVone
p1337
aV's
p1338
aVown
p1339
aVhusband
p1340
aV,
aVassures
p1341
aVfriends
p1342
aVand
p1343
aVrelatives
p1344
aVthat
p1345
aVthere
p1346
aVis
p1347
aVreally
p1348
aVnothing
p1349
aVthe
p1350
aVmatter
p1351
aVwith
p1352
aVone
p1353
aVbut
p1354
aVtemporary
p1355
aVnervous
p1356
aVdepression
p1357
aV--
p1358
aVa
aVslight
p1359
aVhysterical
p1360
aVtendency
p1361
aV--
p1362
aVwhat
p1363
aVis
p1364
aVone
p1365
aVto
p1366
aVdo
p1367
aV?
aa(lp1368
Vmy
p1369
aVbrother
p1370
aVis
p1371
aValso
p1372
aVa
aVphysician
p1373
aV,
aVand
p1374
aValso
p1375
aVof
p1376
aVhigh
p1377
aVstanding
p1378
aV,
aVand
p1379
aVhe
p1380
aVsays
p1381
aVthe
p1382
aVsame
p1383
aVthing
p1384
aV.
aa(lp1385
Vso
p1386
aVi
aVtake
p1387
aVphosphates
p1388
aVor
p1389
aVphosphites
p1390
aV--
p1391
aVwhichever
p1392
aVit
p1393
aVis
p1394
aV,
aVand
p1395
aVtonics
p1396
aV,
aVand
p1397
aVjourneys
p1398
aV,
aVand
p1399
aVair
p1400
aV,
aVand
p1401
aVexercise
p1402
aV,
aVand
p1403
aVam
p1404
aVabsolutely
p1405
aVforbidden
p1406
aVto
p1407
aV``
p1408
aVwork
p1409
aV''
p1410
aVuntil
p1411
aVi
aVam
p1412
aVwell
p1413
aVagain
p1414
aV.
aa(lp1415
Vpersonally
p1416
aV,
aVi
aVdisagree
p1417
aVwith
p1418
aVtheir
p1419
aVideas
p1420
aV.
aa(lp1421
Vpersonally
p1422
aV,
aVi
aVbelieve
p1423
aVthat
p1424
aVcongenial
p1425
aVwork
p1426
aV,
aVwith
p1427
aVexcitement
p1428
aVand
p1429
aVchange
p1430
aV,
aVwould
p1431
aVdo
p1432
aVme
p1433
aVgood
p1434
aV.
aa(lp1435
Vbut
p1436
aVwhat
p1437
aVis
p1438
aVone
p1439
aVto
p1440
aVdo
p1441
aV?
aa(lp1442
Vi
aVdid
p1443
aVwrite
p1444
aVfor
p1445
aVa
aVwhile
p1446
aVin
p1447
aVspite
p1448
aVof
p1449
aVthem
p1450
aV;
aVbut
p1451
aVit
p1452
aVdoes
p1453
aVexhaust
p1454
aVme
p1455
aVa
aVgood
p1456
aVdeal
p1457
aV--
p1458
aVhaving
p1459
aVto
p1460
aVbe
p1461
aVso
p1462
aVsly
p1463
aVabout
p1464
aVit
p1465
aV,
aVor
p1466
aVelse
p1467
aVmeet
p1468
aVwith
p1469
aVheavy
p1470
aVopposition
p1471
aV.
aa(lp1472
Vi
aVsometimes
p1473
aVfancy
p1474
aVthat
p1475
aVin
p1476
aVmy
p1477
aVcondition
p1478
aVif
p1479
aVi
aVhad
p1480
aVless
p1481
aVopposition
p1482
aVand
p1483
aVmore
p1484
aVsociety
p1485
aVand
p1486
aVstimulus
p1487
aV--
p1488
aVbut
p1489
aVjohn
p1490
aVsays
p1491
aVthe
p1492
aVvery
p1493
aVworst
p1494
aVthing
p1495
aVi
aVcan
p1496
aVdo
p1497
aVis
p1498
aVto
p1499
aVthink
p1500
aVabout
p1501
aVmy
p1502
aVcondition
p1503
aV,
aVand
p1504
aVi
aVconfess
p1505
aVit
p1506
aValways
p1507
aVmakes
p1508
aVme
p1509
aVfeel
p1510
aVbad
p1511
aV.
aa(lp1512
Vso
p1513
aVi
aVwill
p1514
aVlet
p1515
aVit
p1516
aValone
p1517
aVand
p1518
aVtalk
p1519
aVabout
p1520
aVthe
p1521
aVhouse
p1522
aV.
aa(lp1523
Vthe
p1524
aVmost
p1525
aVbeautiful
p1526
aVplace
p1527
aV!
aa(lp1528
Vit
p1529
aVis
p1530
aVquite
p1531
aValone
p1532
aV,
aVstanding
p1533
aVwell
p1534
aVback
p1535
aVfrom
p1536
aVthe
p1537
aVroad
p1538
aV,
aVquite
p1539
aVthree
p1540
aVmiles
p1541
aVfrom
p1542
aVthe
p1543
aVvillage
p1544
aV.
aa(lp1545
Vit
p1546
aVmakes
p1547
aVme
p1548
aVthink
p1549
aVof
p1550
aVenglish
p1551
aVplaces
p1552
aVthat
p1553
aVyou
p1554
aVread
p1555
aVabout
p1556
aV,
aVfor
p1557
aVthere
p1558
aVare
p1559
aVhedges
p1560
aVand
p1561
aVwalls
p1562
aVand
p1563
aVgates
p1564
aVthat
p1565
aVlock
p1566
aV,
aVand
p1567
aVlots
p1568
aVof
p1569
aVseparate
p1570
aVlittle
p1571
aVhouses
p1572
aVfor
p1573
aVthe
p1574
aVgardeners
p1575
aVand
p1576
aVpeople
p1577
aV.
aa(lp1578
Vthere
p1579
aVis
p1580
aVa
aVdelicious
p1581
aVgarden
p1582
aV!
aa(lp1583
Vi
aVnever
p1584
aVsaw
p1585
aVsuch
p1586
aVa
aVgarden
p1587
aV--
p1588
aVlarge
p1589
aVand
p1590
aVshady
p1591
aV,
aVfull
p1592
aVof
p1593
aVbox-bordered
p1594
aVpaths
p1595
aV,
aVand
p1596
aVlined
p1597
aVwith
p1598
aVlong
p1599
aVgrape-covered
p1600
aVarbors
p1601
aVwith
p1602
aVseats
p1603
aVunder
p1604
aVthem
p1605
aV.
aa(lp1606
Vthere
p1607
aVwere
p1608
aVgreenhouses
p1609
aV,
aVtoo
p1610
aV,
aVbut
p1611
aVthey
p1612
aVare
p1613
aVall
p1614
aVbroken
p1615
aVnow
p1616
aV.
aa(lp1617
Vthere
p1618
aVwas
p1619
aVsome
p1620
aVlegal
p1621
aVtrouble
p1622
aV,
aVi
aVbelieve
p1623
aV,
aVsomething
p1624
aVabout
p1625
aVthe
p1626
aVheirs
p1627
aVand
p1628
aVcoheirs
p1629
aV;
aVanyhow
p1630
aV,
aVthe
p1631
aVplace
p1632
aVhas
p1633
aVbeen
p1634
aVempty
p1635
aVfor
p1636
aVyears
p1637
aV.
aa(lp1638
Vthat
p1639
aVspoils
p1640
aVmy
p1641
aVghostliness
p1642
aV,
aVi
aVam
p1643
aVafraid
p1644
aV,
aVbut
p1645
aVi
aVdo
p1646
aVn't
p1647
aVcare
p1648
aV--
p1649
aVthere
p1650
aVis
p1651
aVsomething
p1652
aVstrange
p1653
aVabout
p1654
aVthe
p1655
aVhouse
p1656
aV--
p1657
aVi
aVcan
p1658
aVfeel
p1659
aVit
p1660
aV.
aa(lp1661
Vi
aVeven
p1662
aVsaid
p1663
aVso
p1664
aVto
p1665
aVjohn
p1666
aVone
p1667
aVmoonlight
p1668
aVevening
p1669
aV,
aVbut
p1670
aVhe
p1671
aVsaid
p1672
aVwhat
p1673
aVi
aVfelt
p1674
aVwas
p1675
aVa
aVdraught
p1676
aV,
aVand
p1677
aVshut
p1678
aVthe
p1679
aVwindow
p1680
aV.
aa(lp1681
Vi
aVget
p1682
aVunreasonably
p1683
aVangry
p1684
aVwith
p1685
aVjohn
p1686
aVsometimes
p1687
aV.
aa(lp1688
Vi
aV'm
p1689
aVsure
p1690
aVi
aVnever
p1691
aVused
p1692
aVto
p1693
aVbe
p1694
aVso
p1695
aVsensitive
p1696
aV.
aa(lp1697
Vi
aVthink
p1698
aVit
p1699
aVis
p1700
aVdue
p1701
aVto
p1702
aVthis
p1703
aVnervous
p1704
aVcondition
p1705
aV.
aa(lp1706
Vbut
p1707
aVjohn
p1708
aVsays
p1709
aVif
p1710
aVi
aVfeel
p1711
aVso
p1712
aV,
aVi
aVshall
p1713
aVneglect
p1714
aVproper
p1715
aVself-control
p1716
aV;
aVso
p1717
aVi
aVtake
p1718
aVpains
p1719
aVto
p1720
aVcontrol
p1721
aVmyself
p1722
aV--
p1723
aVbefore
p1724
aVhim
p1725
aV,
aVat
p1726
aVleast
p1727
aV,
aVand
p1728
aVthat
p1729
aVmakes
p1730
aVme
p1731
aVvery
p1732
aVtired
p1733
aV.
aa(lp1734
Vi
aVdo
p1735
aVn't
p1736
aVlike
p1737
aVour
p1738
aVroom
p1739
aVa
aVbit
p1740
aV.
aa(lp1741
Vi
aVwanted
p1742
aVone
p1743
aVdownstairs
p1744
aVthat
p1745
aVopened
p1746
aVon
p1747
aVthe
p1748
aVpiazza
p1749
aVand
p1750
aVhad
p1751
aVroses
p1752
aVall
p1753
aVover
p1754
aVthe
p1755
aVwindow
p1756
aV,
aVand
p1757
aVsuch
p1758
aVpretty
p1759
aVold-fashioned
p1760
aVchintz
p1761
aVhangings
p1762
aV!
aa(lp1763
Vbut
p1764
aVjohn
p1765
aVwould
p1766
aVnot
p1767
aVhear
p1768
aVof
p1769
aVit
p1770
aV.
aa(lp1771
Vhe
p1772
aVsaid
p1773
aVthere
p1774
aVwas
p1775
aVonly
p1776
aVone
p1777
aVwindow
p1778
aVand
p1779
aVnot
p1780
aVroom
p1781
aVfor
p1782
aVtwo
p1783
aVbeds
p1784
aV,
aVand
p1785
aVno
p1786
aVnear
p1787
aVroom
p1788
aVfor
p1789
aVhim
p1790
aVif
p1791
aVhe
p1792
aVtook
p1793
aVanother
p1794
aV.
aa(lp1795
Vhe
p1796
aVis
p1797
aVvery
p1798
aVcareful
p1799
aVand
p1800
aVloving
p1801
aV,
aVand
p1802
aVhardly
p1803
aVlets
p1804
aVme
p1805
aVstir
p1806
aVwithout
p1807
aVspecial
p1808
aVdirection
p1809
aV.
aa(lp1810
Vi
aVhave
p1811
aVa
aVschedule
p1812
aVprescription
p1813
aVfor
p1814
aVeach
p1815
aVhour
p1816
aVin
p1817
aVthe
p1818
aVday
p1819
aV;
aVhe
p1820
aVtakes
p1821
aVall
p1822
aVcare
p1823
aVfrom
p1824
aVme
p1825
aV,
aVand
p1826
aVso
p1827
aVi
aVfeel
p1828
aVbasely
p1829
aVungrateful
p1830
aVnot
p1831
aVto
p1832
aVvalue
p1833
aVit
p1834
aVmore
p1835
aV.
aa(lp1836
Vhe
p1837
aVsaid
p1838
aVwe
p1839
aVcame
p1840
aVhere
p1841
aVsolely
p1842
aVon
p1843
aVmy
p1844
aVaccount
p1845
aV,
aVthat
p1846
aVi
aVwas
p1847
aVto
p1848
aVhave
p1849
aVperfect
p1850
aVrest
p1851
aVand
p1852
aVall
p1853
aVthe
p1854
aVair
p1855
aVi
aVcould
p1856
aVget
p1857
aV.
aa(lp1858
V``
p1859
aVyour
p1860
aVexercise
p1861
aVdepends
p1862
aVon
p1863
aVyour
p1864
aVstrength
p1865
aV,
aVmy
p1866
aVdear
p1867
aV,
aV''
p1868
aVsaid
p1869
aVhe
p1870
aV,
aV``
p1871
aVand
p1872
aVyour
p1873
aVfood
p1874
aVsomewhat
p1875
aVon
p1876
aVyour
p1877
aVappetite
p1878
aV;
aVbut
p1879
aVair
p1880
aVyou
p1881
aVcan
p1882
aVabsorb
p1883
aVall
p1884
aVthe
p1885
aVtime
p1886
aV.
aV''
p1887
aa(lp1888
Vso
p1889
aVwe
p1890
aVtook
p1891
aVthe
p1892
aVnursery
p1893
aVat
p1894
aVthe
p1895
aVtop
p1896
aVof
p1897
aVthe
p1898
aVhouse
p1899
aV.
aa(lp1900
Vit
p1901
aVis
p1902
aVa
aVbig
p1903
aV,
aVairy
p1904
aVroom
p1905
aV,
aVthe
p1906
aVwhole
p1907
aVfloor
p1908
aVnearly
p1909
aV,
aVwith
p1910
aVwindows
p1911
aVthat
p1912
aVlook
p1913
aVall
p1914
aVways
p1915
aV,
aVand
p1916
aVair
p1917
aVand
p1918
aVsunshine
p1919
aVgalore
p1920
aV.
aa(lp1921
Vit
p1922
aVwas
p1923
aVnursery
p1924
aVfirst
p1925
aVand
p1926
aVthen
p1927
aVplayroom
p1928
aVand
p1929
aVgymnasium
p1930
aV,
aVi
aVshould
p1931
aVjudge
p1932
aV;
aVfor
p1933
aVthe
p1934
aVwindows
p1935
aVare
p1936
aVbarred
p1937
aVfor
p1938
aVlittle
p1939
aVchildren
p1940
aV,
aVand
p1941
aVthere
p1942
aVare
p1943
aVrings
p1944
aVand
p1945
aVthings
p1946
aVin
p1947
aVthe
p1948
aVwalls
p1949
aV.
aa(lp1950
Vthe
p1951
aVpaint
p1952
aVand
p1953
aVpaper
p1954
aVlook
p1955
aVas
p1956
aVif
p1957
aVa
aVboys
p1958
aV'
aVschool
p1959
aVhad
p1960
aVused
p1961
aVit
p1962
aV.
aa(lp1963
Vit
p1964
aVis
p1965
aVstripped
p1966
aVoff
p1967
aV--
p1968
aVthe
p1969
aVpaper
p1970
aV--
p1971
aVin
p1972
aVgreat
p1973
aVpatches
p1974
aVall
p1975
aVaround
p1976
aVthe
p1977
aVhead
p1978
aVof
p1979
aVmy
p1980
aVbed
p1981
aV,
aVabout
p1982
aVas
p1983
aVfar
p1984
aVas
p1985
aVi
aVcan
p1986
aVreach
p1987
aV,
aVand
p1988
aVin
p1989
aVa
aVgreat
p1990
aVplace
p1991
aVon
p1992
aVthe
p1993
aVother
p1994
aVside
p1995
aVof
p1996
aVthe
p1997
aVroom
p1998
aVlow
p1999
aVdown
p2000
aV.
aa(lp2001
Vi
aVnever
p2002
aVsaw
p2003
aVa
aVworse
p2004
aVpaper
p2005
aVin
p2006
aVmy
p2007
aVlife
p2008
aV.
aa(lp2009
Vone
p2010
aVof
p2011
aVthose
p2012
aVsprawling
p2013
aVflamboyant
p2014
aVpatterns
p2015
aVcommitting
p2016
aVevery
p2017
aVartistic
p2018
aVsin
p2019
aV.
aa(lp2020
Vit
p2021
aVis
p2022
aVdull
p2023
aVenough
p2024
aVto
p2025
aVconfuse
p2026
aVthe
p2027
aVeye
p2028
aVin
p2029
aVfollowing
p2030
aV,
aVpronounced
p2031
aVenough
p2032
aVto
p2033
aVconstantly
p2034
aVirritate
p2035
aVand
p2036
aVprovoke
p2037
aVstudy
p2038
aV,
aVand
p2039
aVwhen
p2040
aVyou
p2041
aVfollow
p2042
aVthe
p2043
aVlame
p2044
aVuncertain
p2045
aVcurves
p2046
aVfor
p2047
aVa
aVlittle
p2048
aVdistance
p2049
aVthey
p2050
aVsuddenly
p2051
aVcommit
p2052
aVsuicide
p2053
aV--
p2054
aVplunge
p2055
aVoff
p2056
aVat
p2057
aVoutrageous
p2058
aVangles
p2059
aV,
aVdestroy
p2060
aVthemselves
p2061
aVin
p2062
aVunheard
p2063
aVof
p2064
aVcontradictions
p2065
aV.
aa(lp2066
Vthe
p2067
aVcolor
p2068
aVis
p2069
aVrepellent
p2070
aV,
aValmost
p2071
aVrevolting
p2072
aV;
aVa
aVsmouldering
p2073
aVunclean
p2074
aVyellow
p2075
aV,
aVstrangely
p2076
aVfaded
p2077
aVby
p2078
aVthe
p2079
aVslow-turning
p2080
aVsunlight
p2081
aV.
aa(lp2082
Vit
p2083
aVis
p2084
aVa
aVdull
p2085
aVyet
p2086
aVlurid
p2087
aVorange
p2088
aVin
p2089
aVsome
p2090
aVplaces
p2091
aV,
aVa
aVsickly
p2092
aVsulphur
p2093
aVtint
p2094
aVin
p2095
aVothers
p2096
aV.
aa(lp2097
Vno
p2098
aVwonder
p2099
aVthe
p2100
aVchildren
p2101
aVhated
p2102
aVit
p2103
aV!
aa(lp2104
Vi
aVshould
p2105
aVhate
p2106
aVit
p2107
aVmyself
p2108
aVif
p2109
aVi
aVhad
p2110
aVto
p2111
aVlive
p2112
aVin
p2113
aVthis
p2114
aVroom
p2115
aVlong
p2116
aV.
aa(lp2117
Vthere
p2118
aVcomes
p2119
aVjohn
p2120
aV,
aVand
p2121
aVi
aVmust
p2122
aVput
p2123
aVthis
p2124
aVaway
p2125
aV,
aV--
p2126
aVhe
p2127
aVhates
p2128
aVto
p2129
aVhave
p2130
aVme
p2131
aVwrite
p2132
aVa
aVword
p2133
aV.
aa(lp2134
Vwe
p2135
aVhave
p2136
aVbeen
p2137
aVhere
p2138
aVtwo
p2139
aVweeks
p2140
aV,
aVand
p2141
aVi
aVhave
p2142
aVn't
p2143
aVfelt
p2144
aVlike
p2145
aVwriting
p2146
aVbefore
p2147
aV,
aVsince
p2148
aVthat
p2149
aVfirst
p2150
aVday
p2151
aV.
aa(lp2152
Vi
aVam
p2153
aVsitting
p2154
aVby
p2155
aVthe
p2156
aVwindow
p2157
aVnow
p2158
aV,
aVup
p2159
aVin
p2160
aVthis
p2161
aVatrocious
p2162
aVnursery
p2163
aV,
aVand
p2164
aVthere
p2165
aVis
p2166
aVnothing
p2167
aVto
p2168
aVhinder
p2169
aVmy
p2170
aVwriting
p2171
aVas
p2172
aVmuch
p2173
aVas
p2174
aVi
aVplease
p2175
aV,
aVsave
p2176
aVlack
p2177
aVof
p2178
aVstrength
p2179
aV.
aa(lp2180
Vjohn
p2181
aVis
p2182
aVaway
p2183
aVall
p2184
aVday
p2185
aV,
aVand
p2186
aVeven
p2187
aVsome
p2188
aVnights
p2189
aVwhen
p2190
aVhis
p2191
aVcases
p2192
aVare
p2193
aVserious
p2194
aV.
aa(lp2195
Vi
aVam
p2196
aVglad
p2197
aVmy
p2198
aVcase
p2199
aVis
p2200
aVnot
p2201
aVserious
p2202
aV!
aa(lp2203
Vbut
p2204
aVthese
p2205
aVnervous
p2206
aVtroubles
p2207
aVare
p2208
aVdreadfully
p2209
aVdepressing
p2210
aV.
aa(lp2211
Vjohn
p2212
aVdoes
p2213
aVnot
p2214
aVknow
p2215
aVhow
p2216
aVmuch
p2217
aVi
aVreally
p2218
aVsuffer
p2219
aV.
aa(lp2220
Vhe
p2221
aVknows
p2222
aVthere
p2223
aVis
p2224
aVno
p2225
aVreason
p2226
aVto
p2227
aVsuffer
p2228
aV,
aVand
p2229
aVthat
p2230
aVsatisfies
p2231
aVhim
p2232
aV.
aa(lp2233
Vof
p2234
aVcourse
p2235
aVit
p2236
aVis
p2237
aVonly
p2238
aVnervousness
p2239
aV.
aa(lp2240
Vit
p2241
aVdoes
p2242
aVweigh
p2243
aVon
p2244
aVme
p2245
aVso
p2246
aVnot
p2247
aVto
p2248
aVdo
p2249
aVmy
p2250
aVduty
p2251
aVin
p2252
aVany
p2253
aVway
p2254
aV!
aa(lp2255
Vi
aVmeant
p2256
aVto
p2257
aVbe
p2258
aVsuch
p2259
aVa
aVhelp
p2260
aVto
p2261
aVjohn
p2262
aV,
aVsuch
p2263
aVa
aVreal
p2264
aVrest
p2265
aVand
p2266
aVcomfort
p2267
aV,
aVand
p2268
aVhere
p2269
aVi
aVam
p2270
aVa
aVcomparative
p2271
aVburden
p2272
aValready
p2273
aV!
aa(lp2274
Vnobody
p2275
aVwould
p2276
aVbelieve
p2277
aVwhat
p2278
aVan
p2279
aVeffort
p2280
aVit
p2281
aVis
p2282
aVto
p2283
aVdo
p2284
aVwhat
p2285
aVlittle
p2286
aVi
aVam
p2287
aVable
p2288
aV,
aV--
p2289
aVto
p2290
aVdress
p2291
aVand
p2292
aVentertain
p2293
aV,
aVand
p2294
aVorder
p2295
aVthings
p2296
aV.
aa(lp2297
Vit
p2298
aVis
p2299
aVfortunate
p2300
aVmary
p2301
aVis
p2302
aVso
p2303
aVgood
p2304
aVwith
p2305
aVthe
p2306
aVbaby
p2307
aV.
aa(lp2308
Vsuch
p2309
aVa
aVdear
p2310
aVbaby
p2311
aV!
aa(lp2312
Vand
p2313
aVyet
p2314
aVi
aVcan
p2315
aVnot
p2316
aVbe
p2317
aVwith
p2318
aVhim
p2319
aV,
aVit
p2320
aVmakes
p2321
aVme
p2322
aVso
p2323
aVnervous
p2324
aV.
aa(lp2325
Vi
aVsuppose
p2326
aVjohn
p2327
aVnever
p2328
aVwas
p2329
aVnervous
p2330
aVin
p2331
aVhis
p2332
aVlife
p2333
aV.
aa(lp2334
Vhe
p2335
aVlaughs
p2336
aVat
p2337
aVme
p2338
aVso
p2339
aVabout
p2340
aVthis
p2341
aVwall-paper
p2342
aV!
aa(lp2343
Vat
p2344
aVfirst
p2345
aVhe
p2346
aVmeant
p2347
aVto
p2348
aVrepaper
p2349
aVthe
p2350
aVroom
p2351
aV,
aVbut
p2352
aVafterwards
p2353
aVhe
p2354
aVsaid
p2355
aVthat
p2356
aVi
aVwas
p2357
aVletting
p2358
aVit
p2359
aVget
p2360
aVthe
p2361
aVbetter
p2362
aVof
p2363
aVme
p2364
aV,
aVand
p2365
aVthat
p2366
aVnothing
p2367
aVwas
p2368
aVworse
p2369
aVfor
p2370
aVa
aVnervous
p2371
aVpatient
p2372
aVthan
p2373
aVto
p2374
aVgive
p2375
aVway
p2376
aVto
p2377
aVsuch
p2378
aVfancies
p2379
aV.
aa(lp2380
Vhe
p2381
aVsaid
p2382
aVthat
p2383
aVafter
p2384
aVthe
p2385
aVwall-paper
p2386
aVwas
p2387
aVchanged
p2388
aVit
p2389
aVwould
p2390
aVbe
p2391
aVthe
p2392
aVheavy
p2393
aVbedstead
p2394
aV,
aVand
p2395
aVthen
p2396
aVthe
p2397
aVbarred
p2398
aVwindows
p2399
aV,
aVand
p2400
aVthen
p2401
aVthat
p2402
aVgate
p2403
aVat
p2404
aVthe
p2405
aVhead
p2406
aVof
p2407
aVthe
p2408
aVstairs
p2409
aV,
aVand
p2410
aVso
p2411
aVon
p2412
aV.
aa(lp2413
V``
p2414
aVyou
p2415
aVknow
p2416
aVthe
p2417
aVplace
p2418
aVis
p2419
aVdoing
p2420
aVyou
p2421
aVgood
p2422
aV,
aV''
p2423
aVhe
p2424
aVsaid
p2425
aV,
aV``
p2426
aVand
p2427
aVreally
p2428
aV,
aVdear
p2429
aV,
aVi
aVdo
p2430
aVn't
p2431
aVcare
p2432
aVto
p2433
aVrenovate
p2434
aVthe
p2435
aVhouse
p2436
aVjust
p2437
aVfor
p2438
aVa
aVthree
p2439
aVmonths
p2440
aV'
aVrental
p2441
aV.
aV''
p2442
aa(lp2443
V``
p2444
aVthen
p2445
aVdo
p2446
aVlet
p2447
aVus
p2448
aVgo
p2449
aVdownstairs
p2450
aV,
aV''
p2451
aVi
aVsaid
p2452
aV,
aV``
p2453
aVthere
p2454
aVare
p2455
aVsuch
p2456
aVpretty
p2457
aVrooms
p2458
aVthere
p2459
aV.
aV''
p2460
aa(lp2461
Vthen
p2462
aVhe
p2463
aVtook
p2464
aVme
p2465
aVin
p2466
aVhis
p2467
aVarms
p2468
aVand
p2469
aVcalled
p2470
aVme
p2471
aVa
aVblessed
p2472
aVlittle
p2473
aVgoose
p2474
aV,
aVand
p2475
aVsaid
p2476
aVhe
p2477
aVwould
p2478
aVgo
p2479
aVdown
p2480
aVto
p2481
aVthe
p2482
aVcellar
p2483
aV,
aVif
p2484
aVi
aVwished
p2485
aV,
aVand
p2486
aVhave
p2487
aVit
p2488
aVwhitewashed
p2489
aVinto
p2490
aVthe
p2491
aVbargain
p2492
aV.
aa(lp2493
Vbut
p2494
aVhe
p2495
aVis
p2496
aVright
p2497
aVenough
p2498
aVabout
p2499
aVthe
p2500
aVbeds
p2501
aVand
p2502
aVwindows
p2503
aVand
p2504
aVthings
p2505
aV.
aa(lp2506
Vit
p2507
aVis
p2508
aVan
p2509
aVairy
p2510
aVand
p2511
aVcomfortable
p2512
aVroom
p2513
aVas
p2514
aVany
p2515
aVone
p2516
aVneed
p2517
aVwish
p2518
aV,
aVand
p2519
aV,
aVof
p2520
aVcourse
p2521
aV,
aVi
aVwould
p2522
aVnot
p2523
aVbe
p2524
aVso
p2525
aVsilly
p2526
aVas
p2527
aVto
p2528
aVmake
p2529
aVhim
p2530
aVuncomfortable
p2531
aVjust
p2532
aVfor
p2533
aVa
aVwhim
p2534
aV.
aa(lp2535
Vi
aV'm
p2536
aVreally
p2537
aVgetting
p2538
aVquite
p2539
aVfond
p2540
aVof
p2541
aVthe
p2542
aVbig
p2543
aVroom
p2544
aV,
aVall
p2545
aVbut
p2546
aVthat
p2547
aVhorrid
p2548
aVpaper
p2549
aV.
aa(lp2550
Vout
p2551
aVof
p2552
aVone
p2553
aVwindow
p2554
aVi
aVcan
p2555
aVsee
p2556
aVthe
p2557
aVgarden
p2558
aV,
aVthose
p2559
aVmysterious
p2560
aVdeepshaded
p2561
aVarbors
p2562
aV,
aVthe
p2563
aVriotous
p2564
aVold-fashioned
p2565
aVflowers
p2566
aV,
aVand
p2567
aVbushes
p2568
aVand
p2569
aVgnarly
p2570
aVtrees
p2571
aV.
aa(lp2572
Vout
p2573
aVof
p2574
aVanother
p2575
aVi
aVget
p2576
aVa
aVlovely
p2577
aVview
p2578
aVof
p2579
aVthe
p2580
aVbay
p2581
aVand
p2582
aVa
aVlittle
p2583
aVprivate
p2584
aVwharf
p2585
aVbelonging
p2586
aVto
p2587
aVthe
p2588
aVestate
p2589
aV.
aa(lp2590
Vthere
p2591
aVis
p2592
aVa
aVbeautiful
p2593
aVshaded
p2594
aVlane
p2595
aVthat
p2596
aVruns
p2597
aVdown
p2598
aVthere
p2599
aVfrom
p2600
aVthe
p2601
aVhouse
p2602
aV.
aa(lp2603
Vi
aValways
p2604
aVfancy
p2605
aVi
aVsee
p2606
aVpeople
p2607
aVwalking
p2608
aVin
p2609
aVthese
p2610
aVnumerous
p2611
aVpaths
p2612
aVand
p2613
aVarbors
p2614
aV,
aVbut
p2615
aVjohn
p2616
aVhas
p2617
aVcautioned
p2618
aVme
p2619
aVnot
p2620
aVto
p2621
aVgive
p2622
aVway
p2623
aVto
p2624
aVfancy
p2625
aVin
p2626
aVthe
p2627
aVleast
p2628
aV.
aa(lp2629
Vhe
p2630
aVsays
p2631
aVthat
p2632
aVwith
p2633
aVmy
p2634
aVimaginative
p2635
aVpower
p2636
aVand
p2637
aVhabit
p2638
aVof
p2639
aVstory-making
p2640
aV,
aVa
aVnervous
p2641
aVweakness
p2642
aVlike
p2643
aVmine
p2644
aVis
p2645
aVsure
p2646
aVto
p2647
aVlead
p2648
aVto
p2649
aVall
p2650
aVmanner
p2651
aVof
p2652
aVexcited
p2653
aVfancies
p2654
aV,
aVand
p2655
aVthat
p2656
aVi
aVought
p2657
aVto
p2658
aVuse
p2659
aVmy
p2660
aVwill
p2661
aVand
p2662
aVgood
p2663
aVsense
p2664
aVto
p2665
aVcheck
p2666
aVthe
p2667
aVtendency
p2668
aV.
aa(lp2669
Vso
p2670
aVi
aVtry
p2671
aV.
aa(lp2672
Vi
aVthink
p2673
aVsometimes
p2674
aVthat
p2675
aVif
p2676
aVi
aVwere
p2677
aVonly
p2678
aVwell
p2679
aVenough
p2680
aVto
p2681
aVwrite
p2682
aVa
aVlittle
p2683
aVit
p2684
aVwould
p2685
aVrelieve
p2686
aVthe
p2687
aVpress
p2688
aVof
p2689
aVideas
p2690
aVand
p2691
aVrest
p2692
aVme
p2693
aV.
aa(lp2694
Vbut
p2695
aVi
aVfind
p2696
aVi
aVget
p2697
aVpretty
p2698
aVtired
p2699
aVwhen
p2700
aVi
aVtry
p2701
aV.
aa(lp2702
Vit
p2703
aVis
p2704
aVso
p2705
aVdiscouraging
p2706
aVnot
p2707
aVto
p2708
aVhave
p2709
aVany
p2710
aVadvice
p2711
aVand
p2712
aVcompanionship
p2713
aVabout
p2714
aVmy
p2715
aVwork
p2716
aV.
aa(lp2717
Vwhen
p2718
aVi
aVget
p2719
aVreally
p2720
aVwell
p2721
aV,
aVjohn
p2722
aVsays
p2723
aVwe
p2724
aVwill
p2725
aVask
p2726
aVcousin
p2727
aVhenry
p2728
aVand
p2729
aVjulia
p2730
aVdown
p2731
aVfor
p2732
aVa
aVlong
p2733
aVvisit
p2734
aV;
aVbut
p2735
aVhe
p2736
aVsays
p2737
aVhe
p2738
aVwould
p2739
aVas
p2740
aVsoon
p2741
aVput
p2742
aVfireworks
p2743
aVin
p2744
aVmy
p2745
aVpillow-case
p2746
aVas
p2747
aVto
p2748
aVlet
p2749
aVme
p2750
aVhave
p2751
aVthose
p2752
aVstimulating
p2753
aVpeople
p2754
aVabout
p2755
aVnow
p2756
aV.
aa(lp2757
Vi
aVwish
p2758
aVi
aVcould
p2759
aVget
p2760
aVwell
p2761
aVfaster
p2762
aV.
aa(lp2763
Vbut
p2764
aVi
aVmust
p2765
aVnot
p2766
aVthink
p2767
aVabout
p2768
aVthat
p2769
aV.
aa(lp2770
Vthis
p2771
aVpaper
p2772
aVlooks
p2773
aVto
p2774
aVme
p2775
aVas
p2776
aVif
p2777
aVit
p2778
aVknew
p2779
aVwhat
p2780
aVa
aVvicious
p2781
aVinfluence
p2782
aVit
p2783
aVhad
p2784
aV!
aa(lp2785
Vthere
p2786
aVis
p2787
aVa
aVrecurrent
p2788
aVspot
p2789
aVwhere
p2790
aVthe
p2791
aVpattern
p2792
aVlolls
p2793
aVlike
p2794
aVa
aVbroken
p2795
aVneck
p2796
aVand
p2797
aVtwo
p2798
aVbulbous
p2799
aVeyes
p2800
aVstare
p2801
aVat
p2802
aVyou
p2803
aVupside
p2804
aVdown
p2805
aV.
aa(lp2806
Vi
aVget
p2807
aVpositively
p2808
aVangry
p2809
aVwith
p2810
aVthe
p2811
aVimpertinence
p2812
aVof
p2813
aVit
p2814
aVand
p2815
aVthe
p2816
aVeverlastingness
p2817
aV.
aa(lp2818
Vup
p2819
aVand
p2820
aVdown
p2821
aVand
p2822
aVsideways
p2823
aVthey
p2824
aVcrawl
p2825
aV,
aVand
p2826
aVthose
p2827
aVabsurd
p2828
aV,
aVunblinking
p2829
aVeyes
p2830
aVare
p2831
aVeverywhere
p2832
aV.
aa(lp2833
Vthere
p2834
aVis
p2835
aVone
p2836
aVplace
p2837
aVwhere
p2838
aVtwo
p2839
aVbreadths
p2840
aVdid
p2841
aVn't
p2842
aVmatch
p2843
aV,
aVand
p2844
aVthe
p2845
aVeyes
p2846
aVgo
p2847
aVall
p2848
aVup
p2849
aVand
p2850
aVdown
p2851
aVthe
p2852
aVline
p2853
aV,
aVone
p2854
aVa
aVlittle
p2855
aVhigher
p2856
aVthan
p2857
aVthe
p2858
aVother
p2859
aV.
aa(lp2860
Vi
aVnever
p2861
aVsaw
p2862
aVso
p2863
aVmuch
p2864
aVexpression
p2865
aVin
p2866
aVan
p2867
aVinanimate
p2868
aVthing
p2869
aVbefore
p2870
aV,
aVand
p2871
aVwe
p2872
aVall
p2873
aVknow
p2874
aVhow
p2875
aVmuch
p2876
aVexpression
p2877
aVthey
p2878
aVhave
p2879
aV!
aa(lp2880
Vi
aVused
p2881
aVto
p2882
aVlie
p2883
aVawake
p2884
aVas
p2885
aVa
aVchild
p2886
aVand
p2887
aVget
p2888
aVmore
p2889
aVentertainment
p2890
aVand
p2891
aVterror
p2892
aVout
p2893
aVof
p2894
aVblank
p2895
aVwalls
p2896
aVand
p2897
aVplain
p2898
aVfurniture
p2899
aVthan
p2900
aVmost
p2901
aVchildren
p2902
aVcould
p2903
aVfind
p2904
aVin
p2905
aVa
aVtoy
p2906
aVstore
p2907
aV.
aa(lp2908
Vi
aVremember
p2909
aVwhat
p2910
aVa
aVkindly
p2911
aVwink
p2912
aVthe
p2913
aVknobs
p2914
aVof
p2915
aVour
p2916
aVbig
p2917
aV,
aVold
p2918
aVbureau
p2919
aVused
p2920
aVto
p2921
aVhave
p2922
aV,
aVand
p2923
aVthere
p2924
aVwas
p2925
aVone
p2926
aVchair
p2927
aVthat
p2928
aValways
p2929
aVseemed
p2930
aVlike
p2931
aVa
aVstrong
p2932
aVfriend
p2933
aV.
aa(lp2934
Vi
aVused
p2935
aVto
p2936
aVfeel
p2937
aVthat
p2938
aVif
p2939
aVany
p2940
aVof
p2941
aVthe
p2942
aVother
p2943
aVthings
p2944
aVlooked
p2945
aVtoo
p2946
aVfierce
p2947
aVi
aVcould
p2948
aValways
p2949
aVhop
p2950
aVinto
p2951
aVthat
p2952
aVchair
p2953
aVand
p2954
aVbe
p2955
aVsafe
p2956
aV.
aa(lp2957
Vthe
p2958
aVfurniture
p2959
aVin
p2960
aVthis
p2961
aVroom
p2962
aVis
p2963
aVno
p2964
aVworse
p2965
aVthan
p2966
aVinharmonious
p2967
aV,
aVhowever
p2968
aV,
aVfor
p2969
aVwe
p2970
aVhad
p2971
aVto
p2972
aVbring
p2973
aVit
p2974
aVall
p2975
aVfrom
p2976
aVdownstairs
p2977
aV.
aa(lp2978
Vi
aVsuppose
p2979
aVwhen
p2980
aVthis
p2981
aVwas
p2982
aVused
p2983
aVas
p2984
aVa
aVplayroom
p2985
aVthey
p2986
aVhad
p2987
aVto
p2988
aVtake
p2989
aVthe
p2990
aVnursery
p2991
aVthings
p2992
aVout
p2993
aV,
aVand
p2994
aVno
p2995
aVwonder
p2996
aV!
aa(lp2997
Vi
aVnever
p2998
aVsaw
p2999
aVsuch
p3000
aVravages
p3001
aVas
p3002
aVthe
p3003
aVchildren
p3004
aVhave
p3005
aVmade
p3006
aVhere
p3007
aV.
aa(lp3008
Vthe
p3009
aVwall-paper
p3010
aV,
aVas
p3011
aVi
aVsaid
p3012
aVbefore
p3013
aV,
aVis
p3014
aVtorn
p3015
aVoff
p3016
aVin
p3017
aVspots
p3018
aV,
aVand
p3019
aVit
p3020
aVsticketh
p3021
aVcloser
p3022
aVthan
p3023
aVa
aVbrother
p3024
aV--
p3025
aVthey
p3026
aVmust
p3027
aVhave
p3028
aVhad
p3029
aVperseverance
p3030
aVas
p3031
aVwell
p3032
aVas
p3033
aVhatred
p3034
aV.
aa(lp3035
Vthen
p3036
aVthe
p3037
aVfloor
p3038
aVis
p3039
aVscratched
p3040
aVand
p3041
aVgouged
p3042
aVand
p3043
aVsplintered
p3044
aV,
aVthe
p3045
aVplaster
p3046
aVitself
p3047
aVis
p3048
aVdug
p3049
aVout
p3050
aVhere
p3051
aVand
p3052
aVthere
p3053
aV,
aVand
p3054
aVthis
p3055
aVgreat
p3056
aVheavy
p3057
aVbed
p3058
aVwhich
p3059
aVis
p3060
aVall
p3061
aVwe
p3062
aVfound
p3063
aVin
p3064
aVthe
p3065
aVroom
p3066
aV,
aVlooks
p3067
aVas
p3068
aVif
p3069
aVit
p3070
aVhad
p3071
aVbeen
p3072
aVthrough
p3073
aVthe
p3074
aVwars
p3075
aV.
aa(lp3076
Vbut
p3077
aVi
aVdo
p3078
aVn't
p3079
aVmind
p3080
aVit
p3081
aVa
aVbit
p3082
aV--
p3083
aVonly
p3084
aVthe
p3085
aVpaper
p3086
aV.
aa(lp3087
Vthere
p3088
aVcomes
p3089
aVjohn
p3090
aV's
p3091
aVsister
p3092
aV.
aa(lp3093
Vsuch
p3094
aVa
aVdear
p3095
aVgirl
p3096
aVas
p3097
aVshe
p3098
aVis
p3099
aV,
aVand
p3100
aVso
p3101
aVcareful
p3102
aVof
p3103
aVme
p3104
aV!
aa(lp3105
Vi
aVmust
p3106
aVnot
p3107
aVlet
p3108
aVher
p3109
aVfind
p3110
aVme
p3111
aVwriting
p3112
aV.
aa(lp3113
Vshe
p3114
aVis
p3115
aVa
aVperfect
p3116
aVand
p3117
aVenthusiastic
p3118
aVhousekeeper
p3119
aV,
aVand
p3120
aVhopes
p3121
aVfor
p3122
aVno
p3123
aVbetter
p3124
aVprofession
p3125
aV.
aa(lp3126
Vi
aVverily
p3127
aVbelieve
p3128
aVshe
p3129
aVthinks
p3130
aVit
p3131
aVis
p3132
aVthe
p3133
aVwriting
p3134
aVwhich
p3135
aVmade
p3136
aVme
p3137
aVsick
p3138
aV!
aa(lp3139
Vbut
p3140
aVi
aVcan
p3141
aVwrite
p3142
aVwhen
p3143
aVshe
p3144
aVis
p3145
aVout
p3146
aV,
aVand
p3147
aVsee
p3148
aVher
p3149
aVa
aVlong
p3150
aVway
p3151
aVoff
p3152
aVfrom
p3153
aVthese
p3154
aVwindows
p3155
aV.
aa(lp3156
Vthere
p3157
aVis
p3158
aVone
p3159
aVthat
p3160
aVcommands
p3161
aVthe
p3162
aVroad
p3163
aV,
aVa
aVlovely
p3164
aVshaded
p3165
aVwinding
p3166
aVroad
p3167
aV,
aVand
p3168
aVone
p3169
aVthat
p3170
aVjust
p3171
aVlooks
p3172
aVoff
p3173
aVover
p3174
aVthe
p3175
aVcountry
p3176
aV.
aa(lp3177
Va
aVlovely
p3178
aVcountry
p3179
aV,
aVtoo
p3180
aV,
aVfull
p3181
aVof
p3182
aVgreat
p3183
aVelms
p3184
aVand
p3185
aVvelvet
p3186
aVmeadows
p3187
aV.
aa(lp3188
Vthis
p3189
aVwall-paper
p3190
aVhas
p3191
aVa
aVkind
p3192
aVof
p3193
aVsub-pattern
p3194
aVin
p3195
aVa
aVdifferent
p3196
aVshade
p3197
aV,
aVa
aVparticularly
p3198
aVirritating
p3199
aVone
p3200
aV,
aVfor
p3201
aVyou
p3202
aVcan
p3203
aVonly
p3204
aVsee
p3205
aVit
p3206
aVin
p3207
aVcertain
p3208
aVlights
p3209
aV,
aVand
p3210
aVnot
p3211
aVclearly
p3212
aVthen
p3213
aV.
aa(lp3214
Vbut
p3215
aVin
p3216
aVthe
p3217
aVplaces
p3218
aVwhere
p3219
aVit
p3220
aVis
p3221
aVn't
p3222
aVfaded
p3223
aVand
p3224
aVwhere
p3225
aVthe
p3226
aVsun
p3227
aVis
p3228
aVjust
p3229
aVso
p3230
aV--
p3231
aVi
aVcan
p3232
aVsee
p3233
aVa
aVstrange
p3234
aV,
aVprovoking
p3235
aV,
aVformless
p3236
aVsort
p3237
aVof
p3238
aVfigure
p3239
aV,
aVthat
p3240
aVseems
p3241
aVto
p3242
aVskulk
p3243
aVabout
p3244
aVbehind
p3245
aVthat
p3246
aVsilly
p3247
aVand
p3248
aVconspicuous
p3249
aVfront
p3250
aVdesign
p3251
aV.
aa(lp3252
Vthere
p3253
aV's
p3254
aVsister
p3255
aVon
p3256
aVthe
p3257
aVstairs
p3258
aV!
aa(lp3259
Vwell
p3260
aV,
aVthe
p3261
aVfourth
p3262
aVof
p3263
aVjuly
p3264
aVis
p3265
aVover
p3266
aV!
aa(lp3267
Vthe
p3268
aVpeople
p3269
aVare
p3270
aVgone
p3271
aVand
p3272
aVi
aVam
p3273
aVtired
p3274
aVout
p3275
aV.
aa(lp3276
Vjohn
p3277
aVthought
p3278
aVit
p3279
aVmight
p3280
aVdo
p3281
aVme
p3282
aVgood
p3283
aVto
p3284
aVsee
p3285
aVa
aVlittle
p3286
aVcompany
p3287
aV,
aVso
p3288
aVwe
p3289
aVjust
p3290
aVhad
p3291
aVmother
p3292
aVand
p3293
aVnellie
p3294
aVand
p3295
aVthe
p3296
aVchildren
p3297
aVdown
p3298
aVfor
p3299
aVa
aVweek
p3300
aV.
aa(lp3301
Vof
p3302
aVcourse
p3303
aVi
aVdid
p3304
aVn't
p3305
aVdo
p3306
aVa
aVthing
p3307
aV.
aa(lp3308
Vjennie
p3309
aVsees
p3310
aVto
p3311
aVeverything
p3312
aVnow
p3313
aV.
aa(lp3314
Vbut
p3315
aVit
p3316
aVtired
p3317
aVme
p3318
aVall
p3319
aVthe
p3320
aVsame
p3321
aV.
aa(lp3322
Vjohn
p3323
aVsays
p3324
aVif
p3325
aVi
aVdo
p3326
aVn't
p3327
aVpick
p3328
aVup
p3329
aVfaster
p3330
aVhe
p3331
aVshall
p3332
aVsend
p3333
aVme
p3334
aVto
p3335
aVweir
p3336
aVmitchell
p3337
aVin
p3338
aVthe
p3339
aVfall
p3340
aV.
aa(lp3341
Vbut
p3342
aVi
aVdo
p3343
aVn't
p3344
aVwant
p3345
aVto
p3346
aVgo
p3347
aVthere
p3348
aVat
p3349
aVall
p3350
aV.
aa(lp3351
Vi
aVhad
p3352
aVa
aVfriend
p3353
aVwho
p3354
aVwas
p3355
aVin
p3356
aVhis
p3357
aVhands
p3358
aVonce
p3359
aV,
aVand
p3360
aVshe
p3361
aVsays
p3362
aVhe
p3363
aVis
p3364
aVjust
p3365
aVlike
p3366
aVjohn
p3367
aVand
p3368
aVmy
p3369
aVbrother
p3370
aV,
aVonly
p3371
aVmore
p3372
aVso
p3373
aV!
aa(lp3374
Vbesides
p3375
aV,
aVit
p3376
aVis
p3377
aVsuch
p3378
aVan
p3379
aVundertaking
p3380
aVto
p3381
aVgo
p3382
aVso
p3383
aVfar
p3384
aV.
aa(lp3385
Vi
aVdo
p3386
aVn't
p3387
aVfeel
p3388
aVas
p3389
aVif
p3390
aVit
p3391
aVwas
p3392
aVworth
p3393
aVwhile
p3394
aVto
p3395
aVturn
p3396
aVmy
p3397
aVhand
p3398
aVover
p3399
aVfor
p3400
aVanything
p3401
aV,
aVand
p3402
aVi
aV'm
p3403
aVgetting
p3404
aVdreadfully
p3405
aVfretful
p3406
aVand
p3407
aVquerulous
p3408
aV.
aa(lp3409
Vi
aVcry
p3410
aVat
p3411
aVnothing
p3412
aV,
aVand
p3413
aVcry
p3414
aVmost
p3415
aVof
p3416
aVthe
p3417
aVtime
p3418
aV.
aa(lp3419
Vof
p3420
aVcourse
p3421
aVi
aVdo
p3422
aVn't
p3423
aVwhen
p3424
aVjohn
p3425
aVis
p3426
aVhere
p3427
aV,
aVor
p3428
aVanybody
p3429
aVelse
p3430
aV,
aVbut
p3431
aVwhen
p3432
aVi
aVam
p3433
aValone
p3434
aV.
aa(lp3435
Vand
p3436
aVi
aVam
p3437
aValone
p3438
aVa
aVgood
p3439
aVdeal
p3440
aVjust
p3441
aVnow
p3442
aV.
aa(lp3443
Vjohn
p3444
aVis
p3445
aVkept
p3446
aVin
p3447
aVtown
p3448
aVvery
p3449
aVoften
p3450
aVby
p3451
aVserious
p3452
aVcases
p3453
aV,
aVand
p3454
aVjennie
p3455
aVis
p3456
aVgood
p3457
aVand
p3458
aVlets
p3459
aVme
p3460
aValone
p3461
aVwhen
p3462
aVi
aVwant
p3463
aVher
p3464
aVto
p3465
aV.
aa(lp3466
Vso
p3467
aVi
aVwalk
p3468
aVa
aVlittle
p3469
aVin
p3470
aVthe
p3471
aVgarden
p3472
aVor
p3473
aVdown
p3474
aVthat
p3475
aVlovely
p3476
aVlane
p3477
aV,
aVsit
p3478
aVon
p3479
aVthe
p3480
aVporch
p3481
aVunder
p3482
aVthe
p3483
aVroses
p3484
aV,
aVand
p3485
aVlie
p3486
aVdown
p3487
aVup
p3488
aVhere
p3489
aVa
aVgood
p3490
aVdeal
p3491
aV.
aa(lp3492
Vi
aV'm
p3493
aVgetting
p3494
aVreally
p3495
aVfond
p3496
aVof
p3497
aVthe
p3498
aVroom
p3499
aVin
p3500
aVspite
p3501
aVof
p3502
aVthe
p3503
aVwall-paper
p3504
aV.
aa(lp3505
Vperhaps
p3506
aVbecause
p3507
aVof
p3508
aVthe
p3509
aVwall-paper
p3510
aV.
aa(lp3511
Vit
p3512
aVdwells
p3513
aVin
p3514
aVmy
p3515
aVmind
p3516
aVso
p3517
aV!
aa(lp3518
Vi
aVlie
p3519
aVhere
p3520
aVon
p3521
aVthis
p3522
aVgreat
p3523
aVimmovable
p3524
aVbed
p3525
aV--
p3526
aVit
p3527
aVis
p3528
aVnailed
p3529
aVdown
p3530
aV,
aVi
aVbelieve
p3531
aV--
p3532
aVand
p3533
aVfollow
p3534
aVthat
p3535
aVpattern
p3536
aVabout
p3537
aVby
p3538
aVthe
p3539
aVhour
p3540
aV.
aa(lp3541
Vit
p3542
aVis
p3543
aVas
p3544
aVgood
p3545
aVas
p3546
aVgymnastics
p3547
aV,
aVi
aVassure
p3548
aVyou
p3549
aV.
aa(lp3550
Vi
aVstart
p3551
aV,
aVwe
p3552
aV'll
p3553
aVsay
p3554
aV,
aVat
p3555
aVthe
p3556
aVbottom
p3557
aV,
aVdown
p3558
aVin
p3559
aVthe
p3560
aVcorner
p3561
aVover
p3562
aVthere
p3563
aVwhere
p3564
aVit
p3565
aVhas
p3566
aVnot
p3567
aVbeen
p3568
aVtouched
p3569
aV,
aVand
p3570
aVi
aVdetermine
p3571
aVfor
p3572
aVthe
p3573
aVthousandth
p3574
aVtime
p3575
aVthat
p3576
aVi
aVwill
p3577
aVfollow
p3578
aVthat
p3579
aVpointless
p3580
aVpattern
p3581
aVto
p3582
aVsome
p3583
aVsort
p3584
aVof
p3585
aVa
aVconclusion
p3586
aV.
aa(lp3587
Vi
aVknow
p3588
aVa
aVlittle
p3589
aVof
p3590
aVthe
p3591
aVprinciple
p3592
aVof
p3593
aVdesign
p3594
aV,
aVand
p3595
aVi
aVknow
p3596
aVthis
p3597
aVthing
p3598
aVwas
p3599
aVnot
p3600
aVarranged
p3601
aVon
p3602
aVany
p3603
aVlaws
p3604
aVof
p3605
aVradiation
p3606
aV,
aVor
p3607
aValternation
p3608
aV,
aVor
p3609
aVrepetition
p3610
aV,
aVor
p3611
aVsymmetry
p3612
aV,
aVor
p3613
aVanything
p3614
aVelse
p3615
aVthat
p3616
aVi
aVever
p3617
aVheard
p3618
aVof
p3619
aV.
aa(lp3620
Vit
p3621
aVis
p3622
aVrepeated
p3623
aV,
aVof
p3624
aVcourse
p3625
aV,
aVby
p3626
aVthe
p3627
aVbreadths
p3628
aV,
aVbut
p3629
aVnot
p3630
aVotherwise
p3631
aV.
aa(lp3632
Vlooked
p3633
aVat
p3634
aVin
p3635
aVone
p3636
aVway
p3637
aVeach
p3638
aVbreadth
p3639
aVstands
p3640
aValone
p3641
aV,
aVthe
p3642
aVbloated
p3643
aVcurves
p3644
aVand
p3645
aVflourishes
p3646
aV--
p3647
aVa
aVkind
p3648
aVof
p3649
aV``
p3650
aVdebased
p3651
aVromanesque
p3652
aV''
p3653
aVwith
p3654
aVdelirium
p3655
aVtremens
p3656
aV--
p3657
aVgo
p3658
aVwaddling
p3659
aVup
p3660
aVand
p3661
aVdown
p3662
aVin
p3663
aVisolated
p3664
aVcolumns
p3665
aVof
p3666
aVfatuity
p3667
aV.
aa(lp3668
Vbut
p3669
aV,
aVon
p3670
aVthe
p3671
aVother
p3672
aVhand
p3673
aV,
aVthey
p3674
aVconnect
p3675
aVdiagonally
p3676
aV,
aVand
p3677
aVthe
p3678
aVsprawling
p3679
aVoutlines
p3680
aVrun
p3681
aVoff
p3682
aVin
p3683
aVgreat
p3684
aVslanting
p3685
aVwaves
p3686
aVof
p3687
aVoptic
p3688
aVhorror
p3689
aV,
aVlike
p3690
aVa
aVlot
p3691
aVof
p3692
aVwallowing
p3693
aVseaweeds
p3694
aVin
p3695
aVfull
p3696
aVchase
p3697
aV.
aa(lp3698
Vthe
p3699
aVwhole
p3700
aVthing
p3701
aVgoes
p3702
aVhorizontally
p3703
aV,
aVtoo
p3704
aV,
aVat
p3705
aVleast
p3706
aVit
p3707
aVseems
p3708
aVso
p3709
aV,
aVand
p3710
aVi
aVexhaust
p3711
aVmyself
p3712
aVin
p3713
aVtrying
p3714
aVto
p3715
aVdistinguish
p3716
aVthe
p3717
aVorder
p3718
aVof
p3719
aVits
p3720
aVgoing
p3721
aVin
p3722
aVthat
p3723
aVdirection
p3724
aV.
aa(lp3725
Vthey
p3726
aVhave
p3727
aVused
p3728
aVa
aVhorizontal
p3729
aVbreadth
p3730
aVfor
p3731
aVa
aVfrieze
p3732
aV,
aVand
p3733
aVthat
p3734
aVadds
p3735
aVwonderfully
p3736
aVto
p3737
aVthe
p3738
aVconfusion
p3739
aV.
aa(lp3740
Vthere
p3741
aVis
p3742
aVone
p3743
aVend
p3744
aVof
p3745
aVthe
p3746
aVroom
p3747
aVwhere
p3748
aVit
p3749
aVis
p3750
aValmost
p3751
aVintact
p3752
aV,
aVand
p3753
aVthere
p3754
aV,
aVwhen
p3755
aVthe
p3756
aVcrosslights
p3757
aVfade
p3758
aVand
p3759
aVthe
p3760
aVlow
p3761
aVsun
p3762
aVshines
p3763
aVdirectly
p3764
aVupon
p3765
aVit
p3766
aV,
aVi
aVcan
p3767
aValmost
p3768
aVfancy
p3769
aVradiation
p3770
aVafter
p3771
aVall
p3772
aV,
aV--
p3773
aVthe
p3774
aVinterminable
p3775
aVgrotesques
p3776
aVseem
p3777
aVto
p3778
aVform
p3779
aVaround
p3780
aVa
aVcommon
p3781
aVcentre
p3782
aVand
p3783
aVrush
p3784
aVoff
p3785
aVin
p3786
aVheadlong
p3787
aVplunges
p3788
aVof
p3789
aVequal
p3790
aVdistraction
p3791
aV.
aa(lp3792
Vit
p3793
aVmakes
p3794
aVme
p3795
aVtired
p3796
aVto
p3797
aVfollow
p3798
aVit
p3799
aV.
aa(lp3800
Vi
aVwill
p3801
aVtake
p3802
aVa
aVnap
p3803
aVi
aVguess
p3804
aV.
aa(lp3805
Vi
aVdo
p3806
aVn't
p3807
aVknow
p3808
aVwhy
p3809
aVi
aVshould
p3810
aVwrite
p3811
aVthis
p3812
aV.
aa(lp3813
Vi
aVdo
p3814
aVn't
p3815
aVwant
p3816
aVto
p3817
aV.
aa(lp3818
Vi
aVdo
p3819
aVn't
p3820
aVfeel
p3821
aVable
p3822
aV.
aa(lp3823
Vand
p3824
aVi
aVknow
p3825
aVjohn
p3826
aVwould
p3827
aVthink
p3828
aVit
p3829
aVabsurd
p3830
aV.
aa(lp3831
Vbut
p3832
aVi
aVmust
p3833
aVsay
p3834
aVwhat
p3835
aVi
aVfeel
p3836
aVand
p3837
aVthink
p3838
aVin
p3839
aVsome
p3840
aVway
p3841
aV--
p3842
aVit
p3843
aVis
p3844
aVsuch
p3845
aVa
aVrelief
p3846
aV!
aa(lp3847
Vbut
p3848
aVthe
p3849
aVeffort
p3850
aVis
p3851
aVgetting
p3852
aVto
p3853
aVbe
p3854
aVgreater
p3855
aVthan
p3856
aVthe
p3857
aVrelief
p3858
aV.
aa(lp3859
Vhalf
p3860
aVthe
p3861
aVtime
p3862
aVnow
p3863
aVi
aVam
p3864
aVawfully
p3865
aVlazy
p3866
aV,
aVand
p3867
aVlie
p3868
aVdown
p3869
aVever
p3870
aVso
p3871
aVmuch
p3872
aV.
aa(lp3873
Vjohn
p3874
aVsays
p3875
aVi
aVmus
p3876
aVn't
p3877
aVlose
p3878
aVmy
p3879
aVstrength
p3880
aV,
aVand
p3881
aVhas
p3882
aVme
p3883
aVtake
p3884
aVcod
p3885
aVliver
p3886
aVoil
p3887
aVand
p3888
aVlots
p3889
aVof
p3890
aVtonics
p3891
aVand
p3892
aVthings
p3893
aV,
aVto
p3894
aVsay
p3895
aVnothing
p3896
aVof
p3897
aVale
p3898
aVand
p3899
aVwine
p3900
aVand
p3901
aVrare
p3902
aVmeat
p3903
aV.
aa(lp3904
Vdear
p3905
aVjohn
p3906
aV!
aa(lp3907
Vhe
p3908
aVloves
p3909
aVme
p3910
aVvery
p3911
aVdearly
p3912
aV,
aVand
p3913
aVhates
p3914
aVto
p3915
aVhave
p3916
aVme
p3917
aVsick
p3918
aV.
aa(lp3919
Vi
aVtried
p3920
aVto
p3921
aVhave
p3922
aVa
aVreal
p3923
aVearnest
p3924
aVreasonable
p3925
aVtalk
p3926
aVwith
p3927
aVhim
p3928
aVthe
p3929
aVother
p3930
aVday
p3931
aV,
aVand
p3932
aVtell
p3933
aVhim
p3934
aVhow
p3935
aVi
aVwish
p3936
aVhe
p3937
aVwould
p3938
aVlet
p3939
aVme
p3940
aVgo
p3941
aVand
p3942
aVmake
p3943
aVa
aVvisit
p3944
aVto
p3945
aVcousin
p3946
aVhenry
p3947
aVand
p3948
aVjulia
p3949
aV.
aa(lp3950
Vbut
p3951
aVhe
p3952
aVsaid
p3953
aVi
aVwas
p3954
aVn't
p3955
aVable
p3956
aVto
p3957
aVgo
p3958
aV,
aVnor
p3959
aVable
p3960
aVto
p3961
aVstand
p3962
aVit
p3963
aVafter
p3964
aVi
aVgot
p3965
aVthere
p3966
aV;
aVand
p3967
aVi
aVdid
p3968
aVnot
p3969
aVmake
p3970
aVout
p3971
aVa
aVvery
p3972
aVgood
p3973
aVcase
p3974
aVfor
p3975
aVmyself
p3976
aV,
aVfor
p3977
aVi
aVwas
p3978
aVcrying
p3979
aVbefore
p3980
aVi
aVhad
p3981
aVfinished
p3982
aV.
aa(lp3983
Vit
p3984
aVis
p3985
aVgetting
p3986
aVto
p3987
aVbe
p3988
aVa
aVgreat
p3989
aVeffort
p3990
aVfor
p3991
aVme
p3992
aVto
p3993
aVthink
p3994
aVstraight
p3995
aV.
aa(lp3996
Vjust
p3997
aVthis
p3998
aVnervous
p3999
aVweakness
p4000
aVi
aVsuppose
p4001
aV.
aa(lp4002
Vand
p4003
aVdear
p4004
aVjohn
p4005
aVgathered
p4006
aVme
p4007
aVup
p4008
aVin
p4009
aVhis
p4010
aVarms
p4011
aV,
aVand
p4012
aVjust
p4013
aVcarried
p4014
aVme
p4015
aVupstairs
p4016
aVand
p4017
aVlaid
p4018
aVme
p4019
aVon
p4020
aVthe
p4021
aVbed
p4022
aV,
aVand
p4023
aVsat
p4024
aVby
p4025
aVme
p4026
aVand
p4027
aVread
p4028
aVto
p4029
aVme
p4030
aVtill
p4031
aVit
p4032
aVtired
p4033
aVmy
p4034
aVhead
p4035
aV.
aa(lp4036
Vhe
p4037
aVsaid
p4038
aVi
aVwas
p4039
aVhis
p4040
aVdarling
p4041
aVand
p4042
aVhis
p4043
aVcomfort
p4044
aVand
p4045
aVall
p4046
aVhe
p4047
aVhad
p4048
aV,
aVand
p4049
aVthat
p4050
aVi
aVmust
p4051
aVtake
p4052
aVcare
p4053
aVof
p4054
aVmyself
p4055
aVfor
p4056
aVhis
p4057
aVsake
p4058
aV,
aVand
p4059
aVkeep
p4060
aVwell
p4061
aV.
aa(lp4062
Vhe
p4063
aVsays
p4064
aVno
p4065
aVone
p4066
aVbut
p4067
aVmyself
p4068
aVcan
p4069
aVhelp
p4070
aVme
p4071
aVout
p4072
aVof
p4073
aVit
p4074
aV,
aVthat
p4075
aVi
aVmust
p4076
aVuse
p4077
aVmy
p4078
aVwill
p4079
aVand
p4080
aVself-control
p4081
aVand
p4082
aVnot
p4083
aVlet
p4084
aVany
p4085
aVsilly
p4086
aVfancies
p4087
aVrun
p4088
aVaway
p4089
aVwith
p4090
aVme
p4091
aV.
aa(lp4092
Vthere
p4093
aV's
p4094
aVone
p4095
aVcomfort
p4096
aV,
aVthe
p4097
aVbaby
p4098
aVis
p4099
aVwell
p4100
aVand
p4101
aVhappy
p4102
aV,
aVand
p4103
aVdoes
p4104
aVnot
p4105
aVhave
p4106
aVto
p4107
aVoccupy
p4108
aVthis
p4109
aVnursery
p4110
aVwith
p4111
aVthe
p4112
aVhorrid
p4113
aVwall-paper
p4114
aV.
aa(lp4115
Vif
p4116
aVwe
p4117
aVhad
p4118
aVnot
p4119
aVused
p4120
aVit
p4121
aV,
aVthat
p4122
aVblessed
p4123
aVchild
p4124
aVwould
p4125
aVhave
p4126
aV!
aa(lp4127
Vwhat
p4128
aVa
aVfortunate
p4129
aVescape
p4130
aV!
aa(lp4131
Vwhy
p4132
aV,
aVi
aVwould
p4133
aVn't
p4134
aVhave
p4135
aVa
aVchild
p4136
aVof
p4137
aVmine
p4138
aV,
aVan
p4139
aVimpressionable
p4140
aVlittle
p4141
aVthing
p4142
aV,
aVlive
p4143
aVin
p4144
aVsuch
p4145
aVa
aVroom
p4146
aVfor
p4147
aVworlds
p4148
aV.
aa(lp4149
Vi
aVnever
p4150
aVthought
p4151
aVof
p4152
aVit
p4153
aVbefore
p4154
aV,
aVbut
p4155
aVit
p4156
aVis
p4157
aVlucky
p4158
aVthat
p4159
aVjohn
p4160
aVkept
p4161
aVme
p4162
aVhere
p4163
aVafter
p4164
aVall
p4165
aV,
aVi
aVcan
p4166
aVstand
p4167
aVit
p4168
aVso
p4169
aVmuch
p4170
aVeasier
p4171
aVthan
p4172
aVa
aVbaby
p4173
aV,
aVyou
p4174
aVsee
p4175
aV.
aa(lp4176
Vof
p4177
aVcourse
p4178
aVi
aVnever
p4179
aVmention
p4180
aVit
p4181
aVto
p4182
aVthem
p4183
aVany
p4184
aVmore
p4185
aV--
p4186
aVi
aVam
p4187
aVtoo
p4188
aVwise
p4189
aV,
aV--
p4190
aVbut
p4191
aVi
aVkeep
p4192
aVwatch
p4193
aVof
p4194
aVit
p4195
aVall
p4196
aVthe
p4197
aVsame
p4198
aV.
aa(lp4199
Vthere
p4200
aVare
p4201
aVthings
p4202
aVin
p4203
aVthat
p4204
aVpaper
p4205
aVthat
p4206
aVnobody
p4207
aVknows
p4208
aVbut
p4209
aVme
p4210
aV,
aVor
p4211
aVever
p4212
aVwill
p4213
aV.
aa(lp4214
Vbehind
p4215
aVthat
p4216
aVoutside
p4217
aVpattern
p4218
aVthe
p4219
aVdim
p4220
aVshapes
p4221
aVget
p4222
aVclearer
p4223
aVevery
p4224
aVday
p4225
aV.
aa(lp4226
Vit
p4227
aVis
p4228
aValways
p4229
aVthe
p4230
aVsame
p4231
aVshape
p4232
aV,
aVonly
p4233
aVvery
p4234
aVnumerous
p4235
aV.
aa(lp4236
Vand
p4237
aVit
p4238
aVis
p4239
aVlike
p4240
aVa
aVwoman
p4241
aVstooping
p4242
aVdown
p4243
aVand
p4244
aVcreeping
p4245
aVabout
p4246
aVbehind
p4247
aVthat
p4248
aVpattern
p4249
aV.
aa(lp4250
Vi
aVdo
p4251
aVn't
p4252
aVlike
p4253
aVit
p4254
aVa
aVbit
p4255
aV.
aa(lp4256
Vi
aVwonder
p4257
aV--
p4258
aVi
aVbegin
p4259
aVto
p4260
aVthink
p4261
aV--
p4262
aVi
aVwish
p4263
aVjohn
p4264
aVwould
p4265
aVtake
p4266
aVme
p4267
aVaway
p4268
aVfrom
p4269
aVhere
p4270
aV!
aa(lp4271
Vit
p4272
aVis
p4273
aVso
p4274
aVhard
p4275
aVto
p4276
aVtalk
p4277
aVwith
p4278
aVjohn
p4279
aVabout
p4280
aVmy
p4281
aVcase
p4282
aV,
aVbecause
p4283
aVhe
p4284
aVis
p4285
aVso
p4286
aVwise
p4287
aV,
aVand
p4288
aVbecause
p4289
aVhe
p4290
aVloves
p4291
aVme
p4292
aVso
p4293
aV.
aa(lp4294
Vbut
p4295
aVi
aVtried
p4296
aVit
p4297
aVlast
p4298
aVnight
p4299
aV.
aa(lp4300
Vit
p4301
aVwas
p4302
aVmoonlight
p4303
aV.
aa(lp4304
Vthe
p4305
aVmoon
p4306
aVshines
p4307
aVin
p4308
aVall
p4309
aVaround
p4310
aVjust
p4311
aVas
p4312
aVthe
p4313
aVsun
p4314
aVdoes
p4315
aV.
aa(lp4316
Vi
aVhate
p4317
aVto
p4318
aVsee
p4319
aVit
p4320
aVsometimes
p4321
aV,
aVit
p4322
aVcreeps
p4323
aVso
p4324
aVslowly
p4325
aV,
aVand
p4326
aValways
p4327
aVcomes
p4328
aVin
p4329
aVby
p4330
aVone
p4331
aVwindow
p4332
aVor
p4333
aVanother
p4334
aV.
aa(lp4335
Vjohn
p4336
aVwas
p4337
aVasleep
p4338
aVand
p4339
aVi
aVhated
p4340
aVto
p4341
aVwaken
p4342
aVhim
p4343
aV,
aVso
p4344
aVi
aVkept
p4345
aVstill
p4346
aVand
p4347
aVwatched
p4348
aVthe
p4349
aVmoonlight
p4350
aVon
p4351
aVthat
p4352
aVundulating
p4353
aVwall-paper
p4354
aVtill
p4355
aVi
aVfelt
p4356
aVcreepy
p4357
aV.
aa(lp4358
Vthe
p4359
aVfaint
p4360
aVfigure
p4361
aVbehind
p4362
aVseemed
p4363
aVto
p4364
aVshake
p4365
aVthe
p4366
aVpattern
p4367
aV,
aVjust
p4368
aVas
p4369
aVif
p4370
aVshe
p4371
aVwanted
p4372
aVto
p4373
aVget
p4374
aVout
p4375
aV.
aa(lp4376
Vi
aVgot
p4377
aVup
p4378
aVsoftly
p4379
aVand
p4380
aVwent
p4381
aVto
p4382
aVfeel
p4383
aVand
p4384
aVsee
p4385
aVif
p4386
aVthe
p4387
aVpaper
p4388
aVdid
p4389
aVmove
p4390
aV,
aVand
p4391
aVwhen
p4392
aVi
aVcame
p4393
aVback
p4394
aVjohn
p4395
aVwas
p4396
aVawake
p4397
aV.
aa(lp4398
V``
p4399
aVwhat
p4400
aVis
p4401
aVit
p4402
aV,
aVlittle
p4403
aVgirl
p4404
aV?
aV''
p4405
aa(lp4406
Vhe
p4407
aVsaid
p4408
aV.
aa(lp4409
V``
p4410
aVdo
p4411
aVn't
p4412
aVgo
p4413
aVwalking
p4414
aVabout
p4415
aVlike
p4416
aVthat
p4417
aV--
p4418
aVyou
p4419
aV'll
p4420
aVget
p4421
aVcold
p4422
aV.
aV''
p4423
aa(lp4424
Vi
aVthough
p4425
aVit
p4426
aVwas
p4427
aVa
aVgood
p4428
aVtime
p4429
aVto
p4430
aVtalk
p4431
aV,
aVso
p4432
aVi
aVtold
p4433
aVhim
p4434
aVthat
p4435
aVi
aVreally
p4436
aVwas
p4437
aVnot
p4438
aVgaining
p4439
aVhere
p4440
aV,
aVand
p4441
aVthat
p4442
aVi
aVwished
p4443
aVhe
p4444
aVwould
p4445
aVtake
p4446
aVme
p4447
aVaway
p4448
aV.
aa(lp4449
V``
p4450
aVwhy
p4451
aVdarling
p4452
aV!
aV''
p4453
aa(lp4454
Vsaid
p4455
aVhe
p4456
aV,
aV``
p4457
aVour
p4458
aVlease
p4459
aVwill
p4460
aVbe
p4461
aVup
p4462
aVin
p4463
aVthree
p4464
aVweeks
p4465
aV,
aVand
p4466
aVi
aVca
p4467
aVn't
p4468
aVsee
p4469
aVhow
p4470
aVto
p4471
aVleave
p4472
aVbefore
p4473
aV.
aa(lp4474
V``
p4475
aVthe
p4476
aVrepairs
p4477
aVare
p4478
aVnot
p4479
aVdone
p4480
aVat
p4481
aVhome
p4482
aV,
aVand
p4483
aVi
aVcan
p4484
aVnot
p4485
aVpossibly
p4486
aVleave
p4487
aVtown
p4488
aVjust
p4489
aVnow
p4490
aV.
aa(lp4491
Vof
p4492
aVcourse
p4493
aVif
p4494
aVyou
p4495
aVwere
p4496
aVin
p4497
aVany
p4498
aVdanger
p4499
aV,
aVi
aVcould
p4500
aVand
p4501
aVwould
p4502
aV,
aVbut
p4503
aVyou
p4504
aVreally
p4505
aVare
p4506
aVbetter
p4507
aV,
aVdear
p4508
aV,
aVwhether
p4509
aVyou
p4510
aVcan
p4511
aVsee
p4512
aVit
p4513
aVor
p4514
aVnot
p4515
aV.
aa(lp4516
Vi
aVam
p4517
aVa
aVdoctor
p4518
aV,
aVdear
p4519
aV,
aVand
p4520
aVi
aVknow
p4521
aV.
aa(lp4522
Vyou
p4523
aVare
p4524
aVgaining
p4525
aVflesh
p4526
aVand
p4527
aVcolor
p4528
aV,
aVyour
p4529
aVappetite
p4530
aVis
p4531
aVbetter
p4532
aV,
aVi
aVfeel
p4533
aVreally
p4534
aVmuch
p4535
aVeasier
p4536
aVabout
p4537
aVyou
p4538
aV.
aV''
p4539
aa(lp4540
V``
p4541
aVi
aVdo
p4542
aVn't
p4543
aVweigh
p4544
aVa
aVbit
p4545
aVmore
p4546
aV,
aV''
p4547
aVsaid
p4548
aVi
aV,
aV``
p4549
aVnor
p4550
aVas
p4551
aVmuch
p4552
aV;
aVand
p4553
aVmy
p4554
aVappetite
p4555
aVmay
p4556
aVbe
p4557
aVbetter
p4558
aVin
p4559
aVthe
p4560
aVevening
p4561
aVwhen
p4562
aVyou
p4563
aVare
p4564
aVhere
p4565
aV,
aVbut
p4566
aVit
p4567
aVis
p4568
aVworse
p4569
aVin
p4570
aVthe
p4571
aVmorning
p4572
aVwhen
p4573
aVyou
p4574
aVare
p4575
aVaway
p4576
aV!
aV''
p4577
aa(lp4578
V``
p4579
aVbless
p4580
aVher
p4581
aVlittle
p4582
aVheart
p4583
aV!
aV''
p4584
aa(lp4585
Vsaid
p4586
aVhe
p4587
aVwith
p4588
aVa
aVbig
p4589
aVhug
p4590
aV,
aV``
p4591
aVshe
p4592
aVshall
p4593
aVbe
p4594
aVas
p4595
aVsick
p4596
aVas
p4597
aVshe
p4598
aVpleases
p4599
aV!
aa(lp4600
Vbut
p4601
aVnow
p4602
aVlet
p4603
aV's
p4604
aVimprove
p4605
aVthe
p4606
aVshining
p4607
aVhours
p4608
aVby
p4609
aVgoing
p4610
aVto
p4611
aVsleep
p4612
aV,
aVand
p4613
aVtalk
p4614
aVabout
p4615
aVit
p4616
aVin
p4617
aVthe
p4618
aVmorning
p4619
aV!
aV''
p4620
aa(lp4621
V``
p4622
aVand
p4623
aVyou
p4624
aVwo
p4625
aVn't
p4626
aVgo
p4627
aVaway
p4628
aV?
aV''
p4629
aa(lp4630
Vi
aVasked
p4631
aVgloomily
p4632
aV.
aa(lp4633
V``
p4634
aVwhy
p4635
aV,
aVhow
p4636
aVcan
p4637
aVi
aV,
aVdear
p4638
aV?
aa(lp4639
Vit
p4640
aVis
p4641
aVonly
p4642
aVthree
p4643
aVweeks
p4644
aVmore
p4645
aVand
p4646
aVthen
p4647
aVwe
p4648
aVwill
p4649
aVtake
p4650
aVa
aVnice
p4651
aVlittle
p4652
aVtrip
p4653
aVof
p4654
aVa
aVfew
p4655
aVdays
p4656
aVwhile
p4657
aVjennie
p4658
aVis
p4659
aVgetting
p4660
aVthe
p4661
aVhouse
p4662
aVready
p4663
aV.
aa(lp4664
Vreally
p4665
aVdear
p4666
aVyou
p4667
aVare
p4668
aVbetter
p4669
aV!
aV''
p4670
aa(lp4671
V``
p4672
aVbetter
p4673
aVin
p4674
aVbody
p4675
aVperhaps
p4676
aV--
p4677
aV''
p4678
aVi
aVbegan
p4679
aV,
aVand
p4680
aVstopped
p4681
aVshort
p4682
aV,
aVfor
p4683
aVhe
p4684
aVsat
p4685
aVup
p4686
aVstraight
p4687
aVand
p4688
aVlooked
p4689
aVat
p4690
aVme
p4691
aVwith
p4692
aVsuch
p4693
aVa
aVstern
p4694
aV,
aVreproachful
p4695
aVlook
p4696
aVthat
p4697
aVi
aVcould
p4698
aVnot
p4699
aVsay
p4700
aVanother
p4701
aVword
p4702
aV.
aa(lp4703
V``
p4704
aVmy
p4705
aVdarling
p4706
aV,
aV''
p4707
aVsaid
p4708
aVhe
p4709
aV,
aV``
p4710
aVi
aVbeg
p4711
aVof
p4712
aVyou
p4713
aV,
aVfor
p4714
aVmy
p4715
aVsake
p4716
aVand
p4717
aVfor
p4718
aVour
p4719
aVchild's
p4720
aVsake
p4721
aV,
aVas
p4722
aVwell
p4723
aVas
p4724
aVfor
p4725
aVyour
p4726
aVown
p4727
aV,
aVthat
p4728
aVyou
p4729
aVwill
p4730
aVnever
p4731
aVfor
p4732
aVone
p4733
aVinstant
p4734
aVlet
p4735
aVthat
p4736
aVidea
p4737
aVenter
p4738
aVyour
p4739
aVmind
p4740
aV!
aa(lp4741
Vthere
p4742
aVis
p4743
aVnothing
p4744
aVso
p4745
aVdangerous
p4746
aV,
aVso
p4747
aVfascinating
p4748
aV,
aVto
p4749
aVa
aVtemperament
p4750
aVlike
p4751
aVyours
p4752
aV.
aa(lp4753
Vit
p4754
aVis
p4755
aVa
aVfalse
p4756
aVand
p4757
aVfoolish
p4758
aVfancy
p4759
aV.
aa(lp4760
Vcan
p4761
aVyou
p4762
aVnot
p4763
aVtrust
p4764
aVme
p4765
aVas
p4766
aVa
aVphysician
p4767
aVwhen
p4768
aVi
aVtell
p4769
aVyou
p4770
aVso
p4771
aV?
aV''
p4772
aa(lp4773
Vso
p4774
aVof
p4775
aVcourse
p4776
aVi
aVsaid
p4777
aVno
p4778
aVmore
p4779
aVon
p4780
aVthat
p4781
aVscore
p4782
aV,
aVand
p4783
aVwe
p4784
aVwent
p4785
aVto
p4786
aVsleep
p4787
aVbefore
p4788
aVlong
p4789
aV.
aa(lp4790
Vhe
p4791
aVthought
p4792
aVi
aVwas
p4793
aVasleep
p4794
aVfirst
p4795
aV,
aVbut
p4796
aVi
aVwas
p4797
aVn't
p4798
aV,
aVand
p4799
aVlay
p4800
aVthere
p4801
aVfor
p4802
aVhours
p4803
aVtrying
p4804
aVto
p4805
aVdecide
p4806
aVwhether
p4807
aVthat
p4808
aVfront
p4809
aVpattern
p4810
aVand
p4811
aVthe
p4812
aVback
p4813
aVpattern
p4814
aVreally
p4815
aVdid
p4816
aVmove
p4817
aVtogether
p4818
aVor
p4819
aVseparately
p4820
aV.
aa(lp4821
Von
p4822
aVa
aVpattern
p4823
aVlike
p4824
aVthis
p4825
aV,
aVby
p4826
aVdaylight
p4827
aV,
aVthere
p4828
aVis
p4829
aVa
aVlack
p4830
aVof
p4831
aVsequence
p4832
aV,
aVa
aVdefiance
p4833
aVof
p4834
aVlaw
p4835
aV,
aVthat
p4836
aVis
p4837
aVa
aVconstant
p4838
aVirritant
p4839
aVto
p4840
aVa
aVnormal
p4841
aVmind
p4842
aV.
aa(lp4843
Vthe
p4844
aVcolor
p4845
aVis
p4846
aVhideous
p4847
aVenough
p4848
aV,
aVand
p4849
aVunreliable
p4850
aVenough
p4851
aV,
aVand
p4852
aVinfuriating
p4853
aVenough
p4854
aV,
aVbut
p4855
aVthe
p4856
aVpattern
p4857
aVis
p4858
aVtorturing
p4859
aV.
aa(lp4860
Vyou
p4861
aVthink
p4862
aVyou
p4863
aVhave
p4864
aVmastered
p4865
aVit
p4866
aV,
aVbut
p4867
aVjust
p4868
aVas
p4869
aVyou
p4870
aVget
p4871
aVwell
p4872
aVunderway
p4873
aVin
p4874
aVfollowing
p4875
aV,
aVit
p4876
aVturns
p4877
aVa
aVback-somersault
p4878
aVand
p4879
aVthere
p4880
aVyou
p4881
aVare
p4882
aV.
aa(lp4883
Vit
p4884
aVslaps
p4885
aVyou
p4886
aVin
p4887
aVthe
p4888
aVface
p4889
aV,
aVknocks
p4890
aVyou
p4891
aVdown
p4892
aV,
aVand
p4893
aVtramples
p4894
aVupon
p4895
aVyou
p4896
aV.
aa(lp4897
Vit
p4898
aVis
p4899
aVlike
p4900
aVa
aVbad
p4901
aVdream
p4902
aV.
aa(lp4903
Vthe
p4904
aVoutside
p4905
aVpattern
p4906
aVis
p4907
aVa
aVflorid
p4908
aVarabesque
p4909
aV,
aVreminding
p4910
aVone
p4911
aVof
p4912
aVa
aVfungus
p4913
aV.
aa(lp4914
Vif
p4915
aVyou
p4916
aVcan
p4917
aVimagine
p4918
aVa
aVtoadstool
p4919
aVin
p4920
aVjoints
p4921
aV,
aVan
p4922
aVinterminable
p4923
aVstring
p4924
aVof
p4925
aVtoadstools
p4926
aV,
aVbudding
p4927
aVand
p4928
aVsprouting
p4929
aVin
p4930
aVendless
p4931
aVconvolutions
p4932
aV--
p4933
aVwhy
p4934
aV,
aVthat
p4935
aVis
p4936
aVsomething
p4937
aVlike
p4938
aVit
p4939
aV.
aa(lp4940
Vthat
p4941
aVis
p4942
aV,
aVsometimes
p4943
aV!
aa(lp4944
Vthere
p4945
aVis
p4946
aVone
p4947
aVmarked
p4948
aVpeculiarity
p4949
aVabout
p4950
aVthis
p4951
aVpaper
p4952
aV,
aVa
aVthing
p4953
aVnobody
p4954
aVseems
p4955
aVto
p4956
aVnotice
p4957
aVbut
p4958
aVmyself
p4959
aV,
aVand
p4960
aVthat
p4961
aVis
p4962
aVthat
p4963
aVit
p4964
aVchanges
p4965
aVas
p4966
aVthe
p4967
aVlight
p4968
aVchanges
p4969
aV.
aa(lp4970
Vwhen
p4971
aVthe
p4972
aVsun
p4973
aVshoots
p4974
aVin
p4975
aVthrough
p4976
aVthe
p4977
aVeast
p4978
aVwindow
p4979
aV--
p4980
aVi
aValways
p4981
aVwatch
p4982
aVfor
p4983
aVthat
p4984
aVfirst
p4985
aVlong
p4986
aV,
aVstraight
p4987
aVray
p4988
aV--
p4989
aVit
p4990
aVchanges
p4991
aVso
p4992
aVquickly
p4993
aVthat
p4994
aVi
aVnever
p4995
aVcan
p4996
aVquite
p4997
aVbelieve
p4998
aVit
p4999
aV.
aa(lp5000
Vthat
p5001
aVis
p5002
aVwhy
p5003
aVi
aVwatch
p5004
aVit
p5005
aValways
p5006
aV.
aa(lp5007
Vby
p5008
aVmoonlight
p5009
aV--
p5010
aVthe
p5011
aVmoon
p5012
aVshines
p5013
aVin
p5014
aVall
p5015
aVnight
p5016
aVwhen
p5017
aVthere
p5018
aVis
p5019
aVa
aVmoon
p5020
aV--
p5021
aVi
aVwould
p5022
aVn't
p5023
aVknow
p5024
aVit
p5025
aVwas
p5026
aVthe
p5027
aVsame
p5028
aVpaper
p5029
aV.
aa(lp5030
Vat
p5031
aVnight
p5032
aVin
p5033
aVany
p5034
aVkind
p5035
aVof
p5036
aVlight
p5037
aV,
aVin
p5038
aVtwilight
p5039
aV,
aVcandle
p5040
aVlight
p5041
aV,
aVlamplight
p5042
aV,
aVand
p5043
aVworst
p5044
aVof
p5045
aVall
p5046
aVby
p5047
aVmoonlight
p5048
aV,
aVit
p5049
aVbecomes
p5050
aVbars
p5051
aV!
aa(lp5052
Vthe
p5053
aVoutside
p5054
aVpattern
p5055
aVi
aVmean
p5056
aV,
aVand
p5057
aVthe
p5058
aVwoman
p5059
aVbehind
p5060
aVit
p5061
aVis
p5062
aVas
p5063
aVplain
p5064
aVas
p5065
aVcan
p5066
aVbe
p5067
aV.
aa(lp5068
Vi
aVdid
p5069
aVn't
p5070
aVrealize
p5071
aVfor
p5072
aVa
aVlong
p5073
aVtime
p5074
aVwhat
p5075
aVthe
p5076
aVthing
p5077
aVwas
p5078
aVthat
p5079
aVshowed
p5080
aVbehind
p5081
aV,
aVthat
p5082
aVdim
p5083
aVsub-pattern
p5084
aV,
aVbut
p5085
aVnow
p5086
aVi
aVam
p5087
aVquite
p5088
aVsure
p5089
aVit
p5090
aVis
p5091
aVa
aVwoman
p5092
aV.
aa(lp5093
Vby
p5094
aVdaylight
p5095
aVshe
p5096
aVis
p5097
aVsubdued
p5098
aV,
aVquiet
p5099
aV.
aa(lp5100
Vi
aVfancy
p5101
aVit
p5102
aVis
p5103
aVthe
p5104
aVpattern
p5105
aVthat
p5106
aVkeeps
p5107
aVher
p5108
aVso
p5109
aVstill
p5110
aV.
aa(lp5111
Vit
p5112
aVis
p5113
aVso
p5114
aVpuzzling
p5115
aV.
aa(lp5116
Vit
p5117
aVkeeps
p5118
aVme
p5119
aVquiet
p5120
aVby
p5121
aVthe
p5122
aVhour
p5123
aV.
aa(lp5124
Vi
aVlie
p5125
aVdown
p5126
aVever
p5127
aVso
p5128
aVmuch
p5129
aVnow
p5130
aV.
aa(lp5131
Vjohn
p5132
aVsays
p5133
aVit
p5134
aVis
p5135
aVgood
p5136
aVfor
p5137
aVme
p5138
aV,
aVand
p5139
aVto
p5140
aVsleep
p5141
aVall
p5142
aVi
aVcan
p5143
aV.
aa(lp5144
Vindeed
p5145
aVhe
p5146
aVstarted
p5147
aVthe
p5148
aVhabit
p5149
aVby
p5150
aVmaking
p5151
aVme
p5152
aVlie
p5153
aVdown
p5154
aVfor
p5155
aVan
p5156
aVhour
p5157
aVafter
p5158
aVeach
p5159
aVmeal
p5160
aV.
aa(lp5161
Vit
p5162
aVis
p5163
aVa
aVvery
p5164
aVbad
p5165
aVhabit
p5166
aVi
aVam
p5167
aVconvinced
p5168
aV,
aVfor
p5169
aVyou
p5170
aVsee
p5171
aVi
aVdo
p5172
aVn't
p5173
aVsleep
p5174
aV.
aa(lp5175
Vand
p5176
aVthat
p5177
aVcultivates
p5178
aVdeceit
p5179
aV,
aVfor
p5180
aVi
aVdo
p5181
aVn't
p5182
aVtell
p5183
aVthem
p5184
aVi
aV'm
p5185
aVawake
p5186
aV--
p5187
aVo
aVno
p5188
aV!
aa(lp5189
Vthe
p5190
aVfact
p5191
aVis
p5192
aVi
aVam
p5193
aVgetting
p5194
aVa
aVlittle
p5195
aVafraid
p5196
aVof
p5197
aVjohn
p5198
aV.
aa(lp5199
Vhe
p5200
aVseems
p5201
aVvery
p5202
aVqueer
p5203
aVsometimes
p5204
aV,
aVand
p5205
aVeven
p5206
aVjennie
p5207
aVhas
p5208
aVan
p5209
aVinexplicable
p5210
aVlook
p5211
aV.
aa(lp5212
Vit
p5213
aVstrikes
p5214
aVme
p5215
aVoccasionally
p5216
aV,
aVjust
p5217
aVas
p5218
aVa
aVscientific
p5219
aVhypothesis
p5220
aV,
aV--
p5221
aVthat
p5222
aVperhaps
p5223
aVit
p5224
aVis
p5225
aVthe
p5226
aVpaper
p5227
aV!
aa(lp5228
Vi
aVhave
p5229
aVwatched
p5230
aVjohn
p5231
aVwhen
p5232
aVhe
p5233
aVdid
p5234
aVnot
p5235
aVknow
p5236
aVi
aVwas
p5237
aVlooking
p5238
aV,
aVand
p5239
aVcome
p5240
aVinto
p5241
aVthe
p5242
aVroom
p5243
aVsuddenly
p5244
aVon
p5245
aVthe
p5246
aVmost
p5247
aVinnocent
p5248
aVexcuses
p5249
aV,
aVand
p5250
aVi
aV've
p5251
aVcaught
p5252
aVhim
p5253
aVseveral
p5254
aVtimes
p5255
aVlooking
p5256
aVat
p5257
aVthe
p5258
aVpaper
p5259
aV!
aa(lp5260
Vand
p5261
aVjennie
p5262
aVtoo
p5263
aV.
aa(lp5264
Vi
aVcaught
p5265
aVjennie
p5266
aVwith
p5267
aVher
p5268
aVhand
p5269
aVon
p5270
aVit
p5271
aVonce
p5272
aV.
aa(lp5273
Vshe
p5274
aVdid
p5275
aVn't
p5276
aVknow
p5277
aVi
aVwas
p5278
aVin
p5279
aVthe
p5280
aVroom
p5281
aV,
aVand
p5282
aVwhen
p5283
aVi
aVasked
p5284
aVher
p5285
aVin
p5286
aVa
aVquiet
p5287
aV,
aVa
aVvery
p5288
aVquiet
p5289
aVvoice
p5290
aV,
aVwith
p5291
aVthe
p5292
aVmost
p5293
aVrestrained
p5294
aVmanner
p5295
aVpossible
p5296
aV,
aVwhat
p5297
aVshe
p5298
aVwas
p5299
aVdoing
p5300
aVwith
p5301
aVthe
p5302
aVpaper
p5303
aV--
p5304
aVshe
p5305
aVturned
p5306
aVaround
p5307
aVas
p5308
aVif
p5309
aVshe
p5310
aVhad
p5311
aVbeen
p5312
aVcaught
p5313
aVstealing
p5314
aV,
aVand
p5315
aVlooked
p5316
aVquite
p5317
aVangry
p5318
aV--
p5319
aVasked
p5320
aVme
p5321
aVwhy
p5322
aVi
aVshould
p5323
aVfrighten
p5324
aVher
p5325
aVso
p5326
aV!
aa(lp5327
Vthen
p5328
aVshe
p5329
aVsaid
p5330
aVthat
p5331
aVthe
p5332
aVpaper
p5333
aVstained
p5334
aVeverything
p5335
aVit
p5336
aVtouched
p5337
aV,
aVthat
p5338
aVshe
p5339
aVhad
p5340
aVfound
p5341
aVyellow
p5342
aVsmooches
p5343
aVon
p5344
aVall
p5345
aVmy
p5346
aVclothes
p5347
aVand
p5348
aVjohn
p5349
aV's
p5350
aV,
aVand
p5351
aVshe
p5352
aVwished
p5353
aVwe
p5354
aVwould
p5355
aVbe
p5356
aVmore
p5357
aVcareful
p5358
aV!
aa(lp5359
Vdid
p5360
aVnot
p5361
aVthat
p5362
aVsound
p5363
aVinnocent
p5364
aV?
aa(lp5365
Vbut
p5366
aVi
aVknow
p5367
aVshe
p5368
aVwas
p5369
aVstudying
p5370
aVthat
p5371
aVpattern
p5372
aV,
aVand
p5373
aVi
aVam
p5374
aVdetermined
p5375
aVthat
p5376
aVnobody
p5377
aVshall
p5378
aVfind
p5379
aVit
p5380
aVout
p5381
aVbut
p5382
aVmyself
p5383
aV!
aa(lp5384
Vlife
p5385
aVis
p5386
aVvery
p5387
aVmuch
p5388
aVmore
p5389
aVexciting
p5390
aVnow
p5391
aVthan
p5392
aVit
p5393
aVused
p5394
aVto
p5395
aVbe
p5396
aV.
aa(lp5397
Vyou
p5398
aVsee
p5399
aVi
aVhave
p5400
aVsomething
p5401
aVmore
p5402
aVto
p5403
aVexpect
p5404
aV,
aVto
p5405
aVlook
p5406
aVforward
p5407
aVto
p5408
aV,
aVto
p5409
aVwatch
p5410
aV.
aa(lp5411
Vi
aVreally
p5412
aVdo
p5413
aVeat
p5414
aVbetter
p5415
aV,
aVand
p5416
aVam
p5417
aVmore
p5418
aVquiet
p5419
aVthan
p5420
aVi
aVwas
p5421
aV.
aa(lp5422
Vjohn
p5423
aVis
p5424
aVso
p5425
aVpleased
p5426
aVto
p5427
aVsee
p5428
aVme
p5429
aVimprove
p5430
aV!
aa(lp5431
Vhe
p5432
aVlaughed
p5433
aVa
aVlittle
p5434
aVthe
p5435
aVother
p5436
aVday
p5437
aV,
aVand
p5438
aVsaid
p5439
aVi
aVseemed
p5440
aVto
p5441
aVbe
p5442
aVflourishing
p5443
aVin
p5444
aVspite
p5445
aVof
p5446
aVmy
p5447
aVwall-paper
p5448
aV.
aa(lp5449
Vi
aVturned
p5450
aVit
p5451
aVoff
p5452
aVwith
p5453
aVa
aVlaugh
p5454
aV.
aa(lp5455
Vi
aVhad
p5456
aVno
p5457
aVintention
p5458
aVof
p5459
aVtelling
p5460
aVhim
p5461
aVit
p5462
aVwas
p5463
aVbecause
p5464
aVof
p5465
aVthe
p5466
aVwall-paper
p5467
aV--
p5468
aVhe
p5469
aVwould
p5470
aVmake
p5471
aVfun
p5472
aVof
p5473
aVme
p5474
aV.
aa(lp5475
Vhe
p5476
aVmight
p5477
aVeven
p5478
aVwant
p5479
aVto
p5480
aVtake
p5481
aVme
p5482
aVaway
p5483
aV.
aa(lp5484
Vi
aVdo
p5485
aVn't
p5486
aVwant
p5487
aVto
p5488
aVleave
p5489
aVnow
p5490
aVuntil
p5491
aVi
aVhave
p5492
aVfound
p5493
aVit
p5494
aVout
p5495
aV.
aa(lp5496
Vthere
p5497
aVis
p5498
aVa
aVweek
p5499
aVmore
p5500
aV,
aVand
p5501
aVi
aVthink
p5502
aVthat
p5503
aVwill
p5504
aVbe
p5505
aVenough
p5506
aV.
aa(lp5507
Vi
aV'm
p5508
aVfeeling
p5509
aVever
p5510
aVso
p5511
aVmuch
p5512
aVbetter
p5513
aV!
aa(lp5514
Vi
aVdo
p5515
aVn't
p5516
aVsleep
p5517
aVmuch
p5518
aVat
p5519
aVnight
p5520
aV,
aVfor
p5521
aVit
p5522
aVis
p5523
aVso
p5524
aVinteresting
p5525
aVto
p5526
aVwatch
p5527
aVdevelopments
p5528
aV;
aVbut
p5529
aVi
aVsleep
p5530
aVa
aVgood
p5531
aVdeal
p5532
aVin
p5533
aVthe
p5534
aVdaytime
p5535
aV.
aa(lp5536
Vin
p5537
aVthe
p5538
aVdaytime
p5539
aVit
p5540
aVis
p5541
aVtiresome
p5542
aVand
p5543
aVperplexing
p5544
aV.
aa(lp5545
Vthere
p5546
aVare
p5547
aValways
p5548
aVnew
p5549
aVshoots
p5550
aVon
p5551
aVthe
p5552
aVfungus
p5553
aV,
aVand
p5554
aVnew
p5555
aVshades
p5556
aVof
p5557
aVyellow
p5558
aVall
p5559
aVover
p5560
aVit
p5561
aV.
aa(lp5562
Vi
aVcan
p5563
aVnot
p5564
aVkeep
p5565
aVcount
p5566
aVof
p5567
aVthem
p5568
aV,
aVthough
p5569
aVi
aVhave
p5570
aVtried
p5571
aVconscientiously
p5572
aV.
aa(lp5573
Vit
p5574
aVis
p5575
aVthe
p5576
aVstrangest
p5577
aVyellow
p5578
aV,
aVthat
p5579
aVwall-paper
p5580
aV!
aa(lp5581
Vit
p5582
aVmakes
p5583
aVme
p5584
aVthink
p5585
aVof
p5586
aVall
p5587
aVthe
p5588
aVyellow
p5589
aVthings
p5590
aVi
aVever
p5591
aVsaw
p5592
aV--
p5593
aVnot
p5594
aVbeautiful
p5595
aVones
p5596
aVlike
p5597
aVbuttercups
p5598
aV,
aVbut
p5599
aVold
p5600
aVfoul
p5601
aV,
aVbad
p5602
aVyellow
p5603
aVthings
p5604
aV.
aa(lp5605
Vbut
p5606
aVthere
p5607
aVis
p5608
aVsomething
p5609
aVelse
p5610
aVabout
p5611
aVthat
p5612
aVpaper
p5613
aV--
p5614
aVthe
p5615
aVsmell
p5616
aV!
aa(lp5617
Vi
aVnoticed
p5618
aVit
p5619
aVthe
p5620
aVmoment
p5621
aVwe
p5622
aVcame
p5623
aVinto
p5624
aVthe
p5625
aVroom
p5626
aV,
aVbut
p5627
aVwith
p5628
aVso
p5629
aVmuch
p5630
aVair
p5631
aVand
p5632
aVsun
p5633
aVit
p5634
aVwas
p5635
aVnot
p5636
aVbad
p5637
aV.
aa(lp5638
Vnow
p5639
aVwe
p5640
aVhave
p5641
aVhad
p5642
aVa
aVweek
p5643
aVof
p5644
aVfog
p5645
aVand
p5646
aVrain
p5647
aV,
aVand
p5648
aVwhether
p5649
aVthe
p5650
aVwindows
p5651
aVare
p5652
aVopen
p5653
aVor
p5654
aVnot
p5655
aV,
aVthe
p5656
aVsmell
p5657
aVis
p5658
aVhere
p5659
aV.
aa(lp5660
Vit
p5661
aVcreeps
p5662
aVall
p5663
aVover
p5664
aVthe
p5665
aVhouse
p5666
aV.
aa(lp5667
Vi
aVfind
p5668
aVit
p5669
aVhovering
p5670
aVin
p5671
aVthe
p5672
aVdining-room
p5673
aV,
aVskulking
p5674
aVin
p5675
aVthe
p5676
aVparlor
p5677
aV,
aVhiding
p5678
aVin
p5679
aVthe
p5680
aVhall
p5681
aV,
aVlying
p5682
aVin
p5683
aVwait
p5684
aVfor
p5685
aVme
p5686
aVon
p5687
aVthe
p5688
aVstairs
p5689
aV.
aa(lp5690
Vit
p5691
aVgets
p5692
aVinto
p5693
aVmy
p5694
aVhair
p5695
aV.
aa(lp5696
Veven
p5697
aVwhen
p5698
aVi
aVgo
p5699
aVto
p5700
aVride
p5701
aV,
aVif
p5702
aVi
aVturn
p5703
aVmy
p5704
aVhead
p5705
aVsuddenly
p5706
aVand
p5707
aVsurprise
p5708
aVit
p5709
aV--
p5710
aVthere
p5711
aVis
p5712
aVthat
p5713
aVsmell
p5714
aV!
aa(lp5715
Vsuch
p5716
aVa
aVpeculiar
p5717
aVodor
p5718
aV,
aVtoo
p5719
aV!
aa(lp5720
Vi
aVhave
p5721
aVspent
p5722
aVhours
p5723
aVin
p5724
aVtrying
p5725
aVto
p5726
aVanalyze
p5727
aVit
p5728
aV,
aVto
p5729
aVfind
p5730
aVwhat
p5731
aVit
p5732
aVsmelled
p5733
aVlike
p5734
aV.
aa(lp5735
Vit
p5736
aVis
p5737
aVnot
p5738
aVbad
p5739
aV--
p5740
aVat
p5741
aVfirst
p5742
aV,
aVand
p5743
aVvery
p5744
aVgentle
p5745
aV,
aVbut
p5746
aVquite
p5747
aVthe
p5748
aVsubtlest
p5749
aV,
aVmost
p5750
aVenduring
p5751
aVodor
p5752
aVi
aVever
p5753
aVmet
p5754
aV.
aa(lp5755
Vin
p5756
aVthis
p5757
aVdamp
p5758
aVweather
p5759
aVit
p5760
aVis
p5761
aVawful
p5762
aV,
aVi
aVwake
p5763
aVup
p5764
aVin
p5765
aVthe
p5766
aVnight
p5767
aVand
p5768
aVfind
p5769
aVit
p5770
aVhanging
p5771
aVover
p5772
aVme
p5773
aV.
aa(lp5774
Vit
p5775
aVused
p5776
aVto
p5777
aVdisturb
p5778
aVme
p5779
aVat
p5780
aVfirst
p5781
aV.
aa(lp5782
Vi
aVthought
p5783
aVseriously
p5784
aVof
p5785
aVburning
p5786
aVthe
p5787
aVhouse
p5788
aV--
p5789
aVto
p5790
aVreach
p5791
aVthe
p5792
aVsmell
p5793
aV.
aa(lp5794
Vbut
p5795
aVnow
p5796
aVi
aVam
p5797
aVused
p5798
aVto
p5799
aVit
p5800
aV.
aa(lp5801
Vthe
p5802
aVonly
p5803
aVthing
p5804
aVi
aVcan
p5805
aVthink
p5806
aVof
p5807
aVthat
p5808
aVit
p5809
aVis
p5810
aVlike
p5811
aVis
p5812
aVthe
p5813
aVcolor
p5814
aVof
p5815
aVthe
p5816
aVpaper
p5817
aV!
aa(lp5818
Va
aVyellow
p5819
aVsmell
p5820
aV.
aa(lp5821
Vthere
p5822
aVis
p5823
aVa
aVvery
p5824
aVfunny
p5825
aVmark
p5826
aVon
p5827
aVthis
p5828
aVwall
p5829
aV,
aVlow
p5830
aVdown
p5831
aV,
aVnear
p5832
aVthe
p5833
aVmopboard
p5834
aV.
aa(lp5835
Va
aVstreak
p5836
aVthat
p5837
aVruns
p5838
aVround
p5839
aVthe
p5840
aVroom
p5841
aV.
aa(lp5842
Vit
p5843
aVgoes
p5844
aVbehind
p5845
aVevery
p5846
aVpiece
p5847
aVof
p5848
aVfurniture
p5849
aV,
aVexcept
p5850
aVthe
p5851
aVbed
p5852
aV,
aVa
aVlong
p5853
aV,
aVstraight
p5854
aV,
aVeven
p5855
aVsmooch
p5856
aV,
aVas
p5857
aVif
p5858
aVit
p5859
aVhad
p5860
aVbeen
p5861
aVrubbed
p5862
aVover
p5863
aVand
p5864
aVover
p5865
aV.
aa(lp5866
Vi
aVwonder
p5867
aVhow
p5868
aVit
p5869
aVwas
p5870
aVdone
p5871
aVand
p5872
aVwho
p5873
aVdid
p5874
aVit
p5875
aV,
aVand
p5876
aVwhat
p5877
aVthey
p5878
aVdid
p5879
aVit
p5880
aVfor
p5881
aV.
aa(lp5882
Vround
p5883
aVand
p5884
aVround
p5885
aVand
p5886
aVround
p5887
aV--
p5888
aVround
p5889
aVand
p5890
aVround
p5891
aVand
p5892
aVround
p5893
aV--
p5894
aVit
p5895
aVmakes
p5896
aVme
p5897
aVdizzy
p5898
aV!
aa(lp5899
Vi
aVreally
p5900
aVhave
p5901
aVdiscovered
p5902
aVsomething
p5903
aVat
p5904
aVlast
p5905
aV.
aa(lp5906
Vthrough
p5907
aVwatching
p5908
aVso
p5909
aVmuch
p5910
aVat
p5911
aVnight
p5912
aV,
aVwhen
p5913
aVit
p5914
aVchanges
p5915
aVso
p5916
aV,
aVi
aVhave
p5917
aVfinally
p5918
aVfound
p5919
aVout
p5920
aV.
aa(lp5921
Vthe
p5922
aVfront
p5923
aVpattern
p5924
aVdoes
p5925
aVmove
p5926
aV--
p5927
aVand
p5928
aVno
p5929
aVwonder
p5930
aV!
aa(lp5931
Vthe
p5932
aVwoman
p5933
aVbehind
p5934
aVshakes
p5935
aVit
p5936
aV!
aa(lp5937
Vsometimes
p5938
aVi
aVthink
p5939
aVthere
p5940
aVare
p5941
aVa
aVgreat
p5942
aVmany
p5943
aVwomen
p5944
aVbehind
p5945
aV,
aVand
p5946
aVsometimes
p5947
aVonly
p5948
aVone
p5949
aV,
aVand
p5950
aVshe
p5951
aVcrawls
p5952
aVaround
p5953
aVfast
p5954
aV,
aVand
p5955
aVher
p5956
aVcrawling
p5957
aVshakes
p5958
aVit
p5959
aVall
p5960
aVover
p5961
aV.
aa(lp5962
Vthen
p5963
aVin
p5964
aVthe
p5965
aVvery
p5966
aVbright
p5967
aVspots
p5968
aVshe
p5969
aVkeeps
p5970
aVstill
p5971
aV,
aVand
p5972
aVin
p5973
aVthe
p5974
aVvery
p5975
aVshady
p5976
aVspots
p5977
aVshe
p5978
aVjust
p5979
aVtakes
p5980
aVhold
p5981
aVof
p5982
aVthe
p5983
aVbars
p5984
aVand
p5985
aVshakes
p5986
aVthem
p5987
aVhard
p5988
aV.
aa(lp5989
Vand
p5990
aVshe
p5991
aVis
p5992
aVall
p5993
aVthe
p5994
aVtime
p5995
aVtrying
p5996
aVto
p5997
aVclimb
p5998
aVthrough
p5999
aV.
aa(lp6000
Vbut
p6001
aVnobody
p6002
aVcould
p6003
aVclimb
p6004
aVthrough
p6005
aVthat
p6006
aVpattern
p6007
aV--
p6008
aVit
p6009
aVstrangles
p6010
aVso
p6011
aV;
aVi
aVthink
p6012
aVthat
p6013
aVis
p6014
aVwhy
p6015
aVit
p6016
aVhas
p6017
aVso
p6018
aVmany
p6019
aVheads
p6020
aV.
aa(lp6021
Vthey
p6022
aVget
p6023
aVthrough
p6024
aV,
aVand
p6025
aVthen
p6026
aVthe
p6027
aVpattern
p6028
aVstrangles
p6029
aVthem
p6030
aVoff
p6031
aVand
p6032
aVturns
p6033
aVthem
p6034
aVupside
p6035
aVdown
p6036
aV,
aVand
p6037
aVmakes
p6038
aVtheir
p6039
aVeyes
p6040
aVwhite
p6041
aV!
aa(lp6042
Vif
p6043
aVthose
p6044
aVheads
p6045
aVwere
p6046
aVcovered
p6047
aVor
p6048
aVtaken
p6049
aVoff
p6050
aVit
p6051
aVwould
p6052
aVnot
p6053
aVbe
p6054
aVhalf
p6055
aVso
p6056
aVbad
p6057
aV.
aa(lp6058
Vi
aVthink
p6059
aVthat
p6060
aVwoman
p6061
aVgets
p6062
aVout
p6063
aVin
p6064
aVthe
p6065
aVdaytime
p6066
aV!
aa(lp6067
Vand
p6068
aVi
aV'll
p6069
aVtell
p6070
aVyou
p6071
aVwhy
p6072
aV--
p6073
aVprivately
p6074
aV--
p6075
aVi
aV've
p6076
aVseen
p6077
aVher
p6078
aV!
aa(lp6079
Vi
aVcan
p6080
aVsee
p6081
aVher
p6082
aVout
p6083
aVof
p6084
aVevery
p6085
aVone
p6086
aVof
p6087
aVmy
p6088
aVwindows
p6089
aV!
aa(lp6090
Vit
p6091
aVis
p6092
aVthe
p6093
aVsame
p6094
aVwoman
p6095
aV,
aVi
aVknow
p6096
aV,
aVfor
p6097
aVshe
p6098
aVis
p6099
aValways
p6100
aVcreeping
p6101
aV,
aVand
p6102
aVmost
p6103
aVwomen
p6104
aVdo
p6105
aVnot
p6106
aVcreep
p6107
aVby
p6108
aVdaylight
p6109
aV.
aa(lp6110
Vi
aVsee
p6111
aVher
p6112
aVon
p6113
aVthat
p6114
aVlong
p6115
aVroad
p6116
aVunder
p6117
aVthe
p6118
aVtrees
p6119
aV,
aVcreeping
p6120
aValong
p6121
aV,
aVand
p6122
aVwhen
p6123
aVa
aVcarriage
p6124
aVcomes
p6125
aVshe
p6126
aVhides
p6127
aVunder
p6128
aVthe
p6129
aVblackberry
p6130
aVvines
p6131
aV.
aa(lp6132
Vi
aVdo
p6133
aVn't
p6134
aVblame
p6135
aVher
p6136
aVa
aVbit
p6137
aV.
aa(lp6138
Vit
p6139
aVmust
p6140
aVbe
p6141
aVvery
p6142
aVhumiliating
p6143
aVto
p6144
aVbe
p6145
aVcaught
p6146
aVcreeping
p6147
aVby
p6148
aVdaylight
p6149
aV!
aa(lp6150
Vi
aValways
p6151
aVlock
p6152
aVthe
p6153
aVdoor
p6154
aVwhen
p6155
aVi
aVcreep
p6156
aVby
p6157
aVdaylight
p6158
aV.
aa(lp6159
Vi
aVca
p6160
aVn't
p6161
aVdo
p6162
aVit
p6163
aVat
p6164
aVnight
p6165
aV,
aVfor
p6166
aVi
aVknow
p6167
aVjohn
p6168
aVwould
p6169
aVsuspect
p6170
aVsomething
p6171
aVat
p6172
aVonce
p6173
aV.
aa(lp6174
Vand
p6175
aVjohn
p6176
aVis
p6177
aVso
p6178
aVqueer
p6179
aVnow
p6180
aV,
aVthat
p6181
aVi
aVdo
p6182
aVn't
p6183
aVwant
p6184
aVto
p6185
aVirritate
p6186
aVhim
p6187
aV.
aa(lp6188
Vi
aVwish
p6189
aVhe
p6190
aVwould
p6191
aVtake
p6192
aVanother
p6193
aVroom
p6194
aV!
aa(lp6195
Vbesides
p6196
aV,
aVi
aVdo
p6197
aVn't
p6198
aVwant
p6199
aVanybody
p6200
aVto
p6201
aVget
p6202
aVthat
p6203
aVwoman
p6204
aVout
p6205
aVat
p6206
aVnight
p6207
aVbut
p6208
aVmyself
p6209
aV.
aa(lp6210
Vi
aVoften
p6211
aVwonder
p6212
aVif
p6213
aVi
aVcould
p6214
aVsee
p6215
aVher
p6216
aVout
p6217
aVof
p6218
aVall
p6219
aVthe
p6220
aVwindows
p6221
aVat
p6222
aVonce
p6223
aV.
aa(lp6224
Vbut
p6225
aV,
aVturn
p6226
aVas
p6227
aVfast
p6228
aVas
p6229
aVi
aVcan
p6230
aV,
aVi
aVcan
p6231
aVonly
p6232
aVsee
p6233
aVout
p6234
aVof
p6235
aVone
p6236
aVat
p6237
aVone
p6238
aVtime
p6239
aV.
aa(lp6240
Vand
p6241
aVthough
p6242
aVi
aValways
p6243
aVsee
p6244
aVher
p6245
aV,
aVshe
p6246
aVmay
p6247
aVbe
p6248
aVable
p6249
aVto
p6250
aVcreep
p6251
aVfaster
p6252
aVthan
p6253
aVi
aVcan
p6254
aVturn
p6255
aV!
aa(lp6256
Vi
aVhave
p6257
aVwatched
p6258
aVher
p6259
aVsometimes
p6260
aVaway
p6261
aVoff
p6262
aVin
p6263
aVthe
p6264
aVopen
p6265
aVcountry
p6266
aV,
aVcreeping
p6267
aVas
p6268
aVfast
p6269
aVas
p6270
aVa
aVcloud
p6271
aVshadow
p6272
aVin
p6273
aVa
aVhigh
p6274
aVwind
p6275
aV.
aa(lp6276
Vif
p6277
aVonly
p6278
aVthat
p6279
aVtop
p6280
aVpattern
p6281
aVcould
p6282
aVbe
p6283
aVgotten
p6284
aVoff
p6285
aVfrom
p6286
aVthe
p6287
aVunder
p6288
aVone
p6289
aV!
aa(lp6290
Vi
aVmean
p6291
aVto
p6292
aVtry
p6293
aVit
p6294
aV,
aVlittle
p6295
aVby
p6296
aVlittle
p6297
aV.
aa(lp6298
Vi
aVhave
p6299
aVfound
p6300
aVout
p6301
aVanother
p6302
aVfunny
p6303
aVthing
p6304
aV,
aVbut
p6305
aVi
aVsha
p6306
aVn't
p6307
aVtell
p6308
aVit
p6309
aVthis
p6310
aVtime
p6311
aV!
aa(lp6312
Vit
p6313
aVdoes
p6314
aVnot
p6315
aVdo
p6316
aVto
p6317
aVtrust
p6318
aVpeople
p6319
aVtoo
p6320
aVmuch
p6321
aV.
aa(lp6322
Vthere
p6323
aVare
p6324
aVonly
p6325
aVtwo
p6326
aVmore
p6327
aVdays
p6328
aVto
p6329
aVget
p6330
aVthis
p6331
aVpaper
p6332
aVoff
p6333
aV,
aVand
p6334
aVi
aVbelieve
p6335
aVjohn
p6336
aVis
p6337
aVbeginning
p6338
aVto
p6339
aVnotice
p6340
aV.
aa(lp6341
Vi
aVdo
p6342
aVn't
p6343
aVlike
p6344
aVthe
p6345
aVlook
p6346
aVin
p6347
aVhis
p6348
aVeyes
p6349
aV.
aa(lp6350
Vand
p6351
aVi
aVheard
p6352
aVhim
p6353
aVask
p6354
aVjennie
p6355
aVa
aVlot
p6356
aVof
p6357
aVprofessional
p6358
aVquestions
p6359
aVabout
p6360
aVme
p6361
aV.
aa(lp6362
Vshe
p6363
aVhad
p6364
aVa
aVvery
p6365
aVgood
p6366
aVreport
p6367
aVto
p6368
aVgive
p6369
aV.
aa(lp6370
Vshe
p6371
aVsaid
p6372
aVi
aVslept
p6373
aVa
aVgood
p6374
aVdeal
p6375
aVin
p6376
aVthe
p6377
aVdaytime
p6378
aV.
aa(lp6379
Vjohn
p6380
aVknows
p6381
aVi
aVdo
p6382
aVn't
p6383
aVsleep
p6384
aVvery
p6385
aVwell
p6386
aVat
p6387
aVnight
p6388
aV,
aVfor
p6389
aVall
p6390
aVi
aV'm
p6391
aVso
p6392
aVquiet
p6393
aV!
aa(lp6394
Vhe
p6395
aVasked
p6396
aVme
p6397
aVall
p6398
aVsorts
p6399
aVof
p6400
aVquestions
p6401
aV,
aVtoo
p6402
aV,
aVand
p6403
aVpretended
p6404
aVto
p6405
aVbe
p6406
aVvery
p6407
aVloving
p6408
aVand
p6409
aVkind
p6410
aV.
aa(lp6411
Vas
p6412
aVif
p6413
aVi
aVcould
p6414
aVn't
p6415
aVsee
p6416
aVthrough
p6417
aVhim
p6418
aV!
aa(lp6419
Vstill
p6420
aV,
aVi
aVdo
p6421
aVn't
p6422
aVwonder
p6423
aVhe
p6424
aVacts
p6425
aVso
p6426
aV,
aVsleeping
p6427
aVunder
p6428
aVthis
p6429
aVpaper
p6430
aVfor
p6431
aVthree
p6432
aVmonths
p6433
aV.
aa(lp6434
Vit
p6435
aVonly
p6436
aVinterests
p6437
aVme
p6438
aV,
aVbut
p6439
aVi
aVfeel
p6440
aVsure
p6441
aVjohn
p6442
aVand
p6443
aVjennie
p6444
aVare
p6445
aVsecretly
p6446
aVaffected
p6447
aVby
p6448
aVit
p6449
aV.
aa(lp6450
Vhurrah
p6451
aV!
aa(lp6452
Vthis
p6453
aVis
p6454
aVthe
p6455
aVlast
p6456
aVday
p6457
aV,
aVbut
p6458
aVit
p6459
aVis
p6460
aVenough
p6461
aV.
aa(lp6462
Vjohn
p6463
aVis
p6464
aVto
p6465
aVstay
p6466
aVin
p6467
aVtown
p6468
aVover
p6469
aVnight
p6470
aV,
aVand
p6471
aVwo
p6472
aVn't
p6473
aVbe
p6474
aVout
p6475
aVuntil
p6476
aVthis
p6477
aVevening
p6478
aV.
aa(lp6479
Vjennie
p6480
aVwanted
p6481
aVto
p6482
aVsleep
p6483
aVwith
p6484
aVme
p6485
aV--
p6486
aVthe
p6487
aVsly
p6488
aVthing
p6489
aV!
aa(lp6490
Vbut
p6491
aVi
aVtold
p6492
aVher
p6493
aVi
aVshould
p6494
aVundoubtedly
p6495
aVrest
p6496
aVbetter
p6497
aVfor
p6498
aVa
aVnight
p6499
aVall
p6500
aValone
p6501
aV.
aa(lp6502
Vthat
p6503
aVwas
p6504
aVclever
p6505
aV,
aVfor
p6506
aVreally
p6507
aVi
aVwas
p6508
aVn't
p6509
aValone
p6510
aVa
aVbit
p6511
aV!
aa(lp6512
Vas
p6513
aVsoon
p6514
aVas
p6515
aVit
p6516
aVwas
p6517
aVmoonlight
p6518
aVand
p6519
aVthat
p6520
aVpoor
p6521
aVthing
p6522
aVbegan
p6523
aVto
p6524
aVcrawl
p6525
aVand
p6526
aVshake
p6527
aVthe
p6528
aVpattern
p6529
aV,
aVi
aVgot
p6530
aVup
p6531
aVand
p6532
aVran
p6533
aVto
p6534
aVhelp
p6535
aVher
p6536
aV.
aa(lp6537
Vi
aVpulled
p6538
aVand
p6539
aVshe
p6540
aVshook
p6541
aV,
aVi
aVshook
p6542
aVand
p6543
aVshe
p6544
aVpulled
p6545
aV,
aVand
p6546
aVbefore
p6547
aVmorning
p6548
aVwe
p6549
aVhad
p6550
aVpeeled
p6551
aVoff
p6552
aVyards
p6553
aVof
p6554
aVthat
p6555
aVpaper
p6556
aV.
aa(lp6557
Va
aVstrip
p6558
aVabout
p6559
aVas
p6560
aVhigh
p6561
aVas
p6562
aVmy
p6563
aVhead
p6564
aVand
p6565
aVhalf
p6566
aVaround
p6567
aVthe
p6568
aVroom
p6569
aV.
aa(lp6570
Vand
p6571
aVthen
p6572
aVwhen
p6573
aVthe
p6574
aVsun
p6575
aVcame
p6576
aVand
p6577
aVthat
p6578
aVawful
p6579
aVpattern
p6580
aVbegan
p6581
aVto
p6582
aVlaugh
p6583
aVat
p6584
aVme
p6585
aV,
aVi
aVdeclared
p6586
aVi
aVwould
p6587
aVfinish
p6588
aVit
p6589
aVto-day
p6590
aV!
aa(lp6591
Vwe
p6592
aVgo
p6593
aVaway
p6594
aVto-morrow
p6595
aV,
aVand
p6596
aVthey
p6597
aVare
p6598
aVmoving
p6599
aVall
p6600
aVmy
p6601
aVfurniture
p6602
aVdown
p6603
aVagain
p6604
aVto
p6605
aVleave
p6606
aVthings
p6607
aVas
p6608
aVthey
p6609
aVwere
p6610
aVbefore
p6611
aV.
aa(lp6612
Vjennie
p6613
aVlooked
p6614
aVat
p6615
aVthe
p6616
aVwall
p6617
aVin
p6618
aVamazement
p6619
aV,
aVbut
p6620
aVi
aVtold
p6621
aVher
p6622
aVmerrily
p6623
aVthat
p6624
aVi
aVdid
p6625
aVit
p6626
aVout
p6627
aVof
p6628
aVpure
p6629
aVspite
p6630
aVat
p6631
aVthe
p6632
aVvicious
p6633
aVthing
p6634
aV.
aa(lp6635
Vshe
p6636
aVlaughed
p6637
aVand
p6638
aVsaid
p6639
aVshe
p6640
aVwould
p6641
aVn't
p6642
aVmind
p6643
aVdoing
p6644
aVit
p6645
aVherself
p6646
aV,
aVbut
p6647
aVi
aVmust
p6648
aVnot
p6649
aVget
p6650
aVtired
p6651
aV.
aa(lp6652
Vhow
p6653
aVshe
p6654
aVbetrayed
p6655
aVherself
p6656
aVthat
p6657
aVtime
p6658
aV!
aa(lp6659
Vbut
p6660
aVi
aVam
p6661
aVhere
p6662
aV,
aVand
p6663
aVno
p6664
aVperson
p6665
aVtouches
p6666
aVthis
p6667
aVpaper
p6668
aVbut
p6669
aVme
p6670
aV--
p6671
aVnot
p6672
aValive
p6673
aV!
aa(lp6674
Vshe
p6675
aVtried
p6676
aVto
p6677
aVget
p6678
aVme
p6679
aVout
p6680
aVof
p6681
aVthe
p6682
aVroom
p6683
aV--
p6684
aVit
p6685
aVwas
p6686
aVtoo
p6687
aVpatent
p6688
aV!
aa(lp6689
Vbut
p6690
aVi
aVsaid
p6691
aVit
p6692
aVwas
p6693
aVso
p6694
aVquiet
p6695
aVand
p6696
aVempty
p6697
aVand
p6698
aVclean
p6699
aVnow
p6700
aVthat
p6701
aVi
aVbelieved
p6702
aVi
aVwould
p6703
aVlie
p6704
aVdown
p6705
aVagain
p6706
aVand
p6707
aVsleep
p6708
aVall
p6709
aVi
aVcould
p6710
aV;
aVand
p6711
aVnot
p6712
aVto
p6713
aVwake
p6714
aVme
p6715
aVeven
p6716
aVfor
p6717
aVdinner
p6718
aV--
p6719
aVi
aVwould
p6720
aVcall
p6721
aVwhen
p6722
aVi
aVwoke
p6723
aV.
aa(lp6724
Vso
p6725
aVnow
p6726
aVshe
p6727
aVis
p6728
aVgone
p6729
aV,
aVand
p6730
aVthe
p6731
aVservants
p6732
aVare
p6733
aVgone
p6734
aV,
aVand
p6735
aVthe
p6736
aVthings
p6737
aVare
p6738
aVgone
p6739
aV,
aVand
p6740
aVthere
p6741
aVis
p6742
aVnothing
p6743
aVleft
p6744
aVbut
p6745
aVthat
p6746
aVgreat
p6747
aVbedstead
p6748
aVnailed
p6749
aVdown
p6750
aV,
aVwith
p6751
aVthe
p6752
aVcanvas
p6753
aVmattress
p6754
aVwe
p6755
aVfound
p6756
aVon
p6757
aVit
p6758
aV.
aa(lp6759
Vwe
p6760
aVshall
p6761
aVsleep
p6762
aVdownstairs
p6763
aVto-night
p6764
aV,
aVand
p6765
aVtake
p6766
aVthe
p6767
aVboat
p6768
aVhome
p6769
aVto-morrow
p6770
aV.
aa(lp6771
Vi
aVquite
p6772
aVenjoy
p6773
aVthe
p6774
aVroom
p6775
aV,
aVnow
p6776
aVit
p6777
aVis
p6778
aVbare
p6779
aVagain
p6780
aV.
aa(lp6781
Vhow
p6782
aVthose
p6783
aVchildren
p6784
aVdid
p6785
aVtear
p6786
aVabout
p6787
aVhere
p6788
aV!
aa(lp6789
Vthis
p6790
aVbedstead
p6791
aVis
p6792
aVfairly
p6793
aVgnawed
p6794
aV!
aa(lp6795
Vbut
p6796
aVi
aVmust
p6797
aVget
p6798
aVto
p6799
aVwork
p6800
aV.
aa(lp6801
Vi
aVhave
p6802
aVlocked
p6803
aVthe
p6804
aVdoor
p6805
aVand
p6806
aVthrown
p6807
aVthe
p6808
aVkey
p6809
aVdown
p6810
aVinto
p6811
aVthe
p6812
aVfront
p6813
aVpath
p6814
aV.
aa(lp6815
Vi
aVdo
p6816
aVn't
p6817
aVwant
p6818
aVto
p6819
aVgo
p6820
aVout
p6821
aV,
aVand
p6822
aVi
aVdo
p6823
aVn't
p6824
aVwant
p6825
aVto
p6826
aVhave
p6827
aVanybody
p6828
aVcome
p6829
aVin
p6830
aV,
aVtill
p6831
aVjohn
p6832
aVcomes
p6833
aV.
aa(lp6834
Vi
aVwant
p6835
aVto
p6836
aVastonish
p6837
aVhim
p6838
aV.
aa(lp6839
Vi
aV've
p6840
aVgot
p6841
aVa
aVrope
p6842
aVup
p6843
aVhere
p6844
aVthat
p6845
aVeven
p6846
aVjennie
p6847
aVdid
p6848
aVnot
p6849
aVfind
p6850
aV.
aa(lp6851
Vif
p6852
aVthat
p6853
aVwoman
p6854
aVdoes
p6855
aVget
p6856
aVout
p6857
aV,
aVand
p6858
aVtries
p6859
aVto
p6860
aVget
p6861
aVaway
p6862
aV,
aVi
aVcan
p6863
aVtie
p6864
aVher
p6865
aV!
aa(lp6866
Vbut
p6867
aVi
aVforgot
p6868
aVi
aVcould
p6869
aVnot
p6870
aVreach
p6871
aVfar
p6872
aVwithout
p6873
aVanything
p6874
aVto
p6875
aVstand
p6876
aVon
p6877
aV!
aa(lp6878
Vthis
p6879
aVbed
p6880
aVwill
p6881
aVnot
p6882
aVmove
p6883
aV!
aa(lp6884
Vi
aVtried
p6885
aVto
p6886
aVlift
p6887
aVand
p6888
aVpush
p6889
aVit
p6890
aVuntil
p6891
aVi
aVwas
p6892
aVlame
p6893
aV,
aVand
p6894
aVthen
p6895
aVi
aVgot
p6896
aVso
p6897
aVangry
p6898
aVi
aVbit
p6899
aVoff
p6900
aVa
aVlittle
p6901
aVpiece
p6902
aVat
p6903
aVone
p6904
aVcorner
p6905
aV--
p6906
aVbut
p6907
aVit
p6908
aVhurt
p6909
aVmy
p6910
aVteeth
p6911
aV.
aa(lp6912
Vthen
p6913
aVi
aVpeeled
p6914
aVoff
p6915
aVall
p6916
aVthe
p6917
aVpaper
p6918
aVi
aVcould
p6919
aVreach
p6920
aVstanding
p6921
aVon
p6922
aVthe
p6923
aVfloor
p6924
aV.
aa(lp6925
Vit
p6926
aVsticks
p6927
aVhorribly
p6928
aVand
p6929
aVthe
p6930
aVpattern
p6931
aVjust
p6932
aVenjoys
p6933
aVit
p6934
aV!
aa(lp6935
Vall
p6936
aVthose
p6937
aVstrangled
p6938
aVheads
p6939
aVand
p6940
aVbulbous
p6941
aVeyes
p6942
aVand
p6943
aVwaddling
p6944
aVfungus
p6945
aVgrowths
p6946
aVjust
p6947
aVshriek
p6948
aVwith
p6949
aVderision
p6950
aV!
aa(lp6951
Vi
aVam
p6952
aVgetting
p6953
aVangry
p6954
aVenough
p6955
aVto
p6956
aVdo
p6957
aVsomething
p6958
aVdesperate
p6959
aV.
aa(lp6960
Vto
p6961
aVjump
p6962
aVout
p6963
aVof
p6964
aVthe
p6965
aVwindow
p6966
aVwould
p6967
aVbe
p6968
aVadmirable
p6969
aVexercise
p6970
aV,
aVbut
p6971
aVthe
p6972
aVbars
p6973
aVare
p6974
aVtoo
p6975
aVstrong
p6976
aVeven
p6977
aVto
p6978
aVtry
p6979
aV.
aa(lp6980
Vbesides
p6981
aVi
aVwould
p6982
aVn't
p6983
aVdo
p6984
aVit
p6985
aV.
aa(lp6986
Vof
p6987
aVcourse
p6988
aVnot
p6989
aV.
aa(lp6990
Vi
aVknow
p6991
aVwell
p6992
aVenough
p6993
aVthat
p6994
aVa
aVstep
p6995
aVlike
p6996
aVthat
p6997
aVis
p6998
aVimproper
p6999
aVand
p7000
aVmight
p7001
aVbe
p7002
aVmisconstrued
p7003
aV.
aa(lp7004
Vi
aVdo
p7005
aVn't
p7006
aVlike
p7007
aVto
p7008
aVlook
p7009
aVout
p7010
aVof
p7011
aVthe
p7012
aVwindows
p7013
aVeven
p7014
aV--
p7015
aVthere
p7016
aVare
p7017
aVso
p7018
aVmany
p7019
aVof
p7020
aVthose
p7021
aVcreeping
p7022
aVwomen
p7023
aV,
aVand
p7024
aVthey
p7025
aVcreep
p7026
aVso
p7027
aVfast
p7028
aV.
aa(lp7029
Vi
aVwonder
p7030
aVif
p7031
aVthey
p7032
aVall
p7033
aVcome
p7034
aVout
p7035
aVof
p7036
aVthat
p7037
aVwall-paper
p7038
aVas
p7039
aVi
aVdid
p7040
aV?
aa(lp7041
Vbut
p7042
aVi
aVam
p7043
aVsecurely
p7044
aVfastened
p7045
aVnow
p7046
aVby
p7047
aVmy
p7048
aVwell-hidden
p7049
aVrope
p7050
aV--
p7051
aVyou
p7052
aVdo
p7053
aVn't
p7054
aVget
p7055
aVme
p7056
aVout
p7057
aVin
p7058
aVthe
p7059
aVroad
p7060
aVthere
p7061
aV!
aa(lp7062
Vi
aVsuppose
p7063
aVi
aVshall
p7064
aVhave
p7065
aVto
p7066
aVget
p7067
aVback
p7068
aVbehind
p7069
aVthe
p7070
aVpattern
p7071
aVwhen
p7072
aVit
p7073
aVcomes
p7074
aVnight
p7075
aV,
aVand
p7076
aVthat
p7077
aVis
p7078
aVhard
p7079
aV!
aa(lp7080
Vit
p7081
aVis
p7082
aVso
p7083
aVpleasant
p7084
aVto
p7085
aVbe
p7086
aVout
p7087
aVin
p7088
aVthis
p7089
aVgreat
p7090
aVroom
p7091
aVand
p7092
aVcreep
p7093
aVaround
p7094
aVas
p7095
aVi
aVplease
p7096
aV!
aa(lp7097
Vi
aVdo
p7098
aVn't
p7099
aVwant
p7100
aVto
p7101
aVgo
p7102
aVoutside
p7103
aV.
aa(lp7104
Vi
aVwo
p7105
aVn't
p7106
aV,
aVeven
p7107
aVif
p7108
aVjennie
p7109
aVasks
p7110
aVme
p7111
aVto
p7112
aV.
aa(lp7113
Vfor
p7114
aVoutside
p7115
aVyou
p7116
aVhave
p7117
aVto
p7118
aVcreep
p7119
aVon
p7120
aVthe
p7121
aVground
p7122
aV,
aVand
p7123
aVeverything
p7124
aVis
p7125
aVgreen
p7126
aVinstead
p7127
aVof
p7128
aVyellow
p7129
aV.
aa(lp7130
Vbut
p7131
aVhere
p7132
aVi
aVcan
p7133
aVcreep
p7134
aVsmoothly
p7135
aVon
p7136
aVthe
p7137
aVfloor
p7138
aV,
aVand
p7139
aVmy
p7140
aVshoulder
p7141
aVjust
p7142
aVfits
p7143
aVin
p7144
aVthat
p7145
aVlong
p7146
aVsmooch
p7147
aVaround
p7148
aVthe
p7149
aVwall
p7150
aV,
aVso
p7151
aVi
aVcan
p7152
aVnot
p7153
aVlose
p7154
aVmy
p7155
aVway
p7156
aV.
aa(lp7157
Vwhy
p7158
aVthere
p7159
aV's
p7160
aVjohn
p7161
aVat
p7162
aVthe
p7163
aVdoor
p7164
aV!
aa(lp7165
Vit
p7166
aVis
p7167
aVno
p7168
aVuse
p7169
aV,
aVyoung
p7170
aVman
p7171
aV,
aVyou
p7172
aVca
p7173
aVn't
p7174
aVopen
p7175
aVit
p7176
aV!
aa(lp7177
Vhow
p7178
aVhe
p7179
aVdoes
p7180
aVcall
p7181
aVand
p7182
aVpound
p7183
aV!
aa(lp7184
Vnow
p7185
aVhe
p7186
aV's
p7187
aVcrying
p7188
aVfor
p7189
aVan
p7190
aVaxe
p7191
aV.
aa(lp7192
Vit
p7193
aVwould
p7194
aVbe
p7195
aVa
aVshame
p7196
aVto
p7197
aVbreak
p7198
aVdown
p7199
aVthat
p7200
aVbeautiful
p7201
aVdoor
p7202
aV!
aa(lp7203
V``
p7204
aVjohn
p7205
aVdear
p7206
aV!
aV''
p7207
aa(lp7208
Vsaid
p7209
aVi
aVin
p7210
aVthe
p7211
aVgentlest
p7212
aVvoice
p7213
aV,
aV``
p7214
aVthe
p7215
aVkey
p7216
aVis
p7217
aVdown
p7218
aVby
p7219
aVthe
p7220
aVfront
p7221
aVsteps
p7222
aV,
aVunder
p7223
aVa
aVplantain
p7224
aVleaf
p7225
aV!
aV''
p7226
aa(lp7227
Vthat
p7228
aVsilenced
p7229
aVhim
p7230
aVfor
p7231
aVa
aVfew
p7232
aVmoments
p7233
aV.
aa(lp7234
Vthen
p7235
aVhe
p7236
aVsaid
p7237
aV--
p7238
aVvery
p7239
aVquietly
p7240
aVindeed
p7241
aV,
aV``
p7242
aVopen
p7243
aVthe
p7244
aVdoor
p7245
aV,
aVmy
p7246
aVdarling
p7247
aV!
aV''
p7248
aa(lp7249
V``
p7250
aVi
aVca
p7251
aVn't
p7252
aV,
aV''
p7253
aVsaid
p7254
aVi
aV.
aa(lp7255
V``
p7256
aVthe
p7257
aVkey
p7258
aVis
p7259
aVdown
p7260
aVby
p7261
aVthe
p7262
aVfront
p7263
aVdoor
p7264
aVunder
p7265
aVa
aVplantain
p7266
aVleaf
p7267
aV!
aV''
p7268
aa(lp7269
Vand
p7270
aVthen
p7271
aVi
aVsaid
p7272
aVit
p7273
aVagain
p7274
aV,
aVseveral
p7275
aVtimes
p7276
aV,
aVvery
p7277
aVgently
p7278
aVand
p7279
aVslowly
p7280
aV,
aVand
p7281
aVsaid
p7282
aVit
p7283
aVso
p7284
aVoften
p7285
aVthat
p7286
aVhe
p7287
aVhad
p7288
aVto
p7289
aVgo
p7290
aVand
p7291
aVsee
p7292
aV,
aVand
p7293
aVhe
p7294
aVgot
p7295
aVit
p7296
aVof
p7297
aVcourse
p7298
aV,
aVand
p7299
aVcame
p7300
aVin
p7301
aV.
aa(lp7302
Vhe
p7303
aVstopped
p7304
aVshort
p7305
aVby
p7306
aVthe
p7307
aVdoor
p7308
aV.
aa(lp7309
V``
p7310
aVwhat
p7311
aVis
p7312
aVthe
p7313
aVmatter
p7314
aV?
aV''
p7315
aa(lp7316
Vhe
p7317
aVcried
p7318
aV.
aa(lp7319
V``
p7320
aVfor
p7321
aVgod
p7322
aV's
p7323
aVsake
p7324
aV,
aVwhat
p7325
aVare
p7326
aVyou
p7327
aVdoing
p7328
aV!
aV''
p7329
aa(lp7330
Vi
aVkept
p7331
aVon
p7332
aVcreeping
p7333
aVjust
p7334
aVthe
p7335
aVsame
p7336
aV,
aVbut
p7337
aVi
aVlooked
p7338
aVat
p7339
aVhim
p7340
aVover
p7341
aVmy
p7342
aVshoulder
p7343
aV.
aa(lp7344
V``
p7345
aVi
aV've
p7346
aVgot
p7347
aVout
p7348
aVat
p7349
aVlast
p7350
aV,
aV''
p7351
aVsaid
p7352
aVi
aV,
aV``
p7353
aVin
p7354
aVspite
p7355
aVof
p7356
aVyou
p7357
aVand
p7358
aVjane
p7359
aV.
aa(lp7360
Vand
p7361
aVi've
p7362
aVpulled
p7363
aVoff
p7364
aVmost
p7365
aVof
p7366
aVthe
p7367
aVpaper
p7368
aV,
aVso
p7369
aVyou
p7370
aVca
p7371
aVn't
p7372
aVput
p7373
aVme
p7374
aVback
p7375
aV!
aV''
p7376
aa(lp7377
Vnow
p7378
aVwhy
p7379
aVshould
p7380
aVthat
p7381
aVman
p7382
aVhave
p7383
aVfainted
p7384
aV?
aa(lp7385
Vbut
p7386
aVhe
p7387
aVdid
p7388
aV,
aVand
p7389
aVright
p7390
aVacross
p7391
aVmy
p7392
aVpath
p7393
aVby
p7394
aVthe
p7395
aVwall
p7396
aV,
aVso
p7397
aVthat
p7398
aVi
aVhad
p7399
aVto
p7400
aVcreep
p7401
aVover
p7402
aVhim
p7403
aVevery
p7404
aVtime
p7405
aV!
aasb.