ccopy_reg
_reconstructor
p1
(cData.Book
Book
p2
c__builtin__
object
p3
NtRp4
(dp5
S'stored_object'
p6
S'Books/The_Yellow_Wallpaper/Book_object.p'
p7
sS'title'
p8
S'The Yellow Wallpaper'
p9
sS'main_text_path'
p10
S'Books/The_Yellow_Wallpaper/main_cleaned.txt'
p11
sS'metadata_path'
p12
S'Books/The_Yellow_Wallpaper/meta_data.csv'
p13
sS'book_path'
p14
S'Books/The_Yellow_Wallpaper/'
p15
sS'characters'
p16
(dp17
S'the narrator'
p18
(dp19
S'list'
p20
(lp21
(lp22
Vthe
p23
aV[
aVCHARACTER
p24
aV]
aV-
aVa
aVyoung
p25
aV,
aVupper-middle-class
p26
aVwoman
p27
aV,
aVnewly
p28
aVmarried
p29
aVand
p30
aVa
aVmother
p31
aV,
aVwho
p32
aVis
p33
aVundergoing
p34
aVcare
p35
aVfor
p36
aVdepression
p37
aV.
aa(lp38
Vthe
p39
aV[
aVCHARACTER
p40
aV]
aV--
p41
aVwhose
p42
aVname
p43
aVmay
p44
aVor
p45
aVmay
p46
aVnot
p47
aVbe
p48
aVjane
p49
aV--
p50
aVis
p51
aVhighly
p52
aVimaginative
p53
aVand
p54
aVa
aVnatural
p55
aVstoryteller
p56
aV,
aVthough
p57
aVher
p58
aVdoctors
p59
aVbelieve
p60
aVshe
p61
aVhas
p62
aVa
aV``
p63
aVslight
p64
aVhysterical
p65
aVtendency
p66
aV.
aV''
p67
aa(lp68
Vthe
p69
aVstory
p70
aVis
p71
aVtold
p72
aVin
p73
aVthe
p74
aVform
p75
aVof
p76
aVher
p77
aVsecret
p78
aVdiary
p79
aV,
aVin
p80
aVwhich
p81
aVshe
p82
aVrecords
p83
aVher
p84
aVthoughts
p85
aVas
p86
aVher
p87
aVobsession
p88
aVwith
p89
aVthe
p90
aVwallpaper
p91
aVgrows
p92
aV.
aasS'relevant_text'
p93
(lp94
(lp95
asS'analysis'
p96
(lp97
(lp98
Vthe
p99
aV[
aVCHARACTER
p100
aV]
aVthe
p101
aV[
aVCHARACTER
p102
aV]
aVof
p103
aV``
p104
aVthe
p105
aVyellow
p106
aVwallpaper
p107
aV''
p108
aVis
p109
aVa
aVparadox
p110
aV:
aVas
p111
aVshe
p112
aVloses
p113
aVtouch
p114
aVwith
p115
aVthe
p116
aVouter
p117
aVworld
p118
aV,
aVshe
p119
aVcomes
p120
aVto
p121
aVa
aVgreater
p122
aVunderstanding
p123
aVof
p124
aVthe
p125
aVinner
p126
aVreality
p127
aVof
p128
aVher
p129
aVlife
p130
aV.
aa(lp131
Vthis
p132
aVinner/outer
p133
aVsplit
p134
aVis
p135
aVcrucial
p136
aVto
p137
aVunderstanding
p138
aVthe
p139
aVnature
p140
aVof
p141
aVthe
p142
aV[
aVCHARACTER
p143
aV]
aV's
p144
aVsuffering
p145
aV.
aa(lp146
Vat
p147
aVevery
p148
aVpoint
p149
aV,
aVshe
p150
aVis
p151
aVfaced
p152
aVwith
p153
aVrelationships
p154
aV,
aVobjects
p155
aV,
aVand
p156
aVsituations
p157
aVthat
p158
aVseem
p159
aVinnocent
p160
aVand
p161
aVnatural
p162
aVbut
p163
aVthat
p164
aVare
p165
aVactually
p166
aVquite
p167
aVbizarre
p168
aVand
p169
aVeven
p170
aVoppressive
p171
aV.
aa(lp172
Vin
p173
aVa
aVsense
p174
aV,
aVthe
p175
aVplot
p176
aVof
p177
aV``
p178
aVthe
p179
aVyellow
p180
aVwallpaper
p181
aV''
p182
aVis
p183
aVthe
p184
aV[
aVCHARACTER
p185
aV]
aV's
p186
aVattempt
p187
aVto
p188
aVavoid
p189
aVacknowledging
p190
aVthe
p191
aVextent
p192
aVto
p193
aVwhich
p194
aVher
p195
aVexternal
p196
aVsituation
p197
aVstifles
p198
aVher
p199
aVinner
p200
aVimpulses
p201
aV.
aa(lp202
Vfrom
p203
aVthe
p204
aVbeginning
p205
aV,
aVwe
p206
aVsee
p207
aVthat
p208
aVthe
p209
aV[
aVCHARACTER
p210
aV]
aVis
p211
aVan
p212
aVimaginative
p213
aV,
aVhighly
p214
aVexpressive
p215
aVwoman
p216
aV.
aa(lp217
Vshe
p218
aVremembers
p219
aVterrifying
p220
aVherself
p221
aVwith
p222
aVimaginary
p223
aVnighttime
p224
aVmonsters
p225
aVas
p226
aVa
aVchild
p227
aV,
aVand
p228
aVshe
p229
aVenjoys
p230
aVthe
p231
aVnotion
p232
aVthat
p233
aVthe
p234
aVhouse
p235
aVthey
p236
aVhave
p237
aVtaken
p238
aVis
p239
aVhaunted
p240
aV.
aa(lp241
Vyet
p242
aVas
p243
aVpart
p244
aVof
p245
aVher
p246
aV``
p247
aVcure
p248
aV,
aV''
p249
aVher
p250
aVhusband
p251
aVforbids
p252
aVher
p253
aVto
p254
aVexercise
p255
aVher
p256
aVimagination
p257
aVin
p258
aVany
p259
aVway
p260
aV.
aa(lp261
Vboth
p262
aVher
p263
aVreason
p264
aVand
p265
aVher
p266
aVemotions
p267
aVrebel
p268
aVat
p269
aVthis
p270
aVtreatment
p271
aV,
aVand
p272
aVshe
p273
aVturns
p274
aVher
p275
aVimagination
p276
aVonto
p277
aVseemingly
p278
aVneutral
p279
aVobjects
p280
aV--
p281
aVthe
p282
aVhouse
p283
aVand
p284
aVthe
p285
aVwallpaper
p286
aV--
p287
aVin
p288
aVan
p289
aVattempt
p290
aVto
p291
aVignore
p292
aVher
p293
aVgrowing
p294
aVfrustration
p295
aV.
aa(lp296
Vher
p297
aVnegative
p298
aVfeelings
p299
aVcolor
p300
aVher
p301
aVdescription
p302
aVof
p303
aVher
p304
aVsurroundings
p305
aV,
aVmaking
p306
aVthem
p307
aVseem
p308
aVuncanny
p309
aVand
p310
aVsinister
p311
aV,
aVand
p312
aVshe
p313
aVbecomes
p314
aVfixated
p315
aVon
p316
aVthe
p317
aVwallpaper
p318
aV.
aa(lp319
Vas
p320
aVthe
p321
aV[
aVCHARACTER
p322
aV]
aVsinks
p323
aVfurther
p324
aVinto
p325
aVher
p326
aVinner
p327
aVfascination
p328
aVwith
p329
aVthe
p330
aVwallpaper
p331
aV,
aVshe
p332
aVbecomes
p333
aVprogressively
p334
aVmore
p335
aVdissociated
p336
aVfrom
p337
aVher
p338
aVday-to-day
p339
aVlife
p340
aV.
aa(lp341
Vthis
p342
aVprocess
p343
aVof
p344
aVdissociation
p345
aVbegins
p346
aVwhen
p347
aVthe
p348
aVstory
p349
aVdoes
p350
aV,
aVat
p351
aVthe
p352
aVvery
p353
aVmoment
p354
aVshe
p355
aVdecides
p356
aVto
p357
aVkeep
p358
aVa
aVsecret
p359
aVdiary
p360
aVas
p361
aV``
p362
aVa
aVrelief
p363
aVto
p364
aVher
p365
aVmind
p366
aV.
aV''
p367
aa(lp368
Vfrom
p369
aVthat
p370
aVpoint
p371
aV,
aVher
p372
aVtrue
p373
aVthoughts
p374
aVare
p375
aVhidden
p376
aVfrom
p377
aVthe
p378
aVouter
p379
aVworld
p380
aV,
aVand
p381
aVthe
p382
aV[
aVCHARACTER
p383
aV]
aVbegins
p384
aVto
p385
aVslip
p386
aVinto
p387
aVa
aVfantasy
p388
aVworld
p389
aVin
p390
aVwhich
p391
aVthe
p392
aVnature
p393
aVof
p394
aV``
p395
aVher
p396
aVsituation
p397
aV''
p398
aVis
p399
aVmade
p400
aVclear
p401
aVin
p402
aVsymbolic
p403
aVterms
p404
aV.
aa(lp405
Vgilman
p406
aVshows
p407
aVus
p408
aVthis
p409
aVdivision
p410
aVin
p411
aVthe
p412
aV[
aVCHARACTER
p413
aV]
aV's
p414
aVconsciousness
p415
aVby
p416
aVhaving
p417
aVthe
p418
aV[
aVCHARACTER
p419
aV]
aVpuzzle
p420
aVover
p421
aVeffects
p422
aVin
p423
aVthe
p424
aVworld
p425
aVthat
p426
aVshe
p427
aVherself
p428
aVhas
p429
aVcaused
p430
aV.
aa(lp431
Vfor
p432
aVexample
p433
aV,
aVthe
p434
aV[
aVCHARACTER
p435
aV]
aVdoes
p436
aVn't
p437
aVimmediately
p438
aVunderstand
p439
aVthat
p440
aVthe
p441
aVyellow
p442
aVstains
p443
aVon
p444
aVher
p445
aVclothing
p446
aVand
p447
aVthe
p448
aVlong
p449
aV``
p450
aVsmootch
p451
aV''
p452
aVon
p453
aVthe
p454
aVwallpaper
p455
aVare
p456
aVconnected
p457
aV.
aa(lp458
Vsimilarly
p459
aV,
aVthe
p460
aV[
aVCHARACTER
p461
aV]
aVfights
p462
aVthe
p463
aVrealization
p464
aVthat
p465
aVthe
p466
aVpredicament
p467
aVof
p468
aVthe
p469
aVwoman
p470
aVin
p471
aVthe
p472
aVwallpaper
p473
aVis
p474
aVa
aVsymbolic
p475
aVversion
p476
aVof
p477
aVher
p478
aVown
p479
aVsituation
p480
aV.
aa(lp481
Vat
p482
aVfirst
p483
aVshe
p484
aVeven
p485
aVdisapproves
p486
aVof
p487
aVthe
p488
aVwoman
p489
aV's
p490
aVefforts
p491
aVto
p492
aVescape
p493
aVand
p494
aVintends
p495
aVto
p496
aV``
p497
aVtie
p498
aVher
p499
aVup
p500
aV.
aV''
p501
aa(lp502
Vwhen
p503
aVthe
p504
aV[
aVCHARACTER
p505
aV]
aVfinally
p506
aVidentifies
p507
aVherself
p508
aVwith
p509
aVthe
p510
aVwoman
p511
aVtrapped
p512
aVin
p513
aVthe
p514
aVwallpaper
p515
aV,
aVshe
p516
aVis
p517
aVable
p518
aVto
p519
aVsee
p520
aVthat
p521
aVother
p522
aVwomen
p523
aVare
p524
aVforced
p525
aVto
p526
aVcreep
p527
aVand
p528
aVhide
p529
aVbehind
p530
aVthe
p531
aVdomestic
p532
aV``
p533
aVpatterns
p534
aV''
p535
aVof
p536
aVtheir
p537
aVlives
p538
aV,
aVand
p539
aVthat
p540
aVshe
p541
aVherself
p542
aVis
p543
aVthe
p544
aVone
p545
aVin
p546
aVneed
p547
aVof
p548
aVrescue
p549
aV.
aa(lp550
Vthe
p551
aVhorror
p552
aVof
p553
aVthis
p554
aVstory
p555
aVis
p556
aVthat
p557
aVthe
p558
aV[
aVCHARACTER
p559
aV]
aVmust
p560
aVlose
p561
aVherself
p562
aVto
p563
aVunderstand
p564
aVherself
p565
aV.
aa(lp566
Vshe
p567
aVhas
p568
aVuntangled
p569
aVthe
p570
aVpattern
p571
aVof
p572
aVher
p573
aVlife
p574
aV,
aVbut
p575
aVshe
p576
aVhas
p577
aVtorn
p578
aVherself
p579
aVapart
p580
aVin
p581
aVgetting
p582
aVfree
p583
aVof
p584
aVit
p585
aV.
aa(lp586
Van
p587
aVodd
p588
aVdetail
p589
aVat
p590
aVthe
p591
aVend
p592
aVof
p593
aVthe
p594
aVstory
p595
aVreveals
p596
aVhow
p597
aVmuch
p598
aVthe
p599
aV[
aVCHARACTER
p600
aV]
aVhas
p601
aVsacrificed
p602
aV.
aa(lp603
Vduring
p604
aVher
p605
aVfinal
p606
aVsplit
p607
aVfrom
p608
aVreality
p609
aV,
aVthe
p610
aV[
aVCHARACTER
p611
aV]
aVsays
p612
aV,
aV``
p613
aVi
aV've
p614
aVgot
p615
aVout
p616
aVat
p617
aVlast
p618
aV,
aVin
p619
aVspite
p620
aVof
p621
aVyou
p622
aVand
p623
aVjane
p624
aV.
aV''
p625
aa(lp626
Vwho
p627
aVis
p628
aVthis
p629
aVjane
p630
aV?
aa(lp631
Vsome
p632
aVcritics
p633
aVclaim
p634
aV``
p635
aVjane
p636
aV''
p637
aVis
p638
aVa
aVmisprint
p639
aVfor
p640
aV``
p641
aVjennie
p642
aV,
aV''
p643
aVthe
p644
aVsister-in-law
p645
aV.
aa(lp646
Vit
p647
aVis
p648
aVmore
p649
aVlikely
p650
aV,
aVhowever
p651
aV,
aVthat
p652
aV``
p653
aVjane
p654
aV''
p655
aVis
p656
aVthe
p657
aVname
p658
aVof
p659
aVthe
p660
aVunnamed
p661
aV[
aVCHARACTER
p662
aV]
aV,
aVwho
p663
aVhas
p664
aVbeen
p665
aVa
aVstranger
p666
aVto
p667
aVherself
p668
aVand
p669
aVher
p670
aVjailers
p671
aV.
aa(lp672
Vnow
p673
aVshe
p674
aVis
p675
aVhorribly
p676
aV``
p677
aVfree
p678
aV''
p679
aVof
p680
aVthe
p681
aVconstraints
p682
aVof
p683
aVher
p684
aVmarriage
p685
aV,
aVher
p686
aVsociety
p687
aV,
aVand
p688
aVher
p689
aVown
p690
aVefforts
p691
aVto
p692
aVrepress
p693
aVher
p694
aVmind
p695
aV.
aassS'john'
p696
(dp697
g20
(lp698
(lp699
V[
aVCHARACTER
p700
aV]
aV-
aVthe
p701
aVnarrator
p702
aV's
p703
aVhusband
p704
aVand
p705
aVher
p706
aVphysician
p707
aV.
aa(lp708
V[
aVCHARACTER
p709
aV]
aVrestricts
p710
aVher
p711
aVbehavior
p712
aVas
p713
aVpart
p714
aVof
p715
aVher
p716
aVtreatment
p717
aV.
aa(lp718
Vunlike
p719
aVhis
p720
aVimaginative
p721
aVwife
p722
aV,
aV[
aVCHARACTER
p723
aV]
aVis
p724
aVextremely
p725
aVpractical
p726
aV,
aVpreferring
p727
aVfacts
p728
aVand
p729
aVfigures
p730
aVto
p731
aV``
p732
aVfancy
p733
aV,
aV''
p734
aVat
p735
aVwhich
p736
aVhe
p737
aV``
p738
aVscoffs
p739
aVopenly
p740
aV.
aV''
p741
aa(lp742
Vhe
p743
aVseems
p744
aVto
p745
aVlove
p746
aVhis
p747
aVwife
p748
aV,
aVbut
p749
aVhe
p750
aVdoes
p751
aVnot
p752
aVunderstand
p753
aVthe
p754
aVnegative
p755
aVeffect
p756
aVhis
p757
aVtreatment
p758
aVhas
p759
aVon
p760
aVher
p761
aV.
aasg93
(lp762
(lp763
(lp764
Vthe
p765
aVyellow
p766
aVwallpaper
p767
aVit
p768
aVis
p769
aVvery
p770
aVseldom
p771
aVthat
p772
aVmere
p773
aVordinary
p774
aVpeople
p775
aVlike
p776
aVjohn
p777
aVand
p778
aVmyself
p779
aVsecure
p780
aVancestral
p781
aVhalls
p782
aVfor
p783
aVthe
p784
aVsummer
p785
aV.
aa(lp786
Va
aVcolonial
p787
aVmansion
p788
aV,
aVa
aVhereditary
p789
aVestate
p790
aV,
aVi
aVwould
p791
aVsay
p792
aVa
aVhaunted
p793
aVhouse
p794
aV,
aVand
p795
aVreach
p796
aVthe
p797
aVheight
p798
aVof
p799
aVromantic
p800
aVfelicity
p801
aV--
p802
aVbut
p803
aVthat
p804
aVwould
p805
aVbe
p806
aVasking
p807
aVtoo
p808
aVmuch
p809
aVof
p810
aVfate
p811
aV!
aa(lp812
Vstill
p813
aVi
aVwill
p814
aVproudly
p815
aVdeclare
p816
aVthat
p817
aVthere
p818
aVis
p819
aVsomething
p820
aVqueer
p821
aVabout
p822
aVit
p823
aV.
aa(lp824
Velse
p825
aV,
aVwhy
p826
aVshould
p827
aVit
p828
aVbe
p829
aVlet
p830
aVso
p831
aVcheaply
p832
aV?
aa(lp833
Vand
p834
aVwhy
p835
aVhave
p836
aVstood
p837
aVso
p838
aVlong
p839
aVuntenanted
p840
aV?
aa(lp841
Vjohn
p842
aVlaughs
p843
aVat
p844
aVme
p845
aV,
aVof
p846
aVcourse
p847
aV,
aVbut
p848
aVone
p849
aVexpects
p850
aVthat
p851
aVin
p852
aVmarriage
p853
aV.
aa(lp854
Vjohn
p855
aVis
p856
aVpractical
p857
aVin
p858
aVthe
p859
aVextreme
p860
aV.
aa(lp861
Vhe
p862
aVhas
p863
aVno
p864
aVpatience
p865
aVwith
p866
aVfaith
p867
aV,
aVan
p868
aVintense
p869
aVhorror
p870
aVof
p871
aVsuperstition
p872
aV,
aVand
p873
aVhe
p874
aVscoffs
p875
aVopenly
p876
aVat
p877
aVany
p878
aVtalk
p879
aVof
p880
aVthings
p881
aVnot
p882
aVto
p883
aVbe
p884
aVfelt
p885
aVand
p886
aVseen
p887
aVand
p888
aVput
p889
aVdown
p890
aVin
p891
aVfigures
p892
aV.
aa(lp893
Vjohn
p894
aVis
p895
aVa
aVphysician
p896
aV,
aVand
p897
aVperhaps
p898
aV--
p899
aV(
aVi
aVwould
p900
aVnot
p901
aVsay
p902
aVit
p903
aVto
p904
aVa
aVliving
p905
aVsoul
p906
aV,
aVof
p907
aVcourse
p908
aV,
aVbut
p909
aVthis
p910
aVis
p911
aVdead
p912
aVpaper
p913
aVand
p914
aVa
aVgreat
p915
aVrelief
p916
aVto
p917
aVmy
p918
aVmind
p919
aV)
aV--
p920
aVperhaps
p921
aVthat
p922
aVis
p923
aVone
p924
aVreason
p925
aVi
aVdo
p926
aVnot
p927
aVget
p928
aVwell
p929
aVfaster
p930
aV.
aa(lp931
Vyou
p932
aVsee
p933
aVhe
p934
aVdoes
p935
aVnot
p936
aVbelieve
p937
aVi
aVam
p938
aVsick
p939
aV!
aa(lp940
Vand
p941
aVwhat
p942
aVcan
p943
aVone
p944
aVdo
p945
aV?
aa(lp946
Vif
p947
aVa
aVphysician
p948
aVof
p949
aVhigh
p950
aVstanding
p951
aV,
aVand
p952
aVone
p953
aV's
p954
aVown
p955
aVhusband
p956
aV,
aVa
aaa(lp957
(lp958
Vand
p959
aVjourneys
p960
aV,
aVand
p961
aVair
p962
aV,
aVand
p963
aVexercise
p964
aV,
aVand
p965
aVam
p966
aVabsolutely
p967
aVforbidden
p968
aVto
p969
aV``
p970
aVwork
p971
aV''
p972
aVuntil
p973
aVi
aVam
p974
aVwell
p975
aVagain
p976
aV.
aa(lp977
Vpersonally
p978
aV,
aVi
aVdisagree
p979
aVwith
p980
aVtheir
p981
aVideas
p982
aV.
aa(lp983
Vpersonally
p984
aV,
aVi
aVbelieve
p985
aVthat
p986
aVcongenial
p987
aVwork
p988
aV,
aVwith
p989
aVexcitement
p990
aVand
p991
aVchange
p992
aV,
aVwould
p993
aVdo
p994
aVme
p995
aVgood
p996
aV.
aa(lp997
Vbut
p998
aVwhat
p999
aVis
p1000
aVone
p1001
aVto
p1002
aVdo
p1003
aV?
aa(lp1004
Vi
aVdid
p1005
aVwrite
p1006
aVfor
p1007
aVa
aVwhile
p1008
aVin
p1009
aVspite
p1010
aVof
p1011
aVthem
p1012
aV;
aVbut
p1013
aVit
p1014
aVdoes
p1015
aVexhaust
p1016
aVme
p1017
aVa
aVgood
p1018
aVdeal
p1019
aV--
p1020
aVhaving
p1021
aVto
p1022
aVbe
p1023
aVso
p1024
aVsly
p1025
aVabout
p1026
aVit
p1027
aV,
aVor
p1028
aVelse
p1029
aVmeet
p1030
aVwith
p1031
aVheavy
p1032
aVopposition
p1033
aV.
aa(lp1034
Vi
aVsometimes
p1035
aVfancy
p1036
aVthat
p1037
aVin
p1038
aVmy
p1039
aVcondition
p1040
aVif
p1041
aVi
aVhad
p1042
aVless
p1043
aVopposition
p1044
aVand
p1045
aVmore
p1046
aVsociety
p1047
aVand
p1048
aVstimulus
p1049
aV--
p1050
aVbut
p1051
aVjohn
p1052
aVsays
p1053
aVthe
p1054
aVvery
p1055
aVworst
p1056
aVthing
p1057
aVi
aVcan
p1058
aVdo
p1059
aVis
p1060
aVto
p1061
aVthink
p1062
aVabout
p1063
aVmy
p1064
aVcondition
p1065
aV,
aVand
p1066
aVi
aVconfess
p1067
aVit
p1068
aValways
p1069
aVmakes
p1070
aVme
p1071
aVfeel
p1072
aVbad
p1073
aV.
aa(lp1074
Vso
p1075
aVi
aVwill
p1076
aVlet
p1077
aVit
p1078
aValone
p1079
aVand
p1080
aVtalk
p1081
aVabout
p1082
aVthe
p1083
aVhouse
p1084
aV.
aa(lp1085
Vthe
p1086
aVmost
p1087
aVbeautiful
p1088
aVplace
p1089
aV!
aa(lp1090
Vit
p1091
aVis
p1092
aVquite
p1093
aValone
p1094
aV,
aVstanding
p1095
aVwell
p1096
aVback
p1097
aVfrom
p1098
aVthe
p1099
aVroad
p1100
aV,
aVquite
p1101
aVthree
p1102
aVmiles
p1103
aVfrom
p1104
aVthe
p1105
aVvillage
p1106
aV.
aa(lp1107
Vit
p1108
aVmakes
p1109
aVme
p1110
aVthink
p1111
aVof
p1112
aVenglish
p1113
aVplaces
p1114
aVthat
p1115
aVyou
p1116
aVread
p1117
aVabout
p1118
aV,
aVfor
p1119
aVthere
p1120
aVare
p1121
aVhedges
p1122
aVand
p1123
aVwalls
p1124
aVand
p1125
aVgates
p1126
aVthat
p1127
aVlock
p1128
aV,
aVand
p1129
aVlots
p1130
aVof
p1131
aVseparate
p1132
aVlittle
p1133
aVhouses
p1134
aVfor
p1135
aVthe
p1136
aVgardeners
p1137
aVand
p1138
aVpeople
p1139
aV.
aa(lp1140
Vthere
p1141
aVis
p1142
aVa
aVdelicious
p1143
aVgarden
p1144
aV!
aa(lp1145
Vi
aVnever
p1146
aVsaw
p1147
aVsuch
p1148
aVa
aaa(lp1149
(lp1150
Vgarden
p1151
aV--
p1152
aVlarge
p1153
aVand
p1154
aVshady
p1155
aV,
aVfull
p1156
aVof
p1157
aVbox-bordered
p1158
aVpaths
p1159
aV,
aVand
p1160
aVlined
p1161
aVwith
p1162
aVlong
p1163
aVgrape-covered
p1164
aVarbors
p1165
aVwith
p1166
aVseats
p1167
aVunder
p1168
aVthem
p1169
aV.
aa(lp1170
Vthere
p1171
aVwere
p1172
aVgreenhouses
p1173
aV,
aVtoo
p1174
aV,
aVbut
p1175
aVthey
p1176
aVare
p1177
aVall
p1178
aVbroken
p1179
aVnow
p1180
aV.
aa(lp1181
Vthere
p1182
aVwas
p1183
aVsome
p1184
aVlegal
p1185
aVtrouble
p1186
aV,
aVi
aVbelieve
p1187
aV,
aVsomething
p1188
aVabout
p1189
aVthe
p1190
aVheirs
p1191
aVand
p1192
aVcoheirs
p1193
aV;
aVanyhow
p1194
aV,
aVthe
p1195
aVplace
p1196
aVhas
p1197
aVbeen
p1198
aVempty
p1199
aVfor
p1200
aVyears
p1201
aV.
aa(lp1202
Vthat
p1203
aVspoils
p1204
aVmy
p1205
aVghostliness
p1206
aV,
aVi
aVam
p1207
aVafraid
p1208
aV,
aVbut
p1209
aVi
aVdo
p1210
aVn't
p1211
aVcare
p1212
aV--
p1213
aVthere
p1214
aVis
p1215
aVsomething
p1216
aVstrange
p1217
aVabout
p1218
aVthe
p1219
aVhouse
p1220
aV--
p1221
aVi
aVcan
p1222
aVfeel
p1223
aVit
p1224
aV.
aa(lp1225
Vi
aVeven
p1226
aVsaid
p1227
aVso
p1228
aVto
p1229
aVjohn
p1230
aVone
p1231
aVmoonlight
p1232
aVevening
p1233
aV,
aVbut
p1234
aVhe
p1235
aVsaid
p1236
aVwhat
p1237
aVi
aVfelt
p1238
aVwas
p1239
aVa
aVdraught
p1240
aV,
aVand
p1241
aVshut
p1242
aVthe
p1243
aVwindow
p1244
aV.
aa(lp1245
Vi
aVget
p1246
aVunreasonably
p1247
aVangry
p1248
aVwith
p1249
aVjohn
p1250
aVsometimes
p1251
aV.
aa(lp1252
Vi
aV'm
p1253
aVsure
p1254
aVi
aVnever
p1255
aVused
p1256
aVto
p1257
aVbe
p1258
aVso
p1259
aVsensitive
p1260
aV.
aa(lp1261
Vi
aVthink
p1262
aVit
p1263
aVis
p1264
aVdue
p1265
aVto
p1266
aVthis
p1267
aVnervous
p1268
aVcondition
p1269
aV.
aa(lp1270
Vbut
p1271
aVjohn
p1272
aVsays
p1273
aVif
p1274
aVi
aVfeel
p1275
aVso
p1276
aV,
aVi
aVshall
p1277
aVneglect
p1278
aVproper
p1279
aVself-control
p1280
aV;
aVso
p1281
aVi
aVtake
p1282
aVpains
p1283
aVto
p1284
aVcontrol
p1285
aVmyself
p1286
aV--
p1287
aVbefore
p1288
aVhim
p1289
aV,
aVat
p1290
aVleast
p1291
aV,
aVand
p1292
aVthat
p1293
aVmakes
p1294
aVme
p1295
aVvery
p1296
aVtired
p1297
aV.
aa(lp1298
Vi
aVdo
p1299
aVn't
p1300
aVlike
p1301
aVour
p1302
aVroom
p1303
aVa
aVbit
p1304
aV.
aa(lp1305
Vi
aVwanted
p1306
aVone
p1307
aVdownstairs
p1308
aVthat
p1309
aVopened
p1310
aVon
p1311
aVthe
p1312
aVpiazza
p1313
aVand
p1314
aVhad
p1315
aVroses
p1316
aVall
p1317
aVover
p1318
aVthe
p1319
aVwindow
p1320
aV,
aVand
p1321
aVsuch
p1322
aVprett
p1323
aaa(lp1324
(lp1325
Vy
aVold-fashioned
p1326
aVchintz
p1327
aVhangings
p1328
aV!
aa(lp1329
Vbut
p1330
aVjohn
p1331
aVwould
p1332
aVnot
p1333
aVhear
p1334
aVof
p1335
aVit
p1336
aV.
aa(lp1337
Vhe
p1338
aVsaid
p1339
aVthere
p1340
aVwas
p1341
aVonly
p1342
aVone
p1343
aVwindow
p1344
aVand
p1345
aVnot
p1346
aVroom
p1347
aVfor
p1348
aVtwo
p1349
aVbeds
p1350
aV,
aVand
p1351
aVno
p1352
aVnear
p1353
aVroom
p1354
aVfor
p1355
aVhim
p1356
aVif
p1357
aVhe
p1358
aVtook
p1359
aVanother
p1360
aV.
aa(lp1361
Vhe
p1362
aVis
p1363
aVvery
p1364
aVcareful
p1365
aVand
p1366
aVloving
p1367
aV,
aVand
p1368
aVhardly
p1369
aVlets
p1370
aVme
p1371
aVstir
p1372
aVwithout
p1373
aVspecial
p1374
aVdirection
p1375
aV.
aa(lp1376
Vi
aVhave
p1377
aVa
aVschedule
p1378
aVprescription
p1379
aVfor
p1380
aVeach
p1381
aVhour
p1382
aVin
p1383
aVthe
p1384
aVday
p1385
aV;
aVhe
p1386
aVtakes
p1387
aVall
p1388
aVcare
p1389
aVfrom
p1390
aVme
p1391
aV,
aVand
p1392
aVso
p1393
aVi
aVfeel
p1394
aVbasely
p1395
aVungrateful
p1396
aVnot
p1397
aVto
p1398
aVvalue
p1399
aVit
p1400
aVmore
p1401
aV.
aa(lp1402
Vhe
p1403
aVsaid
p1404
aVwe
p1405
aVcame
p1406
aVhere
p1407
aVsolely
p1408
aVon
p1409
aVmy
p1410
aVaccount
p1411
aV,
aVthat
p1412
aVi
aVwas
p1413
aVto
p1414
aVhave
p1415
aVperfect
p1416
aVrest
p1417
aVand
p1418
aVall
p1419
aVthe
p1420
aVair
p1421
aVi
aVcould
p1422
aVget
p1423
aV.
aa(lp1424
V``
p1425
aVyour
p1426
aVexercise
p1427
aVdepends
p1428
aVon
p1429
aVyour
p1430
aVstrength
p1431
aV,
aVmy
p1432
aaa(lp1433
(lp1434
Vrovoke
p1435
aVstudy
p1436
aV,
aVand
p1437
aVwhen
p1438
aVyou
p1439
aVfollow
p1440
aVthe
p1441
aVlame
p1442
aVuncertain
p1443
aVcurves
p1444
aVfor
p1445
aVa
aVlittle
p1446
aVdistance
p1447
aVthey
p1448
aVsuddenly
p1449
aVcommit
p1450
aVsuicide
p1451
aV--
p1452
aVplunge
p1453
aVoff
p1454
aVat
p1455
aVoutrageous
p1456
aVangles
p1457
aV,
aVdestroy
p1458
aVthemselves
p1459
aVin
p1460
aVunheard
p1461
aVof
p1462
aVcontradictions
p1463
aV.
aa(lp1464
Vthe
p1465
aVcolor
p1466
aVis
p1467
aVrepellent
p1468
aV,
aValmost
p1469
aVrevolting
p1470
aV;
aVa
aVsmouldering
p1471
aVunclean
p1472
aVyellow
p1473
aV,
aVstrangely
p1474
aVfaded
p1475
aVby
p1476
aVthe
p1477
aVslow-turning
p1478
aVsunlight
p1479
aV.
aa(lp1480
Vit
p1481
aVis
p1482
aVa
aVdull
p1483
aVyet
p1484
aVlurid
p1485
aVorange
p1486
aVin
p1487
aVsome
p1488
aVplaces
p1489
aV,
aVa
aVsickly
p1490
aVsulphur
p1491
aVtint
p1492
aVin
p1493
aVothers
p1494
aV.
aa(lp1495
Vno
p1496
aVwonder
p1497
aVthe
p1498
aVchildren
p1499
aVhated
p1500
aVit
p1501
aV!
aa(lp1502
Vi
aVshould
p1503
aVhate
p1504
aVit
p1505
aVmyself
p1506
aVif
p1507
aVi
aVhad
p1508
aVto
p1509
aVlive
p1510
aVin
p1511
aVthis
p1512
aVroom
p1513
aVlong
p1514
aV.
aa(lp1515
Vthere
p1516
aVcomes
p1517
aVjohn
p1518
aV,
aVand
p1519
aVi
aVmust
p1520
aVput
p1521
aVthis
p1522
aVaway
p1523
aV,
aV--
p1524
aVhe
p1525
aVhates
p1526
aVto
p1527
aVhave
p1528
aVme
p1529
aVwrite
p1530
aVa
aVword
p1531
aV.
aa(lp1532
Vwe
p1533
aVhave
p1534
aVbeen
p1535
aVhere
p1536
aVtwo
p1537
aVweeks
p1538
aV,
aVand
p1539
aVi
aVhave
p1540
aVn't
p1541
aVfelt
p1542
aVlike
p1543
aVwriting
p1544
aVbefore
p1545
aV,
aVsince
p1546
aVthat
p1547
aVfirst
p1548
aVday
p1549
aV.
aa(lp1550
Vi
aVam
p1551
aVsitting
p1552
aVby
p1553
aVthe
p1554
aVwindow
p1555
aVnow
p1556
aV,
aVup
p1557
aVin
p1558
aVthis
p1559
aVatrocious
p1560
aVnursery
p1561
aV,
aVand
p1562
aVthere
p1563
aVis
p1564
aVnothing
p1565
aVto
p1566
aVhinder
p1567
aVmy
p1568
aVwriting
p1569
aVas
p1570
aVmuch
p1571
aVas
p1572
aVi
aVplease
p1573
aV,
aVsave
p1574
aVlack
p1575
aVof
p1576
aVstrength
p1577
aV.
aa(lp1578
Vjohn
p1579
aVis
p1580
aVaway
p1581
aVall
p1582
aVday
p1583
aV,
aVand
p1584
aVeven
p1585
aVsome
p1586
aVnights
p1587
aVwhen
p1588
aVhis
p1589
aVcases
p1590
aVare
p1591
aVserious
p1592
aV.
aa(lp1593
Vi
aVam
p1594
aVglad
p1595
aVmy
p1596
aVcase
p1597
aVis
p1598
aVnot
p1599
aVserious
p1600
aV!
aa(lp1601
Vbut
p1602
aVthese
p1603
aVnervous
p1604
aVtroubles
p1605
aVare
p1606
aVdreadfully
p1607
aVdepressing
p1608
aV.
aa(lp1609
Vjohn
p1610
aVdoes
p1611
aVnot
p1612
aVknow
p1613
aVhow
p1614
aVmuch
p1615
aVi
aVre
p1616
aaa(lp1617
(lp1618
Vally
p1619
aVsuffer
p1620
aV.
aa(lp1621
Vhe
p1622
aVknows
p1623
aVthere
p1624
aVis
p1625
aVno
p1626
aVreason
p1627
aVto
p1628
aVsuffer
p1629
aV,
aVand
p1630
aVthat
p1631
aVsatisfies
p1632
aVhim
p1633
aV.
aa(lp1634
Vof
p1635
aVcourse
p1636
aVit
p1637
aVis
p1638
aVonly
p1639
aVnervousness
p1640
aV.
aa(lp1641
Vit
p1642
aVdoes
p1643
aVweigh
p1644
aVon
p1645
aVme
p1646
aVso
p1647
aVnot
p1648
aVto
p1649
aVdo
p1650
aVmy
p1651
aVduty
p1652
aVin
p1653
aVany
p1654
aVway
p1655
aV!
aa(lp1656
Vi
aVmeant
p1657
aVto
p1658
aVbe
p1659
aVsuch
p1660
aVa
aVhelp
p1661
aVto
p1662
aVjohn
p1663
aV,
aVsuch
p1664
aVa
aVreal
p1665
aVrest
p1666
aVand
p1667
aVcomfort
p1668
aV,
aVand
p1669
aVhere
p1670
aVi
aVam
p1671
aVa
aVcomparative
p1672
aVburden
p1673
aValready
p1674
aV!
aa(lp1675
Vnobody
p1676
aVwould
p1677
aVbelieve
p1678
aVwhat
p1679
aVan
p1680
aVeffort
p1681
aVit
p1682
aVis
p1683
aVto
p1684
aVdo
p1685
aVwhat
p1686
aVlittle
p1687
aVi
aVam
p1688
aVable
p1689
aV,
aV--
p1690
aVto
p1691
aVdress
p1692
aVand
p1693
aVentertain
p1694
aV,
aVand
p1695
aVorder
p1696
aVthings
p1697
aV.
aa(lp1698
Vit
p1699
aVis
p1700
aVfortunate
p1701
aVmary
p1702
aVis
p1703
aVso
p1704
aVgood
p1705
aVwith
p1706
aVthe
p1707
aVbaby
p1708
aV.
aa(lp1709
Vsuch
p1710
aVa
aVdear
p1711
aVbaby
p1712
aV!
aa(lp1713
Vand
p1714
aVyet
p1715
aVi
aVcan
p1716
aVnot
p1717
aVbe
p1718
aVwith
p1719
aVhim
p1720
aV,
aVit
p1721
aVmakes
p1722
aVme
p1723
aVso
p1724
aVnervous
p1725
aV.
aa(lp1726
Vi
aVsuppose
p1727
aVjohn
p1728
aVnever
p1729
aVwas
p1730
aVnervous
p1731
aVin
p1732
aVhis
p1733
aVlife
p1734
aV.
aa(lp1735
Vhe
p1736
aVlaughs
p1737
aVat
p1738
aVme
p1739
aVso
p1740
aVabout
p1741
aVthis
p1742
aVwall-paper
p1743
aV!
aa(lp1744
Vat
p1745
aVfirst
p1746
aVhe
p1747
aVmeant
p1748
aVto
p1749
aVrepaper
p1750
aVthe
p1751
aVroom
p1752
aV,
aVbut
p1753
aVafterwards
p1754
aVhe
p1755
aVsaid
p1756
aVthat
p1757
aVi
aVwas
p1758
aVletting
p1759
aVit
p1760
aVget
p1761
aVthe
p1762
aVbetter
p1763
aaa(lp1764
(lp1765
Vake
p1766
aVhim
p1767
aVuncomfortable
p1768
aVjust
p1769
aVfor
p1770
aVa
aVwhim
p1771
aV.
aa(lp1772
Vi
aV'm
p1773
aVreally
p1774
aVgetting
p1775
aVquite
p1776
aVfond
p1777
aVof
p1778
aVthe
p1779
aVbig
p1780
aVroom
p1781
aV,
aVall
p1782
aVbut
p1783
aVthat
p1784
aVhorrid
p1785
aVpaper
p1786
aV.
aa(lp1787
Vout
p1788
aVof
p1789
aVone
p1790
aVwindow
p1791
aVi
aVcan
p1792
aVsee
p1793
aVthe
p1794
aVgarden
p1795
aV,
aVthose
p1796
aVmysterious
p1797
aVdeepshaded
p1798
aVarbors
p1799
aV,
aVthe
p1800
aVriotous
p1801
aVold-fashioned
p1802
aVflowers
p1803
aV,
aVand
p1804
aVbushes
p1805
aVand
p1806
aVgnarly
p1807
aVtrees
p1808
aV.
aa(lp1809
Vout
p1810
aVof
p1811
aVanother
p1812
aVi
aVget
p1813
aVa
aVlovely
p1814
aVview
p1815
aVof
p1816
aVthe
p1817
aVbay
p1818
aVand
p1819
aVa
aVlittle
p1820
aVprivate
p1821
aVwharf
p1822
aVbelonging
p1823
aVto
p1824
aVthe
p1825
aVestate
p1826
aV.
aa(lp1827
Vthere
p1828
aVis
p1829
aVa
aVbeautiful
p1830
aVshaded
p1831
aVlane
p1832
aVthat
p1833
aVruns
p1834
aVdown
p1835
aVthere
p1836
aVfrom
p1837
aVthe
p1838
aVhouse
p1839
aV.
aa(lp1840
Vi
aValways
p1841
aVfancy
p1842
aVi
aVsee
p1843
aVpeople
p1844
aVwalking
p1845
aVin
p1846
aVthese
p1847
aVnumerous
p1848
aVpaths
p1849
aVand
p1850
aVarbors
p1851
aV,
aVbut
p1852
aVjohn
p1853
aVhas
p1854
aVcautioned
p1855
aVme
p1856
aVnot
p1857
aVto
p1858
aVgive
p1859
aVway
p1860
aVto
p1861
aVfancy
p1862
aVin
p1863
aVthe
p1864
aVleast
p1865
aV.
aa(lp1866
Vhe
p1867
aVsays
p1868
aVthat
p1869
aVwith
p1870
aVmy
p1871
aVimaginative
p1872
aVpower
p1873
aVand
p1874
aVhabit
p1875
aVof
p1876
aVstory-making
p1877
aV,
aVa
aVnervous
p1878
aVweakness
p1879
aVlike
p1880
aVmine
p1881
aVis
p1882
aVsure
p1883
aVto
p1884
aVlead
p1885
aVto
p1886
aVall
p1887
aVmanner
p1888
aVof
p1889
aVexcited
p1890
aVfancies
p1891
aV,
aVand
p1892
aVthat
p1893
aVi
aVought
p1894
aVto
p1895
aVuse
p1896
aVmy
p1897
aVwill
p1898
aVand
p1899
aVgood
p1900
aVsense
p1901
aVto
p1902
aVcheck
p1903
aVthe
p1904
aVtendency
p1905
aV.
aa(lp1906
Vso
p1907
aVi
aVtry
p1908
aV.
aa(lp1909
Vi
aVthink
p1910
aVsometimes
p1911
aVthat
p1912
aVif
p1913
aVi
aVwere
p1914
aVonly
p1915
aVwell
p1916
aVenough
p1917
aVto
p1918
aVwrite
p1919
aVa
aVlittle
p1920
aVit
p1921
aVwould
p1922
aVrelieve
p1923
aVthe
p1924
aVpress
p1925
aVof
p1926
aVideas
p1927
aVand
p1928
aVrest
p1929
aVme
p1930
aV.
aa(lp1931
Vbut
p1932
aVi
aVfind
p1933
aVi
aVget
p1934
aVpretty
p1935
aVtired
p1936
aVwhen
p1937
aVi
aVtry
p1938
aV.
aa(lp1939
Vit
p1940
aVis
p1941
aVso
p1942
aVdiscouraging
p1943
aVnot
p1944
aVto
p1945
aVhave
p1946
aVany
p1947
aVadvice
p1948
aVand
p1949
aVcompani
p1950
aaa(lp1951
(lp1952
Vonship
p1953
aVabout
p1954
aVmy
p1955
aVwork
p1956
aV.
aa(lp1957
Vwhen
p1958
aVi
aVget
p1959
aVreally
p1960
aVwell
p1961
aV,
aVjohn
p1962
aVsays
p1963
aVwe
p1964
aVwill
p1965
aVask
p1966
aVcousin
p1967
aVhenry
p1968
aVand
p1969
aVjulia
p1970
aVdown
p1971
aVfor
p1972
aVa
aVlong
p1973
aVvisit
p1974
aV;
aVbut
p1975
aVhe
p1976
aVsays
p1977
aVhe
p1978
aVwould
p1979
aVas
p1980
aVsoon
p1981
aVput
p1982
aVfireworks
p1983
aVin
p1984
aVmy
p1985
aVpillow-case
p1986
aVas
p1987
aVto
p1988
aVlet
p1989
aVme
p1990
aVhave
p1991
aVthose
p1992
aVstimulating
p1993
aVpeople
p1994
aVabout
p1995
aVnow
p1996
aV.
aa(lp1997
Vi
aVwish
p1998
aVi
aVcould
p1999
aVget
p2000
aVwell
p2001
aVfaster
p2002
aV.
aa(lp2003
Vbut
p2004
aVi
aVmust
p2005
aVnot
p2006
aVthink
p2007
aVabout
p2008
aVthat
p2009
aV.
aa(lp2010
Vthis
p2011
aVpaper
p2012
aVlooks
p2013
aVto
p2014
aVme
p2015
aVas
p2016
aVif
p2017
aVit
p2018
aVknew
p2019
aVwhat
p2020
aVa
aVvicious
p2021
aVinfluence
p2022
aVit
p2023
aVhad
p2024
aV!
aa(lp2025
Vthere
p2026
aVis
p2027
aVa
aVrecurrent
p2028
aVspot
p2029
aVwhere
p2030
aVthe
p2031
aVpattern
p2032
aVlolls
p2033
aVlike
p2034
aVa
aVbroken
p2035
aVneck
p2036
aVand
p2037
aVtwo
p2038
aVbulbous
p2039
aVeyes
p2040
aVstare
p2041
aVat
p2042
aVyou
p2043
aVupside
p2044
aVdown
p2045
aV.
aa(lp2046
Vi
aVget
p2047
aVpositively
p2048
aVangry
p2049
aVwith
p2050
aVthe
p2051
aVimpertinence
p2052
aVof
p2053
aVit
p2054
aVand
p2055
aVthe
p2056
aVeverlas
p2057
aaa(lp2058
(lp2059
Vnursery
p2060
aVthings
p2061
aVout
p2062
aV,
aVand
p2063
aVno
p2064
aVwonder
p2065
aV!
aa(lp2066
Vi
aVnever
p2067
aVsaw
p2068
aVsuch
p2069
aVravages
p2070
aVas
p2071
aVthe
p2072
aVchildren
p2073
aVhave
p2074
aVmade
p2075
aVhere
p2076
aV.
aa(lp2077
Vthe
p2078
aVwall-paper
p2079
aV,
aVas
p2080
aVi
aVsaid
p2081
aVbefore
p2082
aV,
aVis
p2083
aVtorn
p2084
aVoff
p2085
aVin
p2086
aVspots
p2087
aV,
aVand
p2088
aVit
p2089
aVsticketh
p2090
aVcloser
p2091
aVthan
p2092
aVa
aVbrother
p2093
aV--
p2094
aVthey
p2095
aVmust
p2096
aVhave
p2097
aVhad
p2098
aVperseverance
p2099
aVas
p2100
aVwell
p2101
aVas
p2102
aVhatred
p2103
aV.
aa(lp2104
Vthen
p2105
aVthe
p2106
aVfloor
p2107
aVis
p2108
aVscratched
p2109
aVand
p2110
aVgouged
p2111
aVand
p2112
aVsplintered
p2113
aV,
aVthe
p2114
aVplaster
p2115
aVitself
p2116
aVis
p2117
aVdug
p2118
aVout
p2119
aVhere
p2120
aVand
p2121
aVthere
p2122
aV,
aVand
p2123
aVthis
p2124
aVgreat
p2125
aVheavy
p2126
aVbed
p2127
aVwhich
p2128
aVis
p2129
aVall
p2130
aVwe
p2131
aVfound
p2132
aVin
p2133
aVthe
p2134
aVroom
p2135
aV,
aVlooks
p2136
aVas
p2137
aVif
p2138
aVit
p2139
aVhad
p2140
aVbeen
p2141
aVthrough
p2142
aVthe
p2143
aVwars
p2144
aV.
aa(lp2145
Vbut
p2146
aVi
aVdo
p2147
aVn't
p2148
aVmind
p2149
aVit
p2150
aVa
aVbit
p2151
aV--
p2152
aVonly
p2153
aVthe
p2154
aVpaper
p2155
aV.
aa(lp2156
Vthere
p2157
aVcomes
p2158
aVjohn
p2159
aV's
p2160
aVsister
p2161
aV.
aa(lp2162
Vsuch
p2163
aVa
aVdear
p2164
aVgirl
p2165
aVas
p2166
aVshe
p2167
aVis
p2168
aV,
aVand
p2169
aVso
p2170
aVcareful
p2171
aVof
p2172
aVme
p2173
aV!
aa(lp2174
Vi
aVmust
p2175
aVnot
p2176
aVlet
p2177
aVher
p2178
aVfind
p2179
aVme
p2180
aVwriting
p2181
aV.
aa(lp2182
Vshe
p2183
aVis
p2184
aVa
aVperfect
p2185
aVand
p2186
aVenthusiastic
p2187
aVhousekeeper
p2188
aV,
aVand
p2189
aVhopes
p2190
aVfor
p2191
aVno
p2192
aVbetter
p2193
aVprofession
p2194
aV.
aa(lp2195
Vi
aVverily
p2196
aVbelieve
p2197
aVshe
p2198
aVthinks
p2199
aVit
p2200
aVis
p2201
aVthe
p2202
aVwriting
p2203
aVwhich
p2204
aVmade
p2205
aVme
p2206
aVsick
p2207
aV!
aa(lp2208
Vbut
p2209
aVi
aVcan
p2210
aVwrite
p2211
aVwhen
p2212
aVshe
p2213
aVis
p2214
aVout
p2215
aV,
aVand
p2216
aVsee
p2217
aVher
p2218
aVa
aVlong
p2219
aVway
p2220
aVoff
p2221
aVfrom
p2222
aVthese
p2223
aVwindows
p2224
aV.
aa(lp2225
Vthere
p2226
aVis
p2227
aVone
p2228
aVthat
p2229
aVcommands
p2230
aVthe
p2231
aVroad
p2232
aV,
aVa
aVlovely
p2233
aVshaded
p2234
aVwinding
p2235
aVroad
p2236
aV,
aVand
p2237
aVone
p2238
aVthat
p2239
aVjust
p2240
aVlooks
p2241
aVoff
p2242
aVover
p2243
aVthe
p2244
aVcountry
p2245
aV.
aa(lp2246
Va
aVlovely
p2247
aVcountry
p2248
aV,
aVtoo
p2249
aV,
aVfull
p2250
aVof
p2251
aVgreat
p2252
aVelms
p2253
aVand
p2254
aVvelvet
p2255
aVmeado
p2256
aaa(lp2257
(lp2258
Vws
p2259
aV.
aa(lp2260
Vthis
p2261
aVwall-paper
p2262
aVhas
p2263
aVa
aVkind
p2264
aVof
p2265
aVsub-pattern
p2266
aVin
p2267
aVa
aVdifferent
p2268
aVshade
p2269
aV,
aVa
aVparticularly
p2270
aVirritating
p2271
aVone
p2272
aV,
aVfor
p2273
aVyou
p2274
aVcan
p2275
aVonly
p2276
aVsee
p2277
aVit
p2278
aVin
p2279
aVcertain
p2280
aVlights
p2281
aV,
aVand
p2282
aVnot
p2283
aVclearly
p2284
aVthen
p2285
aV.
aa(lp2286
Vbut
p2287
aVin
p2288
aVthe
p2289
aVplaces
p2290
aVwhere
p2291
aVit
p2292
aVis
p2293
aVn't
p2294
aVfaded
p2295
aVand
p2296
aVwhere
p2297
aVthe
p2298
aVsun
p2299
aVis
p2300
aVjust
p2301
aVso
p2302
aV--
p2303
aVi
aVcan
p2304
aVsee
p2305
aVa
aVstrange
p2306
aV,
aVprovoking
p2307
aV,
aVformless
p2308
aVsort
p2309
aVof
p2310
aVfigure
p2311
aV,
aVthat
p2312
aVseems
p2313
aVto
p2314
aVskulk
p2315
aVabout
p2316
aVbehind
p2317
aVthat
p2318
aVsilly
p2319
aVand
p2320
aVconspicuous
p2321
aVfront
p2322
aVdesign
p2323
aV.
aa(lp2324
Vthere
p2325
aV's
p2326
aVsister
p2327
aVon
p2328
aVthe
p2329
aVstairs
p2330
aV!
aa(lp2331
Vwell
p2332
aV,
aVthe
p2333
aVfourth
p2334
aVof
p2335
aVjuly
p2336
aVis
p2337
aVover
p2338
aV!
aa(lp2339
Vthe
p2340
aVpeople
p2341
aVare
p2342
aVgone
p2343
aVand
p2344
aVi
aVam
p2345
aVtired
p2346
aVout
p2347
aV.
aa(lp2348
Vjohn
p2349
aVthought
p2350
aVit
p2351
aVmight
p2352
aVdo
p2353
aVme
p2354
aVgood
p2355
aVto
p2356
aVsee
p2357
aVa
aVlittle
p2358
aVcompany
p2359
aV,
aVso
p2360
aVwe
p2361
aVjust
p2362
aVhad
p2363
aVmother
p2364
aVand
p2365
aVnellie
p2366
aVand
p2367
aVthe
p2368
aVchildren
p2369
aVdown
p2370
aVfor
p2371
aVa
aVweek
p2372
aV.
aa(lp2373
Vof
p2374
aVcourse
p2375
aVi
aVdid
p2376
aVn't
p2377
aVdo
p2378
aVa
aVthing
p2379
aV.
aa(lp2380
Vjennie
p2381
aVsees
p2382
aVto
p2383
aVeverything
p2384
aVnow
p2385
aV.
aa(lp2386
Vbut
p2387
aVit
p2388
aVtired
p2389
aVme
p2390
aVall
p2391
aVthe
p2392
aVsame
p2393
aV.
aa(lp2394
Vjohn
p2395
aVsays
p2396
aVif
p2397
aVi
aVdo
p2398
aVn't
p2399
aVpick
p2400
aVup
p2401
aVfaster
p2402
aVhe
p2403
aVshall
p2404
aVsend
p2405
aVme
p2406
aVto
p2407
aVweir
p2408
aVmitchell
p2409
aVin
p2410
aVthe
p2411
aVfall
p2412
aV.
aa(lp2413
Vbut
p2414
aVi
aVdo
p2415
aVn't
p2416
aVwant
p2417
aVto
p2418
aVgo
p2419
aVthere
p2420
aVat
p2421
aVall
p2422
aV.
aa(lp2423
Vi
aVhad
p2424
aVa
aVfriend
p2425
aVwho
p2426
aVwas
p2427
aVin
p2428
aVhis
p2429
aVhands
p2430
aVonce
p2431
aV,
aVand
p2432
aVshe
p2433
aVsays
p2434
aVhe
p2435
aVis
p2436
aVjust
p2437
aVlike
p2438
aVjohn
p2439
aVand
p2440
aVmy
p2441
aVbrother
p2442
aV,
aVonly
p2443
aVmore
p2444
aVso
p2445
aV!
aa(lp2446
Vbesides
p2447
aV,
aVit
p2448
aVis
p2449
aVsuch
p2450
aVan
p2451
aVundertaking
p2452
aVto
p2453
aVgo
p2454
aVso
p2455
aVfar
p2456
aV.
aa(lp2457
Vi
aVdon'
p2458
aaa(lp2459
(lp2460
Vt
aVfeel
p2461
aVas
p2462
aVif
p2463
aVit
p2464
aVwas
p2465
aVworth
p2466
aVwhile
p2467
aVto
p2468
aVturn
p2469
aVmy
p2470
aVhand
p2471
aVover
p2472
aVfor
p2473
aVanything
p2474
aV,
aVand
p2475
aVi
aV'm
p2476
aVgetting
p2477
aVdreadfully
p2478
aVfretful
p2479
aVand
p2480
aVquerulous
p2481
aV.
aa(lp2482
Vi
aVcry
p2483
aVat
p2484
aVnothing
p2485
aV,
aVand
p2486
aVcry
p2487
aVmost
p2488
aVof
p2489
aVthe
p2490
aVtime
p2491
aV.
aa(lp2492
Vof
p2493
aVcourse
p2494
aVi
aVdo
p2495
aVn't
p2496
aVwhen
p2497
aVjohn
p2498
aVis
p2499
aVhere
p2500
aV,
aVor
p2501
aVanybody
p2502
aVelse
p2503
aV,
aVbut
p2504
aVwhen
p2505
aVi
aVam
p2506
aValone
p2507
aV.
aa(lp2508
Vand
p2509
aVi
aVam
p2510
aValone
p2511
aVa
aVgood
p2512
aVdeal
p2513
aVjust
p2514
aVnow
p2515
aV.
aa(lp2516
Vjohn
p2517
aVis
p2518
aVkept
p2519
aVin
p2520
aVtown
p2521
aVvery
p2522
aVoften
p2523
aVby
p2524
aVserious
p2525
aVcases
p2526
aV,
aVand
p2527
aVjennie
p2528
aVis
p2529
aVgood
p2530
aVand
p2531
aVlets
p2532
aVme
p2533
aValone
p2534
aVwhen
p2535
aVi
aVwant
p2536
aVher
p2537
aVto
p2538
aV.
aa(lp2539
Vso
p2540
aVi
aVwalk
p2541
aVa
aVlittle
p2542
aVin
p2543
aVthe
p2544
aVgarden
p2545
aVor
p2546
aVdown
p2547
aVthat
p2548
aVlovely
p2549
aVlane
p2550
aV,
aVsit
p2551
aVon
p2552
aVthe
p2553
aVporch
p2554
aVunder
p2555
aVthe
p2556
aVroses
p2557
aV,
aVand
p2558
aVlie
p2559
aVdown
p2560
aVup
p2561
aVhere
p2562
aVa
aVgood
p2563
aVdeal
p2564
aV.
aa(lp2565
Vi
aV'm
p2566
aVgetting
p2567
aVreally
p2568
aVfond
p2569
aVof
p2570
aVthe
p2571
aVroom
p2572
aVin
p2573
aVspite
p2574
aVof
p2575
aVthe
p2576
aVwall-paper
p2577
aV.
aa(lp2578
Vperhaps
p2579
aVbecause
p2580
aVof
p2581
aVthe
p2582
aVwall-paper
p2583
aV.
aa(lp2584
Vit
p2585
aVdwells
p2586
aVin
p2587
aVmy
p2588
aVmind
p2589
aVso
p2590
aV!
aa(lp2591
Vi
aVlie
p2592
aVhere
p2593
aVon
p2594
aVthis
p2595
aVgreat
p2596
aVimmovable
p2597
aVbed
p2598
aV--
p2599
aVit
p2600
aVis
p2601
aVnailed
p2602
aVdown
p2603
aV,
aVi
aVbelieve
p2604
aV--
p2605
aVand
p2606
aVfollow
p2607
aVthat
p2608
aVpattern
p2609
aVabout
p2610
aVby
p2611
aVthe
p2612
aVhour
p2613
aV.
aa(lp2614
Vit
p2615
aVis
p2616
aVas
p2617
aVgood
p2618
aVas
p2619
aVgymnastics
p2620
aV,
aaa(lp2621
(lp2622
Vr
aVa
aVfrieze
p2623
aV,
aVand
p2624
aVthat
p2625
aVadds
p2626
aVwonderfully
p2627
aVto
p2628
aVthe
p2629
aVconfusion
p2630
aV.
aa(lp2631
Vthere
p2632
aVis
p2633
aVone
p2634
aVend
p2635
aVof
p2636
aVthe
p2637
aVroom
p2638
aVwhere
p2639
aVit
p2640
aVis
p2641
aValmost
p2642
aVintact
p2643
aV,
aVand
p2644
aVthere
p2645
aV,
aVwhen
p2646
aVthe
p2647
aVcrosslights
p2648
aVfade
p2649
aVand
p2650
aVthe
p2651
aVlow
p2652
aVsun
p2653
aVshines
p2654
aVdirectly
p2655
aVupon
p2656
aVit
p2657
aV,
aVi
aVcan
p2658
aValmost
p2659
aVfancy
p2660
aVradiation
p2661
aVafter
p2662
aVall
p2663
aV,
aV--
p2664
aVthe
p2665
aVinterminable
p2666
aVgrotesques
p2667
aVseem
p2668
aVto
p2669
aVform
p2670
aVaround
p2671
aVa
aVcommon
p2672
aVcentre
p2673
aVand
p2674
aVrush
p2675
aVoff
p2676
aVin
p2677
aVheadlong
p2678
aVplunges
p2679
aVof
p2680
aVequal
p2681
aVdistraction
p2682
aV.
aa(lp2683
Vit
p2684
aVmakes
p2685
aVme
p2686
aVtired
p2687
aVto
p2688
aVfollow
p2689
aVit
p2690
aV.
aa(lp2691
Vi
aVwill
p2692
aVtake
p2693
aVa
aVnap
p2694
aVi
aVguess
p2695
aV.
aa(lp2696
Vi
aVdo
p2697
aVn't
p2698
aVknow
p2699
aVwhy
p2700
aVi
aVshould
p2701
aVwrite
p2702
aVthis
p2703
aV.
aa(lp2704
Vi
aVdo
p2705
aVn't
p2706
aVwant
p2707
aVto
p2708
aV.
aa(lp2709
Vi
aVdo
p2710
aVn't
p2711
aVfeel
p2712
aVable
p2713
aV.
aa(lp2714
Vand
p2715
aVi
aVknow
p2716
aVjohn
p2717
aVwould
p2718
aVthink
p2719
aVit
p2720
aVabsurd
p2721
aV.
aa(lp2722
Vbut
p2723
aVi
aVmust
p2724
aVsay
p2725
aVwhat
p2726
aVi
aVfeel
p2727
aVand
p2728
aVthink
p2729
aVin
p2730
aVsome
p2731
aVway
p2732
aV--
p2733
aVit
p2734
aVis
p2735
aVsuch
p2736
aVa
aVrelief
p2737
aV!
aa(lp2738
Vbut
p2739
aVthe
p2740
aVeffort
p2741
aVis
p2742
aVgetting
p2743
aVto
p2744
aVbe
p2745
aVgreater
p2746
aVthan
p2747
aVthe
p2748
aVrelief
p2749
aV.
aa(lp2750
Vhalf
p2751
aVthe
p2752
aVtime
p2753
aVnow
p2754
aVi
aVam
p2755
aVawfully
p2756
aVlazy
p2757
aV,
aVand
p2758
aVlie
p2759
aVdown
p2760
aVever
p2761
aVso
p2762
aVmuch
p2763
aV.
aa(lp2764
Vjohn
p2765
aVsays
p2766
aVi
aVmus
p2767
aVn't
p2768
aVlose
p2769
aVmy
p2770
aVstrength
p2771
aV,
aVand
p2772
aVhas
p2773
aVme
p2774
aVtake
p2775
aVcod
p2776
aVliver
p2777
aVoil
p2778
aVand
p2779
aVlots
p2780
aVof
p2781
aVtonics
p2782
aVand
p2783
aVthings
p2784
aV,
aVto
p2785
aVsay
p2786
aVnothing
p2787
aVof
p2788
aVale
p2789
aVand
p2790
aVwine
p2791
aVand
p2792
aVrare
p2793
aVmeat
p2794
aV.
aa(lp2795
Vdear
p2796
aVjohn
p2797
aV!
aa(lp2798
Vhe
p2799
aVloves
p2800
aVme
p2801
aVvery
p2802
aVdearly
p2803
aV,
aVand
p2804
aVhates
p2805
aVto
p2806
aVhave
p2807
aVme
p2808
aVsick
p2809
aV.
aa(lp2810
Vi
aVtried
p2811
aVto
p2812
aVhave
p2813
aVa
aVreal
p2814
aVearnest
p2815
aVreasonable
p2816
aVtalk
p2817
aVwith
p2818
aVhim
p2819
aVthe
p2820
aVother
p2821
aVday
p2822
aV,
aVan
p2823
aaa(lp2824
(lp2825
Vd
aVtell
p2826
aVhim
p2827
aVhow
p2828
aVi
aVwish
p2829
aVhe
p2830
aVwould
p2831
aVlet
p2832
aVme
p2833
aVgo
p2834
aVand
p2835
aVmake
p2836
aVa
aVvisit
p2837
aVto
p2838
aVcousin
p2839
aVhenry
p2840
aVand
p2841
aVjulia
p2842
aV.
aa(lp2843
Vbut
p2844
aVhe
p2845
aVsaid
p2846
aVi
aVwas
p2847
aVn't
p2848
aVable
p2849
aVto
p2850
aVgo
p2851
aV,
aVnor
p2852
aVable
p2853
aVto
p2854
aVstand
p2855
aVit
p2856
aVafter
p2857
aVi
aVgot
p2858
aVthere
p2859
aV;
aVand
p2860
aVi
aVdid
p2861
aVnot
p2862
aVmake
p2863
aVout
p2864
aVa
aVvery
p2865
aVgood
p2866
aVcase
p2867
aVfor
p2868
aVmyself
p2869
aV,
aVfor
p2870
aVi
aVwas
p2871
aVcrying
p2872
aVbefore
p2873
aVi
aVhad
p2874
aVfinished
p2875
aV.
aa(lp2876
Vit
p2877
aVis
p2878
aVgetting
p2879
aVto
p2880
aVbe
p2881
aVa
aVgreat
p2882
aVeffort
p2883
aVfor
p2884
aVme
p2885
aVto
p2886
aVthink
p2887
aVstraight
p2888
aV.
aa(lp2889
Vjust
p2890
aVthis
p2891
aVnervous
p2892
aVweakness
p2893
aVi
aVsuppose
p2894
aV.
aa(lp2895
Vand
p2896
aVdear
p2897
aVjohn
p2898
aVgathered
p2899
aVme
p2900
aVup
p2901
aVin
p2902
aVhis
p2903
aVarms
p2904
aV,
aVand
p2905
aVjust
p2906
aVcarried
p2907
aVme
p2908
aVupstairs
p2909
aVand
p2910
aVlaid
p2911
aVme
p2912
aVon
p2913
aVthe
p2914
aVbed
p2915
aV,
aVand
p2916
aVsat
p2917
aVby
p2918
aVme
p2919
aVand
p2920
aVread
p2921
aVto
p2922
aVme
p2923
aVtill
p2924
aVit
p2925
aVtired
p2926
aVmy
p2927
aVhead
p2928
aV.
aa(lp2929
Vhe
p2930
aVsaid
p2931
aVi
aVwas
p2932
aVhis
p2933
aVdarling
p2934
aVand
p2935
aVhis
p2936
aVcomfort
p2937
aVand
p2938
aVall
p2939
aVhe
p2940
aVhad
p2941
aV,
aVand
p2942
aVthat
p2943
aVi
aVmust
p2944
aVtake
p2945
aVcare
p2946
aVof
p2947
aVmyself
p2948
aVfor
p2949
aVhis
p2950
aVsake
p2951
aV,
aVand
p2952
aVkeep
p2953
aVwell
p2954
aV.
aa(lp2955
Vhe
p2956
aVsays
p2957
aVno
p2958
aVone
p2959
aVbut
p2960
aVmyself
p2961
aVcan
p2962
aVhelp
p2963
aVme
p2964
aVout
p2965
aVof
p2966
aVit
p2967
aV,
aVthat
p2968
aVi
aVmust
p2969
aVuse
p2970
aVmy
p2971
aVwill
p2972
aVand
p2973
aVself-control
p2974
aVand
p2975
aVnot
p2976
aVlet
p2977
aVany
p2978
aVsilly
p2979
aVfancies
p2980
aVrun
p2981
aVaway
p2982
aVwith
p2983
aVme
p2984
aV.
aa(lp2985
Vthere
p2986
aV's
p2987
aVone
p2988
aVcomfort
p2989
aV,
aVthe
p2990
aVbaby
p2991
aVis
p2992
aVwell
p2993
aVand
p2994
aVhappy
p2995
aV,
aVand
p2996
aVdoes
p2997
aVnot
p2998
aVhave
p2999
aVto
p3000
aVoccupy
p3001
aVthis
p3002
aVnursery
p3003
aVwith
p3004
aVthe
p3005
aVhor
p3006
aaa(lp3007
(lp3008
Vrid
p3009
aVwall-paper
p3010
aV.
aa(lp3011
Vif
p3012
aVwe
p3013
aVhad
p3014
aVnot
p3015
aVused
p3016
aVit
p3017
aV,
aVthat
p3018
aVblessed
p3019
aVchild
p3020
aVwould
p3021
aVhave
p3022
aV!
aa(lp3023
Vwhat
p3024
aVa
aVfortunate
p3025
aVescape
p3026
aV!
aa(lp3027
Vwhy
p3028
aV,
aVi
aVwould
p3029
aVn't
p3030
aVhave
p3031
aVa
aVchild
p3032
aVof
p3033
aVmine
p3034
aV,
aVan
p3035
aVimpressionable
p3036
aVlittle
p3037
aVthing
p3038
aV,
aVlive
p3039
aVin
p3040
aVsuch
p3041
aVa
aVroom
p3042
aVfor
p3043
aVworlds
p3044
aV.
aa(lp3045
Vi
aVnever
p3046
aVthought
p3047
aVof
p3048
aVit
p3049
aVbefore
p3050
aV,
aVbut
p3051
aVit
p3052
aVis
p3053
aVlucky
p3054
aVthat
p3055
aVjohn
p3056
aVkept
p3057
aVme
p3058
aVhere
p3059
aVafter
p3060
aVall
p3061
aV,
aVi
aVcan
p3062
aVstand
p3063
aVit
p3064
aVso
p3065
aVmuch
p3066
aVeasier
p3067
aVthan
p3068
aVa
aVbaby
p3069
aV,
aVyou
p3070
aVsee
p3071
aV.
aa(lp3072
Vof
p3073
aVcourse
p3074
aVi
aVnever
p3075
aVmention
p3076
aVit
p3077
aVto
p3078
aVthem
p3079
aVany
p3080
aVmore
p3081
aV--
p3082
aVi
aVam
p3083
aVtoo
p3084
aVwise
p3085
aV,
aV--
p3086
aVbut
p3087
aVi
aVkeep
p3088
aVwatch
p3089
aVof
p3090
aVit
p3091
aVall
p3092
aVthe
p3093
aVsame
p3094
aV.
aa(lp3095
Vthere
p3096
aVare
p3097
aVthings
p3098
aVin
p3099
aVthat
p3100
aVpaper
p3101
aVthat
p3102
aVnobody
p3103
aVknows
p3104
aVbut
p3105
aVme
p3106
aV,
aVor
p3107
aVever
p3108
aVwill
p3109
aV.
aa(lp3110
Vbehind
p3111
aVthat
p3112
aVoutside
p3113
aVpattern
p3114
aVthe
p3115
aVdim
p3116
aVshapes
p3117
aVget
p3118
aVclearer
p3119
aVevery
p3120
aVday
p3121
aV.
aa(lp3122
Vit
p3123
aVis
p3124
aValways
p3125
aVthe
p3126
aVsame
p3127
aVshape
p3128
aV,
aVonly
p3129
aVvery
p3130
aVnumerous
p3131
aV.
aa(lp3132
Vand
p3133
aVit
p3134
aVis
p3135
aVlike
p3136
aVa
aVwoman
p3137
aVstooping
p3138
aVdown
p3139
aVand
p3140
aVcreeping
p3141
aVabout
p3142
aVbehind
p3143
aVthat
p3144
aVpattern
p3145
aV.
aa(lp3146
Vi
aVdo
p3147
aVn't
p3148
aVlike
p3149
aVit
p3150
aVa
aVbit
p3151
aV.
aa(lp3152
Vi
aVwonder
p3153
aV--
p3154
aVi
aVbegin
p3155
aVto
p3156
aVthink
p3157
aV--
p3158
aVi
aVwi
p3159
aaa(lp3160
(lp3161
Vsh
p3162
aVjohn
p3163
aVwould
p3164
aVtake
p3165
aVme
p3166
aVaway
p3167
aVfrom
p3168
aVhere
p3169
aV!
aa(lp3170
Vit
p3171
aVis
p3172
aVso
p3173
aVhard
p3174
aVto
p3175
aVtalk
p3176
aVwith
p3177
aVjohn
p3178
aVabout
p3179
aVmy
p3180
aVcase
p3181
aV,
aVbecause
p3182
aVhe
p3183
aVis
p3184
aVso
p3185
aVwise
p3186
aV,
aVand
p3187
aVbecause
p3188
aVhe
p3189
aVloves
p3190
aVme
p3191
aVso
p3192
aV.
aa(lp3193
Vbut
p3194
aVi
aVtried
p3195
aVit
p3196
aVlast
p3197
aVnight
p3198
aV.
aa(lp3199
Vit
p3200
aVwas
p3201
aVmoonlight
p3202
aV.
aa(lp3203
Vthe
p3204
aVmoon
p3205
aVshines
p3206
aVin
p3207
aVall
p3208
aVaround
p3209
aVjust
p3210
aVas
p3211
aVthe
p3212
aVsun
p3213
aVdoes
p3214
aV.
aa(lp3215
Vi
aVhate
p3216
aVto
p3217
aVsee
p3218
aVit
p3219
aVsometimes
p3220
aV,
aVit
p3221
aVcreeps
p3222
aVso
p3223
aVslowly
p3224
aV,
aVand
p3225
aValways
p3226
aVcomes
p3227
aVin
p3228
aVby
p3229
aVone
p3230
aVwindow
p3231
aVor
p3232
aVanother
p3233
aV.
aa(lp3234
Vjohn
p3235
aVwas
p3236
aVasleep
p3237
aVand
p3238
aVi
aVhated
p3239
aVto
p3240
aVwaken
p3241
aVhim
p3242
aV,
aVso
p3243
aVi
aVkept
p3244
aVstill
p3245
aVand
p3246
aVwatched
p3247
aVthe
p3248
aVmoonlight
p3249
aVon
p3250
aVthat
p3251
aVundulating
p3252
aVwall-paper
p3253
aVtill
p3254
aVi
aVfelt
p3255
aVcreepy
p3256
aV.
aa(lp3257
Vthe
p3258
aVfaint
p3259
aVfigure
p3260
aVbehind
p3261
aVseemed
p3262
aVto
p3263
aVshake
p3264
aVthe
p3265
aVpattern
p3266
aV,
aVjust
p3267
aVas
p3268
aVif
p3269
aVshe
p3270
aVwanted
p3271
aVto
p3272
aVget
p3273
aVout
p3274
aV.
aa(lp3275
Vi
aVgot
p3276
aVup
p3277
aVsoftly
p3278
aVand
p3279
aVwent
p3280
aVto
p3281
aVfeel
p3282
aVand
p3283
aVsee
p3284
aVif
p3285
aVthe
p3286
aVpaper
p3287
aVdid
p3288
aVmove
p3289
aV,
aVand
p3290
aVwhen
p3291
aVi
aVcame
p3292
aVback
p3293
aVjohn
p3294
aVwas
p3295
aVawake
p3296
aV.
aa(lp3297
V``
p3298
aVwhat
p3299
aVis
p3300
aVit
p3301
aV,
aVlittle
p3302
aVgirl
p3303
aV?
aV''
p3304
aa(lp3305
Vhe
p3306
aVsaid
p3307
aV.
aa(lp3308
V``
p3309
aVdo
p3310
aVn't
p3311
aVgo
p3312
aVwalking
p3313
aVabout
p3314
aVlike
p3315
aVthat
p3316
aV--
p3317
aVyou
p3318
aV'll
p3319
aVget
p3320
aVcold
p3321
aV.
aV''
p3322
aa(lp3323
Vi
aVthough
p3324
aVit
p3325
aVwas
p3326
aVa
aVgood
p3327
aVtime
p3328
aVto
p3329
aVtalk
p3330
aV,
aVso
p3331
aVi
aVtold
p3332
aVhim
p3333
aVthat
p3334
aVi
aVreally
p3335
aVwas
p3336
aVnot
p3337
aVgaining
p3338
aVhere
p3339
aV,
aVan
p3340
aaa(lp3341
(lp3342
Vaper
p3343
aV.
aa(lp3344
Vat
p3345
aVnight
p3346
aVin
p3347
aVany
p3348
aVkind
p3349
aVof
p3350
aVlight
p3351
aV,
aVin
p3352
aVtwilight
p3353
aV,
aVcandle
p3354
aVlight
p3355
aV,
aVlamplight
p3356
aV,
aVand
p3357
aVworst
p3358
aVof
p3359
aVall
p3360
aVby
p3361
aVmoonlight
p3362
aV,
aVit
p3363
aVbecomes
p3364
aVbars
p3365
aV!
aa(lp3366
Vthe
p3367
aVoutside
p3368
aVpattern
p3369
aVi
aVmean
p3370
aV,
aVand
p3371
aVthe
p3372
aVwoman
p3373
aVbehind
p3374
aVit
p3375
aVis
p3376
aVas
p3377
aVplain
p3378
aVas
p3379
aVcan
p3380
aVbe
p3381
aV.
aa(lp3382
Vi
aVdid
p3383
aVn't
p3384
aVrealize
p3385
aVfor
p3386
aVa
aVlong
p3387
aVtime
p3388
aVwhat
p3389
aVthe
p3390
aVthing
p3391
aVwas
p3392
aVthat
p3393
aVshowed
p3394
aVbehind
p3395
aV,
aVthat
p3396
aVdim
p3397
aVsub-pattern
p3398
aV,
aVbut
p3399
aVnow
p3400
aVi
aVam
p3401
aVquite
p3402
aVsure
p3403
aVit
p3404
aVis
p3405
aVa
aVwoman
p3406
aV.
aa(lp3407
Vby
p3408
aVdaylight
p3409
aVshe
p3410
aVis
p3411
aVsubdued
p3412
aV,
aVquiet
p3413
aV.
aa(lp3414
Vi
aVfancy
p3415
aVit
p3416
aVis
p3417
aVthe
p3418
aVpattern
p3419
aVthat
p3420
aVkeeps
p3421
aVher
p3422
aVso
p3423
aVstill
p3424
aV.
aa(lp3425
Vit
p3426
aVis
p3427
aVso
p3428
aVpuzzling
p3429
aV.
aa(lp3430
Vit
p3431
aVkeeps
p3432
aVme
p3433
aVquiet
p3434
aVby
p3435
aVthe
p3436
aVhour
p3437
aV.
aa(lp3438
Vi
aVlie
p3439
aVdown
p3440
aVever
p3441
aVso
p3442
aVmuch
p3443
aVnow
p3444
aV.
aa(lp3445
Vjohn
p3446
aVsays
p3447
aVit
p3448
aVis
p3449
aVgood
p3450
aVfor
p3451
aVme
p3452
aV,
aVand
p3453
aVto
p3454
aVsleep
p3455
aVall
p3456
aVi
aVcan
p3457
aV.
aa(lp3458
Vindeed
p3459
aVhe
p3460
aVstarted
p3461
aVthe
p3462
aVhabit
p3463
aVby
p3464
aVmaking
p3465
aVme
p3466
aVlie
p3467
aVdown
p3468
aVfor
p3469
aVan
p3470
aVhour
p3471
aVafter
p3472
aVeach
p3473
aVmeal
p3474
aV.
aa(lp3475
Vit
p3476
aVis
p3477
aVa
aVvery
p3478
aVbad
p3479
aVhabit
p3480
aVi
aVam
p3481
aVconvinced
p3482
aV,
aVfor
p3483
aVyou
p3484
aVsee
p3485
aVi
aVdo
p3486
aVn't
p3487
aVsleep
p3488
aV.
aa(lp3489
Vand
p3490
aVthat
p3491
aVcultivates
p3492
aVdeceit
p3493
aV,
aVfor
p3494
aVi
aVdo
p3495
aVn't
p3496
aVtell
p3497
aVthem
p3498
aVi
aV'm
p3499
aVawake
p3500
aV--
p3501
aVo
aVno
p3502
aV!
aa(lp3503
Vthe
p3504
aVfact
p3505
aVis
p3506
aVi
aVam
p3507
aVgetting
p3508
aVa
aVlittle
p3509
aVafraid
p3510
aVof
p3511
aVjohn
p3512
aV.
aa(lp3513
Vhe
p3514
aVseems
p3515
aVvery
p3516
aVqueer
p3517
aVsometimes
p3518
aV,
aVand
p3519
aVeven
p3520
aVjennie
p3521
aVhas
p3522
aVan
p3523
aVinexplicable
p3524
aVlook
p3525
aV.
aa(lp3526
Vit
p3527
aVstrikes
p3528
aVme
p3529
aVoccasionally
p3530
aV,
aVjust
p3531
aVas
p3532
aVa
aVscientific
p3533
aVhypothesis
p3534
aV,
aV--
p3535
aVthat
p3536
aVperhaps
p3537
aVit
p3538
aVis
p3539
aVthe
p3540
aVpaper
p3541
aV!
aa(lp3542
Vi
aVhave
p3543
aVwatched
p3544
aVjo
p3545
aaa(lp3546
(lp3547
Vhim
p3548
aVseveral
p3549
aVtimes
p3550
aVlooking
p3551
aVat
p3552
aVthe
p3553
aVpaper
p3554
aV!
aa(lp3555
Vand
p3556
aVjennie
p3557
aVtoo
p3558
aV.
aa(lp3559
Vi
aVcaught
p3560
aVjennie
p3561
aVwith
p3562
aVher
p3563
aVhand
p3564
aVon
p3565
aVit
p3566
aVonce
p3567
aV.
aa(lp3568
Vshe
p3569
aVdid
p3570
aVn't
p3571
aVknow
p3572
aVi
aVwas
p3573
aVin
p3574
aVthe
p3575
aVroom
p3576
aV,
aVand
p3577
aVwhen
p3578
aVi
aVasked
p3579
aVher
p3580
aVin
p3581
aVa
aVquiet
p3582
aV,
aVa
aVvery
p3583
aVquiet
p3584
aVvoice
p3585
aV,
aVwith
p3586
aVthe
p3587
aVmost
p3588
aVrestrained
p3589
aVmanner
p3590
aVpossible
p3591
aV,
aVwhat
p3592
aVshe
p3593
aVwas
p3594
aVdoing
p3595
aVwith
p3596
aVthe
p3597
aVpaper
p3598
aV--
p3599
aVshe
p3600
aVturned
p3601
aVaround
p3602
aVas
p3603
aVif
p3604
aVshe
p3605
aVhad
p3606
aVbeen
p3607
aVcaught
p3608
aVstealing
p3609
aV,
aVand
p3610
aVlooked
p3611
aVquite
p3612
aVangry
p3613
aV--
p3614
aVasked
p3615
aVme
p3616
aVwhy
p3617
aVi
aVshould
p3618
aVfrighten
p3619
aVher
p3620
aVso
p3621
aV!
aa(lp3622
Vthen
p3623
aVshe
p3624
aVsaid
p3625
aVthat
p3626
aVthe
p3627
aVpaper
p3628
aVstained
p3629
aVeverything
p3630
aVit
p3631
aVtouched
p3632
aV,
aVthat
p3633
aVshe
p3634
aVhad
p3635
aVfound
p3636
aVyellow
p3637
aVsmooches
p3638
aVon
p3639
aVall
p3640
aVmy
p3641
aVclothes
p3642
aVand
p3643
aVjohn
p3644
aV's
p3645
aV,
aVand
p3646
aVshe
p3647
aVwished
p3648
aVwe
p3649
aVwould
p3650
aVbe
p3651
aVmore
p3652
aVcareful
p3653
aV!
aa(lp3654
Vdid
p3655
aVnot
p3656
aVthat
p3657
aVsound
p3658
aVinnocent
p3659
aV?
aa(lp3660
Vbut
p3661
aVi
aVknow
p3662
aVshe
p3663
aVwas
p3664
aVstudying
p3665
aVthat
p3666
aVpattern
p3667
aV,
aVand
p3668
aVi
aVam
p3669
aVdetermined
p3670
aVthat
p3671
aVnobody
p3672
aVshall
p3673
aVfind
p3674
aVit
p3675
aVout
p3676
aVbut
p3677
aVmyself
p3678
aV!
aa(lp3679
Vlife
p3680
aVis
p3681
aVvery
p3682
aVmuch
p3683
aVmore
p3684
aVexciting
p3685
aVnow
p3686
aVthan
p3687
aVit
p3688
aVused
p3689
aVto
p3690
aVbe
p3691
aV.
aa(lp3692
Vyou
p3693
aVsee
p3694
aVi
aVhave
p3695
aVsomething
p3696
aVmore
p3697
aVto
p3698
aVexpect
p3699
aV,
aVto
p3700
aVlook
p3701
aVforward
p3702
aVto
p3703
aV,
aVto
p3704
aVwatch
p3705
aV.
aa(lp3706
Vi
aVreally
p3707
aVdo
p3708
aVeat
p3709
aVbetter
p3710
aV,
aVand
p3711
aVam
p3712
aVmore
p3713
aVquiet
p3714
aVthan
p3715
aVi
aVwas
p3716
aV.
aa(lp3717
Vjohn
p3718
aVis
p3719
aVso
p3720
aVpleased
p3721
aVto
p3722
aVsee
p3723
aVme
p3724
aVimprove
p3725
aV!
aa(lp3726
Vhe
p3727
aVlaughed
p3728
aVa
aVlittle
p3729
aVthe
p3730
aVother
p3731
aVday
p3732
aV,
aVand
p3733
aVsaid
p3734
aVi
aVseemed
p3735
aVto
p3736
aVbe
p3737
aVflourishing
p3738
aVin
p3739
aVspite
p3740
aVof
p3741
aVmy
p3742
aVwall-paper
p3743
aV.
aaa(lp3744
(lp3745
Ve
aV!
aa(lp3746
Vand
p3747
aVi
aV'll
p3748
aVtell
p3749
aVyou
p3750
aVwhy
p3751
aV--
p3752
aVprivately
p3753
aV--
p3754
aVi
aV've
p3755
aVseen
p3756
aVher
p3757
aV!
aa(lp3758
Vi
aVcan
p3759
aVsee
p3760
aVher
p3761
aVout
p3762
aVof
p3763
aVevery
p3764
aVone
p3765
aVof
p3766
aVmy
p3767
aVwindows
p3768
aV!
aa(lp3769
Vit
p3770
aVis
p3771
aVthe
p3772
aVsame
p3773
aVwoman
p3774
aV,
aVi
aVknow
p3775
aV,
aVfor
p3776
aVshe
p3777
aVis
p3778
aValways
p3779
aVcreeping
p3780
aV,
aVand
p3781
aVmost
p3782
aVwomen
p3783
aVdo
p3784
aVnot
p3785
aVcreep
p3786
aVby
p3787
aVdaylight
p3788
aV.
aa(lp3789
Vi
aVsee
p3790
aVher
p3791
aVon
p3792
aVthat
p3793
aVlong
p3794
aVroad
p3795
aVunder
p3796
aVthe
p3797
aVtrees
p3798
aV,
aVcreeping
p3799
aValong
p3800
aV,
aVand
p3801
aVwhen
p3802
aVa
aVcarriage
p3803
aVcomes
p3804
aVshe
p3805
aVhides
p3806
aVunder
p3807
aVthe
p3808
aVblackberry
p3809
aVvines
p3810
aV.
aa(lp3811
Vi
aVdo
p3812
aVn't
p3813
aVblame
p3814
aVher
p3815
aVa
aVbit
p3816
aV.
aa(lp3817
Vit
p3818
aVmust
p3819
aVbe
p3820
aVvery
p3821
aVhumiliating
p3822
aVto
p3823
aVbe
p3824
aVcaught
p3825
aVcreeping
p3826
aVby
p3827
aVdaylight
p3828
aV!
aa(lp3829
Vi
aValways
p3830
aVlock
p3831
aVthe
p3832
aVdoor
p3833
aVwhen
p3834
aVi
aVcreep
p3835
aVby
p3836
aVdaylight
p3837
aV.
aa(lp3838
Vi
aVca
p3839
aVn't
p3840
aVdo
p3841
aVit
p3842
aVat
p3843
aVnight
p3844
aV,
aVfor
p3845
aVi
aVknow
p3846
aVjohn
p3847
aVwould
p3848
aVsuspect
p3849
aVsomething
p3850
aVat
p3851
aVonce
p3852
aV.
aa(lp3853
Vand
p3854
aVjohn
p3855
aVis
p3856
aVso
p3857
aVqueer
p3858
aVnow
p3859
aV,
aVthat
p3860
aVi
aVdo
p3861
aVn't
p3862
aVwant
p3863
aVto
p3864
aVirritate
p3865
aVhim
p3866
aV.
aa(lp3867
Vi
aVwish
p3868
aVhe
p3869
aVwould
p3870
aVtake
p3871
aVanother
p3872
aVroom
p3873
aV!
aa(lp3874
Vbesides
p3875
aV,
aVi
aVdo
p3876
aVn't
p3877
aVwant
p3878
aVanybody
p3879
aVto
p3880
aVget
p3881
aVthat
p3882
aVwoman
p3883
aVout
p3884
aVat
p3885
aVnight
p3886
aVbut
p3887
aVmyself
p3888
aV.
aa(lp3889
Vi
aVoften
p3890
aVwonder
p3891
aVif
p3892
aVi
aVcould
p3893
aVsee
p3894
aVher
p3895
aVout
p3896
aVof
p3897
aVall
p3898
aVthe
p3899
aVwindows
p3900
aVat
p3901
aVonce
p3902
aV.
aa(lp3903
Vbut
p3904
aV,
aVturn
p3905
aVas
p3906
aVfast
p3907
aVas
p3908
aVi
aVcan
p3909
aV,
aVi
aVcan
p3910
aVonly
p3911
aVsee
p3912
aVout
p3913
aVof
p3914
aVone
p3915
aVat
p3916
aVone
p3917
aVtime
p3918
aV.
aa(lp3919
Vand
p3920
aVthough
p3921
aVi
aValways
p3922
aVsee
p3923
aVher
p3924
aV,
aVshe
p3925
aVmay
p3926
aVbe
p3927
aVable
p3928
aVto
p3929
aVcreep
p3930
aVfaster
p3931
aVthan
p3932
aVi
aVcan
p3933
aVturn
p3934
aV!
aa(lp3935
Vi
aVhave
p3936
aVwatched
p3937
aVher
p3938
aVsometimes
p3939
aVaway
p3940
aVoff
p3941
aVin
p3942
aVthe
p3943
aVopen
p3944
aVcountry
p3945
aV,
aVcreeping
p3946
aVas
p3947
aVfast
p3948
aVas
p3949
aVa
aaa(lp3950
(lp3951
Vcloud
p3952
aVshadow
p3953
aVin
p3954
aVa
aVhigh
p3955
aVwind
p3956
aV.
aa(lp3957
Vif
p3958
aVonly
p3959
aVthat
p3960
aVtop
p3961
aVpattern
p3962
aVcould
p3963
aVbe
p3964
aVgotten
p3965
aVoff
p3966
aVfrom
p3967
aVthe
p3968
aVunder
p3969
aVone
p3970
aV!
aa(lp3971
Vi
aVmean
p3972
aVto
p3973
aVtry
p3974
aVit
p3975
aV,
aVlittle
p3976
aVby
p3977
aVlittle
p3978
aV.
aa(lp3979
Vi
aVhave
p3980
aVfound
p3981
aVout
p3982
aVanother
p3983
aVfunny
p3984
aVthing
p3985
aV,
aVbut
p3986
aVi
aVsha
p3987
aVn't
p3988
aVtell
p3989
aVit
p3990
aVthis
p3991
aVtime
p3992
aV!
aa(lp3993
Vit
p3994
aVdoes
p3995
aVnot
p3996
aVdo
p3997
aVto
p3998
aVtrust
p3999
aVpeople
p4000
aVtoo
p4001
aVmuch
p4002
aV.
aa(lp4003
Vthere
p4004
aVare
p4005
aVonly
p4006
aVtwo
p4007
aVmore
p4008
aVdays
p4009
aVto
p4010
aVget
p4011
aVthis
p4012
aVpaper
p4013
aVoff
p4014
aV,
aVand
p4015
aVi
aVbelieve
p4016
aVjohn
p4017
aVis
p4018
aVbeginning
p4019
aVto
p4020
aVnotice
p4021
aV.
aa(lp4022
Vi
aVdo
p4023
aVn't
p4024
aVlike
p4025
aVthe
p4026
aVlook
p4027
aVin
p4028
aVhis
p4029
aVeyes
p4030
aV.
aa(lp4031
Vand
p4032
aVi
aVheard
p4033
aVhim
p4034
aVask
p4035
aVjennie
p4036
aVa
aVlot
p4037
aVof
p4038
aVprofessional
p4039
aVquestions
p4040
aVabout
p4041
aVme
p4042
aV.
aa(lp4043
Vshe
p4044
aVhad
p4045
aVa
aVvery
p4046
aVgood
p4047
aVreport
p4048
aVto
p4049
aVgive
p4050
aV.
aa(lp4051
Vshe
p4052
aVsaid
p4053
aVi
aVslept
p4054
aVa
aVgood
p4055
aVdeal
p4056
aVin
p4057
aVthe
p4058
aVdaytime
p4059
aV.
aa(lp4060
Vjohn
p4061
aVknows
p4062
aVi
aVdo
p4063
aVn't
p4064
aVsleep
p4065
aVvery
p4066
aVwell
p4067
aVat
p4068
aVnight
p4069
aV,
aVfor
p4070
aVall
p4071
aVi
aV'm
p4072
aVso
p4073
aVquiet
p4074
aV!
aa(lp4075
Vhe
p4076
aVasked
p4077
aVme
p4078
aVall
p4079
aVsorts
p4080
aVof
p4081
aVquestions
p4082
aV,
aVtoo
p4083
aV,
aVand
p4084
aVpretended
p4085
aVto
p4086
aVbe
p4087
aVvery
p4088
aVloving
p4089
aVand
p4090
aVkind
p4091
aV.
aa(lp4092
Vas
p4093
aVif
p4094
aVi
aVcould
p4095
aVn't
p4096
aVsee
p4097
aVthrough
p4098
aVhim
p4099
aV!
aa(lp4100
Vstill
p4101
aV,
aVi
aVdo
p4102
aVn't
p4103
aVwonder
p4104
aVhe
p4105
aVacts
p4106
aVso
p4107
aV,
aVsleeping
p4108
aVunder
p4109
aVthis
p4110
aVpaper
p4111
aVfor
p4112
aVthree
p4113
aVmonths
p4114
aV.
aa(lp4115
Vit
p4116
aVonly
p4117
aVinterests
p4118
aVme
p4119
aV,
aaa(lp4120
(lp4121
Vbut
p4122
aVi
aVfeel
p4123
aVsure
p4124
aVjohn
p4125
aVand
p4126
aVjennie
p4127
aVare
p4128
aVsecretly
p4129
aVaffected
p4130
aVby
p4131
aVit
p4132
aV.
aa(lp4133
Vhurrah
p4134
aV!
aa(lp4135
Vthis
p4136
aVis
p4137
aVthe
p4138
aVlast
p4139
aVday
p4140
aV,
aVbut
p4141
aVit
p4142
aVis
p4143
aVenough
p4144
aV.
aa(lp4145
Vjohn
p4146
aVis
p4147
aVto
p4148
aVstay
p4149
aVin
p4150
aVtown
p4151
aVover
p4152
aVnight
p4153
aV,
aVand
p4154
aVwo
p4155
aVn't
p4156
aVbe
p4157
aVout
p4158
aVuntil
p4159
aVthis
p4160
aVevening
p4161
aV.
aa(lp4162
Vjennie
p4163
aVwanted
p4164
aVto
p4165
aVsleep
p4166
aVwith
p4167
aVme
p4168
aV--
p4169
aVthe
p4170
aVsly
p4171
aVthing
p4172
aV!
aa(lp4173
Vbut
p4174
aVi
aVtold
p4175
aVher
p4176
aVi
aVshould
p4177
aVundoubtedly
p4178
aVrest
p4179
aVbetter
p4180
aVfor
p4181
aVa
aVnight
p4182
aVall
p4183
aValone
p4184
aV.
aa(lp4185
Vthat
p4186
aVwas
p4187
aVclever
p4188
aV,
aVfor
p4189
aVreally
p4190
aVi
aVwas
p4191
aVn't
p4192
aValone
p4193
aVa
aVbit
p4194
aV!
aa(lp4195
Vas
p4196
aVsoon
p4197
aVas
p4198
aVit
p4199
aVwas
p4200
aVmoonlight
p4201
aVand
p4202
aVthat
p4203
aVpoor
p4204
aVthing
p4205
aVbegan
p4206
aVto
p4207
aVcrawl
p4208
aVand
p4209
aVshake
p4210
aVthe
p4211
aVpattern
p4212
aV,
aVi
aVgot
p4213
aVup
p4214
aVand
p4215
aVran
p4216
aVto
p4217
aVhelp
p4218
aVher
p4219
aV.
aa(lp4220
Vi
aVpulled
p4221
aVand
p4222
aVshe
p4223
aVshook
p4224
aV,
aVi
aVshook
p4225
aVand
p4226
aVshe
p4227
aVpulled
p4228
aV,
aVand
p4229
aVbefore
p4230
aVmorning
p4231
aVwe
p4232
aVhad
p4233
aVpeeled
p4234
aVoff
p4235
aVyards
p4236
aVof
p4237
aVthat
p4238
aVpaper
p4239
aV.
aa(lp4240
Va
aVstrip
p4241
aVabout
p4242
aVas
p4243
aVhigh
p4244
aVas
p4245
aVmy
p4246
aVhead
p4247
aVand
p4248
aaa(lp4249
(lp4250
Vts
p4251
aVare
p4252
aVgone
p4253
aV,
aVand
p4254
aVthe
p4255
aVthings
p4256
aVare
p4257
aVgone
p4258
aV,
aVand
p4259
aVthere
p4260
aVis
p4261
aVnothing
p4262
aVleft
p4263
aVbut
p4264
aVthat
p4265
aVgreat
p4266
aVbedstead
p4267
aVnailed
p4268
aVdown
p4269
aV,
aVwith
p4270
aVthe
p4271
aVcanvas
p4272
aVmattress
p4273
aVwe
p4274
aVfound
p4275
aVon
p4276
aVit
p4277
aV.
aa(lp4278
Vwe
p4279
aVshall
p4280
aVsleep
p4281
aVdownstairs
p4282
aVto-night
p4283
aV,
aVand
p4284
aVtake
p4285
aVthe
p4286
aVboat
p4287
aVhome
p4288
aVto-morrow
p4289
aV.
aa(lp4290
Vi
aVquite
p4291
aVenjoy
p4292
aVthe
p4293
aVroom
p4294
aV,
aVnow
p4295
aVit
p4296
aVis
p4297
aVbare
p4298
aVagain
p4299
aV.
aa(lp4300
Vhow
p4301
aVthose
p4302
aVchildren
p4303
aVdid
p4304
aVtear
p4305
aVabout
p4306
aVhere
p4307
aV!
aa(lp4308
Vthis
p4309
aVbedstead
p4310
aVis
p4311
aVfairly
p4312
aVgnawed
p4313
aV!
aa(lp4314
Vbut
p4315
aVi
aVmust
p4316
aVget
p4317
aVto
p4318
aVwork
p4319
aV.
aa(lp4320
Vi
aVhave
p4321
aVlocked
p4322
aVthe
p4323
aVdoor
p4324
aVand
p4325
aVthrown
p4326
aVthe
p4327
aVkey
p4328
aVdown
p4329
aVinto
p4330
aVthe
p4331
aVfront
p4332
aVpath
p4333
aV.
aa(lp4334
Vi
aVdo
p4335
aVn't
p4336
aVwant
p4337
aVto
p4338
aVgo
p4339
aVout
p4340
aV,
aVand
p4341
aVi
aVdo
p4342
aVn't
p4343
aVwant
p4344
aVto
p4345
aVhave
p4346
aVanybody
p4347
aVcome
p4348
aVin
p4349
aV,
aVtill
p4350
aVjohn
p4351
aVcomes
p4352
aV.
aa(lp4353
Vi
aVwant
p4354
aVto
p4355
aVastonish
p4356
aVhim
p4357
aV.
aa(lp4358
Vi
aV've
p4359
aVgot
p4360
aVa
aVrope
p4361
aVup
p4362
aVhere
p4363
aVthat
p4364
aVeven
p4365
aVjennie
p4366
aVdid
p4367
aVnot
p4368
aVfind
p4369
aV.
aa(lp4370
Vif
p4371
aVthat
p4372
aVwoman
p4373
aVdoes
p4374
aVget
p4375
aVout
p4376
aV,
aVand
p4377
aVtries
p4378
aVto
p4379
aVget
p4380
aVaway
p4381
aV,
aVi
aVcan
p4382
aVtie
p4383
aVher
p4384
aV!
aa(lp4385
Vbut
p4386
aVi
aVforgot
p4387
aVi
aVcould
p4388
aVnot
p4389
aVreach
p4390
aVfar
p4391
aVwithout
p4392
aVanything
p4393
aVto
p4394
aVstand
p4395
aVon
p4396
aV!
aa(lp4397
Vthis
p4398
aVbed
p4399
aVwill
p4400
aVnot
p4401
aVmove
p4402
aV!
aa(lp4403
Vi
aVtried
p4404
aVto
p4405
aVlift
p4406
aVand
p4407
aVpush
p4408
aVit
p4409
aVuntil
p4410
aVi
aVwas
p4411
aVlame
p4412
aV,
aVand
p4413
aVthen
p4414
aVi
aVgot
p4415
aVso
p4416
aVangry
p4417
aVi
aVbit
p4418
aVoff
p4419
aVa
aVlittle
p4420
aVpiece
p4421
aVat
p4422
aVone
p4423
aVcorner
p4424
aV--
p4425
aVbut
p4426
aVit
p4427
aVhurt
p4428
aVmy
p4429
aVteeth
p4430
aV.
aa(lp4431
Vthen
p4432
aVi
aVpeeled
p4433
aVoff
p4434
aVall
p4435
aVthe
p4436
aVpaper
p4437
aVi
aVcould
p4438
aVreach
p4439
aVstanding
p4440
aVon
p4441
aVthe
p4442
aVfloor
p4443
aV.
aa(lp4444
Vit
p4445
aVsticks
p4446
aVhorribly
p4447
aVand
p4448
aVthe
p4449
aVpattern
p4450
aVjust
p4451
aVenjoys
p4452
aVit
p4453
aV!
aaa(lp4454
(lp4455
Vt
aVme
p4456
aVout
p4457
aVin
p4458
aVthe
p4459
aVroad
p4460
aVthere
p4461
aV!
aa(lp4462
Vi
aVsuppose
p4463
aVi
aVshall
p4464
aVhave
p4465
aVto
p4466
aVget
p4467
aVback
p4468
aVbehind
p4469
aVthe
p4470
aVpattern
p4471
aVwhen
p4472
aVit
p4473
aVcomes
p4474
aVnight
p4475
aV,
aVand
p4476
aVthat
p4477
aVis
p4478
aVhard
p4479
aV!
aa(lp4480
Vit
p4481
aVis
p4482
aVso
p4483
aVpleasant
p4484
aVto
p4485
aVbe
p4486
aVout
p4487
aVin
p4488
aVthis
p4489
aVgreat
p4490
aVroom
p4491
aVand
p4492
aVcreep
p4493
aVaround
p4494
aVas
p4495
aVi
aVplease
p4496
aV!
aa(lp4497
Vi
aVdo
p4498
aVn't
p4499
aVwant
p4500
aVto
p4501
aVgo
p4502
aVoutside
p4503
aV.
aa(lp4504
Vi
aVwo
p4505
aVn't
p4506
aV,
aVeven
p4507
aVif
p4508
aVjennie
p4509
aVasks
p4510
aVme
p4511
aVto
p4512
aV.
aa(lp4513
Vfor
p4514
aVoutside
p4515
aVyou
p4516
aVhave
p4517
aVto
p4518
aVcreep
p4519
aVon
p4520
aVthe
p4521
aVground
p4522
aV,
aVand
p4523
aVeverything
p4524
aVis
p4525
aVgreen
p4526
aVinstead
p4527
aVof
p4528
aVyellow
p4529
aV.
aa(lp4530
Vbut
p4531
aVhere
p4532
aVi
aVcan
p4533
aVcreep
p4534
aVsmoothly
p4535
aVon
p4536
aVthe
p4537
aVfloor
p4538
aV,
aVand
p4539
aVmy
p4540
aVshoulder
p4541
aVjust
p4542
aVfits
p4543
aVin
p4544
aVthat
p4545
aVlong
p4546
aVsmooch
p4547
aVaround
p4548
aVthe
p4549
aVwall
p4550
aV,
aVso
p4551
aVi
aVcan
p4552
aVnot
p4553
aVlose
p4554
aVmy
p4555
aVway
p4556
aV.
aa(lp4557
Vwhy
p4558
aVthere
p4559
aV's
p4560
aVjohn
p4561
aVat
p4562
aVthe
p4563
aVdoor
p4564
aV!
aa(lp4565
Vit
p4566
aVis
p4567
aVno
p4568
aVuse
p4569
aV,
aVyoung
p4570
aVman
p4571
aV,
aVyou
p4572
aVca
p4573
aVn't
p4574
aVopen
p4575
aVit
p4576
aV!
aa(lp4577
Vhow
p4578
aVhe
p4579
aVdoes
p4580
aVcall
p4581
aVand
p4582
aVpound
p4583
aV!
aa(lp4584
Vnow
p4585
aVhe
p4586
aV's
p4587
aVcrying
p4588
aVfor
p4589
aVan
p4590
aVaxe
p4591
aV.
aa(lp4592
Vit
p4593
aVwould
p4594
aVbe
p4595
aVa
aVshame
p4596
aVto
p4597
aVbreak
p4598
aVdown
p4599
aVthat
p4600
aVbeautiful
p4601
aVdoor
p4602
aV!
aa(lp4603
V``
p4604
aVjohn
p4605
aVdear
p4606
aV!
aV''
p4607
aa(lp4608
Vsaid
p4609
aVi
aVin
p4610
aVthe
p4611
aVgentlest
p4612
aVvoice
p4613
aV,
aV``
p4614
aVthe
p4615
aVkey
p4616
aVis
p4617
aVdown
p4618
aVby
p4619
aVthe
p4620
aVfront
p4621
aVsteps
p4622
aV,
aVunder
p4623
aVa
aVplantain
p4624
aVleaf
p4625
aV!
aV''
p4626
aa(lp4627
Vthat
p4628
aVsilenced
p4629
aVhim
p4630
aVfor
p4631
aVa
aVfew
p4632
aVmoments
p4633
aV.
aa(lp4634
Vthen
p4635
aVhe
p4636
aVsaid
p4637
aV--
p4638
aVvery
p4639
aVquietly
p4640
aVindeed
p4641
aV,
aV``
p4642
aVopen
p4643
aVthe
p4644
aVdoor
p4645
aV,
aVmy
p4646
aVdarling
p4647
aV!
aV''
p4648
aa(lp4649
V``
p4650
aVi
aVca
p4651
aVn't
p4652
aV,
aV''
p4653
aVsaid
p4654
aVi
aV.
aa(lp4655
V``
p4656
aVthe
p4657
aVkey
p4658
aVis
p4659
aVdown
p4660
aVby
p4661
aVthe
p4662
aVfront
p4663
aVdoor
p4664
aVunder
p4665
aVa
aVplantain
p4666
aVleaf
p4667
aV!
aV''
p4668
aa(lp4669
Vand
p4670
aVthen
p4671
aVi
aVsaid
p4672
aVit
p4673
aVagain
p4674
aV,
aVseveral
p4675
aVtimes
p4676
aaasg96
(lp4677
(lp4678
V[
aVCHARACTER
p4679
aV]
aVthough
p4680
aV[
aVCHARACTER
p4681
aV]
aVseems
p4682
aVlike
p4683
aVthe
p4684
aVobvious
p4685
aVvillain
p4686
aVof
p4687
aV``
p4688
aVthe
p4689
aVyellow
p4690
aVwallpaper
p4691
aV,
aV''
p4692
aVthe
p4693
aVstory
p4694
aVdoes
p4695
aVnot
p4696
aVallow
p4697
aVus
p4698
aVto
p4699
aVsee
p4700
aVhim
p4701
aVas
p4702
aVwholly
p4703
aVevil
p4704
aV.
aa(lp4705
V[
aVCHARACTER
p4706
aV]
aV's
p4707
aVtreatment
p4708
aVof
p4709
aVthe
p4710
aVnarrator
p4711
aV's
p4712
aVdepression
p4713
aVgoes
p4714
aVterribly
p4715
aVwrong
p4716
aV,
aVbut
p4717
aVin
p4718
aVall
p4719
aVlikelihood
p4720
aVhe
p4721
aVwas
p4722
aVtrying
p4723
aVto
p4724
aVhelp
p4725
aVher
p4726
aV,
aVnot
p4727
aVmake
p4728
aVher
p4729
aVworse
p4730
aV.
aa(lp4731
Vthe
p4732
aVreal
p4733
aVproblem
p4734
aVwith
p4735
aV[
aVCHARACTER
p4736
aV]
aVis
p4737
aVthe
p4738
aVall-encompassing
p4739
aVauthority
p4740
aVhe
p4741
aVhas
p4742
aVin
p4743
aVhis
p4744
aVcombined
p4745
aVrole
p4746
aVas
p4747
aVthe
p4748
aVnarrator
p4749
aV's
p4750
aVhusband
p4751
aVand
p4752
aVdoctor
p4753
aV.
aa(lp4754
V[
aVCHARACTER
p4755
aV]
aVis
p4756
aVso
p4757
aVsure
p4758
aVthat
p4759
aVhe
p4760
aVknows
p4761
aVwhat
p4762
aV's
p4763
aVbest
p4764
aVfor
p4765
aVhis
p4766
aVwife
p4767
aVthat
p4768
aVhe
p4769
aVdisregards
p4770
aVher
p4771
aVown
p4772
aVopinion
p4773
aVof
p4774
aVthe
p4775
aVmatter
p4776
aV,
aVforcing
p4777
aVher
p4778
aVto
p4779
aVhide
p4780
aVher
p4781
aVtrue
p4782
aVfeelings
p4783
aV.
aa(lp4784
Vhe
p4785
aVconsistently
p4786
aVpatronizes
p4787
aVher
p4788
aV.
aa(lp4789
Vhe
p4790
aVcalls
p4791
aVher
p4792
aV``
p4793
aVa
aVblessed
p4794
aVlittle
p4795
aVgoose
p4796
aV''
p4797
aVand
p4798
aVvetoes
p4799
aVher
p4800
aVsmallest
p4801
aVwishes
p4802
aV,
aVsuch
p4803
aVas
p4804
aVwhen
p4805
aVhe
p4806
aVrefuses
p4807
aVto
p4808
aVswitch
p4809
aVbedrooms
p4810
aVso
p4811
aVas
p4812
aVnot
p4813
aVto
p4814
aVoverindulge
p4815
aVher
p4816
aV``
p4817
aVfancies
p4818
aV.
aV''
p4819
aa(lp4820
Vfurther
p4821
aV,
aVhis
p4822
aVdry
p4823
aV,
aVclinical
p4824
aVrationality
p4825
aVrenders
p4826
aVhim
p4827
aVuniquely
p4828
aVunsuited
p4829
aVto
p4830
aVunderstand
p4831
aVhis
p4832
aVimaginative
p4833
aVwife
p4834
aV.
aa(lp4835
Vhe
p4836
aVdoes
p4837
aVnot
p4838
aVintend
p4839
aVto
p4840
aVharm
p4841
aVher
p4842
aV,
aVbut
p4843
aVhis
p4844
aVignorance
p4845
aVabout
p4846
aVwhat
p4847
aVshe
p4848
aVreally
p4849
aVneeds
p4850
aVultimately
p4851
aVproves
p4852
aVdangerous
p4853
aV.
aa(lp4854
V[
aVCHARACTER
p4855
aV]
aVknows
p4856
aVhis
p4857
aVwife
p4858
aVonly
p4859
aVsuperficially
p4860
aV.
aa(lp4861
Vhe
p4862
aVsees
p4863
aVthe
p4864
aV``
p4865
aVouter
p4866
aVpattern
p4867
aV''
p4868
aVbut
p4869
aVmisses
p4870
aVthe
p4871
aVtrapped
p4872
aV,
aVstruggling
p4873
aVwoman
p4874
aVinside
p4875
aV.
aa(lp4876
Vthis
p4877
aVignorance
p4878
aVis
p4879
aVwhy
p4880
aV[
aVCHARACTER
p4881
aV]
aVis
p4882
aVno
p4883
aVmere
p4884
aVcardboard
p4885
aVvillain
p4886
aV.
aa(lp4887
Vhe
p4888
aVcares
p4889
aVfor
p4890
aVhis
p4891
aVwife
p4892
aV,
aVbut
p4893
aVthe
p4894
aVunequal
p4895
aVrelationship
p4896
aVin
p4897
aVwhich
p4898
aVthey
p4899
aVfind
p4900
aVthemselves
p4901
aVprevents
p4902
aVhim
p4903
aVfrom
p4904
aVtruly
p4905
aVunderstanding
p4906
aVher
p4907
aVand
p4908
aVher
p4909
aVproblems
p4910
aV.
aa(lp4911
Vby
p4912
aVtreating
p4913
aVher
p4914
aVas
p4915
aVa
aV``
p4916
aVcase
p4917
aV''
p4918
aVor
p4919
aVa
aV``
p4920
aVwife
p4921
aV''
p4922
aVand
p4923
aVnot
p4924
aVas
p4925
aVa
aVperson
p4926
aVwith
p4927
aVa
aVwill
p4928
aVof
p4929
aVher
p4930
aVown
p4931
aV,
aVhe
p4932
aVhelps
p4933
aVdestroy
p4934
aVher
p4935
aV,
aVwhich
p4936
aVis
p4937
aVthe
p4938
aVlast
p4939
aVthing
p4940
aVhe
p4941
aVwants
p4942
aV.
aa(lp4943
Vthat
p4944
aV[
aVCHARACTER
p4945
aV]
aVhas
p4946
aVbeen
p4947
aVdestroyed
p4948
aVby
p4949
aVthis
p4950
aVimprisoning
p4951
aVrelationship
p4952
aVis
p4953
aVmade
p4954
aVclear
p4955
aVby
p4956
aVthe
p4957
aVstory
p4958
aV's
p4959
aVchilling
p4960
aVfinale
p4961
aV.
aa(lp4962
Vafter
p4963
aVbreaking
p4964
aVin
p4965
aVon
p4966
aVhis
p4967
aVinsane
p4968
aVwife
p4969
aV,
aV[
aVCHARACTER
p4970
aV]
aVfaints
p4971
aVin
p4972
aVshock
p4973
aVand
p4974
aVgoes
p4975
aVunrecognized
p4976
aVby
p4977
aVhis
p4978
aVwife
p4979
aV,
aVwho
p4980
aVcalls
p4981
aVhim
p4982
aV``
p4983
aVthat
p4984
aVman
p4985
aV''
p4986
aVand
p4987
aVcomplains
p4988
aVabout
p4989
aVhaving
p4990
aVto
p4991
aV``
p4992
aVcreep
p4993
aVover
p4994
aVhim
p4995
aV''
p4996
aVas
p4997
aVshe
p4998
aVmakes
p4999
aVher
p5000
aVway
p5001
aValong
p5002
aVthe
p5003
aVwall
p5004
aV.
aassS'jennie'
p5005
(dp5006
g20
(lp5007
(lp5008
V[
aVCHARACTER
p5009
aV]
aV-
aVjohn
p5010
aV's
p5011
aVsister
p5012
aV.
aa(lp5013
V[
aVCHARACTER
p5014
aV]
aVacts
p5015
aVas
p5016
aVhousekeeper
p5017
aVfor
p5018
aVthe
p5019
aVcouple
p5020
aV.
aa(lp5021
Vher
p5022
aVpresence
p5023
aVand
p5024
aVher
p5025
aVcontentment
p5026
aVwith
p5027
aVa
aVdomestic
p5028
aVrole
p5029
aVintensify
p5030
aVthe
p5031
aVnarrator's
p5032
aVfeelings
p5033
aVof
p5034
aVguilt
p5035
aVover
p5036
aVher
p5037
aVown
p5038
aVinability
p5039
aVto
p5040
aVact
p5041
aVas
p5042
aVa
aVtraditional
p5043
aVwife
p5044
aVand
p5045
aVmother
p5046
aV.
aa(lp5047
V[
aVCHARACTER
p5048
aV]
aVseems
p5049
aV,
aVat
p5050
aVtimes
p5051
aV,
aVto
p5052
aVsuspect
p5053
aVthat
p5054
aVthe
p5055
aVnarrator
p5056
aVis
p5057
aVmore
p5058
aVtroubled
p5059
aVthan
p5060
aVshe
p5061
aVlets
p5062
aVon
p5063
aV.
aasg93
(lp5064
(lp5065
(lp5066
Vtain
p5067
aVlights
p5068
aV,
aVand
p5069
aVnot
p5070
aVclearly
p5071
aVthen
p5072
aV.
aa(lp5073
Vbut
p5074
aVin
p5075
aVthe
p5076
aVplaces
p5077
aVwhere
p5078
aVit
p5079
aVis
p5080
aVn't
p5081
aVfaded
p5082
aVand
p5083
aVwhere
p5084
aVthe
p5085
aVsun
p5086
aVis
p5087
aVjust
p5088
aVso
p5089
aV--
p5090
aVi
aVcan
p5091
aVsee
p5092
aVa
aVstrange
p5093
aV,
aVprovoking
p5094
aV,
aVformless
p5095
aVsort
p5096
aVof
p5097
aVfigure
p5098
aV,
aVthat
p5099
aVseems
p5100
aVto
p5101
aVskulk
p5102
aVabout
p5103
aVbehind
p5104
aVthat
p5105
aVsilly
p5106
aVand
p5107
aVconspicuous
p5108
aVfront
p5109
aVdesign
p5110
aV.
aa(lp5111
Vthere
p5112
aV's
p5113
aVsister
p5114
aVon
p5115
aVthe
p5116
aVstairs
p5117
aV!
aa(lp5118
Vwell
p5119
aV,
aVthe
p5120
aVfourth
p5121
aVof
p5122
aVjuly
p5123
aVis
p5124
aVover
p5125
aV!
aa(lp5126
Vthe
p5127
aVpeople
p5128
aVare
p5129
aVgone
p5130
aVand
p5131
aVi
aVam
p5132
aVtired
p5133
aVout
p5134
aV.
aa(lp5135
Vjohn
p5136
aVthought
p5137
aVit
p5138
aVmight
p5139
aVdo
p5140
aVme
p5141
aVgood
p5142
aVto
p5143
aVsee
p5144
aVa
aVlittle
p5145
aVcompany
p5146
aV,
aVso
p5147
aVwe
p5148
aVjust
p5149
aVhad
p5150
aVmother
p5151
aVand
p5152
aVnellie
p5153
aVand
p5154
aVthe
p5155
aVchildren
p5156
aVdown
p5157
aVfor
p5158
aVa
aVweek
p5159
aV.
aa(lp5160
Vof
p5161
aVcourse
p5162
aVi
aVdid
p5163
aVn't
p5164
aVdo
p5165
aVa
aVthing
p5166
aV.
aa(lp5167
Vjennie
p5168
aVsees
p5169
aVto
p5170
aVeverything
p5171
aVnow
p5172
aV.
aa(lp5173
Vbut
p5174
aVit
p5175
aVtired
p5176
aVme
p5177
aVall
p5178
aVthe
p5179
aVsame
p5180
aV.
aa(lp5181
Vjohn
p5182
aVsays
p5183
aVif
p5184
aVi
aVdo
p5185
aVn't
p5186
aVpick
p5187
aVup
p5188
aVfaster
p5189
aVhe
p5190
aVshall
p5191
aVsend
p5192
aVme
p5193
aVto
p5194
aVweir
p5195
aVmitchell
p5196
aVin
p5197
aVthe
p5198
aVfall
p5199
aV.
aa(lp5200
Vbut
p5201
aVi
aVdo
p5202
aVn't
p5203
aVwant
p5204
aVto
p5205
aVgo
p5206
aVthere
p5207
aVat
p5208
aVall
p5209
aV.
aa(lp5210
Vi
aVhad
p5211
aVa
aVfriend
p5212
aVwho
p5213
aVwas
p5214
aVin
p5215
aVhis
p5216
aVhands
p5217
aVonce
p5218
aV,
aVand
p5219
aVshe
p5220
aVsays
p5221
aVhe
p5222
aVis
p5223
aVjust
p5224
aVlike
p5225
aVjohn
p5226
aVand
p5227
aVmy
p5228
aVbrother
p5229
aV,
aVonly
p5230
aVmore
p5231
aVso
p5232
aV!
aa(lp5233
Vbesides
p5234
aV,
aVit
p5235
aVis
p5236
aVsuch
p5237
aVan
p5238
aVundertaking
p5239
aVto
p5240
aVgo
p5241
aVso
p5242
aVfar
p5243
aV.
aa(lp5244
Vi
aVdo
p5245
aVn't
p5246
aVfeel
p5247
aVas
p5248
aVif
p5249
aVit
p5250
aVwas
p5251
aVworth
p5252
aVwhile
p5253
aVto
p5254
aVturn
p5255
aVmy
p5256
aVhand
p5257
aVover
p5258
aVfor
p5259
aVanything
p5260
aV,
aVand
p5261
aVi
aV'm
p5262
aVgetting
p5263
aVdreadfully
p5264
aVfretful
p5265
aVand
p5266
aVquerulous
p5267
aV.
aa(lp5268
Vi
aVcry
p5269
aVat
p5270
aVnothing
p5271
aV,
aVand
p5272
aVcry
p5273
aVmost
p5274
aVof
p5275
aVthe
p5276
aVtim
p5277
aaa(lp5278
(lp5279
Ve.
p5280
aVof
p5281
aVcourse
p5282
aVi
aVdo
p5283
aVn't
p5284
aVwhen
p5285
aVjohn
p5286
aVis
p5287
aVhere
p5288
aV,
aVor
p5289
aVanybody
p5290
aVelse
p5291
aV,
aVbut
p5292
aVwhen
p5293
aVi
aVam
p5294
aValone
p5295
aV.
aa(lp5296
Vand
p5297
aVi
aVam
p5298
aValone
p5299
aVa
aVgood
p5300
aVdeal
p5301
aVjust
p5302
aVnow
p5303
aV.
aa(lp5304
Vjohn
p5305
aVis
p5306
aVkept
p5307
aVin
p5308
aVtown
p5309
aVvery
p5310
aVoften
p5311
aVby
p5312
aVserious
p5313
aVcases
p5314
aV,
aVand
p5315
aVjennie
p5316
aVis
p5317
aVgood
p5318
aVand
p5319
aVlets
p5320
aVme
p5321
aValone
p5322
aVwhen
p5323
aVi
aVwant
p5324
aVher
p5325
aVto
p5326
aV.
aa(lp5327
Vso
p5328
aVi
aVwalk
p5329
aVa
aVlittle
p5330
aVin
p5331
aVthe
p5332
aVgarden
p5333
aVor
p5334
aVdown
p5335
aVthat
p5336
aVlovely
p5337
aVlane
p5338
aV,
aVsit
p5339
aVon
p5340
aVthe
p5341
aVporch
p5342
aVunder
p5343
aVthe
p5344
aVroses
p5345
aV,
aVand
p5346
aVlie
p5347
aVdown
p5348
aVup
p5349
aVhere
p5350
aVa
aVgood
p5351
aVdeal
p5352
aV.
aa(lp5353
Vi
aV'm
p5354
aVgetting
p5355
aVreally
p5356
aVfond
p5357
aVof
p5358
aVthe
p5359
aVroom
p5360
aVin
p5361
aVspite
p5362
aVof
p5363
aVthe
p5364
aVwall-paper
p5365
aV.
aa(lp5366
Vperhaps
p5367
aVbecause
p5368
aVof
p5369
aVthe
p5370
aVwall-paper
p5371
aV.
aa(lp5372
Vit
p5373
aVdwells
p5374
aVin
p5375
aVmy
p5376
aVmind
p5377
aVso
p5378
aV!
aa(lp5379
Vi
aVlie
p5380
aVhere
p5381
aVon
p5382
aVthis
p5383
aVgreat
p5384
aVimmovable
p5385
aVbed
p5386
aV--
p5387
aVit
p5388
aVis
p5389
aVnailed
p5390
aVdown
p5391
aV,
aVi
aVbelieve
p5392
aV--
p5393
aVand
p5394
aVfollow
p5395
aVthat
p5396
aVpattern
p5397
aVabout
p5398
aVby
p5399
aVthe
p5400
aVhour
p5401
aV.
aa(lp5402
Vit
p5403
aVis
p5404
aVas
p5405
aVgood
p5406
aVas
p5407
aVgymnastics
p5408
aV,
aVi
aVassure
p5409
aVyou
p5410
aV.
aa(lp5411
Vi
aVstart
p5412
aV,
aVwe
p5413
aV'll
p5414
aVsay
p5415
aV,
aVat
p5416
aVthe
p5417
aVbottom
p5418
aV,
aVdown
p5419
aVin
p5420
aaa(lp5421
(lp5422
Vn't
p5423
aVweigh
p5424
aVa
aVbit
p5425
aVmore
p5426
aV,
aV''
p5427
aVsaid
p5428
aVi
aV,
aV``
p5429
aVnor
p5430
aVas
p5431
aVmuch
p5432
aV;
aVand
p5433
aVmy
p5434
aVappetite
p5435
aVmay
p5436
aVbe
p5437
aVbetter
p5438
aVin
p5439
aVthe
p5440
aVevening
p5441
aVwhen
p5442
aVyou
p5443
aVare
p5444
aVhere
p5445
aV,
aVbut
p5446
aVit
p5447
aVis
p5448
aVworse
p5449
aVin
p5450
aVthe
p5451
aVmorning
p5452
aVwhen
p5453
aVyou
p5454
aVare
p5455
aVaway
p5456
aV!
aV''
p5457
aa(lp5458
V``
p5459
aVbless
p5460
aVher
p5461
aVlittle
p5462
aVheart
p5463
aV!
aV''
p5464
aa(lp5465
Vsaid
p5466
aVhe
p5467
aVwith
p5468
aVa
aVbig
p5469
aVhug
p5470
aV,
aV``
p5471
aVshe
p5472
aVshall
p5473
aVbe
p5474
aVas
p5475
aVsick
p5476
aVas
p5477
aVshe
p5478
aVpleases
p5479
aV!
aa(lp5480
Vbut
p5481
aVnow
p5482
aVlet
p5483
aV's
p5484
aVimprove
p5485
aVthe
p5486
aVshining
p5487
aVhours
p5488
aVby
p5489
aVgoing
p5490
aVto
p5491
aVsleep
p5492
aV,
aVand
p5493
aVtalk
p5494
aVabout
p5495
aVit
p5496
aVin
p5497
aVthe
p5498
aVmorning
p5499
aV!
aV''
p5500
aa(lp5501
V``
p5502
aVand
p5503
aVyou
p5504
aVwo
p5505
aVn't
p5506
aVgo
p5507
aVaway
p5508
aV?
aV''
p5509
aa(lp5510
Vi
aVasked
p5511
aVgloomily
p5512
aV.
aa(lp5513
V``
p5514
aVwhy
p5515
aV,
aVhow
p5516
aVcan
p5517
aVi
aV,
aVdear
p5518
aV?
aa(lp5519
Vit
p5520
aVis
p5521
aVonly
p5522
aVthree
p5523
aVweeks
p5524
aVmore
p5525
aVand
p5526
aVthen
p5527
aVwe
p5528
aVwill
p5529
aVtake
p5530
aVa
aVnice
p5531
aVlittle
p5532
aVtrip
p5533
aVof
p5534
aVa
aVfew
p5535
aVdays
p5536
aVwhile
p5537
aVjennie
p5538
aVis
p5539
aVgetting
p5540
aVthe
p5541
aVhouse
p5542
aVready
p5543
aV.
aa(lp5544
Vreally
p5545
aVdear
p5546
aVyou
p5547
aVare
p5548
aVbetter
p5549
aV!
aV''
p5550
aa(lp5551
V``
p5552
aVbetter
p5553
aVin
p5554
aVbody
p5555
aVperhaps
p5556
aV--
p5557
aV''
p5558
aVi
aVbegan
p5559
aV,
aVand
p5560
aVstopped
p5561
aVshort
p5562
aV,
aVfor
p5563
aVhe
p5564
aVsat
p5565
aVup
p5566
aVstraight
p5567
aVand
p5568
aVlooked
p5569
aVat
p5570
aVme
p5571
aVwith
p5572
aVsuch
p5573
aVa
aVstern
p5574
aV,
aVreproachful
p5575
aVlook
p5576
aVthat
p5577
aVi
aVcould
p5578
aVnot
p5579
aVsay
p5580
aVanother
p5581
aVword
p5582
aV.
aa(lp5583
V``
p5584
aVmy
p5585
aVdarling
p5586
aV,
aV''
p5587
aVsaid
p5588
aVhe
p5589
aV,
aV``
p5590
aVi
aVbeg
p5591
aVof
p5592
aVyou
p5593
aV,
aVfor
p5594
aVmy
p5595
aVsake
p5596
aVand
p5597
aVfor
p5598
aVour
p5599
aVchild's
p5600
aVsake
p5601
aV,
aVas
p5602
aVwell
p5603
aVas
p5604
aVfor
p5605
aVyour
p5606
aVown
p5607
aV,
aVthat
p5608
aVyou
p5609
aVwill
p5610
aVnever
p5611
aVfor
p5612
aVone
p5613
aVinstant
p5614
aVlet
p5615
aVthat
p5616
aVidea
p5617
aVenter
p5618
aVyour
p5619
aVmind
p5620
aV!
aa(lp5621
Vthere
p5622
aVis
p5623
aVnothing
p5624
aVso
p5625
aVdangerous
p5626
aV,
aVso
p5627
aVfascinating
p5628
aV,
aVto
p5629
aVa
aVtemperament
p5630
aVlike
p5631
aVyours
p5632
aV.
aa(lp5633
Vit
p5634
aVis
p5635
aVa
aVfalse
p5636
aVand
p5637
aVfoolish
p5638
aVfanc
p5639
aaa(lp5640
(lp5641
V,
aVquiet
p5642
aV.
aa(lp5643
Vi
aVfancy
p5644
aVit
p5645
aVis
p5646
aVthe
p5647
aVpattern
p5648
aVthat
p5649
aVkeeps
p5650
aVher
p5651
aVso
p5652
aVstill
p5653
aV.
aa(lp5654
Vit
p5655
aVis
p5656
aVso
p5657
aVpuzzling
p5658
aV.
aa(lp5659
Vit
p5660
aVkeeps
p5661
aVme
p5662
aVquiet
p5663
aVby
p5664
aVthe
p5665
aVhour
p5666
aV.
aa(lp5667
Vi
aVlie
p5668
aVdown
p5669
aVever
p5670
aVso
p5671
aVmuch
p5672
aVnow
p5673
aV.
aa(lp5674
Vjohn
p5675
aVsays
p5676
aVit
p5677
aVis
p5678
aVgood
p5679
aVfor
p5680
aVme
p5681
aV,
aVand
p5682
aVto
p5683
aVsleep
p5684
aVall
p5685
aVi
aVcan
p5686
aV.
aa(lp5687
Vindeed
p5688
aVhe
p5689
aVstarted
p5690
aVthe
p5691
aVhabit
p5692
aVby
p5693
aVmaking
p5694
aVme
p5695
aVlie
p5696
aVdown
p5697
aVfor
p5698
aVan
p5699
aVhour
p5700
aVafter
p5701
aVeach
p5702
aVmeal
p5703
aV.
aa(lp5704
Vit
p5705
aVis
p5706
aVa
aVvery
p5707
aVbad
p5708
aVhabit
p5709
aVi
aVam
p5710
aVconvinced
p5711
aV,
aVfor
p5712
aVyou
p5713
aVsee
p5714
aVi
aVdo
p5715
aVn't
p5716
aVsleep
p5717
aV.
aa(lp5718
Vand
p5719
aVthat
p5720
aVcultivates
p5721
aVdeceit
p5722
aV,
aVfor
p5723
aVi
aVdo
p5724
aVn't
p5725
aVtell
p5726
aVthem
p5727
aVi
aV'm
p5728
aVawake
p5729
aV--
p5730
aVo
aVno
p5731
aV!
aa(lp5732
Vthe
p5733
aVfact
p5734
aVis
p5735
aVi
aVam
p5736
aVgetting
p5737
aVa
aVlittle
p5738
aVafraid
p5739
aVof
p5740
aVjohn
p5741
aV.
aa(lp5742
Vhe
p5743
aVseems
p5744
aVvery
p5745
aVqueer
p5746
aVsometimes
p5747
aV,
aVand
p5748
aVeven
p5749
aVjennie
p5750
aVhas
p5751
aVan
p5752
aVinexplicable
p5753
aVlook
p5754
aV.
aa(lp5755
Vit
p5756
aVstrikes
p5757
aVme
p5758
aVoccasionally
p5759
aV,
aVjust
p5760
aVas
p5761
aVa
aVscientific
p5762
aVhypothesis
p5763
aV,
aV--
p5764
aVthat
p5765
aVperhaps
p5766
aVit
p5767
aVis
p5768
aVthe
p5769
aVpaper
p5770
aV!
aa(lp5771
Vi
aVhave
p5772
aVwatched
p5773
aVjohn
p5774
aVwhen
p5775
aVhe
p5776
aVdid
p5777
aVnot
p5778
aVknow
p5779
aVi
aVwas
p5780
aVlooking
p5781
aV,
aVand
p5782
aVcome
p5783
aVinto
p5784
aVthe
p5785
aVroom
p5786
aVsuddenly
p5787
aVon
p5788
aVthe
p5789
aVmost
p5790
aVinnocent
p5791
aVexcuses
p5792
aV,
aVand
p5793
aVi
aV've
p5794
aVcaught
p5795
aVhim
p5796
aVseveral
p5797
aVtimes
p5798
aVlooking
p5799
aVat
p5800
aVthe
p5801
aVpaper
p5802
aV!
aa(lp5803
Vand
p5804
aVjennie
p5805
aVtoo
p5806
aV.
aa(lp5807
Vi
aVcaught
p5808
aVjennie
p5809
aVwith
p5810
aVher
p5811
aVhand
p5812
aVon
p5813
aVit
p5814
aVonce
p5815
aV.
aa(lp5816
Vshe
p5817
aVdid
p5818
aVn't
p5819
aVknow
p5820
aVi
aVwas
p5821
aVin
p5822
aVthe
p5823
aVroom
p5824
aV,
aVand
p5825
aVwhen
p5826
aVi
aVasked
p5827
aVher
p5828
aVin
p5829
aVa
aVquiet
p5830
aV,
aVa
aVvery
p5831
aVquiet
p5832
aVvoice
p5833
aV,
aVwith
p5834
aVthe
p5835
aVmost
p5836
aVrestrained
p5837
aVmanner
p5838
aVpossible
p5839
aV,
aVwhat
p5840
aVshe
p5841
aVwas
p5842
aVdoi
p5843
aaa(lp5844
(lp5845
Vaster
p5846
aVthan
p5847
aVi
aVcan
p5848
aVturn
p5849
aV!
aa(lp5850
Vi
aVhave
p5851
aVwatched
p5852
aVher
p5853
aVsometimes
p5854
aVaway
p5855
aVoff
p5856
aVin
p5857
aVthe
p5858
aVopen
p5859
aVcountry
p5860
aV,
aVcreeping
p5861
aVas
p5862
aVfast
p5863
aVas
p5864
aVa
aVcloud
p5865
aVshadow
p5866
aVin
p5867
aVa
aVhigh
p5868
aVwind
p5869
aV.
aa(lp5870
Vif
p5871
aVonly
p5872
aVthat
p5873
aVtop
p5874
aVpattern
p5875
aVcould
p5876
aVbe
p5877
aVgotten
p5878
aVoff
p5879
aVfrom
p5880
aVthe
p5881
aVunder
p5882
aVone
p5883
aV!
aa(lp5884
Vi
aVmean
p5885
aVto
p5886
aVtry
p5887
aVit
p5888
aV,
aVlittle
p5889
aVby
p5890
aVlittle
p5891
aV.
aa(lp5892
Vi
aVhave
p5893
aVfound
p5894
aVout
p5895
aVanother
p5896
aVfunny
p5897
aVthing
p5898
aV,
aVbut
p5899
aVi
aVsha
p5900
aVn't
p5901
aVtell
p5902
aVit
p5903
aVthis
p5904
aVtime
p5905
aV!
aa(lp5906
Vit
p5907
aVdoes
p5908
aVnot
p5909
aVdo
p5910
aVto
p5911
aVtrust
p5912
aVpeople
p5913
aVtoo
p5914
aVmuch
p5915
aV.
aa(lp5916
Vthere
p5917
aVare
p5918
aVonly
p5919
aVtwo
p5920
aVmore
p5921
aVdays
p5922
aVto
p5923
aVget
p5924
aVthis
p5925
aVpaper
p5926
aVoff
p5927
aV,
aVand
p5928
aVi
aVbelieve
p5929
aVjohn
p5930
aVis
p5931
aVbeginning
p5932
aVto
p5933
aVnotice
p5934
aV.
aa(lp5935
Vi
aVdo
p5936
aVn't
p5937
aVlike
p5938
aVthe
p5939
aVlook
p5940
aVin
p5941
aVhis
p5942
aVeyes
p5943
aV.
aa(lp5944
Vand
p5945
aVi
aVheard
p5946
aVhim
p5947
aVask
p5948
aVjennie
p5949
aVa
aVlot
p5950
aVof
p5951
aVprofessional
p5952
aVquestions
p5953
aVabout
p5954
aVme
p5955
aV.
aa(lp5956
Vshe
p5957
aVhad
p5958
aVa
aVvery
p5959
aVgood
p5960
aVreport
p5961
aVto
p5962
aVgive
p5963
aV.
aa(lp5964
Vshe
p5965
aVsaid
p5966
aVi
aVslept
p5967
aVa
aVgood
p5968
aVdeal
p5969
aVin
p5970
aVthe
p5971
aVdaytime
p5972
aV.
aa(lp5973
Vjohn
p5974
aVknows
p5975
aVi
aVdo
p5976
aVn't
p5977
aVsleep
p5978
aVvery
p5979
aVwell
p5980
aVat
p5981
aVnight
p5982
aV,
aVfor
p5983
aVall
p5984
aVi
aV'm
p5985
aVso
p5986
aVquiet
p5987
aV!
aa(lp5988
Vhe
p5989
aVasked
p5990
aVme
p5991
aVall
p5992
aVsorts
p5993
aVof
p5994
aVquestions
p5995
aV,
aVtoo
p5996
aV,
aVand
p5997
aVpretended
p5998
aVto
p5999
aVbe
p6000
aVvery
p6001
aVloving
p6002
aVand
p6003
aVkind
p6004
aV.
aa(lp6005
Vas
p6006
aVif
p6007
aVi
aVcould
p6008
aVn't
p6009
aVsee
p6010
aVthrough
p6011
aVhim
p6012
aV!
aa(lp6013
Vstill
p6014
aV,
aVi
aVdo
p6015
aVn't
p6016
aVwonder
p6017
aVhe
p6018
aVacts
p6019
aVso
p6020
aV,
aVsleeping
p6021
aVunder
p6022
aVthis
p6023
aVpaper
p6024
aVfor
p6025
aVthree
p6026
aVmonths
p6027
aV.
aa(lp6028
Vit
p6029
aVonly
p6030
aVinterests
p6031
aVme
p6032
aV,
aVbut
p6033
aVi
aVfeel
p6034
aVsure
p6035
aVjohn
p6036
aVand
p6037
aVjennie
p6038
aVare
p6039
aVsecretly
p6040
aVaffected
p6041
aVby
p6042
aVit
p6043
aV.
aa(lp6044
Vhurrah
p6045
aV!
aa(lp6046
Vthis
p6047
aVis
p6048
aVthe
p6049
aVlas
p6050
aaa(lp6051
(lp6052
Vt
aVday
p6053
aV,
aVbut
p6054
aVit
p6055
aVis
p6056
aVenough
p6057
aV.
aa(lp6058
Vjohn
p6059
aVis
p6060
aVto
p6061
aVstay
p6062
aVin
p6063
aVtown
p6064
aVover
p6065
aVnight
p6066
aV,
aVand
p6067
aVwo
p6068
aVn't
p6069
aVbe
p6070
aVout
p6071
aVuntil
p6072
aVthis
p6073
aVevening
p6074
aV.
aa(lp6075
Vjennie
p6076
aVwanted
p6077
aVto
p6078
aVsleep
p6079
aVwith
p6080
aVme
p6081
aV--
p6082
aVthe
p6083
aVsly
p6084
aVthing
p6085
aV!
aa(lp6086
Vbut
p6087
aVi
aVtold
p6088
aVher
p6089
aVi
aVshould
p6090
aVundoubtedly
p6091
aVrest
p6092
aVbetter
p6093
aVfor
p6094
aVa
aVnight
p6095
aVall
p6096
aValone
p6097
aV.
aa(lp6098
Vthat
p6099
aVwas
p6100
aVclever
p6101
aV,
aVfor
p6102
aVreally
p6103
aVi
aVwas
p6104
aVn't
p6105
aValone
p6106
aVa
aVbit
p6107
aV!
aa(lp6108
Vas
p6109
aVsoon
p6110
aVas
p6111
aVit
p6112
aVwas
p6113
aVmoonlight
p6114
aVand
p6115
aVthat
p6116
aVpoor
p6117
aVthing
p6118
aVbegan
p6119
aVto
p6120
aVcrawl
p6121
aVand
p6122
aVshake
p6123
aVthe
p6124
aVpattern
p6125
aV,
aVi
aVgot
p6126
aVup
p6127
aVand
p6128
aVran
p6129
aVto
p6130
aVhelp
p6131
aVher
p6132
aV.
aa(lp6133
Vi
aVpulled
p6134
aVand
p6135
aVshe
p6136
aVshook
p6137
aV,
aVi
aVshook
p6138
aVand
p6139
aVshe
p6140
aVpulled
p6141
aV,
aVand
p6142
aVbefore
p6143
aVmorning
p6144
aVwe
p6145
aVhad
p6146
aVpeeled
p6147
aVoff
p6148
aVyards
p6149
aVof
p6150
aVthat
p6151
aVpaper
p6152
aV.
aa(lp6153
Va
aVstrip
p6154
aVabout
p6155
aVas
p6156
aVhigh
p6157
aVas
p6158
aVmy
p6159
aVhead
p6160
aVand
p6161
aVhalf
p6162
aVaround
p6163
aVthe
p6164
aVroom
p6165
aV.
aa(lp6166
Vand
p6167
aVthen
p6168
aVwhen
p6169
aVthe
p6170
aVsun
p6171
aVcame
p6172
aVand
p6173
aVthat
p6174
aVawful
p6175
aVpattern
p6176
aVbeg
p6177
aaa(lp6178
(lp6179
Van
p6180
aVto
p6181
aVlaugh
p6182
aVat
p6183
aVme
p6184
aV,
aVi
aVdeclared
p6185
aVi
aVwould
p6186
aVfinish
p6187
aVit
p6188
aVto-day
p6189
aV!
aa(lp6190
Vwe
p6191
aVgo
p6192
aVaway
p6193
aVto-morrow
p6194
aV,
aVand
p6195
aVthey
p6196
aVare
p6197
aVmoving
p6198
aVall
p6199
aVmy
p6200
aVfurniture
p6201
aVdown
p6202
aVagain
p6203
aVto
p6204
aVleave
p6205
aVthings
p6206
aVas
p6207
aVthey
p6208
aVwere
p6209
aVbefore
p6210
aV.
aa(lp6211
Vjennie
p6212
aVlooked
p6213
aVat
p6214
aVthe
p6215
aVwall
p6216
aVin
p6217
aVamazement
p6218
aV,
aVbut
p6219
aVi
aVtold
p6220
aVher
p6221
aVmerrily
p6222
aVthat
p6223
aVi
aVdid
p6224
aVit
p6225
aVout
p6226
aVof
p6227
aVpure
p6228
aVspite
p6229
aVat
p6230
aVthe
p6231
aVvicious
p6232
aVthing
p6233
aV.
aa(lp6234
Vshe
p6235
aVlaughed
p6236
aVand
p6237
aVsaid
p6238
aVshe
p6239
aVwould
p6240
aVn't
p6241
aVmind
p6242
aVdoing
p6243
aVit
p6244
aVherself
p6245
aV,
aVbut
p6246
aVi
aVmust
p6247
aVnot
p6248
aVget
p6249
aVtired
p6250
aV.
aa(lp6251
Vhow
p6252
aVshe
p6253
aVbetrayed
p6254
aVherself
p6255
aVthat
p6256
aVtime
p6257
aV!
aa(lp6258
Vbut
p6259
aVi
aVam
p6260
aVhere
p6261
aV,
aVand
p6262
aVno
p6263
aVperson
p6264
aVtouches
p6265
aVthis
p6266
aVpaper
p6267
aVbut
p6268
aVme
p6269
aV--
p6270
aVnot
p6271
aValive
p6272
aV!
aa(lp6273
Vshe
p6274
aVtried
p6275
aVto
p6276
aVget
p6277
aVme
p6278
aVout
p6279
aVof
p6280
aVthe
p6281
aVroom
p6282
aV--
p6283
aVit
p6284
aVwas
p6285
aVtoo
p6286
aVpatent
p6287
aV!
aa(lp6288
Vbut
p6289
aVi
aVsaid
p6290
aVit
p6291
aVwas
p6292
aVso
p6293
aVquiet
p6294
aVand
p6295
aVempty
p6296
aVand
p6297
aVclean
p6298
aVnow
p6299
aVthat
p6300
aVi
aVbelieved
p6301
aVi
aVwould
p6302
aVlie
p6303
aVdown
p6304
aVagain
p6305
aVand
p6306
aVsleep
p6307
aVall
p6308
aVi
aVcould
p6309
aV;
aVand
p6310
aVnot
p6311
aVto
p6312
aVwake
p6313
aVme
p6314
aVeven
p6315
aVfor
p6316
aVdi
p6317
aaa(lp6318
(lp6319
Vgreat
p6320
aVbedstead
p6321
aVnailed
p6322
aVdown
p6323
aV,
aVwith
p6324
aVthe
p6325
aVcanvas
p6326
aVmattress
p6327
aVwe
p6328
aVfound
p6329
aVon
p6330
aVit
p6331
aV.
aa(lp6332
Vwe
p6333
aVshall
p6334
aVsleep
p6335
aVdownstairs
p6336
aVto-night
p6337
aV,
aVand
p6338
aVtake
p6339
aVthe
p6340
aVboat
p6341
aVhome
p6342
aVto-morrow
p6343
aV.
aa(lp6344
Vi
aVquite
p6345
aVenjoy
p6346
aVthe
p6347
aVroom
p6348
aV,
aVnow
p6349
aVit
p6350
aVis
p6351
aVbare
p6352
aVagain
p6353
aV.
aa(lp6354
Vhow
p6355
aVthose
p6356
aVchildren
p6357
aVdid
p6358
aVtear
p6359
aVabout
p6360
aVhere
p6361
aV!
aa(lp6362
Vthis
p6363
aVbedstead
p6364
aVis
p6365
aVfairly
p6366
aVgnawed
p6367
aV!
aa(lp6368
Vbut
p6369
aVi
aVmust
p6370
aVget
p6371
aVto
p6372
aVwork
p6373
aV.
aa(lp6374
Vi
aVhave
p6375
aVlocked
p6376
aVthe
p6377
aVdoor
p6378
aVand
p6379
aVthrown
p6380
aVthe
p6381
aVkey
p6382
aVdown
p6383
aVinto
p6384
aVthe
p6385
aVfront
p6386
aVpath
p6387
aV.
aa(lp6388
Vi
aVdo
p6389
aVn't
p6390
aVwant
p6391
aVto
p6392
aVgo
p6393
aVout
p6394
aV,
aVand
p6395
aVi
aVdo
p6396
aVn't
p6397
aVwant
p6398
aVto
p6399
aVhave
p6400
aVanybody
p6401
aVcome
p6402
aVin
p6403
aV,
aVtill
p6404
aVjohn
p6405
aVcomes
p6406
aV.
aa(lp6407
Vi
aVwant
p6408
aVto
p6409
aVastonish
p6410
aVhim
p6411
aV.
aa(lp6412
Vi
aV've
p6413
aVgot
p6414
aVa
aVrope
p6415
aVup
p6416
aVhere
p6417
aVthat
p6418
aVeven
p6419
aVjennie
p6420
aVdid
p6421
aVnot
p6422
aVfind
p6423
aV.
aa(lp6424
Vif
p6425
aVthat
p6426
aVwoman
p6427
aVdoes
p6428
aVget
p6429
aVout
p6430
aV,
aVand
p6431
aVtries
p6432
aVto
p6433
aVget
p6434
aVaway
p6435
aV,
aVi
aVcan
p6436
aVtie
p6437
aVher
p6438
aV!
aa(lp6439
Vbut
p6440
aVi
aVforgot
p6441
aVi
aVcould
p6442
aVnot
p6443
aVreach
p6444
aVfar
p6445
aVwithout
p6446
aVanything
p6447
aVto
p6448
aVstand
p6449
aVon
p6450
aV!
aa(lp6451
Vthis
p6452
aVbed
p6453
aVwill
p6454
aVnot
p6455
aVmove
p6456
aV!
aa(lp6457
Vi
aVtried
p6458
aVto
p6459
aVlift
p6460
aVand
p6461
aVpush
p6462
aVit
p6463
aVuntil
p6464
aVi
aVwas
p6465
aVlame
p6466
aV,
aVand
p6467
aVthen
p6468
aVi
aVgot
p6469
aVso
p6470
aVangry
p6471
aVi
aVbit
p6472
aVoff
p6473
aVa
aVlittle
p6474
aVpiece
p6475
aVat
p6476
aVone
p6477
aVcorner
p6478
aV--
p6479
aVbut
p6480
aVit
p6481
aVhurt
p6482
aVmy
p6483
aVteeth
p6484
aV.
aa(lp6485
Vthen
p6486
aVi
aVpeeled
p6487
aVoff
p6488
aVall
p6489
aVthe
p6490
aVpaper
p6491
aVi
aVcould
p6492
aVreach
p6493
aVstanding
p6494
aVon
p6495
aVthe
p6496
aVfloor
p6497
aV.
aa(lp6498
Vit
p6499
aVsticks
p6500
aVhorribly
p6501
aVand
p6502
aVthe
p6503
aVpattern
p6504
aVjust
p6505
aVenjoys
p6506
aVit
p6507
aV!
aa(lp6508
Vall
p6509
aVthose
p6510
aVstrangled
p6511
aVheads
p6512
aVand
p6513
aVbulbous
p6514
aVeyes
p6515
aVand
p6516
aVwaddling
p6517
aVfungus
p6518
aVgrowths
p6519
aVjus
p6520
aaa(lp6521
(lp6522
Vsconstrued
p6523
aV.
aa(lp6524
Vi
aVdo
p6525
aVn't
p6526
aVlike
p6527
aVto
p6528
aVlook
p6529
aVout
p6530
aVof
p6531
aVthe
p6532
aVwindows
p6533
aVeven
p6534
aV--
p6535
aVthere
p6536
aVare
p6537
aVso
p6538
aVmany
p6539
aVof
p6540
aVthose
p6541
aVcreeping
p6542
aVwomen
p6543
aV,
aVand
p6544
aVthey
p6545
aVcreep
p6546
aVso
p6547
aVfast
p6548
aV.
aa(lp6549
Vi
aVwonder
p6550
aVif
p6551
aVthey
p6552
aVall
p6553
aVcome
p6554
aVout
p6555
aVof
p6556
aVthat
p6557
aVwall-paper
p6558
aVas
p6559
aVi
aVdid
p6560
aV?
aa(lp6561
Vbut
p6562
aVi
aVam
p6563
aVsecurely
p6564
aVfastened
p6565
aVnow
p6566
aVby
p6567
aVmy
p6568
aVwell-hidden
p6569
aVrope
p6570
aV--
p6571
aVyou
p6572
aVdo
p6573
aVn't
p6574
aVget
p6575
aVme
p6576
aVout
p6577
aVin
p6578
aVthe
p6579
aVroad
p6580
aVthere
p6581
aV!
aa(lp6582
Vi
aVsuppose
p6583
aVi
aVshall
p6584
aVhave
p6585
aVto
p6586
aVget
p6587
aVback
p6588
aVbehind
p6589
aVthe
p6590
aVpattern
p6591
aVwhen
p6592
aVit
p6593
aVcomes
p6594
aVnight
p6595
aV,
aVand
p6596
aVthat
p6597
aVis
p6598
aVhard
p6599
aV!
aa(lp6600
Vit
p6601
aVis
p6602
aVso
p6603
aVpleasant
p6604
aVto
p6605
aVbe
p6606
aVout
p6607
aVin
p6608
aVthis
p6609
aVgreat
p6610
aVroom
p6611
aVand
p6612
aVcreep
p6613
aVaround
p6614
aVas
p6615
aVi
aVplease
p6616
aV!
aa(lp6617
Vi
aVdo
p6618
aVn't
p6619
aVwant
p6620
aVto
p6621
aVgo
p6622
aVoutside
p6623
aV.
aa(lp6624
Vi
aVwo
p6625
aVn't
p6626
aV,
aVeven
p6627
aVif
p6628
aVjennie
p6629
aVasks
p6630
aVme
p6631
aVto
p6632
aV.
aa(lp6633
Vfor
p6634
aVoutside
p6635
aVyou
p6636
aVhave
p6637
aVto
p6638
aVcreep
p6639
aVon
p6640
aVthe
p6641
aVground
p6642
aV,
aVand
p6643
aVeverything
p6644
aVis
p6645
aVgreen
p6646
aVinstead
p6647
aVof
p6648
aVyellow
p6649
aV.
aa(lp6650
Vbut
p6651
aVhere
p6652
aVi
aVcan
p6653
aVcreep
p6654
aVsmoothly
p6655
aVon
p6656
aVthe
p6657
aVfloor
p6658
aV,
aVand
p6659
aVmy
p6660
aVshoulder
p6661
aVjust
p6662
aVfits
p6663
aVin
p6664
aVthat
p6665
aVlong
p6666
aVsmooch
p6667
aVaround
p6668
aVthe
p6669
aVwall
p6670
aV,
aVso
p6671
aVi
aVcan
p6672
aVnot
p6673
aVlose
p6674
aVmy
p6675
aVway
p6676
aV.
aa(lp6677
Vwhy
p6678
aVthere
p6679
aV's
p6680
aVjohn
p6681
aVat
p6682
aVthe
p6683
aVdoor
p6684
aV!
aa(lp6685
Vit
p6686
aVis
p6687
aVno
p6688
aVuse
p6689
aV,
aVyoung
p6690
aVman
p6691
aV,
aVyou
p6692
aVca
p6693
aVn't
p6694
aVopen
p6695
aVit
p6696
aV!
aa(lp6697
Vhow
p6698
aVhe
p6699
aVdoes
p6700
aVcall
p6701
aVand
p6702
aVpound
p6703
aV!
aa(lp6704
Vnow
p6705
aVhe
p6706
aV's
p6707
aVcrying
p6708
aVfor
p6709
aVan
p6710
aVaxe
p6711
aV.
aa(lp6712
Vit
p6713
aVwould
p6714
aVbe
p6715
aVa
aVshame
p6716
aVto
p6717
aVbreak
p6718
aVdown
p6719
aVthat
p6720
aVbeautiful
p6721
aVdoor
p6722
aV!
aa(lp6723
V``
p6724
aVjohn
p6725
aVdear
p6726
aV!
aV''
p6727
aa(lp6728
Vsaid
p6729
aVi
aVin
p6730
aVthe
p6731
aVgentlest
p6732
aVvoice
p6733
aV,
aV``
p6734
aVthe
p6735
aVkey
p6736
aVis
p6737
aVdown
p6738
aVby
p6739
aVthe
p6740
aVfront
p6741
aVs
aaasg96
NsssS'mainText'
p6742
(lp6743
(lp6744
Vthe
p6745
aVyellow
p6746
aVwallpaper
p6747
aVit
p6748
aVis
p6749
aVvery
p6750
aVseldom
p6751
aVthat
p6752
aVmere
p6753
aVordinary
p6754
aVpeople
p6755
aVlike
p6756
aVjohn
p6757
aVand
p6758
aVmyself
p6759
aVsecure
p6760
aVancestral
p6761
aVhalls
p6762
aVfor
p6763
aVthe
p6764
aVsummer
p6765
aV.
aa(lp6766
Va
aVcolonial
p6767
aVmansion
p6768
aV,
aVa
aVhereditary
p6769
aVestate
p6770
aV,
aVi
aVwould
p6771
aVsay
p6772
aVa
aVhaunted
p6773
aVhouse
p6774
aV,
aVand
p6775
aVreach
p6776
aVthe
p6777
aVheight
p6778
aVof
p6779
aVromantic
p6780
aVfelicity
p6781
aV--
p6782
aVbut
p6783
aVthat
p6784
aVwould
p6785
aVbe
p6786
aVasking
p6787
aVtoo
p6788
aVmuch
p6789
aVof
p6790
aVfate
p6791
aV!
aa(lp6792
Vstill
p6793
aVi
aVwill
p6794
aVproudly
p6795
aVdeclare
p6796
aVthat
p6797
aVthere
p6798
aVis
p6799
aVsomething
p6800
aVqueer
p6801
aVabout
p6802
aVit
p6803
aV.
aa(lp6804
Velse
p6805
aV,
aVwhy
p6806
aVshould
p6807
aVit
p6808
aVbe
p6809
aVlet
p6810
aVso
p6811
aVcheaply
p6812
aV?
aa(lp6813
Vand
p6814
aVwhy
p6815
aVhave
p6816
aVstood
p6817
aVso
p6818
aVlong
p6819
aVuntenanted
p6820
aV?
aa(lp6821
Vjohn
p6822
aVlaughs
p6823
aVat
p6824
aVme
p6825
aV,
aVof
p6826
aVcourse
p6827
aV,
aVbut
p6828
aVone
p6829
aVexpects
p6830
aVthat
p6831
aVin
p6832
aVmarriage
p6833
aV.
aa(lp6834
Vjohn
p6835
aVis
p6836
aVpractical
p6837
aVin
p6838
aVthe
p6839
aVextreme
p6840
aV.
aa(lp6841
Vhe
p6842
aVhas
p6843
aVno
p6844
aVpatience
p6845
aVwith
p6846
aVfaith
p6847
aV,
aVan
p6848
aVintense
p6849
aVhorror
p6850
aVof
p6851
aVsuperstition
p6852
aV,
aVand
p6853
aVhe
p6854
aVscoffs
p6855
aVopenly
p6856
aVat
p6857
aVany
p6858
aVtalk
p6859
aVof
p6860
aVthings
p6861
aVnot
p6862
aVto
p6863
aVbe
p6864
aVfelt
p6865
aVand
p6866
aVseen
p6867
aVand
p6868
aVput
p6869
aVdown
p6870
aVin
p6871
aVfigures
p6872
aV.
aa(lp6873
Vjohn
p6874
aVis
p6875
aVa
aVphysician
p6876
aV,
aVand
p6877
aVperhaps
p6878
aV--
p6879
aV(
aVi
aVwould
p6880
aVnot
p6881
aVsay
p6882
aVit
p6883
aVto
p6884
aVa
aVliving
p6885
aVsoul
p6886
aV,
aVof
p6887
aVcourse
p6888
aV,
aVbut
p6889
aVthis
p6890
aVis
p6891
aVdead
p6892
aVpaper
p6893
aVand
p6894
aVa
aVgreat
p6895
aVrelief
p6896
aVto
p6897
aVmy
p6898
aVmind
p6899
aV)
aV--
p6900
aVperhaps
p6901
aVthat
p6902
aVis
p6903
aVone
p6904
aVreason
p6905
aVi
aVdo
p6906
aVnot
p6907
aVget
p6908
aVwell
p6909
aVfaster
p6910
aV.
aa(lp6911
Vyou
p6912
aVsee
p6913
aVhe
p6914
aVdoes
p6915
aVnot
p6916
aVbelieve
p6917
aVi
aVam
p6918
aVsick
p6919
aV!
aa(lp6920
Vand
p6921
aVwhat
p6922
aVcan
p6923
aVone
p6924
aVdo
p6925
aV?
aa(lp6926
Vif
p6927
aVa
aVphysician
p6928
aVof
p6929
aVhigh
p6930
aVstanding
p6931
aV,
aVand
p6932
aVone
p6933
aV's
p6934
aVown
p6935
aVhusband
p6936
aV,
aVassures
p6937
aVfriends
p6938
aVand
p6939
aVrelatives
p6940
aVthat
p6941
aVthere
p6942
aVis
p6943
aVreally
p6944
aVnothing
p6945
aVthe
p6946
aVmatter
p6947
aVwith
p6948
aVone
p6949
aVbut
p6950
aVtemporary
p6951
aVnervous
p6952
aVdepression
p6953
aV--
p6954
aVa
aVslight
p6955
aVhysterical
p6956
aVtendency
p6957
aV--
p6958
aVwhat
p6959
aVis
p6960
aVone
p6961
aVto
p6962
aVdo
p6963
aV?
aa(lp6964
Vmy
p6965
aVbrother
p6966
aVis
p6967
aValso
p6968
aVa
aVphysician
p6969
aV,
aVand
p6970
aValso
p6971
aVof
p6972
aVhigh
p6973
aVstanding
p6974
aV,
aVand
p6975
aVhe
p6976
aVsays
p6977
aVthe
p6978
aVsame
p6979
aVthing
p6980
aV.
aa(lp6981
Vso
p6982
aVi
aVtake
p6983
aVphosphates
p6984
aVor
p6985
aVphosphites
p6986
aV--
p6987
aVwhichever
p6988
aVit
p6989
aVis
p6990
aV,
aVand
p6991
aVtonics
p6992
aV,
aVand
p6993
aVjourneys
p6994
aV,
aVand
p6995
aVair
p6996
aV,
aVand
p6997
aVexercise
p6998
aV,
aVand
p6999
aVam
p7000
aVabsolutely
p7001
aVforbidden
p7002
aVto
p7003
aV``
p7004
aVwork
p7005
aV''
p7006
aVuntil
p7007
aVi
aVam
p7008
aVwell
p7009
aVagain
p7010
aV.
aa(lp7011
Vpersonally
p7012
aV,
aVi
aVdisagree
p7013
aVwith
p7014
aVtheir
p7015
aVideas
p7016
aV.
aa(lp7017
Vpersonally
p7018
aV,
aVi
aVbelieve
p7019
aVthat
p7020
aVcongenial
p7021
aVwork
p7022
aV,
aVwith
p7023
aVexcitement
p7024
aVand
p7025
aVchange
p7026
aV,
aVwould
p7027
aVdo
p7028
aVme
p7029
aVgood
p7030
aV.
aa(lp7031
Vbut
p7032
aVwhat
p7033
aVis
p7034
aVone
p7035
aVto
p7036
aVdo
p7037
aV?
aa(lp7038
Vi
aVdid
p7039
aVwrite
p7040
aVfor
p7041
aVa
aVwhile
p7042
aVin
p7043
aVspite
p7044
aVof
p7045
aVthem
p7046
aV;
aVbut
p7047
aVit
p7048
aVdoes
p7049
aVexhaust
p7050
aVme
p7051
aVa
aVgood
p7052
aVdeal
p7053
aV--
p7054
aVhaving
p7055
aVto
p7056
aVbe
p7057
aVso
p7058
aVsly
p7059
aVabout
p7060
aVit
p7061
aV,
aVor
p7062
aVelse
p7063
aVmeet
p7064
aVwith
p7065
aVheavy
p7066
aVopposition
p7067
aV.
aa(lp7068
Vi
aVsometimes
p7069
aVfancy
p7070
aVthat
p7071
aVin
p7072
aVmy
p7073
aVcondition
p7074
aVif
p7075
aVi
aVhad
p7076
aVless
p7077
aVopposition
p7078
aVand
p7079
aVmore
p7080
aVsociety
p7081
aVand
p7082
aVstimulus
p7083
aV--
p7084
aVbut
p7085
aVjohn
p7086
aVsays
p7087
aVthe
p7088
aVvery
p7089
aVworst
p7090
aVthing
p7091
aVi
aVcan
p7092
aVdo
p7093
aVis
p7094
aVto
p7095
aVthink
p7096
aVabout
p7097
aVmy
p7098
aVcondition
p7099
aV,
aVand
p7100
aVi
aVconfess
p7101
aVit
p7102
aValways
p7103
aVmakes
p7104
aVme
p7105
aVfeel
p7106
aVbad
p7107
aV.
aa(lp7108
Vso
p7109
aVi
aVwill
p7110
aVlet
p7111
aVit
p7112
aValone
p7113
aVand
p7114
aVtalk
p7115
aVabout
p7116
aVthe
p7117
aVhouse
p7118
aV.
aa(lp7119
Vthe
p7120
aVmost
p7121
aVbeautiful
p7122
aVplace
p7123
aV!
aa(lp7124
Vit
p7125
aVis
p7126
aVquite
p7127
aValone
p7128
aV,
aVstanding
p7129
aVwell
p7130
aVback
p7131
aVfrom
p7132
aVthe
p7133
aVroad
p7134
aV,
aVquite
p7135
aVthree
p7136
aVmiles
p7137
aVfrom
p7138
aVthe
p7139
aVvillage
p7140
aV.
aa(lp7141
Vit
p7142
aVmakes
p7143
aVme
p7144
aVthink
p7145
aVof
p7146
aVenglish
p7147
aVplaces
p7148
aVthat
p7149
aVyou
p7150
aVread
p7151
aVabout
p7152
aV,
aVfor
p7153
aVthere
p7154
aVare
p7155
aVhedges
p7156
aVand
p7157
aVwalls
p7158
aVand
p7159
aVgates
p7160
aVthat
p7161
aVlock
p7162
aV,
aVand
p7163
aVlots
p7164
aVof
p7165
aVseparate
p7166
aVlittle
p7167
aVhouses
p7168
aVfor
p7169
aVthe
p7170
aVgardeners
p7171
aVand
p7172
aVpeople
p7173
aV.
aa(lp7174
Vthere
p7175
aVis
p7176
aVa
aVdelicious
p7177
aVgarden
p7178
aV!
aa(lp7179
Vi
aVnever
p7180
aVsaw
p7181
aVsuch
p7182
aVa
aVgarden
p7183
aV--
p7184
aVlarge
p7185
aVand
p7186
aVshady
p7187
aV,
aVfull
p7188
aVof
p7189
aVbox-bordered
p7190
aVpaths
p7191
aV,
aVand
p7192
aVlined
p7193
aVwith
p7194
aVlong
p7195
aVgrape-covered
p7196
aVarbors
p7197
aVwith
p7198
aVseats
p7199
aVunder
p7200
aVthem
p7201
aV.
aa(lp7202
Vthere
p7203
aVwere
p7204
aVgreenhouses
p7205
aV,
aVtoo
p7206
aV,
aVbut
p7207
aVthey
p7208
aVare
p7209
aVall
p7210
aVbroken
p7211
aVnow
p7212
aV.
aa(lp7213
Vthere
p7214
aVwas
p7215
aVsome
p7216
aVlegal
p7217
aVtrouble
p7218
aV,
aVi
aVbelieve
p7219
aV,
aVsomething
p7220
aVabout
p7221
aVthe
p7222
aVheirs
p7223
aVand
p7224
aVcoheirs
p7225
aV;
aVanyhow
p7226
aV,
aVthe
p7227
aVplace
p7228
aVhas
p7229
aVbeen
p7230
aVempty
p7231
aVfor
p7232
aVyears
p7233
aV.
aa(lp7234
Vthat
p7235
aVspoils
p7236
aVmy
p7237
aVghostliness
p7238
aV,
aVi
aVam
p7239
aVafraid
p7240
aV,
aVbut
p7241
aVi
aVdo
p7242
aVn't
p7243
aVcare
p7244
aV--
p7245
aVthere
p7246
aVis
p7247
aVsomething
p7248
aVstrange
p7249
aVabout
p7250
aVthe
p7251
aVhouse
p7252
aV--
p7253
aVi
aVcan
p7254
aVfeel
p7255
aVit
p7256
aV.
aa(lp7257
Vi
aVeven
p7258
aVsaid
p7259
aVso
p7260
aVto
p7261
aVjohn
p7262
aVone
p7263
aVmoonlight
p7264
aVevening
p7265
aV,
aVbut
p7266
aVhe
p7267
aVsaid
p7268
aVwhat
p7269
aVi
aVfelt
p7270
aVwas
p7271
aVa
aVdraught
p7272
aV,
aVand
p7273
aVshut
p7274
aVthe
p7275
aVwindow
p7276
aV.
aa(lp7277
Vi
aVget
p7278
aVunreasonably
p7279
aVangry
p7280
aVwith
p7281
aVjohn
p7282
aVsometimes
p7283
aV.
aa(lp7284
Vi
aV'm
p7285
aVsure
p7286
aVi
aVnever
p7287
aVused
p7288
aVto
p7289
aVbe
p7290
aVso
p7291
aVsensitive
p7292
aV.
aa(lp7293
Vi
aVthink
p7294
aVit
p7295
aVis
p7296
aVdue
p7297
aVto
p7298
aVthis
p7299
aVnervous
p7300
aVcondition
p7301
aV.
aa(lp7302
Vbut
p7303
aVjohn
p7304
aVsays
p7305
aVif
p7306
aVi
aVfeel
p7307
aVso
p7308
aV,
aVi
aVshall
p7309
aVneglect
p7310
aVproper
p7311
aVself-control
p7312
aV;
aVso
p7313
aVi
aVtake
p7314
aVpains
p7315
aVto
p7316
aVcontrol
p7317
aVmyself
p7318
aV--
p7319
aVbefore
p7320
aVhim
p7321
aV,
aVat
p7322
aVleast
p7323
aV,
aVand
p7324
aVthat
p7325
aVmakes
p7326
aVme
p7327
aVvery
p7328
aVtired
p7329
aV.
aa(lp7330
Vi
aVdo
p7331
aVn't
p7332
aVlike
p7333
aVour
p7334
aVroom
p7335
aVa
aVbit
p7336
aV.
aa(lp7337
Vi
aVwanted
p7338
aVone
p7339
aVdownstairs
p7340
aVthat
p7341
aVopened
p7342
aVon
p7343
aVthe
p7344
aVpiazza
p7345
aVand
p7346
aVhad
p7347
aVroses
p7348
aVall
p7349
aVover
p7350
aVthe
p7351
aVwindow
p7352
aV,
aVand
p7353
aVsuch
p7354
aVpretty
p7355
aVold-fashioned
p7356
aVchintz
p7357
aVhangings
p7358
aV!
aa(lp7359
Vbut
p7360
aVjohn
p7361
aVwould
p7362
aVnot
p7363
aVhear
p7364
aVof
p7365
aVit
p7366
aV.
aa(lp7367
Vhe
p7368
aVsaid
p7369
aVthere
p7370
aVwas
p7371
aVonly
p7372
aVone
p7373
aVwindow
p7374
aVand
p7375
aVnot
p7376
aVroom
p7377
aVfor
p7378
aVtwo
p7379
aVbeds
p7380
aV,
aVand
p7381
aVno
p7382
aVnear
p7383
aVroom
p7384
aVfor
p7385
aVhim
p7386
aVif
p7387
aVhe
p7388
aVtook
p7389
aVanother
p7390
aV.
aa(lp7391
Vhe
p7392
aVis
p7393
aVvery
p7394
aVcareful
p7395
aVand
p7396
aVloving
p7397
aV,
aVand
p7398
aVhardly
p7399
aVlets
p7400
aVme
p7401
aVstir
p7402
aVwithout
p7403
aVspecial
p7404
aVdirection
p7405
aV.
aa(lp7406
Vi
aVhave
p7407
aVa
aVschedule
p7408
aVprescription
p7409
aVfor
p7410
aVeach
p7411
aVhour
p7412
aVin
p7413
aVthe
p7414
aVday
p7415
aV;
aVhe
p7416
aVtakes
p7417
aVall
p7418
aVcare
p7419
aVfrom
p7420
aVme
p7421
aV,
aVand
p7422
aVso
p7423
aVi
aVfeel
p7424
aVbasely
p7425
aVungrateful
p7426
aVnot
p7427
aVto
p7428
aVvalue
p7429
aVit
p7430
aVmore
p7431
aV.
aa(lp7432
Vhe
p7433
aVsaid
p7434
aVwe
p7435
aVcame
p7436
aVhere
p7437
aVsolely
p7438
aVon
p7439
aVmy
p7440
aVaccount
p7441
aV,
aVthat
p7442
aVi
aVwas
p7443
aVto
p7444
aVhave
p7445
aVperfect
p7446
aVrest
p7447
aVand
p7448
aVall
p7449
aVthe
p7450
aVair
p7451
aVi
aVcould
p7452
aVget
p7453
aV.
aa(lp7454
V``
p7455
aVyour
p7456
aVexercise
p7457
aVdepends
p7458
aVon
p7459
aVyour
p7460
aVstrength
p7461
aV,
aVmy
p7462
aVdear
p7463
aV,
aV''
p7464
aVsaid
p7465
aVhe
p7466
aV,
aV``
p7467
aVand
p7468
aVyour
p7469
aVfood
p7470
aVsomewhat
p7471
aVon
p7472
aVyour
p7473
aVappetite
p7474
aV;
aVbut
p7475
aVair
p7476
aVyou
p7477
aVcan
p7478
aVabsorb
p7479
aVall
p7480
aVthe
p7481
aVtime
p7482
aV.
aV''
p7483
aa(lp7484
Vso
p7485
aVwe
p7486
aVtook
p7487
aVthe
p7488
aVnursery
p7489
aVat
p7490
aVthe
p7491
aVtop
p7492
aVof
p7493
aVthe
p7494
aVhouse
p7495
aV.
aa(lp7496
Vit
p7497
aVis
p7498
aVa
aVbig
p7499
aV,
aVairy
p7500
aVroom
p7501
aV,
aVthe
p7502
aVwhole
p7503
aVfloor
p7504
aVnearly
p7505
aV,
aVwith
p7506
aVwindows
p7507
aVthat
p7508
aVlook
p7509
aVall
p7510
aVways
p7511
aV,
aVand
p7512
aVair
p7513
aVand
p7514
aVsunshine
p7515
aVgalore
p7516
aV.
aa(lp7517
Vit
p7518
aVwas
p7519
aVnursery
p7520
aVfirst
p7521
aVand
p7522
aVthen
p7523
aVplayroom
p7524
aVand
p7525
aVgymnasium
p7526
aV,
aVi
aVshould
p7527
aVjudge
p7528
aV;
aVfor
p7529
aVthe
p7530
aVwindows
p7531
aVare
p7532
aVbarred
p7533
aVfor
p7534
aVlittle
p7535
aVchildren
p7536
aV,
aVand
p7537
aVthere
p7538
aVare
p7539
aVrings
p7540
aVand
p7541
aVthings
p7542
aVin
p7543
aVthe
p7544
aVwalls
p7545
aV.
aa(lp7546
Vthe
p7547
aVpaint
p7548
aVand
p7549
aVpaper
p7550
aVlook
p7551
aVas
p7552
aVif
p7553
aVa
aVboys
p7554
aV'
aVschool
p7555
aVhad
p7556
aVused
p7557
aVit
p7558
aV.
aa(lp7559
Vit
p7560
aVis
p7561
aVstripped
p7562
aVoff
p7563
aV--
p7564
aVthe
p7565
aVpaper
p7566
aV--
p7567
aVin
p7568
aVgreat
p7569
aVpatches
p7570
aVall
p7571
aVaround
p7572
aVthe
p7573
aVhead
p7574
aVof
p7575
aVmy
p7576
aVbed
p7577
aV,
aVabout
p7578
aVas
p7579
aVfar
p7580
aVas
p7581
aVi
aVcan
p7582
aVreach
p7583
aV,
aVand
p7584
aVin
p7585
aVa
aVgreat
p7586
aVplace
p7587
aVon
p7588
aVthe
p7589
aVother
p7590
aVside
p7591
aVof
p7592
aVthe
p7593
aVroom
p7594
aVlow
p7595
aVdown
p7596
aV.
aa(lp7597
Vi
aVnever
p7598
aVsaw
p7599
aVa
aVworse
p7600
aVpaper
p7601
aVin
p7602
aVmy
p7603
aVlife
p7604
aV.
aa(lp7605
Vone
p7606
aVof
p7607
aVthose
p7608
aVsprawling
p7609
aVflamboyant
p7610
aVpatterns
p7611
aVcommitting
p7612
aVevery
p7613
aVartistic
p7614
aVsin
p7615
aV.
aa(lp7616
Vit
p7617
aVis
p7618
aVdull
p7619
aVenough
p7620
aVto
p7621
aVconfuse
p7622
aVthe
p7623
aVeye
p7624
aVin
p7625
aVfollowing
p7626
aV,
aVpronounced
p7627
aVenough
p7628
aVto
p7629
aVconstantly
p7630
aVirritate
p7631
aVand
p7632
aVprovoke
p7633
aVstudy
p7634
aV,
aVand
p7635
aVwhen
p7636
aVyou
p7637
aVfollow
p7638
aVthe
p7639
aVlame
p7640
aVuncertain
p7641
aVcurves
p7642
aVfor
p7643
aVa
aVlittle
p7644
aVdistance
p7645
aVthey
p7646
aVsuddenly
p7647
aVcommit
p7648
aVsuicide
p7649
aV--
p7650
aVplunge
p7651
aVoff
p7652
aVat
p7653
aVoutrageous
p7654
aVangles
p7655
aV,
aVdestroy
p7656
aVthemselves
p7657
aVin
p7658
aVunheard
p7659
aVof
p7660
aVcontradictions
p7661
aV.
aa(lp7662
Vthe
p7663
aVcolor
p7664
aVis
p7665
aVrepellent
p7666
aV,
aValmost
p7667
aVrevolting
p7668
aV;
aVa
aVsmouldering
p7669
aVunclean
p7670
aVyellow
p7671
aV,
aVstrangely
p7672
aVfaded
p7673
aVby
p7674
aVthe
p7675
aVslow-turning
p7676
aVsunlight
p7677
aV.
aa(lp7678
Vit
p7679
aVis
p7680
aVa
aVdull
p7681
aVyet
p7682
aVlurid
p7683
aVorange
p7684
aVin
p7685
aVsome
p7686
aVplaces
p7687
aV,
aVa
aVsickly
p7688
aVsulphur
p7689
aVtint
p7690
aVin
p7691
aVothers
p7692
aV.
aa(lp7693
Vno
p7694
aVwonder
p7695
aVthe
p7696
aVchildren
p7697
aVhated
p7698
aVit
p7699
aV!
aa(lp7700
Vi
aVshould
p7701
aVhate
p7702
aVit
p7703
aVmyself
p7704
aVif
p7705
aVi
aVhad
p7706
aVto
p7707
aVlive
p7708
aVin
p7709
aVthis
p7710
aVroom
p7711
aVlong
p7712
aV.
aa(lp7713
Vthere
p7714
aVcomes
p7715
aVjohn
p7716
aV,
aVand
p7717
aVi
aVmust
p7718
aVput
p7719
aVthis
p7720
aVaway
p7721
aV,
aV--
p7722
aVhe
p7723
aVhates
p7724
aVto
p7725
aVhave
p7726
aVme
p7727
aVwrite
p7728
aVa
aVword
p7729
aV.
aa(lp7730
Vwe
p7731
aVhave
p7732
aVbeen
p7733
aVhere
p7734
aVtwo
p7735
aVweeks
p7736
aV,
aVand
p7737
aVi
aVhave
p7738
aVn't
p7739
aVfelt
p7740
aVlike
p7741
aVwriting
p7742
aVbefore
p7743
aV,
aVsince
p7744
aVthat
p7745
aVfirst
p7746
aVday
p7747
aV.
aa(lp7748
Vi
aVam
p7749
aVsitting
p7750
aVby
p7751
aVthe
p7752
aVwindow
p7753
aVnow
p7754
aV,
aVup
p7755
aVin
p7756
aVthis
p7757
aVatrocious
p7758
aVnursery
p7759
aV,
aVand
p7760
aVthere
p7761
aVis
p7762
aVnothing
p7763
aVto
p7764
aVhinder
p7765
aVmy
p7766
aVwriting
p7767
aVas
p7768
aVmuch
p7769
aVas
p7770
aVi
aVplease
p7771
aV,
aVsave
p7772
aVlack
p7773
aVof
p7774
aVstrength
p7775
aV.
aa(lp7776
Vjohn
p7777
aVis
p7778
aVaway
p7779
aVall
p7780
aVday
p7781
aV,
aVand
p7782
aVeven
p7783
aVsome
p7784
aVnights
p7785
aVwhen
p7786
aVhis
p7787
aVcases
p7788
aVare
p7789
aVserious
p7790
aV.
aa(lp7791
Vi
aVam
p7792
aVglad
p7793
aVmy
p7794
aVcase
p7795
aVis
p7796
aVnot
p7797
aVserious
p7798
aV!
aa(lp7799
Vbut
p7800
aVthese
p7801
aVnervous
p7802
aVtroubles
p7803
aVare
p7804
aVdreadfully
p7805
aVdepressing
p7806
aV.
aa(lp7807
Vjohn
p7808
aVdoes
p7809
aVnot
p7810
aVknow
p7811
aVhow
p7812
aVmuch
p7813
aVi
aVreally
p7814
aVsuffer
p7815
aV.
aa(lp7816
Vhe
p7817
aVknows
p7818
aVthere
p7819
aVis
p7820
aVno
p7821
aVreason
p7822
aVto
p7823
aVsuffer
p7824
aV,
aVand
p7825
aVthat
p7826
aVsatisfies
p7827
aVhim
p7828
aV.
aa(lp7829
Vof
p7830
aVcourse
p7831
aVit
p7832
aVis
p7833
aVonly
p7834
aVnervousness
p7835
aV.
aa(lp7836
Vit
p7837
aVdoes
p7838
aVweigh
p7839
aVon
p7840
aVme
p7841
aVso
p7842
aVnot
p7843
aVto
p7844
aVdo
p7845
aVmy
p7846
aVduty
p7847
aVin
p7848
aVany
p7849
aVway
p7850
aV!
aa(lp7851
Vi
aVmeant
p7852
aVto
p7853
aVbe
p7854
aVsuch
p7855
aVa
aVhelp
p7856
aVto
p7857
aVjohn
p7858
aV,
aVsuch
p7859
aVa
aVreal
p7860
aVrest
p7861
aVand
p7862
aVcomfort
p7863
aV,
aVand
p7864
aVhere
p7865
aVi
aVam
p7866
aVa
aVcomparative
p7867
aVburden
p7868
aValready
p7869
aV!
aa(lp7870
Vnobody
p7871
aVwould
p7872
aVbelieve
p7873
aVwhat
p7874
aVan
p7875
aVeffort
p7876
aVit
p7877
aVis
p7878
aVto
p7879
aVdo
p7880
aVwhat
p7881
aVlittle
p7882
aVi
aVam
p7883
aVable
p7884
aV,
aV--
p7885
aVto
p7886
aVdress
p7887
aVand
p7888
aVentertain
p7889
aV,
aVand
p7890
aVorder
p7891
aVthings
p7892
aV.
aa(lp7893
Vit
p7894
aVis
p7895
aVfortunate
p7896
aVmary
p7897
aVis
p7898
aVso
p7899
aVgood
p7900
aVwith
p7901
aVthe
p7902
aVbaby
p7903
aV.
aa(lp7904
Vsuch
p7905
aVa
aVdear
p7906
aVbaby
p7907
aV!
aa(lp7908
Vand
p7909
aVyet
p7910
aVi
aVcan
p7911
aVnot
p7912
aVbe
p7913
aVwith
p7914
aVhim
p7915
aV,
aVit
p7916
aVmakes
p7917
aVme
p7918
aVso
p7919
aVnervous
p7920
aV.
aa(lp7921
Vi
aVsuppose
p7922
aVjohn
p7923
aVnever
p7924
aVwas
p7925
aVnervous
p7926
aVin
p7927
aVhis
p7928
aVlife
p7929
aV.
aa(lp7930
Vhe
p7931
aVlaughs
p7932
aVat
p7933
aVme
p7934
aVso
p7935
aVabout
p7936
aVthis
p7937
aVwall-paper
p7938
aV!
aa(lp7939
Vat
p7940
aVfirst
p7941
aVhe
p7942
aVmeant
p7943
aVto
p7944
aVrepaper
p7945
aVthe
p7946
aVroom
p7947
aV,
aVbut
p7948
aVafterwards
p7949
aVhe
p7950
aVsaid
p7951
aVthat
p7952
aVi
aVwas
p7953
aVletting
p7954
aVit
p7955
aVget
p7956
aVthe
p7957
aVbetter
p7958
aVof
p7959
aVme
p7960
aV,
aVand
p7961
aVthat
p7962
aVnothing
p7963
aVwas
p7964
aVworse
p7965
aVfor
p7966
aVa
aVnervous
p7967
aVpatient
p7968
aVthan
p7969
aVto
p7970
aVgive
p7971
aVway
p7972
aVto
p7973
aVsuch
p7974
aVfancies
p7975
aV.
aa(lp7976
Vhe
p7977
aVsaid
p7978
aVthat
p7979
aVafter
p7980
aVthe
p7981
aVwall-paper
p7982
aVwas
p7983
aVchanged
p7984
aVit
p7985
aVwould
p7986
aVbe
p7987
aVthe
p7988
aVheavy
p7989
aVbedstead
p7990
aV,
aVand
p7991
aVthen
p7992
aVthe
p7993
aVbarred
p7994
aVwindows
p7995
aV,
aVand
p7996
aVthen
p7997
aVthat
p7998
aVgate
p7999
aVat
p8000
aVthe
p8001
aVhead
p8002
aVof
p8003
aVthe
p8004
aVstairs
p8005
aV,
aVand
p8006
aVso
p8007
aVon
p8008
aV.
aa(lp8009
V``
p8010
aVyou
p8011
aVknow
p8012
aVthe
p8013
aVplace
p8014
aVis
p8015
aVdoing
p8016
aVyou
p8017
aVgood
p8018
aV,
aV''
p8019
aVhe
p8020
aVsaid
p8021
aV,
aV``
p8022
aVand
p8023
aVreally
p8024
aV,
aVdear
p8025
aV,
aVi
aVdo
p8026
aVn't
p8027
aVcare
p8028
aVto
p8029
aVrenovate
p8030
aVthe
p8031
aVhouse
p8032
aVjust
p8033
aVfor
p8034
aVa
aVthree
p8035
aVmonths
p8036
aV'
aVrental
p8037
aV.
aV''
p8038
aa(lp8039
V``
p8040
aVthen
p8041
aVdo
p8042
aVlet
p8043
aVus
p8044
aVgo
p8045
aVdownstairs
p8046
aV,
aV''
p8047
aVi
aVsaid
p8048
aV,
aV``
p8049
aVthere
p8050
aVare
p8051
aVsuch
p8052
aVpretty
p8053
aVrooms
p8054
aVthere
p8055
aV.
aV''
p8056
aa(lp8057
Vthen
p8058
aVhe
p8059
aVtook
p8060
aVme
p8061
aVin
p8062
aVhis
p8063
aVarms
p8064
aVand
p8065
aVcalled
p8066
aVme
p8067
aVa
aVblessed
p8068
aVlittle
p8069
aVgoose
p8070
aV,
aVand
p8071
aVsaid
p8072
aVhe
p8073
aVwould
p8074
aVgo
p8075
aVdown
p8076
aVto
p8077
aVthe
p8078
aVcellar
p8079
aV,
aVif
p8080
aVi
aVwished
p8081
aV,
aVand
p8082
aVhave
p8083
aVit
p8084
aVwhitewashed
p8085
aVinto
p8086
aVthe
p8087
aVbargain
p8088
aV.
aa(lp8089
Vbut
p8090
aVhe
p8091
aVis
p8092
aVright
p8093
aVenough
p8094
aVabout
p8095
aVthe
p8096
aVbeds
p8097
aVand
p8098
aVwindows
p8099
aVand
p8100
aVthings
p8101
aV.
aa(lp8102
Vit
p8103
aVis
p8104
aVan
p8105
aVairy
p8106
aVand
p8107
aVcomfortable
p8108
aVroom
p8109
aVas
p8110
aVany
p8111
aVone
p8112
aVneed
p8113
aVwish
p8114
aV,
aVand
p8115
aV,
aVof
p8116
aVcourse
p8117
aV,
aVi
aVwould
p8118
aVnot
p8119
aVbe
p8120
aVso
p8121
aVsilly
p8122
aVas
p8123
aVto
p8124
aVmake
p8125
aVhim
p8126
aVuncomfortable
p8127
aVjust
p8128
aVfor
p8129
aVa
aVwhim
p8130
aV.
aa(lp8131
Vi
aV'm
p8132
aVreally
p8133
aVgetting
p8134
aVquite
p8135
aVfond
p8136
aVof
p8137
aVthe
p8138
aVbig
p8139
aVroom
p8140
aV,
aVall
p8141
aVbut
p8142
aVthat
p8143
aVhorrid
p8144
aVpaper
p8145
aV.
aa(lp8146
Vout
p8147
aVof
p8148
aVone
p8149
aVwindow
p8150
aVi
aVcan
p8151
aVsee
p8152
aVthe
p8153
aVgarden
p8154
aV,
aVthose
p8155
aVmysterious
p8156
aVdeepshaded
p8157
aVarbors
p8158
aV,
aVthe
p8159
aVriotous
p8160
aVold-fashioned
p8161
aVflowers
p8162
aV,
aVand
p8163
aVbushes
p8164
aVand
p8165
aVgnarly
p8166
aVtrees
p8167
aV.
aa(lp8168
Vout
p8169
aVof
p8170
aVanother
p8171
aVi
aVget
p8172
aVa
aVlovely
p8173
aVview
p8174
aVof
p8175
aVthe
p8176
aVbay
p8177
aVand
p8178
aVa
aVlittle
p8179
aVprivate
p8180
aVwharf
p8181
aVbelonging
p8182
aVto
p8183
aVthe
p8184
aVestate
p8185
aV.
aa(lp8186
Vthere
p8187
aVis
p8188
aVa
aVbeautiful
p8189
aVshaded
p8190
aVlane
p8191
aVthat
p8192
aVruns
p8193
aVdown
p8194
aVthere
p8195
aVfrom
p8196
aVthe
p8197
aVhouse
p8198
aV.
aa(lp8199
Vi
aValways
p8200
aVfancy
p8201
aVi
aVsee
p8202
aVpeople
p8203
aVwalking
p8204
aVin
p8205
aVthese
p8206
aVnumerous
p8207
aVpaths
p8208
aVand
p8209
aVarbors
p8210
aV,
aVbut
p8211
aVjohn
p8212
aVhas
p8213
aVcautioned
p8214
aVme
p8215
aVnot
p8216
aVto
p8217
aVgive
p8218
aVway
p8219
aVto
p8220
aVfancy
p8221
aVin
p8222
aVthe
p8223
aVleast
p8224
aV.
aa(lp8225
Vhe
p8226
aVsays
p8227
aVthat
p8228
aVwith
p8229
aVmy
p8230
aVimaginative
p8231
aVpower
p8232
aVand
p8233
aVhabit
p8234
aVof
p8235
aVstory-making
p8236
aV,
aVa
aVnervous
p8237
aVweakness
p8238
aVlike
p8239
aVmine
p8240
aVis
p8241
aVsure
p8242
aVto
p8243
aVlead
p8244
aVto
p8245
aVall
p8246
aVmanner
p8247
aVof
p8248
aVexcited
p8249
aVfancies
p8250
aV,
aVand
p8251
aVthat
p8252
aVi
aVought
p8253
aVto
p8254
aVuse
p8255
aVmy
p8256
aVwill
p8257
aVand
p8258
aVgood
p8259
aVsense
p8260
aVto
p8261
aVcheck
p8262
aVthe
p8263
aVtendency
p8264
aV.
aa(lp8265
Vso
p8266
aVi
aVtry
p8267
aV.
aa(lp8268
Vi
aVthink
p8269
aVsometimes
p8270
aVthat
p8271
aVif
p8272
aVi
aVwere
p8273
aVonly
p8274
aVwell
p8275
aVenough
p8276
aVto
p8277
aVwrite
p8278
aVa
aVlittle
p8279
aVit
p8280
aVwould
p8281
aVrelieve
p8282
aVthe
p8283
aVpress
p8284
aVof
p8285
aVideas
p8286
aVand
p8287
aVrest
p8288
aVme
p8289
aV.
aa(lp8290
Vbut
p8291
aVi
aVfind
p8292
aVi
aVget
p8293
aVpretty
p8294
aVtired
p8295
aVwhen
p8296
aVi
aVtry
p8297
aV.
aa(lp8298
Vit
p8299
aVis
p8300
aVso
p8301
aVdiscouraging
p8302
aVnot
p8303
aVto
p8304
aVhave
p8305
aVany
p8306
aVadvice
p8307
aVand
p8308
aVcompanionship
p8309
aVabout
p8310
aVmy
p8311
aVwork
p8312
aV.
aa(lp8313
Vwhen
p8314
aVi
aVget
p8315
aVreally
p8316
aVwell
p8317
aV,
aVjohn
p8318
aVsays
p8319
aVwe
p8320
aVwill
p8321
aVask
p8322
aVcousin
p8323
aVhenry
p8324
aVand
p8325
aVjulia
p8326
aVdown
p8327
aVfor
p8328
aVa
aVlong
p8329
aVvisit
p8330
aV;
aVbut
p8331
aVhe
p8332
aVsays
p8333
aVhe
p8334
aVwould
p8335
aVas
p8336
aVsoon
p8337
aVput
p8338
aVfireworks
p8339
aVin
p8340
aVmy
p8341
aVpillow-case
p8342
aVas
p8343
aVto
p8344
aVlet
p8345
aVme
p8346
aVhave
p8347
aVthose
p8348
aVstimulating
p8349
aVpeople
p8350
aVabout
p8351
aVnow
p8352
aV.
aa(lp8353
Vi
aVwish
p8354
aVi
aVcould
p8355
aVget
p8356
aVwell
p8357
aVfaster
p8358
aV.
aa(lp8359
Vbut
p8360
aVi
aVmust
p8361
aVnot
p8362
aVthink
p8363
aVabout
p8364
aVthat
p8365
aV.
aa(lp8366
Vthis
p8367
aVpaper
p8368
aVlooks
p8369
aVto
p8370
aVme
p8371
aVas
p8372
aVif
p8373
aVit
p8374
aVknew
p8375
aVwhat
p8376
aVa
aVvicious
p8377
aVinfluence
p8378
aVit
p8379
aVhad
p8380
aV!
aa(lp8381
Vthere
p8382
aVis
p8383
aVa
aVrecurrent
p8384
aVspot
p8385
aVwhere
p8386
aVthe
p8387
aVpattern
p8388
aVlolls
p8389
aVlike
p8390
aVa
aVbroken
p8391
aVneck
p8392
aVand
p8393
aVtwo
p8394
aVbulbous
p8395
aVeyes
p8396
aVstare
p8397
aVat
p8398
aVyou
p8399
aVupside
p8400
aVdown
p8401
aV.
aa(lp8402
Vi
aVget
p8403
aVpositively
p8404
aVangry
p8405
aVwith
p8406
aVthe
p8407
aVimpertinence
p8408
aVof
p8409
aVit
p8410
aVand
p8411
aVthe
p8412
aVeverlastingness
p8413
aV.
aa(lp8414
Vup
p8415
aVand
p8416
aVdown
p8417
aVand
p8418
aVsideways
p8419
aVthey
p8420
aVcrawl
p8421
aV,
aVand
p8422
aVthose
p8423
aVabsurd
p8424
aV,
aVunblinking
p8425
aVeyes
p8426
aVare
p8427
aVeverywhere
p8428
aV.
aa(lp8429
Vthere
p8430
aVis
p8431
aVone
p8432
aVplace
p8433
aVwhere
p8434
aVtwo
p8435
aVbreadths
p8436
aVdid
p8437
aVn't
p8438
aVmatch
p8439
aV,
aVand
p8440
aVthe
p8441
aVeyes
p8442
aVgo
p8443
aVall
p8444
aVup
p8445
aVand
p8446
aVdown
p8447
aVthe
p8448
aVline
p8449
aV,
aVone
p8450
aVa
aVlittle
p8451
aVhigher
p8452
aVthan
p8453
aVthe
p8454
aVother
p8455
aV.
aa(lp8456
Vi
aVnever
p8457
aVsaw
p8458
aVso
p8459
aVmuch
p8460
aVexpression
p8461
aVin
p8462
aVan
p8463
aVinanimate
p8464
aVthing
p8465
aVbefore
p8466
aV,
aVand
p8467
aVwe
p8468
aVall
p8469
aVknow
p8470
aVhow
p8471
aVmuch
p8472
aVexpression
p8473
aVthey
p8474
aVhave
p8475
aV!
aa(lp8476
Vi
aVused
p8477
aVto
p8478
aVlie
p8479
aVawake
p8480
aVas
p8481
aVa
aVchild
p8482
aVand
p8483
aVget
p8484
aVmore
p8485
aVentertainment
p8486
aVand
p8487
aVterror
p8488
aVout
p8489
aVof
p8490
aVblank
p8491
aVwalls
p8492
aVand
p8493
aVplain
p8494
aVfurniture
p8495
aVthan
p8496
aVmost
p8497
aVchildren
p8498
aVcould
p8499
aVfind
p8500
aVin
p8501
aVa
aVtoy
p8502
aVstore
p8503
aV.
aa(lp8504
Vi
aVremember
p8505
aVwhat
p8506
aVa
aVkindly
p8507
aVwink
p8508
aVthe
p8509
aVknobs
p8510
aVof
p8511
aVour
p8512
aVbig
p8513
aV,
aVold
p8514
aVbureau
p8515
aVused
p8516
aVto
p8517
aVhave
p8518
aV,
aVand
p8519
aVthere
p8520
aVwas
p8521
aVone
p8522
aVchair
p8523
aVthat
p8524
aValways
p8525
aVseemed
p8526
aVlike
p8527
aVa
aVstrong
p8528
aVfriend
p8529
aV.
aa(lp8530
Vi
aVused
p8531
aVto
p8532
aVfeel
p8533
aVthat
p8534
aVif
p8535
aVany
p8536
aVof
p8537
aVthe
p8538
aVother
p8539
aVthings
p8540
aVlooked
p8541
aVtoo
p8542
aVfierce
p8543
aVi
aVcould
p8544
aValways
p8545
aVhop
p8546
aVinto
p8547
aVthat
p8548
aVchair
p8549
aVand
p8550
aVbe
p8551
aVsafe
p8552
aV.
aa(lp8553
Vthe
p8554
aVfurniture
p8555
aVin
p8556
aVthis
p8557
aVroom
p8558
aVis
p8559
aVno
p8560
aVworse
p8561
aVthan
p8562
aVinharmonious
p8563
aV,
aVhowever
p8564
aV,
aVfor
p8565
aVwe
p8566
aVhad
p8567
aVto
p8568
aVbring
p8569
aVit
p8570
aVall
p8571
aVfrom
p8572
aVdownstairs
p8573
aV.
aa(lp8574
Vi
aVsuppose
p8575
aVwhen
p8576
aVthis
p8577
aVwas
p8578
aVused
p8579
aVas
p8580
aVa
aVplayroom
p8581
aVthey
p8582
aVhad
p8583
aVto
p8584
aVtake
p8585
aVthe
p8586
aVnursery
p8587
aVthings
p8588
aVout
p8589
aV,
aVand
p8590
aVno
p8591
aVwonder
p8592
aV!
aa(lp8593
Vi
aVnever
p8594
aVsaw
p8595
aVsuch
p8596
aVravages
p8597
aVas
p8598
aVthe
p8599
aVchildren
p8600
aVhave
p8601
aVmade
p8602
aVhere
p8603
aV.
aa(lp8604
Vthe
p8605
aVwall-paper
p8606
aV,
aVas
p8607
aVi
aVsaid
p8608
aVbefore
p8609
aV,
aVis
p8610
aVtorn
p8611
aVoff
p8612
aVin
p8613
aVspots
p8614
aV,
aVand
p8615
aVit
p8616
aVsticketh
p8617
aVcloser
p8618
aVthan
p8619
aVa
aVbrother
p8620
aV--
p8621
aVthey
p8622
aVmust
p8623
aVhave
p8624
aVhad
p8625
aVperseverance
p8626
aVas
p8627
aVwell
p8628
aVas
p8629
aVhatred
p8630
aV.
aa(lp8631
Vthen
p8632
aVthe
p8633
aVfloor
p8634
aVis
p8635
aVscratched
p8636
aVand
p8637
aVgouged
p8638
aVand
p8639
aVsplintered
p8640
aV,
aVthe
p8641
aVplaster
p8642
aVitself
p8643
aVis
p8644
aVdug
p8645
aVout
p8646
aVhere
p8647
aVand
p8648
aVthere
p8649
aV,
aVand
p8650
aVthis
p8651
aVgreat
p8652
aVheavy
p8653
aVbed
p8654
aVwhich
p8655
aVis
p8656
aVall
p8657
aVwe
p8658
aVfound
p8659
aVin
p8660
aVthe
p8661
aVroom
p8662
aV,
aVlooks
p8663
aVas
p8664
aVif
p8665
aVit
p8666
aVhad
p8667
aVbeen
p8668
aVthrough
p8669
aVthe
p8670
aVwars
p8671
aV.
aa(lp8672
Vbut
p8673
aVi
aVdo
p8674
aVn't
p8675
aVmind
p8676
aVit
p8677
aVa
aVbit
p8678
aV--
p8679
aVonly
p8680
aVthe
p8681
aVpaper
p8682
aV.
aa(lp8683
Vthere
p8684
aVcomes
p8685
aVjohn
p8686
aV's
p8687
aVsister
p8688
aV.
aa(lp8689
Vsuch
p8690
aVa
aVdear
p8691
aVgirl
p8692
aVas
p8693
aVshe
p8694
aVis
p8695
aV,
aVand
p8696
aVso
p8697
aVcareful
p8698
aVof
p8699
aVme
p8700
aV!
aa(lp8701
Vi
aVmust
p8702
aVnot
p8703
aVlet
p8704
aVher
p8705
aVfind
p8706
aVme
p8707
aVwriting
p8708
aV.
aa(lp8709
Vshe
p8710
aVis
p8711
aVa
aVperfect
p8712
aVand
p8713
aVenthusiastic
p8714
aVhousekeeper
p8715
aV,
aVand
p8716
aVhopes
p8717
aVfor
p8718
aVno
p8719
aVbetter
p8720
aVprofession
p8721
aV.
aa(lp8722
Vi
aVverily
p8723
aVbelieve
p8724
aVshe
p8725
aVthinks
p8726
aVit
p8727
aVis
p8728
aVthe
p8729
aVwriting
p8730
aVwhich
p8731
aVmade
p8732
aVme
p8733
aVsick
p8734
aV!
aa(lp8735
Vbut
p8736
aVi
aVcan
p8737
aVwrite
p8738
aVwhen
p8739
aVshe
p8740
aVis
p8741
aVout
p8742
aV,
aVand
p8743
aVsee
p8744
aVher
p8745
aVa
aVlong
p8746
aVway
p8747
aVoff
p8748
aVfrom
p8749
aVthese
p8750
aVwindows
p8751
aV.
aa(lp8752
Vthere
p8753
aVis
p8754
aVone
p8755
aVthat
p8756
aVcommands
p8757
aVthe
p8758
aVroad
p8759
aV,
aVa
aVlovely
p8760
aVshaded
p8761
aVwinding
p8762
aVroad
p8763
aV,
aVand
p8764
aVone
p8765
aVthat
p8766
aVjust
p8767
aVlooks
p8768
aVoff
p8769
aVover
p8770
aVthe
p8771
aVcountry
p8772
aV.
aa(lp8773
Va
aVlovely
p8774
aVcountry
p8775
aV,
aVtoo
p8776
aV,
aVfull
p8777
aVof
p8778
aVgreat
p8779
aVelms
p8780
aVand
p8781
aVvelvet
p8782
aVmeadows
p8783
aV.
aa(lp8784
Vthis
p8785
aVwall-paper
p8786
aVhas
p8787
aVa
aVkind
p8788
aVof
p8789
aVsub-pattern
p8790
aVin
p8791
aVa
aVdifferent
p8792
aVshade
p8793
aV,
aVa
aVparticularly
p8794
aVirritating
p8795
aVone
p8796
aV,
aVfor
p8797
aVyou
p8798
aVcan
p8799
aVonly
p8800
aVsee
p8801
aVit
p8802
aVin
p8803
aVcertain
p8804
aVlights
p8805
aV,
aVand
p8806
aVnot
p8807
aVclearly
p8808
aVthen
p8809
aV.
aa(lp8810
Vbut
p8811
aVin
p8812
aVthe
p8813
aVplaces
p8814
aVwhere
p8815
aVit
p8816
aVis
p8817
aVn't
p8818
aVfaded
p8819
aVand
p8820
aVwhere
p8821
aVthe
p8822
aVsun
p8823
aVis
p8824
aVjust
p8825
aVso
p8826
aV--
p8827
aVi
aVcan
p8828
aVsee
p8829
aVa
aVstrange
p8830
aV,
aVprovoking
p8831
aV,
aVformless
p8832
aVsort
p8833
aVof
p8834
aVfigure
p8835
aV,
aVthat
p8836
aVseems
p8837
aVto
p8838
aVskulk
p8839
aVabout
p8840
aVbehind
p8841
aVthat
p8842
aVsilly
p8843
aVand
p8844
aVconspicuous
p8845
aVfront
p8846
aVdesign
p8847
aV.
aa(lp8848
Vthere
p8849
aV's
p8850
aVsister
p8851
aVon
p8852
aVthe
p8853
aVstairs
p8854
aV!
aa(lp8855
Vwell
p8856
aV,
aVthe
p8857
aVfourth
p8858
aVof
p8859
aVjuly
p8860
aVis
p8861
aVover
p8862
aV!
aa(lp8863
Vthe
p8864
aVpeople
p8865
aVare
p8866
aVgone
p8867
aVand
p8868
aVi
aVam
p8869
aVtired
p8870
aVout
p8871
aV.
aa(lp8872
Vjohn
p8873
aVthought
p8874
aVit
p8875
aVmight
p8876
aVdo
p8877
aVme
p8878
aVgood
p8879
aVto
p8880
aVsee
p8881
aVa
aVlittle
p8882
aVcompany
p8883
aV,
aVso
p8884
aVwe
p8885
aVjust
p8886
aVhad
p8887
aVmother
p8888
aVand
p8889
aVnellie
p8890
aVand
p8891
aVthe
p8892
aVchildren
p8893
aVdown
p8894
aVfor
p8895
aVa
aVweek
p8896
aV.
aa(lp8897
Vof
p8898
aVcourse
p8899
aVi
aVdid
p8900
aVn't
p8901
aVdo
p8902
aVa
aVthing
p8903
aV.
aa(lp8904
Vjennie
p8905
aVsees
p8906
aVto
p8907
aVeverything
p8908
aVnow
p8909
aV.
aa(lp8910
Vbut
p8911
aVit
p8912
aVtired
p8913
aVme
p8914
aVall
p8915
aVthe
p8916
aVsame
p8917
aV.
aa(lp8918
Vjohn
p8919
aVsays
p8920
aVif
p8921
aVi
aVdo
p8922
aVn't
p8923
aVpick
p8924
aVup
p8925
aVfaster
p8926
aVhe
p8927
aVshall
p8928
aVsend
p8929
aVme
p8930
aVto
p8931
aVweir
p8932
aVmitchell
p8933
aVin
p8934
aVthe
p8935
aVfall
p8936
aV.
aa(lp8937
Vbut
p8938
aVi
aVdo
p8939
aVn't
p8940
aVwant
p8941
aVto
p8942
aVgo
p8943
aVthere
p8944
aVat
p8945
aVall
p8946
aV.
aa(lp8947
Vi
aVhad
p8948
aVa
aVfriend
p8949
aVwho
p8950
aVwas
p8951
aVin
p8952
aVhis
p8953
aVhands
p8954
aVonce
p8955
aV,
aVand
p8956
aVshe
p8957
aVsays
p8958
aVhe
p8959
aVis
p8960
aVjust
p8961
aVlike
p8962
aVjohn
p8963
aVand
p8964
aVmy
p8965
aVbrother
p8966
aV,
aVonly
p8967
aVmore
p8968
aVso
p8969
aV!
aa(lp8970
Vbesides
p8971
aV,
aVit
p8972
aVis
p8973
aVsuch
p8974
aVan
p8975
aVundertaking
p8976
aVto
p8977
aVgo
p8978
aVso
p8979
aVfar
p8980
aV.
aa(lp8981
Vi
aVdo
p8982
aVn't
p8983
aVfeel
p8984
aVas
p8985
aVif
p8986
aVit
p8987
aVwas
p8988
aVworth
p8989
aVwhile
p8990
aVto
p8991
aVturn
p8992
aVmy
p8993
aVhand
p8994
aVover
p8995
aVfor
p8996
aVanything
p8997
aV,
aVand
p8998
aVi
aV'm
p8999
aVgetting
p9000
aVdreadfully
p9001
aVfretful
p9002
aVand
p9003
aVquerulous
p9004
aV.
aa(lp9005
Vi
aVcry
p9006
aVat
p9007
aVnothing
p9008
aV,
aVand
p9009
aVcry
p9010
aVmost
p9011
aVof
p9012
aVthe
p9013
aVtime
p9014
aV.
aa(lp9015
Vof
p9016
aVcourse
p9017
aVi
aVdo
p9018
aVn't
p9019
aVwhen
p9020
aVjohn
p9021
aVis
p9022
aVhere
p9023
aV,
aVor
p9024
aVanybody
p9025
aVelse
p9026
aV,
aVbut
p9027
aVwhen
p9028
aVi
aVam
p9029
aValone
p9030
aV.
aa(lp9031
Vand
p9032
aVi
aVam
p9033
aValone
p9034
aVa
aVgood
p9035
aVdeal
p9036
aVjust
p9037
aVnow
p9038
aV.
aa(lp9039
Vjohn
p9040
aVis
p9041
aVkept
p9042
aVin
p9043
aVtown
p9044
aVvery
p9045
aVoften
p9046
aVby
p9047
aVserious
p9048
aVcases
p9049
aV,
aVand
p9050
aVjennie
p9051
aVis
p9052
aVgood
p9053
aVand
p9054
aVlets
p9055
aVme
p9056
aValone
p9057
aVwhen
p9058
aVi
aVwant
p9059
aVher
p9060
aVto
p9061
aV.
aa(lp9062
Vso
p9063
aVi
aVwalk
p9064
aVa
aVlittle
p9065
aVin
p9066
aVthe
p9067
aVgarden
p9068
aVor
p9069
aVdown
p9070
aVthat
p9071
aVlovely
p9072
aVlane
p9073
aV,
aVsit
p9074
aVon
p9075
aVthe
p9076
aVporch
p9077
aVunder
p9078
aVthe
p9079
aVroses
p9080
aV,
aVand
p9081
aVlie
p9082
aVdown
p9083
aVup
p9084
aVhere
p9085
aVa
aVgood
p9086
aVdeal
p9087
aV.
aa(lp9088
Vi
aV'm
p9089
aVgetting
p9090
aVreally
p9091
aVfond
p9092
aVof
p9093
aVthe
p9094
aVroom
p9095
aVin
p9096
aVspite
p9097
aVof
p9098
aVthe
p9099
aVwall-paper
p9100
aV.
aa(lp9101
Vperhaps
p9102
aVbecause
p9103
aVof
p9104
aVthe
p9105
aVwall-paper
p9106
aV.
aa(lp9107
Vit
p9108
aVdwells
p9109
aVin
p9110
aVmy
p9111
aVmind
p9112
aVso
p9113
aV!
aa(lp9114
Vi
aVlie
p9115
aVhere
p9116
aVon
p9117
aVthis
p9118
aVgreat
p9119
aVimmovable
p9120
aVbed
p9121
aV--
p9122
aVit
p9123
aVis
p9124
aVnailed
p9125
aVdown
p9126
aV,
aVi
aVbelieve
p9127
aV--
p9128
aVand
p9129
aVfollow
p9130
aVthat
p9131
aVpattern
p9132
aVabout
p9133
aVby
p9134
aVthe
p9135
aVhour
p9136
aV.
aa(lp9137
Vit
p9138
aVis
p9139
aVas
p9140
aVgood
p9141
aVas
p9142
aVgymnastics
p9143
aV,
aVi
aVassure
p9144
aVyou
p9145
aV.
aa(lp9146
Vi
aVstart
p9147
aV,
aVwe
p9148
aV'll
p9149
aVsay
p9150
aV,
aVat
p9151
aVthe
p9152
aVbottom
p9153
aV,
aVdown
p9154
aVin
p9155
aVthe
p9156
aVcorner
p9157
aVover
p9158
aVthere
p9159
aVwhere
p9160
aVit
p9161
aVhas
p9162
aVnot
p9163
aVbeen
p9164
aVtouched
p9165
aV,
aVand
p9166
aVi
aVdetermine
p9167
aVfor
p9168
aVthe
p9169
aVthousandth
p9170
aVtime
p9171
aVthat
p9172
aVi
aVwill
p9173
aVfollow
p9174
aVthat
p9175
aVpointless
p9176
aVpattern
p9177
aVto
p9178
aVsome
p9179
aVsort
p9180
aVof
p9181
aVa
aVconclusion
p9182
aV.
aa(lp9183
Vi
aVknow
p9184
aVa
aVlittle
p9185
aVof
p9186
aVthe
p9187
aVprinciple
p9188
aVof
p9189
aVdesign
p9190
aV,
aVand
p9191
aVi
aVknow
p9192
aVthis
p9193
aVthing
p9194
aVwas
p9195
aVnot
p9196
aVarranged
p9197
aVon
p9198
aVany
p9199
aVlaws
p9200
aVof
p9201
aVradiation
p9202
aV,
aVor
p9203
aValternation
p9204
aV,
aVor
p9205
aVrepetition
p9206
aV,
aVor
p9207
aVsymmetry
p9208
aV,
aVor
p9209
aVanything
p9210
aVelse
p9211
aVthat
p9212
aVi
aVever
p9213
aVheard
p9214
aVof
p9215
aV.
aa(lp9216
Vit
p9217
aVis
p9218
aVrepeated
p9219
aV,
aVof
p9220
aVcourse
p9221
aV,
aVby
p9222
aVthe
p9223
aVbreadths
p9224
aV,
aVbut
p9225
aVnot
p9226
aVotherwise
p9227
aV.
aa(lp9228
Vlooked
p9229
aVat
p9230
aVin
p9231
aVone
p9232
aVway
p9233
aVeach
p9234
aVbreadth
p9235
aVstands
p9236
aValone
p9237
aV,
aVthe
p9238
aVbloated
p9239
aVcurves
p9240
aVand
p9241
aVflourishes
p9242
aV--
p9243
aVa
aVkind
p9244
aVof
p9245
aV``
p9246
aVdebased
p9247
aVromanesque
p9248
aV''
p9249
aVwith
p9250
aVdelirium
p9251
aVtremens
p9252
aV--
p9253
aVgo
p9254
aVwaddling
p9255
aVup
p9256
aVand
p9257
aVdown
p9258
aVin
p9259
aVisolated
p9260
aVcolumns
p9261
aVof
p9262
aVfatuity
p9263
aV.
aa(lp9264
Vbut
p9265
aV,
aVon
p9266
aVthe
p9267
aVother
p9268
aVhand
p9269
aV,
aVthey
p9270
aVconnect
p9271
aVdiagonally
p9272
aV,
aVand
p9273
aVthe
p9274
aVsprawling
p9275
aVoutlines
p9276
aVrun
p9277
aVoff
p9278
aVin
p9279
aVgreat
p9280
aVslanting
p9281
aVwaves
p9282
aVof
p9283
aVoptic
p9284
aVhorror
p9285
aV,
aVlike
p9286
aVa
aVlot
p9287
aVof
p9288
aVwallowing
p9289
aVseaweeds
p9290
aVin
p9291
aVfull
p9292
aVchase
p9293
aV.
aa(lp9294
Vthe
p9295
aVwhole
p9296
aVthing
p9297
aVgoes
p9298
aVhorizontally
p9299
aV,
aVtoo
p9300
aV,
aVat
p9301
aVleast
p9302
aVit
p9303
aVseems
p9304
aVso
p9305
aV,
aVand
p9306
aVi
aVexhaust
p9307
aVmyself
p9308
aVin
p9309
aVtrying
p9310
aVto
p9311
aVdistinguish
p9312
aVthe
p9313
aVorder
p9314
aVof
p9315
aVits
p9316
aVgoing
p9317
aVin
p9318
aVthat
p9319
aVdirection
p9320
aV.
aa(lp9321
Vthey
p9322
aVhave
p9323
aVused
p9324
aVa
aVhorizontal
p9325
aVbreadth
p9326
aVfor
p9327
aVa
aVfrieze
p9328
aV,
aVand
p9329
aVthat
p9330
aVadds
p9331
aVwonderfully
p9332
aVto
p9333
aVthe
p9334
aVconfusion
p9335
aV.
aa(lp9336
Vthere
p9337
aVis
p9338
aVone
p9339
aVend
p9340
aVof
p9341
aVthe
p9342
aVroom
p9343
aVwhere
p9344
aVit
p9345
aVis
p9346
aValmost
p9347
aVintact
p9348
aV,
aVand
p9349
aVthere
p9350
aV,
aVwhen
p9351
aVthe
p9352
aVcrosslights
p9353
aVfade
p9354
aVand
p9355
aVthe
p9356
aVlow
p9357
aVsun
p9358
aVshines
p9359
aVdirectly
p9360
aVupon
p9361
aVit
p9362
aV,
aVi
aVcan
p9363
aValmost
p9364
aVfancy
p9365
aVradiation
p9366
aVafter
p9367
aVall
p9368
aV,
aV--
p9369
aVthe
p9370
aVinterminable
p9371
aVgrotesques
p9372
aVseem
p9373
aVto
p9374
aVform
p9375
aVaround
p9376
aVa
aVcommon
p9377
aVcentre
p9378
aVand
p9379
aVrush
p9380
aVoff
p9381
aVin
p9382
aVheadlong
p9383
aVplunges
p9384
aVof
p9385
aVequal
p9386
aVdistraction
p9387
aV.
aa(lp9388
Vit
p9389
aVmakes
p9390
aVme
p9391
aVtired
p9392
aVto
p9393
aVfollow
p9394
aVit
p9395
aV.
aa(lp9396
Vi
aVwill
p9397
aVtake
p9398
aVa
aVnap
p9399
aVi
aVguess
p9400
aV.
aa(lp9401
Vi
aVdo
p9402
aVn't
p9403
aVknow
p9404
aVwhy
p9405
aVi
aVshould
p9406
aVwrite
p9407
aVthis
p9408
aV.
aa(lp9409
Vi
aVdo
p9410
aVn't
p9411
aVwant
p9412
aVto
p9413
aV.
aa(lp9414
Vi
aVdo
p9415
aVn't
p9416
aVfeel
p9417
aVable
p9418
aV.
aa(lp9419
Vand
p9420
aVi
aVknow
p9421
aVjohn
p9422
aVwould
p9423
aVthink
p9424
aVit
p9425
aVabsurd
p9426
aV.
aa(lp9427
Vbut
p9428
aVi
aVmust
p9429
aVsay
p9430
aVwhat
p9431
aVi
aVfeel
p9432
aVand
p9433
aVthink
p9434
aVin
p9435
aVsome
p9436
aVway
p9437
aV--
p9438
aVit
p9439
aVis
p9440
aVsuch
p9441
aVa
aVrelief
p9442
aV!
aa(lp9443
Vbut
p9444
aVthe
p9445
aVeffort
p9446
aVis
p9447
aVgetting
p9448
aVto
p9449
aVbe
p9450
aVgreater
p9451
aVthan
p9452
aVthe
p9453
aVrelief
p9454
aV.
aa(lp9455
Vhalf
p9456
aVthe
p9457
aVtime
p9458
aVnow
p9459
aVi
aVam
p9460
aVawfully
p9461
aVlazy
p9462
aV,
aVand
p9463
aVlie
p9464
aVdown
p9465
aVever
p9466
aVso
p9467
aVmuch
p9468
aV.
aa(lp9469
Vjohn
p9470
aVsays
p9471
aVi
aVmus
p9472
aVn't
p9473
aVlose
p9474
aVmy
p9475
aVstrength
p9476
aV,
aVand
p9477
aVhas
p9478
aVme
p9479
aVtake
p9480
aVcod
p9481
aVliver
p9482
aVoil
p9483
aVand
p9484
aVlots
p9485
aVof
p9486
aVtonics
p9487
aVand
p9488
aVthings
p9489
aV,
aVto
p9490
aVsay
p9491
aVnothing
p9492
aVof
p9493
aVale
p9494
aVand
p9495
aVwine
p9496
aVand
p9497
aVrare
p9498
aVmeat
p9499
aV.
aa(lp9500
Vdear
p9501
aVjohn
p9502
aV!
aa(lp9503
Vhe
p9504
aVloves
p9505
aVme
p9506
aVvery
p9507
aVdearly
p9508
aV,
aVand
p9509
aVhates
p9510
aVto
p9511
aVhave
p9512
aVme
p9513
aVsick
p9514
aV.
aa(lp9515
Vi
aVtried
p9516
aVto
p9517
aVhave
p9518
aVa
aVreal
p9519
aVearnest
p9520
aVreasonable
p9521
aVtalk
p9522
aVwith
p9523
aVhim
p9524
aVthe
p9525
aVother
p9526
aVday
p9527
aV,
aVand
p9528
aVtell
p9529
aVhim
p9530
aVhow
p9531
aVi
aVwish
p9532
aVhe
p9533
aVwould
p9534
aVlet
p9535
aVme
p9536
aVgo
p9537
aVand
p9538
aVmake
p9539
aVa
aVvisit
p9540
aVto
p9541
aVcousin
p9542
aVhenry
p9543
aVand
p9544
aVjulia
p9545
aV.
aa(lp9546
Vbut
p9547
aVhe
p9548
aVsaid
p9549
aVi
aVwas
p9550
aVn't
p9551
aVable
p9552
aVto
p9553
aVgo
p9554
aV,
aVnor
p9555
aVable
p9556
aVto
p9557
aVstand
p9558
aVit
p9559
aVafter
p9560
aVi
aVgot
p9561
aVthere
p9562
aV;
aVand
p9563
aVi
aVdid
p9564
aVnot
p9565
aVmake
p9566
aVout
p9567
aVa
aVvery
p9568
aVgood
p9569
aVcase
p9570
aVfor
p9571
aVmyself
p9572
aV,
aVfor
p9573
aVi
aVwas
p9574
aVcrying
p9575
aVbefore
p9576
aVi
aVhad
p9577
aVfinished
p9578
aV.
aa(lp9579
Vit
p9580
aVis
p9581
aVgetting
p9582
aVto
p9583
aVbe
p9584
aVa
aVgreat
p9585
aVeffort
p9586
aVfor
p9587
aVme
p9588
aVto
p9589
aVthink
p9590
aVstraight
p9591
aV.
aa(lp9592
Vjust
p9593
aVthis
p9594
aVnervous
p9595
aVweakness
p9596
aVi
aVsuppose
p9597
aV.
aa(lp9598
Vand
p9599
aVdear
p9600
aVjohn
p9601
aVgathered
p9602
aVme
p9603
aVup
p9604
aVin
p9605
aVhis
p9606
aVarms
p9607
aV,
aVand
p9608
aVjust
p9609
aVcarried
p9610
aVme
p9611
aVupstairs
p9612
aVand
p9613
aVlaid
p9614
aVme
p9615
aVon
p9616
aVthe
p9617
aVbed
p9618
aV,
aVand
p9619
aVsat
p9620
aVby
p9621
aVme
p9622
aVand
p9623
aVread
p9624
aVto
p9625
aVme
p9626
aVtill
p9627
aVit
p9628
aVtired
p9629
aVmy
p9630
aVhead
p9631
aV.
aa(lp9632
Vhe
p9633
aVsaid
p9634
aVi
aVwas
p9635
aVhis
p9636
aVdarling
p9637
aVand
p9638
aVhis
p9639
aVcomfort
p9640
aVand
p9641
aVall
p9642
aVhe
p9643
aVhad
p9644
aV,
aVand
p9645
aVthat
p9646
aVi
aVmust
p9647
aVtake
p9648
aVcare
p9649
aVof
p9650
aVmyself
p9651
aVfor
p9652
aVhis
p9653
aVsake
p9654
aV,
aVand
p9655
aVkeep
p9656
aVwell
p9657
aV.
aa(lp9658
Vhe
p9659
aVsays
p9660
aVno
p9661
aVone
p9662
aVbut
p9663
aVmyself
p9664
aVcan
p9665
aVhelp
p9666
aVme
p9667
aVout
p9668
aVof
p9669
aVit
p9670
aV,
aVthat
p9671
aVi
aVmust
p9672
aVuse
p9673
aVmy
p9674
aVwill
p9675
aVand
p9676
aVself-control
p9677
aVand
p9678
aVnot
p9679
aVlet
p9680
aVany
p9681
aVsilly
p9682
aVfancies
p9683
aVrun
p9684
aVaway
p9685
aVwith
p9686
aVme
p9687
aV.
aa(lp9688
Vthere
p9689
aV's
p9690
aVone
p9691
aVcomfort
p9692
aV,
aVthe
p9693
aVbaby
p9694
aVis
p9695
aVwell
p9696
aVand
p9697
aVhappy
p9698
aV,
aVand
p9699
aVdoes
p9700
aVnot
p9701
aVhave
p9702
aVto
p9703
aVoccupy
p9704
aVthis
p9705
aVnursery
p9706
aVwith
p9707
aVthe
p9708
aVhorrid
p9709
aVwall-paper
p9710
aV.
aa(lp9711
Vif
p9712
aVwe
p9713
aVhad
p9714
aVnot
p9715
aVused
p9716
aVit
p9717
aV,
aVthat
p9718
aVblessed
p9719
aVchild
p9720
aVwould
p9721
aVhave
p9722
aV!
aa(lp9723
Vwhat
p9724
aVa
aVfortunate
p9725
aVescape
p9726
aV!
aa(lp9727
Vwhy
p9728
aV,
aVi
aVwould
p9729
aVn't
p9730
aVhave
p9731
aVa
aVchild
p9732
aVof
p9733
aVmine
p9734
aV,
aVan
p9735
aVimpressionable
p9736
aVlittle
p9737
aVthing
p9738
aV,
aVlive
p9739
aVin
p9740
aVsuch
p9741
aVa
aVroom
p9742
aVfor
p9743
aVworlds
p9744
aV.
aa(lp9745
Vi
aVnever
p9746
aVthought
p9747
aVof
p9748
aVit
p9749
aVbefore
p9750
aV,
aVbut
p9751
aVit
p9752
aVis
p9753
aVlucky
p9754
aVthat
p9755
aVjohn
p9756
aVkept
p9757
aVme
p9758
aVhere
p9759
aVafter
p9760
aVall
p9761
aV,
aVi
aVcan
p9762
aVstand
p9763
aVit
p9764
aVso
p9765
aVmuch
p9766
aVeasier
p9767
aVthan
p9768
aVa
aVbaby
p9769
aV,
aVyou
p9770
aVsee
p9771
aV.
aa(lp9772
Vof
p9773
aVcourse
p9774
aVi
aVnever
p9775
aVmention
p9776
aVit
p9777
aVto
p9778
aVthem
p9779
aVany
p9780
aVmore
p9781
aV--
p9782
aVi
aVam
p9783
aVtoo
p9784
aVwise
p9785
aV,
aV--
p9786
aVbut
p9787
aVi
aVkeep
p9788
aVwatch
p9789
aVof
p9790
aVit
p9791
aVall
p9792
aVthe
p9793
aVsame
p9794
aV.
aa(lp9795
Vthere
p9796
aVare
p9797
aVthings
p9798
aVin
p9799
aVthat
p9800
aVpaper
p9801
aVthat
p9802
aVnobody
p9803
aVknows
p9804
aVbut
p9805
aVme
p9806
aV,
aVor
p9807
aVever
p9808
aVwill
p9809
aV.
aa(lp9810
Vbehind
p9811
aVthat
p9812
aVoutside
p9813
aVpattern
p9814
aVthe
p9815
aVdim
p9816
aVshapes
p9817
aVget
p9818
aVclearer
p9819
aVevery
p9820
aVday
p9821
aV.
aa(lp9822
Vit
p9823
aVis
p9824
aValways
p9825
aVthe
p9826
aVsame
p9827
aVshape
p9828
aV,
aVonly
p9829
aVvery
p9830
aVnumerous
p9831
aV.
aa(lp9832
Vand
p9833
aVit
p9834
aVis
p9835
aVlike
p9836
aVa
aVwoman
p9837
aVstooping
p9838
aVdown
p9839
aVand
p9840
aVcreeping
p9841
aVabout
p9842
aVbehind
p9843
aVthat
p9844
aVpattern
p9845
aV.
aa(lp9846
Vi
aVdo
p9847
aVn't
p9848
aVlike
p9849
aVit
p9850
aVa
aVbit
p9851
aV.
aa(lp9852
Vi
aVwonder
p9853
aV--
p9854
aVi
aVbegin
p9855
aVto
p9856
aVthink
p9857
aV--
p9858
aVi
aVwish
p9859
aVjohn
p9860
aVwould
p9861
aVtake
p9862
aVme
p9863
aVaway
p9864
aVfrom
p9865
aVhere
p9866
aV!
aa(lp9867
Vit
p9868
aVis
p9869
aVso
p9870
aVhard
p9871
aVto
p9872
aVtalk
p9873
aVwith
p9874
aVjohn
p9875
aVabout
p9876
aVmy
p9877
aVcase
p9878
aV,
aVbecause
p9879
aVhe
p9880
aVis
p9881
aVso
p9882
aVwise
p9883
aV,
aVand
p9884
aVbecause
p9885
aVhe
p9886
aVloves
p9887
aVme
p9888
aVso
p9889
aV.
aa(lp9890
Vbut
p9891
aVi
aVtried
p9892
aVit
p9893
aVlast
p9894
aVnight
p9895
aV.
aa(lp9896
Vit
p9897
aVwas
p9898
aVmoonlight
p9899
aV.
aa(lp9900
Vthe
p9901
aVmoon
p9902
aVshines
p9903
aVin
p9904
aVall
p9905
aVaround
p9906
aVjust
p9907
aVas
p9908
aVthe
p9909
aVsun
p9910
aVdoes
p9911
aV.
aa(lp9912
Vi
aVhate
p9913
aVto
p9914
aVsee
p9915
aVit
p9916
aVsometimes
p9917
aV,
aVit
p9918
aVcreeps
p9919
aVso
p9920
aVslowly
p9921
aV,
aVand
p9922
aValways
p9923
aVcomes
p9924
aVin
p9925
aVby
p9926
aVone
p9927
aVwindow
p9928
aVor
p9929
aVanother
p9930
aV.
aa(lp9931
Vjohn
p9932
aVwas
p9933
aVasleep
p9934
aVand
p9935
aVi
aVhated
p9936
aVto
p9937
aVwaken
p9938
aVhim
p9939
aV,
aVso
p9940
aVi
aVkept
p9941
aVstill
p9942
aVand
p9943
aVwatched
p9944
aVthe
p9945
aVmoonlight
p9946
aVon
p9947
aVthat
p9948
aVundulating
p9949
aVwall-paper
p9950
aVtill
p9951
aVi
aVfelt
p9952
aVcreepy
p9953
aV.
aa(lp9954
Vthe
p9955
aVfaint
p9956
aVfigure
p9957
aVbehind
p9958
aVseemed
p9959
aVto
p9960
aVshake
p9961
aVthe
p9962
aVpattern
p9963
aV,
aVjust
p9964
aVas
p9965
aVif
p9966
aVshe
p9967
aVwanted
p9968
aVto
p9969
aVget
p9970
aVout
p9971
aV.
aa(lp9972
Vi
aVgot
p9973
aVup
p9974
aVsoftly
p9975
aVand
p9976
aVwent
p9977
aVto
p9978
aVfeel
p9979
aVand
p9980
aVsee
p9981
aVif
p9982
aVthe
p9983
aVpaper
p9984
aVdid
p9985
aVmove
p9986
aV,
aVand
p9987
aVwhen
p9988
aVi
aVcame
p9989
aVback
p9990
aVjohn
p9991
aVwas
p9992
aVawake
p9993
aV.
aa(lp9994
V``
p9995
aVwhat
p9996
aVis
p9997
aVit
p9998
aV,
aVlittle
p9999
aVgirl
p10000
aV?
aV''
p10001
aa(lp10002
Vhe
p10003
aVsaid
p10004
aV.
aa(lp10005
V``
p10006
aVdo
p10007
aVn't
p10008
aVgo
p10009
aVwalking
p10010
aVabout
p10011
aVlike
p10012
aVthat
p10013
aV--
p10014
aVyou
p10015
aV'll
p10016
aVget
p10017
aVcold
p10018
aV.
aV''
p10019
aa(lp10020
Vi
aVthough
p10021
aVit
p10022
aVwas
p10023
aVa
aVgood
p10024
aVtime
p10025
aVto
p10026
aVtalk
p10027
aV,
aVso
p10028
aVi
aVtold
p10029
aVhim
p10030
aVthat
p10031
aVi
aVreally
p10032
aVwas
p10033
aVnot
p10034
aVgaining
p10035
aVhere
p10036
aV,
aVand
p10037
aVthat
p10038
aVi
aVwished
p10039
aVhe
p10040
aVwould
p10041
aVtake
p10042
aVme
p10043
aVaway
p10044
aV.
aa(lp10045
V``
p10046
aVwhy
p10047
aVdarling
p10048
aV!
aV''
p10049
aa(lp10050
Vsaid
p10051
aVhe
p10052
aV,
aV``
p10053
aVour
p10054
aVlease
p10055
aVwill
p10056
aVbe
p10057
aVup
p10058
aVin
p10059
aVthree
p10060
aVweeks
p10061
aV,
aVand
p10062
aVi
aVca
p10063
aVn't
p10064
aVsee
p10065
aVhow
p10066
aVto
p10067
aVleave
p10068
aVbefore
p10069
aV.
aa(lp10070
V``
p10071
aVthe
p10072
aVrepairs
p10073
aVare
p10074
aVnot
p10075
aVdone
p10076
aVat
p10077
aVhome
p10078
aV,
aVand
p10079
aVi
aVcan
p10080
aVnot
p10081
aVpossibly
p10082
aVleave
p10083
aVtown
p10084
aVjust
p10085
aVnow
p10086
aV.
aa(lp10087
Vof
p10088
aVcourse
p10089
aVif
p10090
aVyou
p10091
aVwere
p10092
aVin
p10093
aVany
p10094
aVdanger
p10095
aV,
aVi
aVcould
p10096
aVand
p10097
aVwould
p10098
aV,
aVbut
p10099
aVyou
p10100
aVreally
p10101
aVare
p10102
aVbetter
p10103
aV,
aVdear
p10104
aV,
aVwhether
p10105
aVyou
p10106
aVcan
p10107
aVsee
p10108
aVit
p10109
aVor
p10110
aVnot
p10111
aV.
aa(lp10112
Vi
aVam
p10113
aVa
aVdoctor
p10114
aV,
aVdear
p10115
aV,
aVand
p10116
aVi
aVknow
p10117
aV.
aa(lp10118
Vyou
p10119
aVare
p10120
aVgaining
p10121
aVflesh
p10122
aVand
p10123
aVcolor
p10124
aV,
aVyour
p10125
aVappetite
p10126
aVis
p10127
aVbetter
p10128
aV,
aVi
aVfeel
p10129
aVreally
p10130
aVmuch
p10131
aVeasier
p10132
aVabout
p10133
aVyou
p10134
aV.
aV''
p10135
aa(lp10136
V``
p10137
aVi
aVdo
p10138
aVn't
p10139
aVweigh
p10140
aVa
aVbit
p10141
aVmore
p10142
aV,
aV''
p10143
aVsaid
p10144
aVi
aV,
aV``
p10145
aVnor
p10146
aVas
p10147
aVmuch
p10148
aV;
aVand
p10149
aVmy
p10150
aVappetite
p10151
aVmay
p10152
aVbe
p10153
aVbetter
p10154
aVin
p10155
aVthe
p10156
aVevening
p10157
aVwhen
p10158
aVyou
p10159
aVare
p10160
aVhere
p10161
aV,
aVbut
p10162
aVit
p10163
aVis
p10164
aVworse
p10165
aVin
p10166
aVthe
p10167
aVmorning
p10168
aVwhen
p10169
aVyou
p10170
aVare
p10171
aVaway
p10172
aV!
aV''
p10173
aa(lp10174
V``
p10175
aVbless
p10176
aVher
p10177
aVlittle
p10178
aVheart
p10179
aV!
aV''
p10180
aa(lp10181
Vsaid
p10182
aVhe
p10183
aVwith
p10184
aVa
aVbig
p10185
aVhug
p10186
aV,
aV``
p10187
aVshe
p10188
aVshall
p10189
aVbe
p10190
aVas
p10191
aVsick
p10192
aVas
p10193
aVshe
p10194
aVpleases
p10195
aV!
aa(lp10196
Vbut
p10197
aVnow
p10198
aVlet
p10199
aV's
p10200
aVimprove
p10201
aVthe
p10202
aVshining
p10203
aVhours
p10204
aVby
p10205
aVgoing
p10206
aVto
p10207
aVsleep
p10208
aV,
aVand
p10209
aVtalk
p10210
aVabout
p10211
aVit
p10212
aVin
p10213
aVthe
p10214
aVmorning
p10215
aV!
aV''
p10216
aa(lp10217
V``
p10218
aVand
p10219
aVyou
p10220
aVwo
p10221
aVn't
p10222
aVgo
p10223
aVaway
p10224
aV?
aV''
p10225
aa(lp10226
Vi
aVasked
p10227
aVgloomily
p10228
aV.
aa(lp10229
V``
p10230
aVwhy
p10231
aV,
aVhow
p10232
aVcan
p10233
aVi
aV,
aVdear
p10234
aV?
aa(lp10235
Vit
p10236
aVis
p10237
aVonly
p10238
aVthree
p10239
aVweeks
p10240
aVmore
p10241
aVand
p10242
aVthen
p10243
aVwe
p10244
aVwill
p10245
aVtake
p10246
aVa
aVnice
p10247
aVlittle
p10248
aVtrip
p10249
aVof
p10250
aVa
aVfew
p10251
aVdays
p10252
aVwhile
p10253
aVjennie
p10254
aVis
p10255
aVgetting
p10256
aVthe
p10257
aVhouse
p10258
aVready
p10259
aV.
aa(lp10260
Vreally
p10261
aVdear
p10262
aVyou
p10263
aVare
p10264
aVbetter
p10265
aV!
aV''
p10266
aa(lp10267
V``
p10268
aVbetter
p10269
aVin
p10270
aVbody
p10271
aVperhaps
p10272
aV--
p10273
aV''
p10274
aVi
aVbegan
p10275
aV,
aVand
p10276
aVstopped
p10277
aVshort
p10278
aV,
aVfor
p10279
aVhe
p10280
aVsat
p10281
aVup
p10282
aVstraight
p10283
aVand
p10284
aVlooked
p10285
aVat
p10286
aVme
p10287
aVwith
p10288
aVsuch
p10289
aVa
aVstern
p10290
aV,
aVreproachful
p10291
aVlook
p10292
aVthat
p10293
aVi
aVcould
p10294
aVnot
p10295
aVsay
p10296
aVanother
p10297
aVword
p10298
aV.
aa(lp10299
V``
p10300
aVmy
p10301
aVdarling
p10302
aV,
aV''
p10303
aVsaid
p10304
aVhe
p10305
aV,
aV``
p10306
aVi
aVbeg
p10307
aVof
p10308
aVyou
p10309
aV,
aVfor
p10310
aVmy
p10311
aVsake
p10312
aVand
p10313
aVfor
p10314
aVour
p10315
aVchild's
p10316
aVsake
p10317
aV,
aVas
p10318
aVwell
p10319
aVas
p10320
aVfor
p10321
aVyour
p10322
aVown
p10323
aV,
aVthat
p10324
aVyou
p10325
aVwill
p10326
aVnever
p10327
aVfor
p10328
aVone
p10329
aVinstant
p10330
aVlet
p10331
aVthat
p10332
aVidea
p10333
aVenter
p10334
aVyour
p10335
aVmind
p10336
aV!
aa(lp10337
Vthere
p10338
aVis
p10339
aVnothing
p10340
aVso
p10341
aVdangerous
p10342
aV,
aVso
p10343
aVfascinating
p10344
aV,
aVto
p10345
aVa
aVtemperament
p10346
aVlike
p10347
aVyours
p10348
aV.
aa(lp10349
Vit
p10350
aVis
p10351
aVa
aVfalse
p10352
aVand
p10353
aVfoolish
p10354
aVfancy
p10355
aV.
aa(lp10356
Vcan
p10357
aVyou
p10358
aVnot
p10359
aVtrust
p10360
aVme
p10361
aVas
p10362
aVa
aVphysician
p10363
aVwhen
p10364
aVi
aVtell
p10365
aVyou
p10366
aVso
p10367
aV?
aV''
p10368
aa(lp10369
Vso
p10370
aVof
p10371
aVcourse
p10372
aVi
aVsaid
p10373
aVno
p10374
aVmore
p10375
aVon
p10376
aVthat
p10377
aVscore
p10378
aV,
aVand
p10379
aVwe
p10380
aVwent
p10381
aVto
p10382
aVsleep
p10383
aVbefore
p10384
aVlong
p10385
aV.
aa(lp10386
Vhe
p10387
aVthought
p10388
aVi
aVwas
p10389
aVasleep
p10390
aVfirst
p10391
aV,
aVbut
p10392
aVi
aVwas
p10393
aVn't
p10394
aV,
aVand
p10395
aVlay
p10396
aVthere
p10397
aVfor
p10398
aVhours
p10399
aVtrying
p10400
aVto
p10401
aVdecide
p10402
aVwhether
p10403
aVthat
p10404
aVfront
p10405
aVpattern
p10406
aVand
p10407
aVthe
p10408
aVback
p10409
aVpattern
p10410
aVreally
p10411
aVdid
p10412
aVmove
p10413
aVtogether
p10414
aVor
p10415
aVseparately
p10416
aV.
aa(lp10417
Von
p10418
aVa
aVpattern
p10419
aVlike
p10420
aVthis
p10421
aV,
aVby
p10422
aVdaylight
p10423
aV,
aVthere
p10424
aVis
p10425
aVa
aVlack
p10426
aVof
p10427
aVsequence
p10428
aV,
aVa
aVdefiance
p10429
aVof
p10430
aVlaw
p10431
aV,
aVthat
p10432
aVis
p10433
aVa
aVconstant
p10434
aVirritant
p10435
aVto
p10436
aVa
aVnormal
p10437
aVmind
p10438
aV.
aa(lp10439
Vthe
p10440
aVcolor
p10441
aVis
p10442
aVhideous
p10443
aVenough
p10444
aV,
aVand
p10445
aVunreliable
p10446
aVenough
p10447
aV,
aVand
p10448
aVinfuriating
p10449
aVenough
p10450
aV,
aVbut
p10451
aVthe
p10452
aVpattern
p10453
aVis
p10454
aVtorturing
p10455
aV.
aa(lp10456
Vyou
p10457
aVthink
p10458
aVyou
p10459
aVhave
p10460
aVmastered
p10461
aVit
p10462
aV,
aVbut
p10463
aVjust
p10464
aVas
p10465
aVyou
p10466
aVget
p10467
aVwell
p10468
aVunderway
p10469
aVin
p10470
aVfollowing
p10471
aV,
aVit
p10472
aVturns
p10473
aVa
aVback-somersault
p10474
aVand
p10475
aVthere
p10476
aVyou
p10477
aVare
p10478
aV.
aa(lp10479
Vit
p10480
aVslaps
p10481
aVyou
p10482
aVin
p10483
aVthe
p10484
aVface
p10485
aV,
aVknocks
p10486
aVyou
p10487
aVdown
p10488
aV,
aVand
p10489
aVtramples
p10490
aVupon
p10491
aVyou
p10492
aV.
aa(lp10493
Vit
p10494
aVis
p10495
aVlike
p10496
aVa
aVbad
p10497
aVdream
p10498
aV.
aa(lp10499
Vthe
p10500
aVoutside
p10501
aVpattern
p10502
aVis
p10503
aVa
aVflorid
p10504
aVarabesque
p10505
aV,
aVreminding
p10506
aVone
p10507
aVof
p10508
aVa
aVfungus
p10509
aV.
aa(lp10510
Vif
p10511
aVyou
p10512
aVcan
p10513
aVimagine
p10514
aVa
aVtoadstool
p10515
aVin
p10516
aVjoints
p10517
aV,
aVan
p10518
aVinterminable
p10519
aVstring
p10520
aVof
p10521
aVtoadstools
p10522
aV,
aVbudding
p10523
aVand
p10524
aVsprouting
p10525
aVin
p10526
aVendless
p10527
aVconvolutions
p10528
aV--
p10529
aVwhy
p10530
aV,
aVthat
p10531
aVis
p10532
aVsomething
p10533
aVlike
p10534
aVit
p10535
aV.
aa(lp10536
Vthat
p10537
aVis
p10538
aV,
aVsometimes
p10539
aV!
aa(lp10540
Vthere
p10541
aVis
p10542
aVone
p10543
aVmarked
p10544
aVpeculiarity
p10545
aVabout
p10546
aVthis
p10547
aVpaper
p10548
aV,
aVa
aVthing
p10549
aVnobody
p10550
aVseems
p10551
aVto
p10552
aVnotice
p10553
aVbut
p10554
aVmyself
p10555
aV,
aVand
p10556
aVthat
p10557
aVis
p10558
aVthat
p10559
aVit
p10560
aVchanges
p10561
aVas
p10562
aVthe
p10563
aVlight
p10564
aVchanges
p10565
aV.
aa(lp10566
Vwhen
p10567
aVthe
p10568
aVsun
p10569
aVshoots
p10570
aVin
p10571
aVthrough
p10572
aVthe
p10573
aVeast
p10574
aVwindow
p10575
aV--
p10576
aVi
aValways
p10577
aVwatch
p10578
aVfor
p10579
aVthat
p10580
aVfirst
p10581
aVlong
p10582
aV,
aVstraight
p10583
aVray
p10584
aV--
p10585
aVit
p10586
aVchanges
p10587
aVso
p10588
aVquickly
p10589
aVthat
p10590
aVi
aVnever
p10591
aVcan
p10592
aVquite
p10593
aVbelieve
p10594
aVit
p10595
aV.
aa(lp10596
Vthat
p10597
aVis
p10598
aVwhy
p10599
aVi
aVwatch
p10600
aVit
p10601
aValways
p10602
aV.
aa(lp10603
Vby
p10604
aVmoonlight
p10605
aV--
p10606
aVthe
p10607
aVmoon
p10608
aVshines
p10609
aVin
p10610
aVall
p10611
aVnight
p10612
aVwhen
p10613
aVthere
p10614
aVis
p10615
aVa
aVmoon
p10616
aV--
p10617
aVi
aVwould
p10618
aVn't
p10619
aVknow
p10620
aVit
p10621
aVwas
p10622
aVthe
p10623
aVsame
p10624
aVpaper
p10625
aV.
aa(lp10626
Vat
p10627
aVnight
p10628
aVin
p10629
aVany
p10630
aVkind
p10631
aVof
p10632
aVlight
p10633
aV,
aVin
p10634
aVtwilight
p10635
aV,
aVcandle
p10636
aVlight
p10637
aV,
aVlamplight
p10638
aV,
aVand
p10639
aVworst
p10640
aVof
p10641
aVall
p10642
aVby
p10643
aVmoonlight
p10644
aV,
aVit
p10645
aVbecomes
p10646
aVbars
p10647
aV!
aa(lp10648
Vthe
p10649
aVoutside
p10650
aVpattern
p10651
aVi
aVmean
p10652
aV,
aVand
p10653
aVthe
p10654
aVwoman
p10655
aVbehind
p10656
aVit
p10657
aVis
p10658
aVas
p10659
aVplain
p10660
aVas
p10661
aVcan
p10662
aVbe
p10663
aV.
aa(lp10664
Vi
aVdid
p10665
aVn't
p10666
aVrealize
p10667
aVfor
p10668
aVa
aVlong
p10669
aVtime
p10670
aVwhat
p10671
aVthe
p10672
aVthing
p10673
aVwas
p10674
aVthat
p10675
aVshowed
p10676
aVbehind
p10677
aV,
aVthat
p10678
aVdim
p10679
aVsub-pattern
p10680
aV,
aVbut
p10681
aVnow
p10682
aVi
aVam
p10683
aVquite
p10684
aVsure
p10685
aVit
p10686
aVis
p10687
aVa
aVwoman
p10688
aV.
aa(lp10689
Vby
p10690
aVdaylight
p10691
aVshe
p10692
aVis
p10693
aVsubdued
p10694
aV,
aVquiet
p10695
aV.
aa(lp10696
Vi
aVfancy
p10697
aVit
p10698
aVis
p10699
aVthe
p10700
aVpattern
p10701
aVthat
p10702
aVkeeps
p10703
aVher
p10704
aVso
p10705
aVstill
p10706
aV.
aa(lp10707
Vit
p10708
aVis
p10709
aVso
p10710
aVpuzzling
p10711
aV.
aa(lp10712
Vit
p10713
aVkeeps
p10714
aVme
p10715
aVquiet
p10716
aVby
p10717
aVthe
p10718
aVhour
p10719
aV.
aa(lp10720
Vi
aVlie
p10721
aVdown
p10722
aVever
p10723
aVso
p10724
aVmuch
p10725
aVnow
p10726
aV.
aa(lp10727
Vjohn
p10728
aVsays
p10729
aVit
p10730
aVis
p10731
aVgood
p10732
aVfor
p10733
aVme
p10734
aV,
aVand
p10735
aVto
p10736
aVsleep
p10737
aVall
p10738
aVi
aVcan
p10739
aV.
aa(lp10740
Vindeed
p10741
aVhe
p10742
aVstarted
p10743
aVthe
p10744
aVhabit
p10745
aVby
p10746
aVmaking
p10747
aVme
p10748
aVlie
p10749
aVdown
p10750
aVfor
p10751
aVan
p10752
aVhour
p10753
aVafter
p10754
aVeach
p10755
aVmeal
p10756
aV.
aa(lp10757
Vit
p10758
aVis
p10759
aVa
aVvery
p10760
aVbad
p10761
aVhabit
p10762
aVi
aVam
p10763
aVconvinced
p10764
aV,
aVfor
p10765
aVyou
p10766
aVsee
p10767
aVi
aVdo
p10768
aVn't
p10769
aVsleep
p10770
aV.
aa(lp10771
Vand
p10772
aVthat
p10773
aVcultivates
p10774
aVdeceit
p10775
aV,
aVfor
p10776
aVi
aVdo
p10777
aVn't
p10778
aVtell
p10779
aVthem
p10780
aVi
aV'm
p10781
aVawake
p10782
aV--
p10783
aVo
aVno
p10784
aV!
aa(lp10785
Vthe
p10786
aVfact
p10787
aVis
p10788
aVi
aVam
p10789
aVgetting
p10790
aVa
aVlittle
p10791
aVafraid
p10792
aVof
p10793
aVjohn
p10794
aV.
aa(lp10795
Vhe
p10796
aVseems
p10797
aVvery
p10798
aVqueer
p10799
aVsometimes
p10800
aV,
aVand
p10801
aVeven
p10802
aVjennie
p10803
aVhas
p10804
aVan
p10805
aVinexplicable
p10806
aVlook
p10807
aV.
aa(lp10808
Vit
p10809
aVstrikes
p10810
aVme
p10811
aVoccasionally
p10812
aV,
aVjust
p10813
aVas
p10814
aVa
aVscientific
p10815
aVhypothesis
p10816
aV,
aV--
p10817
aVthat
p10818
aVperhaps
p10819
aVit
p10820
aVis
p10821
aVthe
p10822
aVpaper
p10823
aV!
aa(lp10824
Vi
aVhave
p10825
aVwatched
p10826
aVjohn
p10827
aVwhen
p10828
aVhe
p10829
aVdid
p10830
aVnot
p10831
aVknow
p10832
aVi
aVwas
p10833
aVlooking
p10834
aV,
aVand
p10835
aVcome
p10836
aVinto
p10837
aVthe
p10838
aVroom
p10839
aVsuddenly
p10840
aVon
p10841
aVthe
p10842
aVmost
p10843
aVinnocent
p10844
aVexcuses
p10845
aV,
aVand
p10846
aVi
aV've
p10847
aVcaught
p10848
aVhim
p10849
aVseveral
p10850
aVtimes
p10851
aVlooking
p10852
aVat
p10853
aVthe
p10854
aVpaper
p10855
aV!
aa(lp10856
Vand
p10857
aVjennie
p10858
aVtoo
p10859
aV.
aa(lp10860
Vi
aVcaught
p10861
aVjennie
p10862
aVwith
p10863
aVher
p10864
aVhand
p10865
aVon
p10866
aVit
p10867
aVonce
p10868
aV.
aa(lp10869
Vshe
p10870
aVdid
p10871
aVn't
p10872
aVknow
p10873
aVi
aVwas
p10874
aVin
p10875
aVthe
p10876
aVroom
p10877
aV,
aVand
p10878
aVwhen
p10879
aVi
aVasked
p10880
aVher
p10881
aVin
p10882
aVa
aVquiet
p10883
aV,
aVa
aVvery
p10884
aVquiet
p10885
aVvoice
p10886
aV,
aVwith
p10887
aVthe
p10888
aVmost
p10889
aVrestrained
p10890
aVmanner
p10891
aVpossible
p10892
aV,
aVwhat
p10893
aVshe
p10894
aVwas
p10895
aVdoing
p10896
aVwith
p10897
aVthe
p10898
aVpaper
p10899
aV--
p10900
aVshe
p10901
aVturned
p10902
aVaround
p10903
aVas
p10904
aVif
p10905
aVshe
p10906
aVhad
p10907
aVbeen
p10908
aVcaught
p10909
aVstealing
p10910
aV,
aVand
p10911
aVlooked
p10912
aVquite
p10913
aVangry
p10914
aV--
p10915
aVasked
p10916
aVme
p10917
aVwhy
p10918
aVi
aVshould
p10919
aVfrighten
p10920
aVher
p10921
aVso
p10922
aV!
aa(lp10923
Vthen
p10924
aVshe
p10925
aVsaid
p10926
aVthat
p10927
aVthe
p10928
aVpaper
p10929
aVstained
p10930
aVeverything
p10931
aVit
p10932
aVtouched
p10933
aV,
aVthat
p10934
aVshe
p10935
aVhad
p10936
aVfound
p10937
aVyellow
p10938
aVsmooches
p10939
aVon
p10940
aVall
p10941
aVmy
p10942
aVclothes
p10943
aVand
p10944
aVjohn
p10945
aV's
p10946
aV,
aVand
p10947
aVshe
p10948
aVwished
p10949
aVwe
p10950
aVwould
p10951
aVbe
p10952
aVmore
p10953
aVcareful
p10954
aV!
aa(lp10955
Vdid
p10956
aVnot
p10957
aVthat
p10958
aVsound
p10959
aVinnocent
p10960
aV?
aa(lp10961
Vbut
p10962
aVi
aVknow
p10963
aVshe
p10964
aVwas
p10965
aVstudying
p10966
aVthat
p10967
aVpattern
p10968
aV,
aVand
p10969
aVi
aVam
p10970
aVdetermined
p10971
aVthat
p10972
aVnobody
p10973
aVshall
p10974
aVfind
p10975
aVit
p10976
aVout
p10977
aVbut
p10978
aVmyself
p10979
aV!
aa(lp10980
Vlife
p10981
aVis
p10982
aVvery
p10983
aVmuch
p10984
aVmore
p10985
aVexciting
p10986
aVnow
p10987
aVthan
p10988
aVit
p10989
aVused
p10990
aVto
p10991
aVbe
p10992
aV.
aa(lp10993
Vyou
p10994
aVsee
p10995
aVi
aVhave
p10996
aVsomething
p10997
aVmore
p10998
aVto
p10999
aVexpect
p11000
aV,
aVto
p11001
aVlook
p11002
aVforward
p11003
aVto
p11004
aV,
aVto
p11005
aVwatch
p11006
aV.
aa(lp11007
Vi
aVreally
p11008
aVdo
p11009
aVeat
p11010
aVbetter
p11011
aV,
aVand
p11012
aVam
p11013
aVmore
p11014
aVquiet
p11015
aVthan
p11016
aVi
aVwas
p11017
aV.
aa(lp11018
Vjohn
p11019
aVis
p11020
aVso
p11021
aVpleased
p11022
aVto
p11023
aVsee
p11024
aVme
p11025
aVimprove
p11026
aV!
aa(lp11027
Vhe
p11028
aVlaughed
p11029
aVa
aVlittle
p11030
aVthe
p11031
aVother
p11032
aVday
p11033
aV,
aVand
p11034
aVsaid
p11035
aVi
aVseemed
p11036
aVto
p11037
aVbe
p11038
aVflourishing
p11039
aVin
p11040
aVspite
p11041
aVof
p11042
aVmy
p11043
aVwall-paper
p11044
aV.
aa(lp11045
Vi
aVturned
p11046
aVit
p11047
aVoff
p11048
aVwith
p11049
aVa
aVlaugh
p11050
aV.
aa(lp11051
Vi
aVhad
p11052
aVno
p11053
aVintention
p11054
aVof
p11055
aVtelling
p11056
aVhim
p11057
aVit
p11058
aVwas
p11059
aVbecause
p11060
aVof
p11061
aVthe
p11062
aVwall-paper
p11063
aV--
p11064
aVhe
p11065
aVwould
p11066
aVmake
p11067
aVfun
p11068
aVof
p11069
aVme
p11070
aV.
aa(lp11071
Vhe
p11072
aVmight
p11073
aVeven
p11074
aVwant
p11075
aVto
p11076
aVtake
p11077
aVme
p11078
aVaway
p11079
aV.
aa(lp11080
Vi
aVdo
p11081
aVn't
p11082
aVwant
p11083
aVto
p11084
aVleave
p11085
aVnow
p11086
aVuntil
p11087
aVi
aVhave
p11088
aVfound
p11089
aVit
p11090
aVout
p11091
aV.
aa(lp11092
Vthere
p11093
aVis
p11094
aVa
aVweek
p11095
aVmore
p11096
aV,
aVand
p11097
aVi
aVthink
p11098
aVthat
p11099
aVwill
p11100
aVbe
p11101
aVenough
p11102
aV.
aa(lp11103
Vi
aV'm
p11104
aVfeeling
p11105
aVever
p11106
aVso
p11107
aVmuch
p11108
aVbetter
p11109
aV!
aa(lp11110
Vi
aVdo
p11111
aVn't
p11112
aVsleep
p11113
aVmuch
p11114
aVat
p11115
aVnight
p11116
aV,
aVfor
p11117
aVit
p11118
aVis
p11119
aVso
p11120
aVinteresting
p11121
aVto
p11122
aVwatch
p11123
aVdevelopments
p11124
aV;
aVbut
p11125
aVi
aVsleep
p11126
aVa
aVgood
p11127
aVdeal
p11128
aVin
p11129
aVthe
p11130
aVdaytime
p11131
aV.
aa(lp11132
Vin
p11133
aVthe
p11134
aVdaytime
p11135
aVit
p11136
aVis
p11137
aVtiresome
p11138
aVand
p11139
aVperplexing
p11140
aV.
aa(lp11141
Vthere
p11142
aVare
p11143
aValways
p11144
aVnew
p11145
aVshoots
p11146
aVon
p11147
aVthe
p11148
aVfungus
p11149
aV,
aVand
p11150
aVnew
p11151
aVshades
p11152
aVof
p11153
aVyellow
p11154
aVall
p11155
aVover
p11156
aVit
p11157
aV.
aa(lp11158
Vi
aVcan
p11159
aVnot
p11160
aVkeep
p11161
aVcount
p11162
aVof
p11163
aVthem
p11164
aV,
aVthough
p11165
aVi
aVhave
p11166
aVtried
p11167
aVconscientiously
p11168
aV.
aa(lp11169
Vit
p11170
aVis
p11171
aVthe
p11172
aVstrangest
p11173
aVyellow
p11174
aV,
aVthat
p11175
aVwall-paper
p11176
aV!
aa(lp11177
Vit
p11178
aVmakes
p11179
aVme
p11180
aVthink
p11181
aVof
p11182
aVall
p11183
aVthe
p11184
aVyellow
p11185
aVthings
p11186
aVi
aVever
p11187
aVsaw
p11188
aV--
p11189
aVnot
p11190
aVbeautiful
p11191
aVones
p11192
aVlike
p11193
aVbuttercups
p11194
aV,
aVbut
p11195
aVold
p11196
aVfoul
p11197
aV,
aVbad
p11198
aVyellow
p11199
aVthings
p11200
aV.
aa(lp11201
Vbut
p11202
aVthere
p11203
aVis
p11204
aVsomething
p11205
aVelse
p11206
aVabout
p11207
aVthat
p11208
aVpaper
p11209
aV--
p11210
aVthe
p11211
aVsmell
p11212
aV!
aa(lp11213
Vi
aVnoticed
p11214
aVit
p11215
aVthe
p11216
aVmoment
p11217
aVwe
p11218
aVcame
p11219
aVinto
p11220
aVthe
p11221
aVroom
p11222
aV,
aVbut
p11223
aVwith
p11224
aVso
p11225
aVmuch
p11226
aVair
p11227
aVand
p11228
aVsun
p11229
aVit
p11230
aVwas
p11231
aVnot
p11232
aVbad
p11233
aV.
aa(lp11234
Vnow
p11235
aVwe
p11236
aVhave
p11237
aVhad
p11238
aVa
aVweek
p11239
aVof
p11240
aVfog
p11241
aVand
p11242
aVrain
p11243
aV,
aVand
p11244
aVwhether
p11245
aVthe
p11246
aVwindows
p11247
aVare
p11248
aVopen
p11249
aVor
p11250
aVnot
p11251
aV,
aVthe
p11252
aVsmell
p11253
aVis
p11254
aVhere
p11255
aV.
aa(lp11256
Vit
p11257
aVcreeps
p11258
aVall
p11259
aVover
p11260
aVthe
p11261
aVhouse
p11262
aV.
aa(lp11263
Vi
aVfind
p11264
aVit
p11265
aVhovering
p11266
aVin
p11267
aVthe
p11268
aVdining-room
p11269
aV,
aVskulking
p11270
aVin
p11271
aVthe
p11272
aVparlor
p11273
aV,
aVhiding
p11274
aVin
p11275
aVthe
p11276
aVhall
p11277
aV,
aVlying
p11278
aVin
p11279
aVwait
p11280
aVfor
p11281
aVme
p11282
aVon
p11283
aVthe
p11284
aVstairs
p11285
aV.
aa(lp11286
Vit
p11287
aVgets
p11288
aVinto
p11289
aVmy
p11290
aVhair
p11291
aV.
aa(lp11292
Veven
p11293
aVwhen
p11294
aVi
aVgo
p11295
aVto
p11296
aVride
p11297
aV,
aVif
p11298
aVi
aVturn
p11299
aVmy
p11300
aVhead
p11301
aVsuddenly
p11302
aVand
p11303
aVsurprise
p11304
aVit
p11305
aV--
p11306
aVthere
p11307
aVis
p11308
aVthat
p11309
aVsmell
p11310
aV!
aa(lp11311
Vsuch
p11312
aVa
aVpeculiar
p11313
aVodor
p11314
aV,
aVtoo
p11315
aV!
aa(lp11316
Vi
aVhave
p11317
aVspent
p11318
aVhours
p11319
aVin
p11320
aVtrying
p11321
aVto
p11322
aVanalyze
p11323
aVit
p11324
aV,
aVto
p11325
aVfind
p11326
aVwhat
p11327
aVit
p11328
aVsmelled
p11329
aVlike
p11330
aV.
aa(lp11331
Vit
p11332
aVis
p11333
aVnot
p11334
aVbad
p11335
aV--
p11336
aVat
p11337
aVfirst
p11338
aV,
aVand
p11339
aVvery
p11340
aVgentle
p11341
aV,
aVbut
p11342
aVquite
p11343
aVthe
p11344
aVsubtlest
p11345
aV,
aVmost
p11346
aVenduring
p11347
aVodor
p11348
aVi
aVever
p11349
aVmet
p11350
aV.
aa(lp11351
Vin
p11352
aVthis
p11353
aVdamp
p11354
aVweather
p11355
aVit
p11356
aVis
p11357
aVawful
p11358
aV,
aVi
aVwake
p11359
aVup
p11360
aVin
p11361
aVthe
p11362
aVnight
p11363
aVand
p11364
aVfind
p11365
aVit
p11366
aVhanging
p11367
aVover
p11368
aVme
p11369
aV.
aa(lp11370
Vit
p11371
aVused
p11372
aVto
p11373
aVdisturb
p11374
aVme
p11375
aVat
p11376
aVfirst
p11377
aV.
aa(lp11378
Vi
aVthought
p11379
aVseriously
p11380
aVof
p11381
aVburning
p11382
aVthe
p11383
aVhouse
p11384
aV--
p11385
aVto
p11386
aVreach
p11387
aVthe
p11388
aVsmell
p11389
aV.
aa(lp11390
Vbut
p11391
aVnow
p11392
aVi
aVam
p11393
aVused
p11394
aVto
p11395
aVit
p11396
aV.
aa(lp11397
Vthe
p11398
aVonly
p11399
aVthing
p11400
aVi
aVcan
p11401
aVthink
p11402
aVof
p11403
aVthat
p11404
aVit
p11405
aVis
p11406
aVlike
p11407
aVis
p11408
aVthe
p11409
aVcolor
p11410
aVof
p11411
aVthe
p11412
aVpaper
p11413
aV!
aa(lp11414
Va
aVyellow
p11415
aVsmell
p11416
aV.
aa(lp11417
Vthere
p11418
aVis
p11419
aVa
aVvery
p11420
aVfunny
p11421
aVmark
p11422
aVon
p11423
aVthis
p11424
aVwall
p11425
aV,
aVlow
p11426
aVdown
p11427
aV,
aVnear
p11428
aVthe
p11429
aVmopboard
p11430
aV.
aa(lp11431
Va
aVstreak
p11432
aVthat
p11433
aVruns
p11434
aVround
p11435
aVthe
p11436
aVroom
p11437
aV.
aa(lp11438
Vit
p11439
aVgoes
p11440
aVbehind
p11441
aVevery
p11442
aVpiece
p11443
aVof
p11444
aVfurniture
p11445
aV,
aVexcept
p11446
aVthe
p11447
aVbed
p11448
aV,
aVa
aVlong
p11449
aV,
aVstraight
p11450
aV,
aVeven
p11451
aVsmooch
p11452
aV,
aVas
p11453
aVif
p11454
aVit
p11455
aVhad
p11456
aVbeen
p11457
aVrubbed
p11458
aVover
p11459
aVand
p11460
aVover
p11461
aV.
aa(lp11462
Vi
aVwonder
p11463
aVhow
p11464
aVit
p11465
aVwas
p11466
aVdone
p11467
aVand
p11468
aVwho
p11469
aVdid
p11470
aVit
p11471
aV,
aVand
p11472
aVwhat
p11473
aVthey
p11474
aVdid
p11475
aVit
p11476
aVfor
p11477
aV.
aa(lp11478
Vround
p11479
aVand
p11480
aVround
p11481
aVand
p11482
aVround
p11483
aV--
p11484
aVround
p11485
aVand
p11486
aVround
p11487
aVand
p11488
aVround
p11489
aV--
p11490
aVit
p11491
aVmakes
p11492
aVme
p11493
aVdizzy
p11494
aV!
aa(lp11495
Vi
aVreally
p11496
aVhave
p11497
aVdiscovered
p11498
aVsomething
p11499
aVat
p11500
aVlast
p11501
aV.
aa(lp11502
Vthrough
p11503
aVwatching
p11504
aVso
p11505
aVmuch
p11506
aVat
p11507
aVnight
p11508
aV,
aVwhen
p11509
aVit
p11510
aVchanges
p11511
aVso
p11512
aV,
aVi
aVhave
p11513
aVfinally
p11514
aVfound
p11515
aVout
p11516
aV.
aa(lp11517
Vthe
p11518
aVfront
p11519
aVpattern
p11520
aVdoes
p11521
aVmove
p11522
aV--
p11523
aVand
p11524
aVno
p11525
aVwonder
p11526
aV!
aa(lp11527
Vthe
p11528
aVwoman
p11529
aVbehind
p11530
aVshakes
p11531
aVit
p11532
aV!
aa(lp11533
Vsometimes
p11534
aVi
aVthink
p11535
aVthere
p11536
aVare
p11537
aVa
aVgreat
p11538
aVmany
p11539
aVwomen
p11540
aVbehind
p11541
aV,
aVand
p11542
aVsometimes
p11543
aVonly
p11544
aVone
p11545
aV,
aVand
p11546
aVshe
p11547
aVcrawls
p11548
aVaround
p11549
aVfast
p11550
aV,
aVand
p11551
aVher
p11552
aVcrawling
p11553
aVshakes
p11554
aVit
p11555
aVall
p11556
aVover
p11557
aV.
aa(lp11558
Vthen
p11559
aVin
p11560
aVthe
p11561
aVvery
p11562
aVbright
p11563
aVspots
p11564
aVshe
p11565
aVkeeps
p11566
aVstill
p11567
aV,
aVand
p11568
aVin
p11569
aVthe
p11570
aVvery
p11571
aVshady
p11572
aVspots
p11573
aVshe
p11574
aVjust
p11575
aVtakes
p11576
aVhold
p11577
aVof
p11578
aVthe
p11579
aVbars
p11580
aVand
p11581
aVshakes
p11582
aVthem
p11583
aVhard
p11584
aV.
aa(lp11585
Vand
p11586
aVshe
p11587
aVis
p11588
aVall
p11589
aVthe
p11590
aVtime
p11591
aVtrying
p11592
aVto
p11593
aVclimb
p11594
aVthrough
p11595
aV.
aa(lp11596
Vbut
p11597
aVnobody
p11598
aVcould
p11599
aVclimb
p11600
aVthrough
p11601
aVthat
p11602
aVpattern
p11603
aV--
p11604
aVit
p11605
aVstrangles
p11606
aVso
p11607
aV;
aVi
aVthink
p11608
aVthat
p11609
aVis
p11610
aVwhy
p11611
aVit
p11612
aVhas
p11613
aVso
p11614
aVmany
p11615
aVheads
p11616
aV.
aa(lp11617
Vthey
p11618
aVget
p11619
aVthrough
p11620
aV,
aVand
p11621
aVthen
p11622
aVthe
p11623
aVpattern
p11624
aVstrangles
p11625
aVthem
p11626
aVoff
p11627
aVand
p11628
aVturns
p11629
aVthem
p11630
aVupside
p11631
aVdown
p11632
aV,
aVand
p11633
aVmakes
p11634
aVtheir
p11635
aVeyes
p11636
aVwhite
p11637
aV!
aa(lp11638
Vif
p11639
aVthose
p11640
aVheads
p11641
aVwere
p11642
aVcovered
p11643
aVor
p11644
aVtaken
p11645
aVoff
p11646
aVit
p11647
aVwould
p11648
aVnot
p11649
aVbe
p11650
aVhalf
p11651
aVso
p11652
aVbad
p11653
aV.
aa(lp11654
Vi
aVthink
p11655
aVthat
p11656
aVwoman
p11657
aVgets
p11658
aVout
p11659
aVin
p11660
aVthe
p11661
aVdaytime
p11662
aV!
aa(lp11663
Vand
p11664
aVi
aV'll
p11665
aVtell
p11666
aVyou
p11667
aVwhy
p11668
aV--
p11669
aVprivately
p11670
aV--
p11671
aVi
aV've
p11672
aVseen
p11673
aVher
p11674
aV!
aa(lp11675
Vi
aVcan
p11676
aVsee
p11677
aVher
p11678
aVout
p11679
aVof
p11680
aVevery
p11681
aVone
p11682
aVof
p11683
aVmy
p11684
aVwindows
p11685
aV!
aa(lp11686
Vit
p11687
aVis
p11688
aVthe
p11689
aVsame
p11690
aVwoman
p11691
aV,
aVi
aVknow
p11692
aV,
aVfor
p11693
aVshe
p11694
aVis
p11695
aValways
p11696
aVcreeping
p11697
aV,
aVand
p11698
aVmost
p11699
aVwomen
p11700
aVdo
p11701
aVnot
p11702
aVcreep
p11703
aVby
p11704
aVdaylight
p11705
aV.
aa(lp11706
Vi
aVsee
p11707
aVher
p11708
aVon
p11709
aVthat
p11710
aVlong
p11711
aVroad
p11712
aVunder
p11713
aVthe
p11714
aVtrees
p11715
aV,
aVcreeping
p11716
aValong
p11717
aV,
aVand
p11718
aVwhen
p11719
aVa
aVcarriage
p11720
aVcomes
p11721
aVshe
p11722
aVhides
p11723
aVunder
p11724
aVthe
p11725
aVblackberry
p11726
aVvines
p11727
aV.
aa(lp11728
Vi
aVdo
p11729
aVn't
p11730
aVblame
p11731
aVher
p11732
aVa
aVbit
p11733
aV.
aa(lp11734
Vit
p11735
aVmust
p11736
aVbe
p11737
aVvery
p11738
aVhumiliating
p11739
aVto
p11740
aVbe
p11741
aVcaught
p11742
aVcreeping
p11743
aVby
p11744
aVdaylight
p11745
aV!
aa(lp11746
Vi
aValways
p11747
aVlock
p11748
aVthe
p11749
aVdoor
p11750
aVwhen
p11751
aVi
aVcreep
p11752
aVby
p11753
aVdaylight
p11754
aV.
aa(lp11755
Vi
aVca
p11756
aVn't
p11757
aVdo
p11758
aVit
p11759
aVat
p11760
aVnight
p11761
aV,
aVfor
p11762
aVi
aVknow
p11763
aVjohn
p11764
aVwould
p11765
aVsuspect
p11766
aVsomething
p11767
aVat
p11768
aVonce
p11769
aV.
aa(lp11770
Vand
p11771
aVjohn
p11772
aVis
p11773
aVso
p11774
aVqueer
p11775
aVnow
p11776
aV,
aVthat
p11777
aVi
aVdo
p11778
aVn't
p11779
aVwant
p11780
aVto
p11781
aVirritate
p11782
aVhim
p11783
aV.
aa(lp11784
Vi
aVwish
p11785
aVhe
p11786
aVwould
p11787
aVtake
p11788
aVanother
p11789
aVroom
p11790
aV!
aa(lp11791
Vbesides
p11792
aV,
aVi
aVdo
p11793
aVn't
p11794
aVwant
p11795
aVanybody
p11796
aVto
p11797
aVget
p11798
aVthat
p11799
aVwoman
p11800
aVout
p11801
aVat
p11802
aVnight
p11803
aVbut
p11804
aVmyself
p11805
aV.
aa(lp11806
Vi
aVoften
p11807
aVwonder
p11808
aVif
p11809
aVi
aVcould
p11810
aVsee
p11811
aVher
p11812
aVout
p11813
aVof
p11814
aVall
p11815
aVthe
p11816
aVwindows
p11817
aVat
p11818
aVonce
p11819
aV.
aa(lp11820
Vbut
p11821
aV,
aVturn
p11822
aVas
p11823
aVfast
p11824
aVas
p11825
aVi
aVcan
p11826
aV,
aVi
aVcan
p11827
aVonly
p11828
aVsee
p11829
aVout
p11830
aVof
p11831
aVone
p11832
aVat
p11833
aVone
p11834
aVtime
p11835
aV.
aa(lp11836
Vand
p11837
aVthough
p11838
aVi
aValways
p11839
aVsee
p11840
aVher
p11841
aV,
aVshe
p11842
aVmay
p11843
aVbe
p11844
aVable
p11845
aVto
p11846
aVcreep
p11847
aVfaster
p11848
aVthan
p11849
aVi
aVcan
p11850
aVturn
p11851
aV!
aa(lp11852
Vi
aVhave
p11853
aVwatched
p11854
aVher
p11855
aVsometimes
p11856
aVaway
p11857
aVoff
p11858
aVin
p11859
aVthe
p11860
aVopen
p11861
aVcountry
p11862
aV,
aVcreeping
p11863
aVas
p11864
aVfast
p11865
aVas
p11866
aVa
aVcloud
p11867
aVshadow
p11868
aVin
p11869
aVa
aVhigh
p11870
aVwind
p11871
aV.
aa(lp11872
Vif
p11873
aVonly
p11874
aVthat
p11875
aVtop
p11876
aVpattern
p11877
aVcould
p11878
aVbe
p11879
aVgotten
p11880
aVoff
p11881
aVfrom
p11882
aVthe
p11883
aVunder
p11884
aVone
p11885
aV!
aa(lp11886
Vi
aVmean
p11887
aVto
p11888
aVtry
p11889
aVit
p11890
aV,
aVlittle
p11891
aVby
p11892
aVlittle
p11893
aV.
aa(lp11894
Vi
aVhave
p11895
aVfound
p11896
aVout
p11897
aVanother
p11898
aVfunny
p11899
aVthing
p11900
aV,
aVbut
p11901
aVi
aVsha
p11902
aVn't
p11903
aVtell
p11904
aVit
p11905
aVthis
p11906
aVtime
p11907
aV!
aa(lp11908
Vit
p11909
aVdoes
p11910
aVnot
p11911
aVdo
p11912
aVto
p11913
aVtrust
p11914
aVpeople
p11915
aVtoo
p11916
aVmuch
p11917
aV.
aa(lp11918
Vthere
p11919
aVare
p11920
aVonly
p11921
aVtwo
p11922
aVmore
p11923
aVdays
p11924
aVto
p11925
aVget
p11926
aVthis
p11927
aVpaper
p11928
aVoff
p11929
aV,
aVand
p11930
aVi
aVbelieve
p11931
aVjohn
p11932
aVis
p11933
aVbeginning
p11934
aVto
p11935
aVnotice
p11936
aV.
aa(lp11937
Vi
aVdo
p11938
aVn't
p11939
aVlike
p11940
aVthe
p11941
aVlook
p11942
aVin
p11943
aVhis
p11944
aVeyes
p11945
aV.
aa(lp11946
Vand
p11947
aVi
aVheard
p11948
aVhim
p11949
aVask
p11950
aVjennie
p11951
aVa
aVlot
p11952
aVof
p11953
aVprofessional
p11954
aVquestions
p11955
aVabout
p11956
aVme
p11957
aV.
aa(lp11958
Vshe
p11959
aVhad
p11960
aVa
aVvery
p11961
aVgood
p11962
aVreport
p11963
aVto
p11964
aVgive
p11965
aV.
aa(lp11966
Vshe
p11967
aVsaid
p11968
aVi
aVslept
p11969
aVa
aVgood
p11970
aVdeal
p11971
aVin
p11972
aVthe
p11973
aVdaytime
p11974
aV.
aa(lp11975
Vjohn
p11976
aVknows
p11977
aVi
aVdo
p11978
aVn't
p11979
aVsleep
p11980
aVvery
p11981
aVwell
p11982
aVat
p11983
aVnight
p11984
aV,
aVfor
p11985
aVall
p11986
aVi
aV'm
p11987
aVso
p11988
aVquiet
p11989
aV!
aa(lp11990
Vhe
p11991
aVasked
p11992
aVme
p11993
aVall
p11994
aVsorts
p11995
aVof
p11996
aVquestions
p11997
aV,
aVtoo
p11998
aV,
aVand
p11999
aVpretended
p12000
aVto
p12001
aVbe
p12002
aVvery
p12003
aVloving
p12004
aVand
p12005
aVkind
p12006
aV.
aa(lp12007
Vas
p12008
aVif
p12009
aVi
aVcould
p12010
aVn't
p12011
aVsee
p12012
aVthrough
p12013
aVhim
p12014
aV!
aa(lp12015
Vstill
p12016
aV,
aVi
aVdo
p12017
aVn't
p12018
aVwonder
p12019
aVhe
p12020
aVacts
p12021
aVso
p12022
aV,
aVsleeping
p12023
aVunder
p12024
aVthis
p12025
aVpaper
p12026
aVfor
p12027
aVthree
p12028
aVmonths
p12029
aV.
aa(lp12030
Vit
p12031
aVonly
p12032
aVinterests
p12033
aVme
p12034
aV,
aVbut
p12035
aVi
aVfeel
p12036
aVsure
p12037
aVjohn
p12038
aVand
p12039
aVjennie
p12040
aVare
p12041
aVsecretly
p12042
aVaffected
p12043
aVby
p12044
aVit
p12045
aV.
aa(lp12046
Vhurrah
p12047
aV!
aa(lp12048
Vthis
p12049
aVis
p12050
aVthe
p12051
aVlast
p12052
aVday
p12053
aV,
aVbut
p12054
aVit
p12055
aVis
p12056
aVenough
p12057
aV.
aa(lp12058
Vjohn
p12059
aVis
p12060
aVto
p12061
aVstay
p12062
aVin
p12063
aVtown
p12064
aVover
p12065
aVnight
p12066
aV,
aVand
p12067
aVwo
p12068
aVn't
p12069
aVbe
p12070
aVout
p12071
aVuntil
p12072
aVthis
p12073
aVevening
p12074
aV.
aa(lp12075
Vjennie
p12076
aVwanted
p12077
aVto
p12078
aVsleep
p12079
aVwith
p12080
aVme
p12081
aV--
p12082
aVthe
p12083
aVsly
p12084
aVthing
p12085
aV!
aa(lp12086
Vbut
p12087
aVi
aVtold
p12088
aVher
p12089
aVi
aVshould
p12090
aVundoubtedly
p12091
aVrest
p12092
aVbetter
p12093
aVfor
p12094
aVa
aVnight
p12095
aVall
p12096
aValone
p12097
aV.
aa(lp12098
Vthat
p12099
aVwas
p12100
aVclever
p12101
aV,
aVfor
p12102
aVreally
p12103
aVi
aVwas
p12104
aVn't
p12105
aValone
p12106
aVa
aVbit
p12107
aV!
aa(lp12108
Vas
p12109
aVsoon
p12110
aVas
p12111
aVit
p12112
aVwas
p12113
aVmoonlight
p12114
aVand
p12115
aVthat
p12116
aVpoor
p12117
aVthing
p12118
aVbegan
p12119
aVto
p12120
aVcrawl
p12121
aVand
p12122
aVshake
p12123
aVthe
p12124
aVpattern
p12125
aV,
aVi
aVgot
p12126
aVup
p12127
aVand
p12128
aVran
p12129
aVto
p12130
aVhelp
p12131
aVher
p12132
aV.
aa(lp12133
Vi
aVpulled
p12134
aVand
p12135
aVshe
p12136
aVshook
p12137
aV,
aVi
aVshook
p12138
aVand
p12139
aVshe
p12140
aVpulled
p12141
aV,
aVand
p12142
aVbefore
p12143
aVmorning
p12144
aVwe
p12145
aVhad
p12146
aVpeeled
p12147
aVoff
p12148
aVyards
p12149
aVof
p12150
aVthat
p12151
aVpaper
p12152
aV.
aa(lp12153
Va
aVstrip
p12154
aVabout
p12155
aVas
p12156
aVhigh
p12157
aVas
p12158
aVmy
p12159
aVhead
p12160
aVand
p12161
aVhalf
p12162
aVaround
p12163
aVthe
p12164
aVroom
p12165
aV.
aa(lp12166
Vand
p12167
aVthen
p12168
aVwhen
p12169
aVthe
p12170
aVsun
p12171
aVcame
p12172
aVand
p12173
aVthat
p12174
aVawful
p12175
aVpattern
p12176
aVbegan
p12177
aVto
p12178
aVlaugh
p12179
aVat
p12180
aVme
p12181
aV,
aVi
aVdeclared
p12182
aVi
aVwould
p12183
aVfinish
p12184
aVit
p12185
aVto-day
p12186
aV!
aa(lp12187
Vwe
p12188
aVgo
p12189
aVaway
p12190
aVto-morrow
p12191
aV,
aVand
p12192
aVthey
p12193
aVare
p12194
aVmoving
p12195
aVall
p12196
aVmy
p12197
aVfurniture
p12198
aVdown
p12199
aVagain
p12200
aVto
p12201
aVleave
p12202
aVthings
p12203
aVas
p12204
aVthey
p12205
aVwere
p12206
aVbefore
p12207
aV.
aa(lp12208
Vjennie
p12209
aVlooked
p12210
aVat
p12211
aVthe
p12212
aVwall
p12213
aVin
p12214
aVamazement
p12215
aV,
aVbut
p12216
aVi
aVtold
p12217
aVher
p12218
aVmerrily
p12219
aVthat
p12220
aVi
aVdid
p12221
aVit
p12222
aVout
p12223
aVof
p12224
aVpure
p12225
aVspite
p12226
aVat
p12227
aVthe
p12228
aVvicious
p12229
aVthing
p12230
aV.
aa(lp12231
Vshe
p12232
aVlaughed
p12233
aVand
p12234
aVsaid
p12235
aVshe
p12236
aVwould
p12237
aVn't
p12238
aVmind
p12239
aVdoing
p12240
aVit
p12241
aVherself
p12242
aV,
aVbut
p12243
aVi
aVmust
p12244
aVnot
p12245
aVget
p12246
aVtired
p12247
aV.
aa(lp12248
Vhow
p12249
aVshe
p12250
aVbetrayed
p12251
aVherself
p12252
aVthat
p12253
aVtime
p12254
aV!
aa(lp12255
Vbut
p12256
aVi
aVam
p12257
aVhere
p12258
aV,
aVand
p12259
aVno
p12260
aVperson
p12261
aVtouches
p12262
aVthis
p12263
aVpaper
p12264
aVbut
p12265
aVme
p12266
aV--
p12267
aVnot
p12268
aValive
p12269
aV!
aa(lp12270
Vshe
p12271
aVtried
p12272
aVto
p12273
aVget
p12274
aVme
p12275
aVout
p12276
aVof
p12277
aVthe
p12278
aVroom
p12279
aV--
p12280
aVit
p12281
aVwas
p12282
aVtoo
p12283
aVpatent
p12284
aV!
aa(lp12285
Vbut
p12286
aVi
aVsaid
p12287
aVit
p12288
aVwas
p12289
aVso
p12290
aVquiet
p12291
aVand
p12292
aVempty
p12293
aVand
p12294
aVclean
p12295
aVnow
p12296
aVthat
p12297
aVi
aVbelieved
p12298
aVi
aVwould
p12299
aVlie
p12300
aVdown
p12301
aVagain
p12302
aVand
p12303
aVsleep
p12304
aVall
p12305
aVi
aVcould
p12306
aV;
aVand
p12307
aVnot
p12308
aVto
p12309
aVwake
p12310
aVme
p12311
aVeven
p12312
aVfor
p12313
aVdinner
p12314
aV--
p12315
aVi
aVwould
p12316
aVcall
p12317
aVwhen
p12318
aVi
aVwoke
p12319
aV.
aa(lp12320
Vso
p12321
aVnow
p12322
aVshe
p12323
aVis
p12324
aVgone
p12325
aV,
aVand
p12326
aVthe
p12327
aVservants
p12328
aVare
p12329
aVgone
p12330
aV,
aVand
p12331
aVthe
p12332
aVthings
p12333
aVare
p12334
aVgone
p12335
aV,
aVand
p12336
aVthere
p12337
aVis
p12338
aVnothing
p12339
aVleft
p12340
aVbut
p12341
aVthat
p12342
aVgreat
p12343
aVbedstead
p12344
aVnailed
p12345
aVdown
p12346
aV,
aVwith
p12347
aVthe
p12348
aVcanvas
p12349
aVmattress
p12350
aVwe
p12351
aVfound
p12352
aVon
p12353
aVit
p12354
aV.
aa(lp12355
Vwe
p12356
aVshall
p12357
aVsleep
p12358
aVdownstairs
p12359
aVto-night
p12360
aV,
aVand
p12361
aVtake
p12362
aVthe
p12363
aVboat
p12364
aVhome
p12365
aVto-morrow
p12366
aV.
aa(lp12367
Vi
aVquite
p12368
aVenjoy
p12369
aVthe
p12370
aVroom
p12371
aV,
aVnow
p12372
aVit
p12373
aVis
p12374
aVbare
p12375
aVagain
p12376
aV.
aa(lp12377
Vhow
p12378
aVthose
p12379
aVchildren
p12380
aVdid
p12381
aVtear
p12382
aVabout
p12383
aVhere
p12384
aV!
aa(lp12385
Vthis
p12386
aVbedstead
p12387
aVis
p12388
aVfairly
p12389
aVgnawed
p12390
aV!
aa(lp12391
Vbut
p12392
aVi
aVmust
p12393
aVget
p12394
aVto
p12395
aVwork
p12396
aV.
aa(lp12397
Vi
aVhave
p12398
aVlocked
p12399
aVthe
p12400
aVdoor
p12401
aVand
p12402
aVthrown
p12403
aVthe
p12404
aVkey
p12405
aVdown
p12406
aVinto
p12407
aVthe
p12408
aVfront
p12409
aVpath
p12410
aV.
aa(lp12411
Vi
aVdo
p12412
aVn't
p12413
aVwant
p12414
aVto
p12415
aVgo
p12416
aVout
p12417
aV,
aVand
p12418
aVi
aVdo
p12419
aVn't
p12420
aVwant
p12421
aVto
p12422
aVhave
p12423
aVanybody
p12424
aVcome
p12425
aVin
p12426
aV,
aVtill
p12427
aVjohn
p12428
aVcomes
p12429
aV.
aa(lp12430
Vi
aVwant
p12431
aVto
p12432
aVastonish
p12433
aVhim
p12434
aV.
aa(lp12435
Vi
aV've
p12436
aVgot
p12437
aVa
aVrope
p12438
aVup
p12439
aVhere
p12440
aVthat
p12441
aVeven
p12442
aVjennie
p12443
aVdid
p12444
aVnot
p12445
aVfind
p12446
aV.
aa(lp12447
Vif
p12448
aVthat
p12449
aVwoman
p12450
aVdoes
p12451
aVget
p12452
aVout
p12453
aV,
aVand
p12454
aVtries
p12455
aVto
p12456
aVget
p12457
aVaway
p12458
aV,
aVi
aVcan
p12459
aVtie
p12460
aVher
p12461
aV!
aa(lp12462
Vbut
p12463
aVi
aVforgot
p12464
aVi
aVcould
p12465
aVnot
p12466
aVreach
p12467
aVfar
p12468
aVwithout
p12469
aVanything
p12470
aVto
p12471
aVstand
p12472
aVon
p12473
aV!
aa(lp12474
Vthis
p12475
aVbed
p12476
aVwill
p12477
aVnot
p12478
aVmove
p12479
aV!
aa(lp12480
Vi
aVtried
p12481
aVto
p12482
aVlift
p12483
aVand
p12484
aVpush
p12485
aVit
p12486
aVuntil
p12487
aVi
aVwas
p12488
aVlame
p12489
aV,
aVand
p12490
aVthen
p12491
aVi
aVgot
p12492
aVso
p12493
aVangry
p12494
aVi
aVbit
p12495
aVoff
p12496
aVa
aVlittle
p12497
aVpiece
p12498
aVat
p12499
aVone
p12500
aVcorner
p12501
aV--
p12502
aVbut
p12503
aVit
p12504
aVhurt
p12505
aVmy
p12506
aVteeth
p12507
aV.
aa(lp12508
Vthen
p12509
aVi
aVpeeled
p12510
aVoff
p12511
aVall
p12512
aVthe
p12513
aVpaper
p12514
aVi
aVcould
p12515
aVreach
p12516
aVstanding
p12517
aVon
p12518
aVthe
p12519
aVfloor
p12520
aV.
aa(lp12521
Vit
p12522
aVsticks
p12523
aVhorribly
p12524
aVand
p12525
aVthe
p12526
aVpattern
p12527
aVjust
p12528
aVenjoys
p12529
aVit
p12530
aV!
aa(lp12531
Vall
p12532
aVthose
p12533
aVstrangled
p12534
aVheads
p12535
aVand
p12536
aVbulbous
p12537
aVeyes
p12538
aVand
p12539
aVwaddling
p12540
aVfungus
p12541
aVgrowths
p12542
aVjust
p12543
aVshriek
p12544
aVwith
p12545
aVderision
p12546
aV!
aa(lp12547
Vi
aVam
p12548
aVgetting
p12549
aVangry
p12550
aVenough
p12551
aVto
p12552
aVdo
p12553
aVsomething
p12554
aVdesperate
p12555
aV.
aa(lp12556
Vto
p12557
aVjump
p12558
aVout
p12559
aVof
p12560
aVthe
p12561
aVwindow
p12562
aVwould
p12563
aVbe
p12564
aVadmirable
p12565
aVexercise
p12566
aV,
aVbut
p12567
aVthe
p12568
aVbars
p12569
aVare
p12570
aVtoo
p12571
aVstrong
p12572
aVeven
p12573
aVto
p12574
aVtry
p12575
aV.
aa(lp12576
Vbesides
p12577
aVi
aVwould
p12578
aVn't
p12579
aVdo
p12580
aVit
p12581
aV.
aa(lp12582
Vof
p12583
aVcourse
p12584
aVnot
p12585
aV.
aa(lp12586
Vi
aVknow
p12587
aVwell
p12588
aVenough
p12589
aVthat
p12590
aVa
aVstep
p12591
aVlike
p12592
aVthat
p12593
aVis
p12594
aVimproper
p12595
aVand
p12596
aVmight
p12597
aVbe
p12598
aVmisconstrued
p12599
aV.
aa(lp12600
Vi
aVdo
p12601
aVn't
p12602
aVlike
p12603
aVto
p12604
aVlook
p12605
aVout
p12606
aVof
p12607
aVthe
p12608
aVwindows
p12609
aVeven
p12610
aV--
p12611
aVthere
p12612
aVare
p12613
aVso
p12614
aVmany
p12615
aVof
p12616
aVthose
p12617
aVcreeping
p12618
aVwomen
p12619
aV,
aVand
p12620
aVthey
p12621
aVcreep
p12622
aVso
p12623
aVfast
p12624
aV.
aa(lp12625
Vi
aVwonder
p12626
aVif
p12627
aVthey
p12628
aVall
p12629
aVcome
p12630
aVout
p12631
aVof
p12632
aVthat
p12633
aVwall-paper
p12634
aVas
p12635
aVi
aVdid
p12636
aV?
aa(lp12637
Vbut
p12638
aVi
aVam
p12639
aVsecurely
p12640
aVfastened
p12641
aVnow
p12642
aVby
p12643
aVmy
p12644
aVwell-hidden
p12645
aVrope
p12646
aV--
p12647
aVyou
p12648
aVdo
p12649
aVn't
p12650
aVget
p12651
aVme
p12652
aVout
p12653
aVin
p12654
aVthe
p12655
aVroad
p12656
aVthere
p12657
aV!
aa(lp12658
Vi
aVsuppose
p12659
aVi
aVshall
p12660
aVhave
p12661
aVto
p12662
aVget
p12663
aVback
p12664
aVbehind
p12665
aVthe
p12666
aVpattern
p12667
aVwhen
p12668
aVit
p12669
aVcomes
p12670
aVnight
p12671
aV,
aVand
p12672
aVthat
p12673
aVis
p12674
aVhard
p12675
aV!
aa(lp12676
Vit
p12677
aVis
p12678
aVso
p12679
aVpleasant
p12680
aVto
p12681
aVbe
p12682
aVout
p12683
aVin
p12684
aVthis
p12685
aVgreat
p12686
aVroom
p12687
aVand
p12688
aVcreep
p12689
aVaround
p12690
aVas
p12691
aVi
aVplease
p12692
aV!
aa(lp12693
Vi
aVdo
p12694
aVn't
p12695
aVwant
p12696
aVto
p12697
aVgo
p12698
aVoutside
p12699
aV.
aa(lp12700
Vi
aVwo
p12701
aVn't
p12702
aV,
aVeven
p12703
aVif
p12704
aVjennie
p12705
aVasks
p12706
aVme
p12707
aVto
p12708
aV.
aa(lp12709
Vfor
p12710
aVoutside
p12711
aVyou
p12712
aVhave
p12713
aVto
p12714
aVcreep
p12715
aVon
p12716
aVthe
p12717
aVground
p12718
aV,
aVand
p12719
aVeverything
p12720
aVis
p12721
aVgreen
p12722
aVinstead
p12723
aVof
p12724
aVyellow
p12725
aV.
aa(lp12726
Vbut
p12727
aVhere
p12728
aVi
aVcan
p12729
aVcreep
p12730
aVsmoothly
p12731
aVon
p12732
aVthe
p12733
aVfloor
p12734
aV,
aVand
p12735
aVmy
p12736
aVshoulder
p12737
aVjust
p12738
aVfits
p12739
aVin
p12740
aVthat
p12741
aVlong
p12742
aVsmooch
p12743
aVaround
p12744
aVthe
p12745
aVwall
p12746
aV,
aVso
p12747
aVi
aVcan
p12748
aVnot
p12749
aVlose
p12750
aVmy
p12751
aVway
p12752
aV.
aa(lp12753
Vwhy
p12754
aVthere
p12755
aV's
p12756
aVjohn
p12757
aVat
p12758
aVthe
p12759
aVdoor
p12760
aV!
aa(lp12761
Vit
p12762
aVis
p12763
aVno
p12764
aVuse
p12765
aV,
aVyoung
p12766
aVman
p12767
aV,
aVyou
p12768
aVca
p12769
aVn't
p12770
aVopen
p12771
aVit
p12772
aV!
aa(lp12773
Vhow
p12774
aVhe
p12775
aVdoes
p12776
aVcall
p12777
aVand
p12778
aVpound
p12779
aV!
aa(lp12780
Vnow
p12781
aVhe
p12782
aV's
p12783
aVcrying
p12784
aVfor
p12785
aVan
p12786
aVaxe
p12787
aV.
aa(lp12788
Vit
p12789
aVwould
p12790
aVbe
p12791
aVa
aVshame
p12792
aVto
p12793
aVbreak
p12794
aVdown
p12795
aVthat
p12796
aVbeautiful
p12797
aVdoor
p12798
aV!
aa(lp12799
V``
p12800
aVjohn
p12801
aVdear
p12802
aV!
aV''
p12803
aa(lp12804
Vsaid
p12805
aVi
aVin
p12806
aVthe
p12807
aVgentlest
p12808
aVvoice
p12809
aV,
aV``
p12810
aVthe
p12811
aVkey
p12812
aVis
p12813
aVdown
p12814
aVby
p12815
aVthe
p12816
aVfront
p12817
aVsteps
p12818
aV,
aVunder
p12819
aVa
aVplantain
p12820
aVleaf
p12821
aV!
aV''
p12822
aa(lp12823
Vthat
p12824
aVsilenced
p12825
aVhim
p12826
aVfor
p12827
aVa
aVfew
p12828
aVmoments
p12829
aV.
aa(lp12830
Vthen
p12831
aVhe
p12832
aVsaid
p12833
aV--
p12834
aVvery
p12835
aVquietly
p12836
aVindeed
p12837
aV,
aV``
p12838
aVopen
p12839
aVthe
p12840
aVdoor
p12841
aV,
aVmy
p12842
aVdarling
p12843
aV!
aV''
p12844
aa(lp12845
V``
p12846
aVi
aVca
p12847
aVn't
p12848
aV,
aV''
p12849
aVsaid
p12850
aVi
aV.
aa(lp12851
V``
p12852
aVthe
p12853
aVkey
p12854
aVis
p12855
aVdown
p12856
aVby
p12857
aVthe
p12858
aVfront
p12859
aVdoor
p12860
aVunder
p12861
aVa
aVplantain
p12862
aVleaf
p12863
aV!
aV''
p12864
aa(lp12865
Vand
p12866
aVthen
p12867
aVi
aVsaid
p12868
aVit
p12869
aVagain
p12870
aV,
aVseveral
p12871
aVtimes
p12872
aV,
aVvery
p12873
aVgently
p12874
aVand
p12875
aVslowly
p12876
aV,
aVand
p12877
aVsaid
p12878
aVit
p12879
aVso
p12880
aVoften
p12881
aVthat
p12882
aVhe
p12883
aVhad
p12884
aVto
p12885
aVgo
p12886
aVand
p12887
aVsee
p12888
aV,
aVand
p12889
aVhe
p12890
aVgot
p12891
aVit
p12892
aVof
p12893
aVcourse
p12894
aV,
aVand
p12895
aVcame
p12896
aVin
p12897
aV.
aa(lp12898
Vhe
p12899
aVstopped
p12900
aVshort
p12901
aVby
p12902
aVthe
p12903
aVdoor
p12904
aV.
aa(lp12905
V``
p12906
aVwhat
p12907
aVis
p12908
aVthe
p12909
aVmatter
p12910
aV?
aV''
p12911
aa(lp12912
Vhe
p12913
aVcried
p12914
aV.
aa(lp12915
V``
p12916
aVfor
p12917
aVgod
p12918
aV's
p12919
aVsake
p12920
aV,
aVwhat
p12921
aVare
p12922
aVyou
p12923
aVdoing
p12924
aV!
aV''
p12925
aa(lp12926
Vi
aVkept
p12927
aVon
p12928
aVcreeping
p12929
aVjust
p12930
aVthe
p12931
aVsame
p12932
aV,
aVbut
p12933
aVi
aVlooked
p12934
aVat
p12935
aVhim
p12936
aVover
p12937
aVmy
p12938
aVshoulder
p12939
aV.
aa(lp12940
V``
p12941
aVi
aV've
p12942
aVgot
p12943
aVout
p12944
aVat
p12945
aVlast
p12946
aV,
aV''
p12947
aVsaid
p12948
aVi
aV,
aV``
p12949
aVin
p12950
aVspite
p12951
aVof
p12952
aVyou
p12953
aVand
p12954
aVjane
p12955
aV.
aa(lp12956
Vand
p12957
aVi've
p12958
aVpulled
p12959
aVoff
p12960
aVmost
p12961
aVof
p12962
aVthe
p12963
aVpaper
p12964
aV,
aVso
p12965
aVyou
p12966
aVca
p12967
aVn't
p12968
aVput
p12969
aVme
p12970
aVback
p12971
aV!
aV''
p12972
aa(lp12973
Vnow
p12974
aVwhy
p12975
aVshould
p12976
aVthat
p12977
aVman
p12978
aVhave
p12979
aVfainted
p12980
aV?
aa(lp12981
Vbut
p12982
aVhe
p12983
aVdid
p12984
aV,
aVand
p12985
aVright
p12986
aVacross
p12987
aVmy
p12988
aVpath
p12989
aVby
p12990
aVthe
p12991
aVwall
p12992
aV,
aVso
p12993
aVthat
p12994
aVi
aVhad
p12995
aVto
p12996
aVcreep
p12997
aVover
p12998
aVhim
p12999
aVevery
p13000
aVtime
p13001
aV!
aasb.