ccopy_reg
_reconstructor
p1
(cData.Book
Book
p2
c__builtin__
object
p3
NtRp4
(dp5
S'stored_object'
p6
S'Books/The_RedHeaded_League/Book_object.p'
p7
sS'title'
p8
S'The RedHeaded League'
p9
sS'main_text_path'
p10
S'Books/The_RedHeaded_League/main_cleaned.txt'
p11
sS'metadata_path'
p12
S'Books/The_RedHeaded_League/meta_data.csv'
p13
sS'book_path'
p14
S'Books/The_RedHeaded_League/'
p15
sS'characters'
p16
(dp17
S'dr. john watson'
p18
(dp19
S'list'
p20
(lp21
(lp22
Vdr.
p23
aV[
aVCHARACTER
p24
aV]
aV-
aVsherlock
p25
aVholmes
p26
aV's
p27
aVpartner
p28
aVand
p29
aVthe
p30
aVstory
p31
aV's
p32
aVnarrator
p33
aV.
aa(lp34
Vgood-natured
p35
aV,
aVbrave
p36
aV,
aVand
p37
aVdown-to-earth
p38
aV,
aVwatson
p39
aVis
p40
aVsherlock
p41
aVholmes
p42
aV's
p43
aVsidekick
p44
aV,
aVeven
p45
aVthough
p46
aVhe
p47
aVrarely
p48
aVhelps
p49
aVholmes
p50
aVactually
p51
aVsolve
p52
aVany
p53
aVmysteries
p54
aV.
aa(lp55
Vhis
p56
aVconfusion
p57
aVwith
p58
aVthe
p59
aVmysteries
p60
aVand
p61
aVholmes
p62
aVoften
p63
aVmirrors
p64
aVreaders
p65
aV'
aVown
p66
aVconfusion
p67
aV.
aasS'analysis'
p68
(lp69
(lp70
Vdr.
p71
aV[
aVCHARACTER
p72
aV]
aVeven
p73
aVthough
p74
aVhe
p75
aV's
p76
aVthe
p77
aVnarrator
p78
aVof
p79
aVthe
p80
aVstory
p81
aV,
aVwatson
p82
aVplays
p83
aVa
aVsurprisingly
p84
aVlimited
p85
aVrole
p86
aV.
aa(lp87
Vin
p88
aVfact
p89
aV,
aVhe
p90
aVdoes
p91
aVnot
p92
aVhelp
p93
aVsolve
p94
aVthe
p95
aVcase
p96
aVor
p97
aVeven
p98
aVcontribute
p99
aVto
p100
aVthe
p101
aVaction
p102
aVof
p103
aVthe
p104
aVstory
p105
aVin
p106
aVany
p107
aVway
p108
aV.
aa(lp109
Vthat
p110
aVis
p111
aVnot
p112
aVto
p113
aVsay
p114
aV,
aVhowever
p115
aV,
aVthat
p116
aVwatson
p117
aVis
p118
aVirrelevant
p119
aV.
aa(lp120
Vin
p121
aVfact
p122
aV,
aVwatson
p123
aVis
p124
aVjust
p125
aVas
p126
aVmuch
p127
aVthe
p128
aVcenter
p129
aVof
p130
aVthe
p131
aVstory
p132
aV's
p133
aVform
p134
aVas
p135
aVsherlock
p136
aVholmes
p137
aVis
p138
aVthe
p139
aVcenter
p140
aVof
p141
aVthe
p142
aVstory
p143
aV's
p144
aVplot
p145
aV.
aa(lp146
Vwatson
p147
aVshapes
p148
aVthe
p149
aVstory
p150
aVfor
p151
aVreaders
p152
aV,
aVwho
p153
aVsee
p154
aVand
p155
aVunderstand
p156
aVonly
p157
aVwhat
p158
aVwatson
p159
aVhimself
p160
aVexperiences
p161
aV.
aa(lp162
Vwatson
p163
aV's
p164
aVgood
p165
aVnature
p166
aV,
aVeagerness
p167
aV,
aVand
p168
aVwarm
p169
aVfeelings
p170
aVfor
p171
aVholmes
p172
aVenliven
p173
aVthe
p174
aVstory
p175
aVand
p176
aVtransform
p177
aVit
p178
aVfrom
p179
aVa
aVmere
p180
aVrecounting
p181
aVof
p182
aVa
aVcrime
p183
aVand
p184
aVits
p185
aVsolution
p186
aVinto
p187
aVa
aVrich
p188
aVstudy
p189
aVof
p190
aVhuman
p191
aVbehavior
p192
aV.
aa(lp193
Vdoyle
p194
aVtransforms
p195
aVthe
p196
aVstory
p197
aVfrom
p198
aVa
aVstraightforward
p199
aVmystery
p200
aVinto
p201
aVa
aVcomplex
p202
aVstudy
p203
aVby
p204
aVputting
p205
aVreaders
p206
aVdirectly
p207
aVinto
p208
aVwatson
p209
aV's
p210
aVshoes
p211
aV.
aa(lp212
Valthough
p213
aVfar
p214
aVfrom
p215
aVdull
p216
aV,
aVwatson
p217
aVis
p218
aVlike
p219
aVmost
p220
aVreaders
p221
aVin
p222
aVthat
p223
aVhe
p224
aVsimply
p225
aVis
p226
aVn't
p227
aVas
p228
aVobservant
p229
aVas
p230
aVholmes
p231
aV.
aa(lp232
Vthe
p233
aVfact
p234
aVthat
p235
aVhe
p236
aVis
p237
aVso
p238
aVaverage
p239
aVand
p240
aVgenial
p241
aValso
p242
aVmakes
p243
aVhim
p244
aVinstantly
p245
aVaccessible
p246
aVto
p247
aVreaders
p248
aV.
aa(lp249
Vreaders
p250
aVdo
p251
aVn't
p252
aValways
p253
aVunderstand
p254
aVholmes
p255
aV's
p256
aVreasoning
p257
aV,
aVbut
p258
aVthey
p259
aVadmire
p260
aVhim
p261
aVall
p262
aVthe
p263
aVmore
p264
aVbecause
p265
aVof
p266
aVwatson
p267
aV's
p268
aVwarm
p269
aVdescriptions
p270
aVof
p271
aVhim
p272
aV.
aa(lp273
Vwatson
p274
aValso
p275
aVtries
p276
aVto
p277
aVredeem
p278
aVholmes
p279
aVfor
p280
aVreaders
p281
aVby
p282
aVsuggesting
p283
aVthat
p284
aVhe
p285
aVis
p286
aVa
aVbenefactor
p287
aVof
p288
aVhumanity
p289
aV,
aVeven
p290
aVthough
p291
aVholmes
p292
aVhimself
p293
aVadmits
p294
aVthat
p295
aVhe
p296
aVsolves
p297
aVcases
p298
aVmerely
p299
aVfor
p300
aVhis
p301
aVown
p302
aVrecreation
p303
aV.
aassS'peter jones'
p304
(dp305
g20
(lp306
(lp307
V[
aVCHARACTER
p308
aV]
aV-
aVa
aVscotland
p309
aVyard
p310
aVdetective
p311
aV.
aa(lp312
V[
aVCHARACTER
p313
aV]
aVis
p314
aVa
aVtough
p315
aVpolice
p316
aVofficer
p317
aVwho
p318
aVboth
p319
aVrespects
p320
aVand
p321
aVdistrusts
p322
aVsherlock
p323
aVholmes
p324
aV.
aasg68
NssS'john clay/vincent spaulding'
p325
(dp326
g20
(lp327
(lp328
V[
aVCHARACTER
p329
aV]
aV-
aVa
aVnotorious
p330
aVcriminal
p331
aVworking
p332
aVat
p333
aVjabez
p334
aVwilson
p335
aV's
p336
aVpawnshop
p337
aVunder
p338
aVthe
p339
aVpseudonym
p340
aVvincent
p341
aVspaulding
p342
aV.
aa(lp343
Vsinister
p344
aVand
p345
aVhaughty
p346
aV,
aVjohn
p347
aVclay
p348
aVwins
p349
aVthe
p350
aVrespect
p351
aVof
p352
aVsherlock
p353
aVholmes
p354
aVbecause
p355
aVof
p356
aVhis
p357
aVingenious
p358
aVplot
p359
aVto
p360
aVrob
p361
aVthe
p362
aVcity
p363
aVand
p364
aVsuburban
p365
aVbank
p366
aV.
aasg68
NssS'jabez wilson'
p367
(dp368
g20
(lp369
(lp370
V[
aVCHARACTER
p371
aV]
aV-
aVa
aVlondon
p372
aVpawnbroker
p373
aV.
aa(lp374
V[
aVCHARACTER
p375
aV]
aVis
p376
aVan
p377
aVaverage
p378
aVman
p379
aVwhose
p380
aVonly
p381
aVremarkable
p382
aVfeature
p383
aVis
p384
aVhis
p385
aVshock
p386
aVof
p387
aVfiery
p388
aVred
p389
aVhair
p390
aV.
aa(lp391
Vhis
p392
aVslow
p393
aVand
p394
aVtrusting
p395
aVnature
p396
aVprevents
p397
aVhim
p398
aVfrom
p399
aVseeing
p400
aVanything
p401
aVsuspicious
p402
aVabout
p403
aVeither
p404
aVvincent
p405
aVspaulding
p406
aVor
p407
aVthe
p408
aVpreposterous
p409
aVred-headed
p410
aVleague
p411
aV.
aasg68
NssS'archie/duncan ross/william morris'
p412
(dp413
g20
(lp414
(lp415
V[
aVCHARACTER
p416
aV]
aV-
aVjohn
p417
aVclay
p418
aV's
p419
aVpartner
p420
aVin
p421
aVcrime
p422
aV.
aa(lp423
Varchie
p424
aV's
p425
aVred
p426
aVhair
p427
aVprompts
p428
aVjohn
p429
aVclay
p430
aVto
p431
aVdevise
p432
aVthe
p433
aVred-headed
p434
aVleague
p435
aVto
p436
aVlure
p437
aVwilson
p438
aVout
p439
aVof
p440
aVhis
p441
aVpawnshop
p442
aVfor
p443
aVfour
p444
aVhours
p445
aVevery
p446
aVday
p447
aV.
aasg68
NssS'mr. merryweather'
p448
(dp449
g20
(lp450
(lp451
Vmr.
p452
aV[
aVCHARACTER
p453
aV]
aV-
aVthe
p454
aVmanager
p455
aVof
p456
aVthe
p457
aVcity
p458
aVand
p459
aVsuburban
p460
aVbank
p461
aV.
aasg68
NssS'sherlock holmes'
p462
(dp463
g20
(lp464
(lp465
V[
aVCHARACTER
p466
aV]
aV-
aVa
aVprivate
p467
aVdetective
p468
aVand
p469
aVthe
p470
aVstory
p471
aV's
p472
aVprotagonist
p473
aV.
aa(lp474
V[
aVCHARACTER
p475
aV]
aV's
p476
aVkeen
p477
aVobservations
p478
aVand
p479
aVability
p480
aVto
p481
aVreason
p482
aVallow
p483
aVhim
p484
aVto
p485
aVsolve
p486
aVpuzzles
p487
aVthat
p488
aVstymie
p489
aVeveryone
p490
aVelse
p491
aV.
aa(lp492
Vsometimes
p493
aVquiet
p494
aVand
p495
aVcontemplative
p496
aV,
aVother
p497
aVtimes
p498
aVbursting
p499
aVwith
p500
aVenergy
p501
aV,
aVholmes
p502
aVuses
p503
aVmethodology
p504
aVthat
p505
aVcan
p506
aVconfuse
p507
aVand
p508
aVfrustrate
p509
aVothers
p510
aV.
aa(lp511
Vhe
p512
aVis
p513
aVsomewhat
p514
aVof
p515
aVa
aVmystery
p516
aV,
aVrarely
p517
aVdivulging
p518
aVhis
p519
aVthoughts
p520
aVuntil
p521
aVhe
p522
aV's
p523
aValready
p524
aVsolved
p525
aVthe
p526
aVcrime
p527
aV.
aasg68
(lp528
(lp529
V[
aVCHARACTER
p530
aV]
aV[
aVCHARACTER
p531
aV]
aVis
p532
aVone
p533
aVof
p534
aVthe
p535
aVmost
p536
aVrecognizable
p537
aVfigures
p538
aVin
p539
aVall
p540
aVof
p541
aVworld
p542
aVliterature
p543
aV,
aVand
p544
aVit
p545
aVcan
p546
aVoften
p547
aVbe
p548
aVdifficult
p549
aVfor
p550
aVreaders
p551
aVto
p552
aVstrip
p553
aVaway
p554
aVtheir
p555
aVpreconceptions
p556
aVabout
p557
aVholmes
p558
aVand
p559
aVsee
p560
aVhow
p561
aVthe
p562
aVstories
p563
aVactually
p564
aVportray
p565
aVhim
p566
aV.
aa(lp567
Vmost
p568
aVpeople
p569
aVthink
p570
aVof
p571
aVholmes
p572
aVas
p573
aVa
aVforce
p574
aVof
p575
aVpure
p576
aVreasoning
p577
aV,
aVan
p578
aValmost
p579
aVsuperhuman
p580
aVmind
p581
aVcapable
p582
aVof
p583
aVsolving
p584
aVany
p585
aVpuzzle
p586
aV.
aa(lp587
Valthough
p588
aVdoyle
p589
aV's
p590
aVstories
p591
aVdo
p592
aVconfirm
p593
aVthis
p594
aVstereotype
p595
aVto
p596
aVsome
p597
aVdegree
p598
aV,
aVthey
p599
aValso
p600
aVcomplicate
p601
aVthis
p602
aVimage
p603
aV,
aVas
p604
aVis
p605
aVclear
p606
aVin
p607
aV``
p608
aVthe
p609
aVred-headed
p610
aVleague
p611
aV.
aV''
p612
aa(lp613
Vhere
p614
aVreaders
p615
aVsee
p616
aVmultiple
p617
aVsides
p618
aVof
p619
aVholmes
p620
aV:
aVhe
p621
aVmoves
p622
aVfrom
p623
aVquiet
p624
aVcontemplation
p625
aVto
p626
aVfrantic
p627
aVactivity
p628
aV,
aVvirtually
p629
aVasleep
p630
aVone
p631
aVmoment
p632
aVand
p633
aVpractically
p634
aVpushing
p635
aVwatson
p636
aVout
p637
aVthe
p638
aVdoor
p639
aVin
p640
aVhot
p641
aVpursuit
p642
aVof
p643
aVclues
p644
aVthe
p645
aVnext
p646
aV.
aa(lp647
Vwatson
p648
aVcomments
p649
aVthat
p650
aVholmes
p651
aVhas
p652
aVa
aV``
p653
aVdual
p654
aVnature
p655
aV,
aV''
p656
aVand
p657
aVreaders
p658
aVsee
p659
aVevidence
p660
aVof
p661
aVthis
p662
aVthroughout
p663
aVthe
p664
aVstory
p665
aV,
aVas
p666
aVwhen
p667
aVholmes
p668
aVtransitions
p669
aVinstantly
p670
aVfrom
p671
aVfervently
p672
aVinvestigating
p673
aVthe
p674
aVclues
p675
aVat
p676
aVwilson
p677
aV's
p678
aVhouse
p679
aVto
p680
aVlounging
p681
aVthe
p682
aVday
p683
aVaway
p684
aVin
p685
aVa
aVconcert
p686
aVhall
p687
aV.
aa(lp688
Vholmes
p689
aVveers
p690
aVwildly
p691
aVfrom
p692
aVone
p693
aVextreme
p694
aVto
p695
aVthe
p696
aVnext
p697
aV,
aVmaking
p698
aVhim
p699
aVfar
p700
aVmore
p701
aVeccentric
p702
aVthan
p703
aVfirst-time
p704
aVreaders
p705
aVmight
p706
aVexpect
p707
aV.
aa(lp708
Valthough
p709
aVthese
p710
aVextremes
p711
aVof
p712
aVbehavior
p713
aVmight
p714
aVsuggest
p715
aVthat
p716
aVholmes
p717
aVis
p718
aVnot
p719
aVa
aVrealistic
p720
aV,
aVwell-rounded
p721
aVcharacter
p722
aV,
aVclose
p723
aVreaders
p724
aVof
p725
aVthe
p726
aVstory
p727
aVwill
p728
aVnotice
p729
aVthat
p730
aVhe
p731
aVis
p732
aValso
p733
aVcapable
p734
aVof
p735
aVmore
p736
aVcomplicated
p737
aVemotions
p738
aV.
aa(lp739
Vholmes
p740
aVdisplays
p741
aVwarm
p742
aVfriendship
p743
aVfor
p744
aVhis
p745
aV``
p746
aVdear
p747
aVwatson
p748
aV''
p749
aVbut
p750
aVusually
p751
aVrebuffs
p752
aVhis
p753
aVfriend
p754
aV's
p755
aVattempts
p756
aVto
p757
aVfind
p758
aVout
p759
aVwhat
p760
aVhe
p761
aVis
p762
aVthinking
p763
aV.
aa(lp764
Veven
p765
aVmore
p766
aVtroubling
p767
aVis
p768
aVthe
p769
aVquestion
p770
aVof
p771
aVholmes
p772
aV's
p773
aVmotives
p774
aVin
p775
aVsolving
p776
aVcases
p777
aV.
aa(lp778
Vwhile
p779
aVholmes
p780
aVdoes
p781
aVhand
p782
aVcriminals
p783
aVover
p784
aVto
p785
aVthe
p786
aVpolice
p787
aV,
aVserving
p788
aVjustice
p789
aVis
p790
aVnot
p791
aVhis
p792
aVprimary
p793
aVconcern
p794
aV.
aa(lp795
Vinstead
p796
aV,
aVholmes
p797
aVis
p798
aVprimarily
p799
aVinterested
p800
aVin
p801
aVthe
p802
aVcase
p803
aVas
p804
aVan
p805
aVintellectual
p806
aVchallenge
p807
aV,
aVa
aVpuzzle
p808
aVto
p809
aVbe
p810
aVsolved
p811
aV.
aa(lp812
Vat
p813
aVthe
p814
aVend
p815
aVof
p816
aVthe
p817
aV``
p818
aVthe
p819
aVred-headed
p820
aVleague
p821
aV,
aV''
p822
aVfor
p823
aVexample
p824
aV,
aVholmes
p825
aVsuggests
p826
aVthat
p827
aVhis
p828
aVreward
p829
aVcame
p830
aVfrom
p831
aVhearing
p832
aVan
p833
aVinteresting
p834
aVcase
p835
aVand
p836
aVsettling
p837
aVa
aVprivate
p838
aVscore
p839
aVwith
p840
aVjohn
p841
aVclay
p842
aV,
aVnot
p843
aVfrom
p844
aVkeeping
p845
aVthe
p846
aVpublic
p847
aVsafe
p848
aVby
p849
aVputting
p850
aVa
aVknown
p851
aVcriminal
p852
aVbehind
p853
aVbars
p854
aV.
aa(lp855
Veven
p856
aVin
p857
aVthe
p858
aVstory
p859
aV's
p860
aVfinal
p861
aVmoments
p862
aV,
aVdoyle
p863
aVfurther
p864
aVcomplicates
p865
aVreaders
p866
aV'
aVimage
p867
aVof
p868
aVholmes
p869
aV,
aVwho
p870
aVresponds
p871
aVindifferently
p872
aVto
p873
aVwatson
p874
aV's
p875
aVpraise
p876
aVand
p877
aVsays
p878
aVthat
p879
aVhe
p880
aVpursued
p881
aVthe
p882
aVcase
p883
aVsolely
p884
aVto
p885
aVescape
p886
aVthe
p887
aVboredom
p888
aVof
p889
aVeveryday
p890
aVlife
p891
aV.
aa(lp892
Vholmes
p893
aVis
p894
aVtherefore
p895
aVa
aVcharacter
p896
aVreaders
p897
aVeasily
p898
aVrecognize
p899
aVas
p900
aVsuperhuman
p901
aV,
aVbut
p902
aValso
p903
aVone
p904
aVwho
p905
aVis
p906
aVjust
p907
aVas
p908
aVhuman
p909
aVas
p910
aVeveryone
p911
aVelse
p912
aV.
aasssS'mainText'
p913
(lp914
(lp915
Vthe
p916
aVred-headed
p917
aVleague
p918
aVi
aVhad
p919
aVcalled
p920
aVupon
p921
aVmy
p922
aVfriend
p923
aV,
aVmr.
p924
aVsherlock
p925
aVholmes
p926
aV,
aVone
p927
aVday
p928
aVin
p929
aVthe
p930
aVautumn
p931
aVof
p932
aVlast
p933
aVyear
p934
aVand
p935
aVfound
p936
aVhim
p937
aVin
p938
aVdeep
p939
aVconversation
p940
aVwith
p941
aVa
aVvery
p942
aVstout
p943
aV,
aVflorid-faced
p944
aV,
aVelderly
p945
aVgentleman
p946
aVwith
p947
aVfiery
p948
aVred
p949
aVhair
p950
aV.
aa(lp951
Vwith
p952
aVan
p953
aVapology
p954
aVfor
p955
aVmy
p956
aVintrusion
p957
aV,
aVi
aVwas
p958
aVabout
p959
aVto
p960
aVwithdraw
p961
aVwhen
p962
aVholmes
p963
aVpulled
p964
aVme
p965
aVabruptly
p966
aVinto
p967
aVthe
p968
aVroom
p969
aVand
p970
aVclosed
p971
aVthe
p972
aVdoor
p973
aVbehind
p974
aVme
p975
aV.
aa(lp976
V``
p977
aVyou
p978
aVcould
p979
aVnot
p980
aVpossibly
p981
aVhave
p982
aVcome
p983
aVat
p984
aVa
aVbetter
p985
aVtime
p986
aV,
aVmy
p987
aVdear
p988
aVwatson
p989
aV,
aV''
p990
aVhe
p991
aVsaid
p992
aVcordially
p993
aV.
aa(lp994
V``
p995
aVi
aVwas
p996
aVafraid
p997
aVthat
p998
aVyou
p999
aVwere
p1000
aVengaged
p1001
aV.
aV''
p1002
aa(lp1003
V``
p1004
aVso
p1005
aVi
aVam
p1006
aV.
aa(lp1007
Vvery
p1008
aVmuch
p1009
aVso
p1010
aV.
aV''
p1011
aa(lp1012
V``
p1013
aVthen
p1014
aVi
aVcan
p1015
aVwait
p1016
aVin
p1017
aVthe
p1018
aVnext
p1019
aVroom
p1020
aV.
aV''
p1021
aa(lp1022
V``
p1023
aVnot
p1024
aVat
p1025
aVall
p1026
aV.
aa(lp1027
Vthis
p1028
aVgentleman
p1029
aV,
aVmr.
p1030
aVwilson
p1031
aV,
aVhas
p1032
aVbeen
p1033
aVmy
p1034
aVpartner
p1035
aVand
p1036
aVhelper
p1037
aVin
p1038
aVmany
p1039
aVof
p1040
aVmy
p1041
aVmost
p1042
aVsuccessful
p1043
aVcases
p1044
aV,
aVand
p1045
aVi
aVhave
p1046
aVno
p1047
aVdoubt
p1048
aVthat
p1049
aVhe
p1050
aVwill
p1051
aVbe
p1052
aVof
p1053
aVthe
p1054
aVutmost
p1055
aVuse
p1056
aVto
p1057
aVme
p1058
aVin
p1059
aVyours
p1060
aValso
p1061
aV.
aV''
p1062
aa(lp1063
Vthe
p1064
aVstout
p1065
aVgentleman
p1066
aVhalf
p1067
aVrose
p1068
aVfrom
p1069
aVhis
p1070
aVchair
p1071
aVand
p1072
aVgave
p1073
aVa
aVbob
p1074
aVof
p1075
aVgreeting
p1076
aV,
aVwith
p1077
aVa
aVquick
p1078
aVlittle
p1079
aVquestioning
p1080
aVglance
p1081
aVfrom
p1082
aVhis
p1083
aVsmall
p1084
aVfat-encircled
p1085
aVeyes
p1086
aV.
aa(lp1087
V``
p1088
aVtry
p1089
aVthe
p1090
aVsettee
p1091
aV,
aV''
p1092
aVsaid
p1093
aVholmes
p1094
aV,
aVrelapsing
p1095
aVinto
p1096
aVhis
p1097
aVarmchair
p1098
aVand
p1099
aVputting
p1100
aVhis
p1101
aVfingertips
p1102
aVtogether
p1103
aV,
aVas
p1104
aVwas
p1105
aVhis
p1106
aVcustom
p1107
aVwhen
p1108
aVin
p1109
aVjudicial
p1110
aVmoods
p1111
aV.
aa(lp1112
V``
p1113
aVi
aVknow
p1114
aV,
aVmy
p1115
aVdear
p1116
aVwatson
p1117
aV,
aVthat
p1118
aVyou
p1119
aVshare
p1120
aVmy
p1121
aVlove
p1122
aVof
p1123
aVall
p1124
aVthat
p1125
aVis
p1126
aVbizarre
p1127
aVand
p1128
aVoutside
p1129
aVthe
p1130
aVconventions
p1131
aVand
p1132
aVhumdrum
p1133
aVroutine
p1134
aVof
p1135
aVeveryday
p1136
aVlife
p1137
aV.
aa(lp1138
Vyou
p1139
aVhave
p1140
aVshown
p1141
aVyour
p1142
aVrelish
p1143
aVfor
p1144
aVit
p1145
aVby
p1146
aVthe
p1147
aVenthusiasm
p1148
aVwhich
p1149
aVhas
p1150
aVprompted
p1151
aVyou
p1152
aVto
p1153
aVchronicle
p1154
aV,
aVand
p1155
aV,
aVif
p1156
aVyou
p1157
aVwill
p1158
aVexcuse
p1159
aVmy
p1160
aVsaying
p1161
aVso
p1162
aV,
aVsomewhat
p1163
aVto
p1164
aVembellish
p1165
aVso
p1166
aVmany
p1167
aVof
p1168
aVmy
p1169
aVown
p1170
aVlittle
p1171
aVadventures
p1172
aV.
aV''
p1173
aa(lp1174
V``
p1175
aVyour
p1176
aVcases
p1177
aVhave
p1178
aVindeed
p1179
aVbeen
p1180
aVof
p1181
aVthe
p1182
aVgreatest
p1183
aVinterest
p1184
aVto
p1185
aVme
p1186
aV,
aV''
p1187
aVi
aVobserved
p1188
aV.
aa(lp1189
V``
p1190
aVyou
p1191
aVwill
p1192
aVremember
p1193
aVthat
p1194
aVi
aVremarked
p1195
aVthe
p1196
aVother
p1197
aVday
p1198
aV,
aVjust
p1199
aVbefore
p1200
aVwe
p1201
aVwent
p1202
aVinto
p1203
aVthe
p1204
aVvery
p1205
aVsimple
p1206
aVproblem
p1207
aVpresented
p1208
aVby
p1209
aVmiss
p1210
aVmary
p1211
aVsutherland
p1212
aV,
aVthat
p1213
aVfor
p1214
aVstrange
p1215
aVeffects
p1216
aVand
p1217
aVextraordinary
p1218
aVcombinations
p1219
aVwe
p1220
aVmust
p1221
aVgo
p1222
aVto
p1223
aVlife
p1224
aVitself
p1225
aV,
aVwhich
p1226
aVis
p1227
aValways
p1228
aVfar
p1229
aVmore
p1230
aVdaring
p1231
aVthan
p1232
aVany
p1233
aVeffort
p1234
aVof
p1235
aVthe
p1236
aVimagination
p1237
aV.
aV''
p1238
aa(lp1239
V``
p1240
aVa
aVproposition
p1241
aVwhich
p1242
aVi
aVtook
p1243
aVthe
p1244
aVliberty
p1245
aVof
p1246
aVdoubting
p1247
aV.
aV''
p1248
aa(lp1249
V``
p1250
aVyou
p1251
aVdid
p1252
aV,
aVdoctor
p1253
aV,
aVbut
p1254
aVnone
p1255
aVthe
p1256
aVless
p1257
aVyou
p1258
aVmust
p1259
aVcome
p1260
aVround
p1261
aVto
p1262
aVmy
p1263
aVview
p1264
aV,
aVfor
p1265
aVotherwise
p1266
aVi
aVshall
p1267
aVkeep
p1268
aVon
p1269
aVpiling
p1270
aVfact
p1271
aVupon
p1272
aVfact
p1273
aVon
p1274
aVyou
p1275
aVuntil
p1276
aVyour
p1277
aVreason
p1278
aVbreaks
p1279
aVdown
p1280
aVunder
p1281
aVthem
p1282
aVand
p1283
aVacknowledges
p1284
aVme
p1285
aVto
p1286
aVbe
p1287
aVright
p1288
aV.
aa(lp1289
Vnow
p1290
aV,
aVmr.
p1291
aVjabez
p1292
aVwilson
p1293
aVhere
p1294
aVhas
p1295
aVbeen
p1296
aVgood
p1297
aVenough
p1298
aVto
p1299
aVcall
p1300
aVupon
p1301
aVme
p1302
aVthis
p1303
aVmorning
p1304
aV,
aVand
p1305
aVto
p1306
aVbegin
p1307
aVa
aVnarrative
p1308
aVwhich
p1309
aVpromises
p1310
aVto
p1311
aVbe
p1312
aVone
p1313
aVof
p1314
aVthe
p1315
aVmost
p1316
aVsingular
p1317
aVwhich
p1318
aVi
aVhave
p1319
aVlistened
p1320
aVto
p1321
aVfor
p1322
aVsome
p1323
aVtime
p1324
aV.
aa(lp1325
Vyou
p1326
aVhave
p1327
aVheard
p1328
aVme
p1329
aVremark
p1330
aVthat
p1331
aVthe
p1332
aVstrangest
p1333
aVand
p1334
aVmost
p1335
aVunique
p1336
aVthings
p1337
aVare
p1338
aVvery
p1339
aVoften
p1340
aVconnected
p1341
aVnot
p1342
aVwith
p1343
aVthe
p1344
aVlarger
p1345
aVbut
p1346
aVwith
p1347
aVthe
p1348
aVsmaller
p1349
aVcrimes
p1350
aV,
aVand
p1351
aVoccasionally
p1352
aV,
aVindeed
p1353
aV,
aVwhere
p1354
aVthere
p1355
aVis
p1356
aVroom
p1357
aVfor
p1358
aVdoubt
p1359
aVwhether
p1360
aVany
p1361
aVpositive
p1362
aVcrime
p1363
aVhas
p1364
aVbeen
p1365
aVcommitted
p1366
aV.
aa(lp1367
Vas
p1368
aVfar
p1369
aVas
p1370
aVi
aVhave
p1371
aVheard
p1372
aVit
p1373
aVis
p1374
aVimpossible
p1375
aVfor
p1376
aVme
p1377
aVto
p1378
aVsay
p1379
aVwhether
p1380
aVthe
p1381
aVpresent
p1382
aVcase
p1383
aVis
p1384
aVan
p1385
aVinstance
p1386
aVof
p1387
aVcrime
p1388
aVor
p1389
aVnot
p1390
aV,
aVbut
p1391
aVthe
p1392
aVcourse
p1393
aVof
p1394
aVevents
p1395
aVis
p1396
aVcertainly
p1397
aVamong
p1398
aVthe
p1399
aVmost
p1400
aVsingular
p1401
aVthat
p1402
aVi
aVhave
p1403
aVever
p1404
aVlistened
p1405
aVto
p1406
aV.
aa(lp1407
Vperhaps
p1408
aV,
aVmr.
p1409
aVwilson
p1410
aV,
aVyou
p1411
aVwould
p1412
aVhave
p1413
aVthe
p1414
aVgreat
p1415
aVkindness
p1416
aVto
p1417
aVrecommence
p1418
aVyour
p1419
aVnarrative
p1420
aV.
aa(lp1421
Vi
aVask
p1422
aVyou
p1423
aVnot
p1424
aVmerely
p1425
aVbecause
p1426
aVmy
p1427
aVfriend
p1428
aVdr.
p1429
aVwatson
p1430
aVhas
p1431
aVnot
p1432
aVheard
p1433
aVthe
p1434
aVopening
p1435
aVpart
p1436
aVbut
p1437
aValso
p1438
aVbecause
p1439
aVthe
p1440
aVpeculiar
p1441
aVnature
p1442
aVof
p1443
aVthe
p1444
aVstory
p1445
aVmakes
p1446
aVme
p1447
aVanxious
p1448
aVto
p1449
aVhave
p1450
aVevery
p1451
aVpossible
p1452
aVdetail
p1453
aVfrom
p1454
aVyour
p1455
aVlips
p1456
aV.
aa(lp1457
Vas
p1458
aVa
aVrule
p1459
aV,
aVwhen
p1460
aVi
aVhave
p1461
aVheard
p1462
aVsome
p1463
aVslight
p1464
aVindication
p1465
aVof
p1466
aVthe
p1467
aVcourse
p1468
aVof
p1469
aVevents
p1470
aV,
aVi
aVam
p1471
aVable
p1472
aVto
p1473
aVguide
p1474
aVmyself
p1475
aVby
p1476
aVthe
p1477
aVthousands
p1478
aVof
p1479
aVother
p1480
aVsimilar
p1481
aVcases
p1482
aVwhich
p1483
aVoccur
p1484
aVto
p1485
aVmy
p1486
aVmemory
p1487
aV.
aa(lp1488
Vin
p1489
aVthe
p1490
aVpresent
p1491
aVinstance
p1492
aVi
aVam
p1493
aVforced
p1494
aVto
p1495
aVadmit
p1496
aVthat
p1497
aVthe
p1498
aVfacts
p1499
aVare
p1500
aV,
aVto
p1501
aVthe
p1502
aVbest
p1503
aVof
p1504
aVmy
p1505
aVbelief
p1506
aV,
aVunique
p1507
aV.
aV''
p1508
aa(lp1509
Vthe
p1510
aVportly
p1511
aVclient
p1512
aVpuffed
p1513
aVout
p1514
aVhis
p1515
aVchest
p1516
aVwith
p1517
aVan
p1518
aVappearance
p1519
aVof
p1520
aVsome
p1521
aVlittle
p1522
aVpride
p1523
aVand
p1524
aVpulled
p1525
aVa
aVdirty
p1526
aVand
p1527
aVwrinkled
p1528
aVnewspaper
p1529
aVfrom
p1530
aVthe
p1531
aVinside
p1532
aVpocket
p1533
aVof
p1534
aVhis
p1535
aVgreatcoat
p1536
aV.
aa(lp1537
Vas
p1538
aVhe
p1539
aVglanced
p1540
aVdown
p1541
aVthe
p1542
aVadvertisement
p1543
aVcolumn
p1544
aV,
aVwith
p1545
aVhis
p1546
aVhead
p1547
aVthrust
p1548
aVforward
p1549
aVand
p1550
aVthe
p1551
aVpaper
p1552
aVflattened
p1553
aVout
p1554
aVupon
p1555
aVhis
p1556
aVknee
p1557
aV,
aVi
aVtook
p1558
aVa
aVgood
p1559
aVlook
p1560
aVat
p1561
aVthe
p1562
aVman
p1563
aVand
p1564
aVendeavored
p1565
aV,
aVafter
p1566
aVthe
p1567
aVfashion
p1568
aVof
p1569
aVmy
p1570
aVcompanion
p1571
aV,
aVto
p1572
aVread
p1573
aVthe
p1574
aVindications
p1575
aVwhich
p1576
aVmight
p1577
aVbe
p1578
aVpresented
p1579
aVby
p1580
aVhis
p1581
aVdress
p1582
aVor
p1583
aVappearance
p1584
aV.
aa(lp1585
Vi
aVdid
p1586
aVnot
p1587
aVgain
p1588
aVvery
p1589
aVmuch
p1590
aV,
aVhowever
p1591
aV,
aVby
p1592
aVmy
p1593
aVinspection
p1594
aV.
aa(lp1595
Vour
p1596
aVvisitor
p1597
aVbore
p1598
aVevery
p1599
aVmark
p1600
aVof
p1601
aVbeing
p1602
aVan
p1603
aVaverage
p1604
aVcommonplace
p1605
aVbritish
p1606
aVtradesman
p1607
aV,
aVobese
p1608
aV,
aVpompous
p1609
aV,
aVand
p1610
aVslow
p1611
aV.
aa(lp1612
Vhe
p1613
aVwore
p1614
aVrather
p1615
aVbaggy
p1616
aVgray
p1617
aVshepherd
p1618
aV's
p1619
aVcheck
p1620
aVtrousers
p1621
aV,
aVa
aVnot
p1622
aVover-clean
p1623
aVblack
p1624
aVfrock-coat
p1625
aV,
aVunbuttoned
p1626
aVin
p1627
aVthe
p1628
aVfront
p1629
aV,
aVand
p1630
aVa
aVdrab
p1631
aVwaistcoat
p1632
aVwith
p1633
aVa
aVheavy
p1634
aVbrassy
p1635
aValbert
p1636
aVchain
p1637
aV,
aVand
p1638
aVa
aVsquare
p1639
aVpierced
p1640
aVbit
p1641
aVof
p1642
aVmetal
p1643
aVdangling
p1644
aVdown
p1645
aVas
p1646
aVan
p1647
aVornament
p1648
aV.
aa(lp1649
Va
aVfrayed
p1650
aVtop-hat
p1651
aVand
p1652
aVa
aVfaded
p1653
aVbrown
p1654
aVovercoat
p1655
aVwith
p1656
aVa
aVwrinkled
p1657
aVvelvet
p1658
aVcollar
p1659
aVlay
p1660
aVupon
p1661
aVa
aVchair
p1662
aVbeside
p1663
aVhim
p1664
aV.
aa(lp1665
Valtogether
p1666
aV,
aVlook
p1667
aVas
p1668
aVi
aVwould
p1669
aV,
aVthere
p1670
aVwas
p1671
aVnothing
p1672
aVremarkable
p1673
aVabout
p1674
aVthe
p1675
aVman
p1676
aVsave
p1677
aVhis
p1678
aVblazing
p1679
aVred
p1680
aVhead
p1681
aV,
aVand
p1682
aVthe
p1683
aVexpression
p1684
aVof
p1685
aVextreme
p1686
aVchagrin
p1687
aVand
p1688
aVdiscontent
p1689
aVupon
p1690
aVhis
p1691
aVfeatures
p1692
aV.
aa(lp1693
Vsherlock
p1694
aVholmes
p1695
aV's
p1696
aVquick
p1697
aVeye
p1698
aVtook
p1699
aVin
p1700
aVmy
p1701
aVoccupation
p1702
aV,
aVand
p1703
aVhe
p1704
aVshook
p1705
aVhis
p1706
aVhead
p1707
aVwith
p1708
aVa
aVsmile
p1709
aVas
p1710
aVhe
p1711
aVnoticed
p1712
aVmy
p1713
aVquestioning
p1714
aVglances
p1715
aV.
aa(lp1716
V``
p1717
aVbeyond
p1718
aVthe
p1719
aVobvious
p1720
aVfacts
p1721
aVthat
p1722
aVhe
p1723
aVhas
p1724
aVat
p1725
aVsome
p1726
aVtime
p1727
aVdone
p1728
aVmanual
p1729
aVlabour
p1730
aV,
aVthat
p1731
aVhe
p1732
aVtakes
p1733
aVsnuff
p1734
aV,
aVthat
p1735
aVhe
p1736
aVis
p1737
aVa
aVfreemason
p1738
aV,
aVthat
p1739
aVhe
p1740
aVhas
p1741
aVbeen
p1742
aVin
p1743
aVchina
p1744
aV,
aVand
p1745
aVthat
p1746
aVhe
p1747
aVhas
p1748
aVdone
p1749
aVa
aVconsiderable
p1750
aVamount
p1751
aVof
p1752
aVwriting
p1753
aVlately
p1754
aV,
aVi
aVcan
p1755
aVdeduce
p1756
aVnothing
p1757
aVelse
p1758
aV.
aV''
p1759
aa(lp1760
Vmr.
p1761
aVjabez
p1762
aVwilson
p1763
aVstarted
p1764
aVup
p1765
aVin
p1766
aVhis
p1767
aVchair
p1768
aV,
aVwith
p1769
aVhis
p1770
aVforefinger
p1771
aVupon
p1772
aVthe
p1773
aVpaper
p1774
aV,
aVbut
p1775
aVhis
p1776
aVeyes
p1777
aVupon
p1778
aVmy
p1779
aVcompanion
p1780
aV.
aa(lp1781
V``
p1782
aVhow
p1783
aV,
aVin
p1784
aVthe
p1785
aVname
p1786
aVof
p1787
aVgood-fortune
p1788
aV,
aVdid
p1789
aVyou
p1790
aVknow
p1791
aVall
p1792
aVthat
p1793
aV,
aVmr
p1794
aV.
aa(lp1795
Vholmes
p1796
aV?
aV''
p1797
aa(lp1798
Vhe
p1799
aVasked
p1800
aV.
aa(lp1801
V``
p1802
aVhow
p1803
aVdid
p1804
aVyou
p1805
aVknow
p1806
aV,
aVfor
p1807
aVexample
p1808
aV,
aVthat
p1809
aVi
aVdid
p1810
aVmanual
p1811
aVlabour
p1812
aV.
aa(lp1813
Vit
p1814
aV's
p1815
aVas
p1816
aVtrue
p1817
aVas
p1818
aVgospel
p1819
aV,
aVfor
p1820
aVi
aVbegan
p1821
aVas
p1822
aVa
aVship
p1823
aV's
p1824
aVcarpenter
p1825
aV.
aV''
p1826
aa(lp1827
V``
p1828
aVyour
p1829
aVhands
p1830
aV,
aVmy
p1831
aVdear
p1832
aVsir
p1833
aV.
aa(lp1834
Vyour
p1835
aVright
p1836
aVhand
p1837
aVis
p1838
aVquite
p1839
aVa
aVsize
p1840
aVlarger
p1841
aVthan
p1842
aVyour
p1843
aVleft
p1844
aV.
aa(lp1845
Vyou
p1846
aVhave
p1847
aVworked
p1848
aVwith
p1849
aVit
p1850
aV,
aVand
p1851
aVthe
p1852
aVmuscles
p1853
aVare
p1854
aVmore
p1855
aVdeveloped
p1856
aV.
aV''
p1857
aa(lp1858
V``
p1859
aVwell
p1860
aV,
aVthe
p1861
aVsnuff
p1862
aV,
aVthen
p1863
aV,
aVand
p1864
aVthe
p1865
aVfreemasonry
p1866
aV?
aV''
p1867
aa(lp1868
V``
p1869
aVi
aVwo
p1870
aVn't
p1871
aVinsult
p1872
aVyour
p1873
aVintelligence
p1874
aVby
p1875
aVtelling
p1876
aVyou
p1877
aVhow
p1878
aVi
aVread
p1879
aVthat
p1880
aV,
aVespecially
p1881
aVas
p1882
aV,
aVrather
p1883
aVagainst
p1884
aVthe
p1885
aVstrict
p1886
aVrules
p1887
aVof
p1888
aVyour
p1889
aVorder
p1890
aV,
aVyou
p1891
aVuse
p1892
aVan
p1893
aVarc-and-compass
p1894
aVbreastpin
p1895
aV.
aV''
p1896
aa(lp1897
V``
p1898
aVah
p1899
aV,
aVof
p1900
aVcourse
p1901
aV,
aVi
aVforgot
p1902
aVthat
p1903
aV.
aa(lp1904
Vbut
p1905
aVthe
p1906
aVwriting
p1907
aV?
aV''
p1908
aa(lp1909
V``
p1910
aVwhat
p1911
aVelse
p1912
aVcan
p1913
aVbe
p1914
aVindicated
p1915
aVby
p1916
aVthat
p1917
aVright
p1918
aVcuff
p1919
aVso
p1920
aVvery
p1921
aVshiny
p1922
aVfor
p1923
aVfive
p1924
aVinches
p1925
aV,
aVand
p1926
aVthe
p1927
aVleft
p1928
aVone
p1929
aVwith
p1930
aVthe
p1931
aVsmooth
p1932
aVpatch
p1933
aVnear
p1934
aVthe
p1935
aVelbow
p1936
aVwhere
p1937
aVyou
p1938
aVrest
p1939
aVit
p1940
aVupon
p1941
aVthe
p1942
aVdesk
p1943
aV?
aV''
p1944
aa(lp1945
V``
p1946
aVwell
p1947
aV,
aVbut
p1948
aVchina
p1949
aV?
aV''
p1950
aa(lp1951
V``
p1952
aVthe
p1953
aVfish
p1954
aVthat
p1955
aVyou
p1956
aVhave
p1957
aVtattooed
p1958
aVimmediately
p1959
aVabove
p1960
aVyour
p1961
aVright
p1962
aVwrist
p1963
aVcould
p1964
aVonly
p1965
aVhave
p1966
aVbeen
p1967
aVdone
p1968
aVin
p1969
aVchina
p1970
aV.
aa(lp1971
Vi
aVhave
p1972
aVmade
p1973
aVa
aVsmall
p1974
aVstudy
p1975
aVof
p1976
aVtattoo
p1977
aVmarks
p1978
aVand
p1979
aVhave
p1980
aVeven
p1981
aVcontributed
p1982
aVto
p1983
aVthe
p1984
aVliterature
p1985
aVof
p1986
aVthe
p1987
aVsubject
p1988
aV.
aa(lp1989
Vthat
p1990
aVtrick
p1991
aVof
p1992
aVstaining
p1993
aVthe
p1994
aVfishes
p1995
aV'
aVscales
p1996
aVof
p1997
aVa
aVdelicate
p1998
aVpink
p1999
aVis
p2000
aVquite
p2001
aVpeculiar
p2002
aVto
p2003
aVchina
p2004
aV.
aa(lp2005
Vwhen
p2006
aV,
aVin
p2007
aVaddition
p2008
aV,
aVi
aVsee
p2009
aVa
aVchinese
p2010
aVcoin
p2011
aVhanging
p2012
aVfrom
p2013
aVyour
p2014
aVwatch-chain
p2015
aV,
aVthe
p2016
aVmatter
p2017
aVbecomes
p2018
aVeven
p2019
aVmore
p2020
aVsimple
p2021
aV.
aV''
p2022
aa(lp2023
Vmr.
p2024
aVjabez
p2025
aVwilson
p2026
aVlaughed
p2027
aVheavily
p2028
aV.
aa(lp2029
V``
p2030
aVwell
p2031
aV,
aVi
aVnever
p2032
aV!
aV''
p2033
aa(lp2034
Vsaid
p2035
aVhe
p2036
aV.
aa(lp2037
V``
p2038
aVi
aVthought
p2039
aVat
p2040
aVfirst
p2041
aVthat
p2042
aVyou
p2043
aVhad
p2044
aVdone
p2045
aVsomething
p2046
aVclever
p2047
aV,
aVbut
p2048
aVi
aVsee
p2049
aVthat
p2050
aVthere
p2051
aVwas
p2052
aVnothing
p2053
aVin
p2054
aVit
p2055
aV,
aVafter
p2056
aVall
p2057
aV.
aV''
p2058
aa(lp2059
V``
p2060
aVi
aVbegin
p2061
aVto
p2062
aVthink
p2063
aV,
aVwatson
p2064
aV,
aV''
p2065
aVsaid
p2066
aVholmes
p2067
aV,
aV``
p2068
aVthat
p2069
aVi
aVmake
p2070
aVa
aVmistake
p2071
aVin
p2072
aVexplaining
p2073
aV.
aa(lp2074
V'omne
p2075
aVignotum
p2076
aVpro
p2077
aVmagnifico
p2078
aV,
aV'
aVyou
p2079
aVknow
p2080
aV,
aVand
p2081
aVmy
p2082
aVpoor
p2083
aVlittle
p2084
aVreputation
p2085
aV,
aVsuch
p2086
aVas
p2087
aVit
p2088
aVis
p2089
aV,
aVwill
p2090
aVsuffer
p2091
aVshipwreck
p2092
aVif
p2093
aVi
aVam
p2094
aVso
p2095
aVcandid
p2096
aV.
aa(lp2097
Vcan
p2098
aVyou
p2099
aVnot
p2100
aVfind
p2101
aVthe
p2102
aVadvertisement
p2103
aV,
aVmr
p2104
aV.
aa(lp2105
Vwilson
p2106
aV?
aV''
p2107
aa(lp2108
V``
p2109
aVyes
p2110
aV,
aVi
aVhave
p2111
aVgot
p2112
aVit
p2113
aVnow
p2114
aV,
aV''
p2115
aVhe
p2116
aVanswered
p2117
aVwith
p2118
aVhis
p2119
aVthick
p2120
aVred
p2121
aVfinger
p2122
aVplanted
p2123
aVhalfway
p2124
aVdown
p2125
aVthe
p2126
aVcolumn
p2127
aV.
aa(lp2128
V``
p2129
aVhere
p2130
aVit
p2131
aVis
p2132
aV.
aa(lp2133
Vthis
p2134
aVis
p2135
aVwhat
p2136
aVbegan
p2137
aVit
p2138
aVall
p2139
aV.
aa(lp2140
Vyou
p2141
aVjust
p2142
aVread
p2143
aVit
p2144
aVfor
p2145
aVyourself
p2146
aV,
aVsir
p2147
aV.
aV''
p2148
aa(lp2149
Vi
aVtook
p2150
aVthe
p2151
aVpaper
p2152
aVfrom
p2153
aVhim
p2154
aVand
p2155
aVread
p2156
aVas
p2157
aVfollows
p2158
aV.
aa(lp2159
Vto
p2160
aVthe
p2161
aVred-headed
p2162
aVleague
p2163
aV:
aVon
p2164
aVaccount
p2165
aVof
p2166
aVthe
p2167
aVbequest
p2168
aVof
p2169
aVthe
p2170
aVlate
p2171
aVezekiah
p2172
aVhopkins
p2173
aV,
aVof
p2174
aVlebanon
p2175
aV,
aVpennsylvania
p2176
aV,
aVu.
p2177
aVs.
p2178
aVa.
p2179
aV,
aVthere
p2180
aVis
p2181
aVnow
p2182
aVanother
p2183
aVvacancy
p2184
aVopen
p2185
aVwhich
p2186
aVentitles
p2187
aVa
aVmember
p2188
aVof
p2189
aVthe
p2190
aVleague
p2191
aVto
p2192
aVa
aVsalary
p2193
aVof
p2194
aV4
aVpounds
p2195
aVa
aVweek
p2196
aVfor
p2197
aVpurely
p2198
aVnominal
p2199
aVservices
p2200
aV.
aa(lp2201
Vall
p2202
aVred-headed
p2203
aVmen
p2204
aVwho
p2205
aVare
p2206
aVsound
p2207
aVin
p2208
aVbody
p2209
aVand
p2210
aVmind
p2211
aVand
p2212
aVabove
p2213
aVthe
p2214
aVage
p2215
aVof
p2216
aVtwenty-one
p2217
aVyears
p2218
aV,
aVare
p2219
aVeligible
p2220
aV.
aa(lp2221
Vappiy
p2222
aVin
p2223
aVperson
p2224
aVon
p2225
aVmonday
p2226
aV,
aVat
p2227
aVeleven
p2228
aVo'clock
p2229
aV,
aVto
p2230
aVduncan
p2231
aVross
p2232
aV,
aVat
p2233
aVthe
p2234
aVoffices
p2235
aVof
p2236
aVthe
p2237
aVleague
p2238
aV,
aV7
aVpope
p2239
aV's
p2240
aVcourt
p2241
aV,
aVfleet
p2242
aVstreet
p2243
aV.
aa(lp2244
V``
p2245
aVwhat
p2246
aVon
p2247
aVearth
p2248
aVdoes
p2249
aVthis
p2250
aVmean
p2251
aV?
aV''
p2252
aa(lp2253
Vi
aVejaculated
p2254
aVafter
p2255
aVi
aVhad
p2256
aVtwice
p2257
aVread
p2258
aVover
p2259
aVthe
p2260
aVextraordinary
p2261
aVannouncement
p2262
aV.
aa(lp2263
Vholmes
p2264
aVchuckled
p2265
aVand
p2266
aVwriggled
p2267
aVin
p2268
aVhis
p2269
aVchair
p2270
aV,
aVas
p2271
aVwas
p2272
aVhis
p2273
aVhabit
p2274
aVwhen
p2275
aVin
p2276
aVhigh
p2277
aVspirits
p2278
aV.
aa(lp2279
V``
p2280
aVit
p2281
aVis
p2282
aVa
aVlittle
p2283
aVoff
p2284
aVthe
p2285
aVbeaten
p2286
aVtrack
p2287
aV,
aVis
p2288
aVn't
p2289
aVit
p2290
aV?
aV''
p2291
aa(lp2292
Vsaid
p2293
aVhe
p2294
aV.
aa(lp2295
V``
p2296
aVand
p2297
aVnow
p2298
aV,
aVmr.
p2299
aVwilson
p2300
aV,
aVoff
p2301
aVyou
p2302
aVgo
p2303
aVat
p2304
aVscratch
p2305
aVand
p2306
aVtell
p2307
aVus
p2308
aVall
p2309
aVabout
p2310
aVyourself
p2311
aV,
aVyour
p2312
aVhousehold
p2313
aV,
aVand
p2314
aVthe
p2315
aVeffect
p2316
aVwhich
p2317
aVthis
p2318
aVadvertisement
p2319
aVhad
p2320
aVupon
p2321
aVyour
p2322
aVfortunes
p2323
aV.
aa(lp2324
Vyou
p2325
aVwill
p2326
aVfirst
p2327
aVmake
p2328
aVa
aVnote
p2329
aV,
aVdoctor
p2330
aV,
aVof
p2331
aVthe
p2332
aVpaper
p2333
aVand
p2334
aVthe
p2335
aVdate
p2336
aV.
aV''
p2337
aa(lp2338
V``
p2339
aVit
p2340
aVis
p2341
aVthe
p2342
aVmorning
p2343
aVchronicle
p2344
aVof
p2345
aVapril
p2346
aV27
p2347
aV,
aV1890.
p2348
aVjust
p2349
aVtwo
p2350
aVmonths
p2351
aVago
p2352
aV.
aV''
p2353
aa(lp2354
V``
p2355
aVvery
p2356
aVgood
p2357
aV.
aa(lp2358
Vnow
p2359
aV,
aVmr
p2360
aV.
aa(lp2361
Vwilson
p2362
aV?
aV''
p2363
aa(lp2364
V``
p2365
aVwell
p2366
aV,
aVit
p2367
aVis
p2368
aVjust
p2369
aVas
p2370
aVi
aVhave
p2371
aVbeen
p2372
aVtelling
p2373
aVyou
p2374
aV,
aVmr.
p2375
aVsherlock
p2376
aVholmes
p2377
aV,
aV''
p2378
aVsaid
p2379
aVjabez
p2380
aVwilson
p2381
aV,
aVmopping
p2382
aVhis
p2383
aVforehead
p2384
aV;
aV``
p2385
aVi
aVhave
p2386
aVa
aVsmall
p2387
aVpawnbroker
p2388
aV's
p2389
aVbusiness
p2390
aVat
p2391
aVcoburg
p2392
aVsquare
p2393
aV,
aVnear
p2394
aVthe
p2395
aVcity
p2396
aV.
aa(lp2397
Vit
p2398
aV's
p2399
aVnot
p2400
aVa
aVvery
p2401
aVlarge
p2402
aVaffair
p2403
aV,
aVand
p2404
aVof
p2405
aVlate
p2406
aVyears
p2407
aVit
p2408
aVhas
p2409
aVnot
p2410
aVdone
p2411
aVmore
p2412
aVthan
p2413
aVjust
p2414
aVgive
p2415
aVme
p2416
aVa
aVliving
p2417
aV.
aa(lp2418
Vi
aVused
p2419
aVto
p2420
aVbe
p2421
aVable
p2422
aVto
p2423
aVkeep
p2424
aVtwo
p2425
aVassistants
p2426
aV,
aVbut
p2427
aVnow
p2428
aVi
aVonly
p2429
aVkeep
p2430
aVone
p2431
aV;
aVand
p2432
aVi
aVwould
p2433
aVhave
p2434
aVa
aVjob
p2435
aVto
p2436
aVpay
p2437
aVhim
p2438
aVbut
p2439
aVthat
p2440
aVhe
p2441
aVis
p2442
aVwilling
p2443
aVto
p2444
aVcome
p2445
aVfor
p2446
aVhalf
p2447
aVwages
p2448
aVso
p2449
aVas
p2450
aVto
p2451
aVlearn
p2452
aVthe
p2453
aVbusiness
p2454
aV.
aV''
p2455
aa(lp2456
V``
p2457
aVwhat
p2458
aVis
p2459
aVthe
p2460
aVname
p2461
aVof
p2462
aVthis
p2463
aVobliging
p2464
aVyouth
p2465
aV?
aV''
p2466
aa(lp2467
Vasked
p2468
aVsherlock
p2469
aVholmes
p2470
aV.
aa(lp2471
V``
p2472
aVhis
p2473
aVname
p2474
aVis
p2475
aVvincent
p2476
aVspaulding
p2477
aV,
aVand
p2478
aVhe
p2479
aV's
p2480
aVnot
p2481
aVsuch
p2482
aVa
aVyouth
p2483
aV,
aVeither
p2484
aV.
aa(lp2485
Vit
p2486
aV's
p2487
aVhard
p2488
aVto
p2489
aVsay
p2490
aVhis
p2491
aVage
p2492
aV.
aa(lp2493
Vi
aVshould
p2494
aVnot
p2495
aVwish
p2496
aVa
aVsmarter
p2497
aVassistant
p2498
aV,
aVmr.
p2499
aVholmes
p2500
aV;
aVand
p2501
aVi
aVknow
p2502
aVvery
p2503
aVwell
p2504
aVthat
p2505
aVhe
p2506
aVcould
p2507
aVbetter
p2508
aVhimself
p2509
aVand
p2510
aVearn
p2511
aVtwice
p2512
aVwhat
p2513
aVi
aVam
p2514
aVable
p2515
aVto
p2516
aVgive
p2517
aVhim
p2518
aV.
aa(lp2519
Vbut
p2520
aV,
aVafter
p2521
aVall
p2522
aV,
aVif
p2523
aVhe
p2524
aVis
p2525
aVsatisfied
p2526
aV,
aVwhy
p2527
aVshould
p2528
aVi
aVput
p2529
aVideas
p2530
aVin
p2531
aVhis
p2532
aVhead
p2533
aV?
aV''
p2534
aa(lp2535
V``
p2536
aVwhy
p2537
aV,
aVindeed
p2538
aV?
aa(lp2539
Vyou
p2540
aVseem
p2541
aVmost
p2542
aVfortunate
p2543
aVin
p2544
aVhaving
p2545
aVan
p2546
aVemployee
p2547
aVwho
p2548
aVcomes
p2549
aVunder
p2550
aVthe
p2551
aVfull
p2552
aVmarket
p2553
aVprice
p2554
aV.
aa(lp2555
Vit
p2556
aVis
p2557
aVnot
p2558
aVa
aVcommon
p2559
aVexperience
p2560
aVamong
p2561
aVemployers
p2562
aVin
p2563
aVthis
p2564
aVage
p2565
aV.
aa(lp2566
Vi
aVdo
p2567
aVn't
p2568
aVknow
p2569
aVthat
p2570
aVyour
p2571
aVassistant
p2572
aVis
p2573
aVnot
p2574
aVas
p2575
aVremarkable
p2576
aVas
p2577
aVyour
p2578
aVadvertisement
p2579
aV.
aV''
p2580
aa(lp2581
V``
p2582
aVoh
p2583
aV,
aVhe
p2584
aVhas
p2585
aVhis
p2586
aVfaults
p2587
aV,
aVtoo
p2588
aV,
aV''
p2589
aVsaid
p2590
aVmr.
p2591
aVwilson
p2592
aV.
aa(lp2593
V``
p2594
aVnever
p2595
aVwas
p2596
aVsuch
p2597
aVa
aVfellow
p2598
aVfor
p2599
aVphotography
p2600
aV.
aa(lp2601
Vsnapping
p2602
aVaway
p2603
aVwith
p2604
aVa
aVcamera
p2605
aVwhen
p2606
aVhe
p2607
aVought
p2608
aVto
p2609
aVbe
p2610
aVimproving
p2611
aVhis
p2612
aVmind
p2613
aV,
aVand
p2614
aVthen
p2615
aVdiving
p2616
aVdown
p2617
aVinto
p2618
aVthe
p2619
aVcellar
p2620
aVlike
p2621
aVa
aVrabbit
p2622
aVinto
p2623
aVits
p2624
aVhole
p2625
aVto
p2626
aVdevelop
p2627
aVhis
p2628
aVpictures
p2629
aV.
aa(lp2630
Vthat
p2631
aVis
p2632
aVhis
p2633
aVmain
p2634
aVfault
p2635
aV,
aVbut
p2636
aVon
p2637
aVthe
p2638
aVwhole
p2639
aVhe
p2640
aV's
p2641
aVa
aVgood
p2642
aVworker
p2643
aV.
aa(lp2644
Vthere
p2645
aV's
p2646
aVno
p2647
aVvice
p2648
aVin
p2649
aVhim
p2650
aV.
aV''
p2651
aa(lp2652
V``
p2653
aVhe
p2654
aVis
p2655
aVstill
p2656
aVwith
p2657
aVyou
p2658
aV,
aVi
aVpresume
p2659
aV?
aV''
p2660
aa(lp2661
V``
p2662
aVyes
p2663
aV,
aVsir
p2664
aV.
aa(lp2665
Vhe
p2666
aVand
p2667
aVa
aVgirl
p2668
aVof
p2669
aVfourteen
p2670
aV,
aVwho
p2671
aVdoes
p2672
aVa
aVbit
p2673
aVof
p2674
aVsimple
p2675
aVcooking
p2676
aVand
p2677
aVkeeps
p2678
aVthe
p2679
aVplace
p2680
aVclean
p2681
aV--
p2682
aVthat
p2683
aV's
p2684
aVall
p2685
aVi
aVhave
p2686
aVin
p2687
aVthe
p2688
aVhouse
p2689
aV,
aVfor
p2690
aVi
aVam
p2691
aVa
aVwidower
p2692
aVand
p2693
aVnever
p2694
aVhad
p2695
aVany
p2696
aVfamily
p2697
aV.
aa(lp2698
Vwe
p2699
aVlive
p2700
aVvery
p2701
aVquietly
p2702
aV,
aVsir
p2703
aV,
aVthe
p2704
aVthree
p2705
aVof
p2706
aVus
p2707
aV;
aVand
p2708
aVwe
p2709
aVkeep
p2710
aVa
aVroof
p2711
aVover
p2712
aVour
p2713
aVheads
p2714
aVand
p2715
aVpay
p2716
aVour
p2717
aVdebts
p2718
aV,
aVif
p2719
aVwe
p2720
aVdo
p2721
aVnothing
p2722
aVmore
p2723
aV.
aa(lp2724
V``
p2725
aVthe
p2726
aVfirst
p2727
aVthing
p2728
aVthat
p2729
aVput
p2730
aVus
p2731
aVout
p2732
aVwas
p2733
aVthat
p2734
aVadvertisement
p2735
aV.
aa(lp2736
Vspaulding
p2737
aV,
aVhe
p2738
aVcame
p2739
aVdown
p2740
aVinto
p2741
aVthe
p2742
aVoffice
p2743
aVjust
p2744
aVthis
p2745
aVday
p2746
aVeight
p2747
aVweeks
p2748
aV,
aVwith
p2749
aVthis
p2750
aVvery
p2751
aVpaper
p2752
aVin
p2753
aVhis
p2754
aVhand
p2755
aV,
aVand
p2756
aVhe
p2757
aVsays
p2758
aV:
aV''
p2759
aV'i
p2760
aVwish
p2761
aVto
p2762
aVthe
p2763
aVlord
p2764
aV,
aVmr.
p2765
aVwilson
p2766
aV,
aVthat
p2767
aVi
aVwas
p2768
aVa
aVred-headed
p2769
aVman
p2770
aV.
aV'
aa(lp2771
V``
p2772
aV'why
p2773
aVthat
p2774
aV?
aV'
aa(lp2775
Vi
aVasks
p2776
aV.
aa(lp2777
V``
p2778
aV'why
p2779
aV,
aV'
aVsays
p2780
aVhe
p2781
aV,
aV'here
p2782
aV's
p2783
aVanother
p2784
aVvacancy
p2785
aVon
p2786
aVthe
p2787
aVleague
p2788
aVof
p2789
aVthe
p2790
aVred-headed
p2791
aVmen
p2792
aV.
aa(lp2793
Vit
p2794
aV's
p2795
aVworth
p2796
aVquite
p2797
aVa
aVlittle
p2798
aVfortune
p2799
aVto
p2800
aVany
p2801
aVman
p2802
aVwho
p2803
aVgets
p2804
aVit
p2805
aV,
aVand
p2806
aVi
aVunderstand
p2807
aVthat
p2808
aVthere
p2809
aVare
p2810
aVmore
p2811
aVvacancies
p2812
aVthan
p2813
aVthere
p2814
aVare
p2815
aVmen
p2816
aV,
aVso
p2817
aVthat
p2818
aVthe
p2819
aVtrustees
p2820
aVare
p2821
aVat
p2822
aVtheir
p2823
aVwits
p2824
aV'
aVend
p2825
aVwhat
p2826
aVto
p2827
aVdo
p2828
aVwith
p2829
aVthe
p2830
aVmoney
p2831
aV.
aa(lp2832
Vif
p2833
aVmy
p2834
aVhair
p2835
aVwould
p2836
aVonly
p2837
aVchange
p2838
aVcolor
p2839
aV,
aVhere
p2840
aV's
p2841
aVa
aVnice
p2842
aVlittle
p2843
aVcrib
p2844
aVall
p2845
aVready
p2846
aVfor
p2847
aVme
p2848
aVto
p2849
aVstep
p2850
aVinto
p2851
aV.
aV'
aa(lp2852
V``
p2853
aV'why
p2854
aV,
aVwhat
p2855
aVis
p2856
aVit
p2857
aV,
aVthen
p2858
aV?
aV'
aa(lp2859
Vi
aVasked
p2860
aV.
aa(lp2861
Vyou
p2862
aVsee
p2863
aV.
aa(lp2864
Vmr.
p2865
aVholmes
p2866
aV,
aVi
aVam
p2867
aVa
aVvery
p2868
aVstay-at-home
p2869
aVman
p2870
aV,
aVand
p2871
aVas
p2872
aVmy
p2873
aVbusiness
p2874
aVcame
p2875
aVto
p2876
aVme
p2877
aVinstead
p2878
aVof
p2879
aVmy
p2880
aVhaving
p2881
aVto
p2882
aVgo
p2883
aVto
p2884
aVit
p2885
aV,
aVi
aVwas
p2886
aVoften
p2887
aVweeks
p2888
aVon
p2889
aVend
p2890
aVwithout
p2891
aVputting
p2892
aVmy
p2893
aVfoot
p2894
aVover
p2895
aVthe
p2896
aVdoor-mat
p2897
aV.
aa(lp2898
Vin
p2899
aVthat
p2900
aVway
p2901
aVi
aVdid
p2902
aVn't
p2903
aVknow
p2904
aVmuch
p2905
aVof
p2906
aVwhat
p2907
aVwas
p2908
aVgoing
p2909
aVon
p2910
aVoutside
p2911
aV,
aVand
p2912
aVi
aVwas
p2913
aValways
p2914
aVglad
p2915
aVof
p2916
aVa
aVbit
p2917
aVof
p2918
aVnews
p2919
aV.
aa(lp2920
V``
p2921
aV'have
p2922
aVyou
p2923
aVnever
p2924
aVheard
p2925
aVof
p2926
aVthe
p2927
aVleague
p2928
aVof
p2929
aVthe
p2930
aVred-headed
p2931
aVmen
p2932
aV?
aV'
aa(lp2933
Vhe
p2934
aVasked
p2935
aVwith
p2936
aVhis
p2937
aVeyes
p2938
aVopen
p2939
aV.
aa(lp2940
V``
p2941
aV'never
p2942
aV.
aV'
aa(lp2943
V``
p2944
aV'why
p2945
aV,
aVi
aVwonder
p2946
aVat
p2947
aVthat
p2948
aV,
aVfor
p2949
aVyou
p2950
aVare
p2951
aVeligibile
p2952
aVyourself
p2953
aVfor
p2954
aVone
p2955
aVof
p2956
aVthe
p2957
aVvacancies
p2958
aV.
aV'
aa(lp2959
V``
p2960
aV'and
p2961
aVwhat
p2962
aVare
p2963
aVthey
p2964
aVworth
p2965
aV?
aV'
aa(lp2966
Vi
aVasked
p2967
aV.
aa(lp2968
V``
p2969
aV'oh
p2970
aV,
aVmerely
p2971
aVa
aVcouple
p2972
aVof
p2973
aVhundred
p2974
aVa
aVyear
p2975
aV,
aVbut
p2976
aVthe
p2977
aVwork
p2978
aVis
p2979
aVslight
p2980
aV,
aVand
p2981
aVit
p2982
aVneed
p2983
aVnot
p2984
aVinterfere
p2985
aVvery
p2986
aVmuch
p2987
aVwith
p2988
aVone
p2989
aV's
p2990
aVother
p2991
aVoccupations
p2992
aV.
aV'
aa(lp2993
V``
p2994
aVwell
p2995
aV,
aVyou
p2996
aVcan
p2997
aVeasily
p2998
aVthink
p2999
aVthat
p3000
aVthat
p3001
aVmade
p3002
aVme
p3003
aVprick
p3004
aVup
p3005
aVmy
p3006
aVears
p3007
aV,
aVfor
p3008
aVthe
p3009
aVbusiness
p3010
aVhas
p3011
aVnot
p3012
aVbeen
p3013
aVover-good
p3014
aVfor
p3015
aVsome
p3016
aVyears
p3017
aV,
aVand
p3018
aVan
p3019
aVextra
p3020
aVcouple
p3021
aVof
p3022
aVhundred
p3023
aVwould
p3024
aVhave
p3025
aVbeen
p3026
aVvery
p3027
aVhandy
p3028
aV.
aa(lp3029
V``
p3030
aV'tell
p3031
aVme
p3032
aVall
p3033
aVabout
p3034
aVit
p3035
aV,
aV'
aVsaid
p3036
aVi
aV.
aa(lp3037
V``
p3038
aV'well
p3039
aV'
aVsaid
p3040
aVhe
p3041
aV,
aVshowing
p3042
aVme
p3043
aVthe
p3044
aVadvertisement
p3045
aV,
aV'you
p3046
aVcan
p3047
aVsee
p3048
aVfor
p3049
aVyourself
p3050
aVthat
p3051
aVthe
p3052
aVleague
p3053
aVhas
p3054
aVa
aVvacancy
p3055
aV,
aVand
p3056
aVthere
p3057
aVis
p3058
aVthe
p3059
aVaddress
p3060
aVwhere
p3061
aVyou
p3062
aVshould
p3063
aVapply
p3064
aVfor
p3065
aVparticulars
p3066
aV.
aa(lp3067
Vas
p3068
aVfar
p3069
aVas
p3070
aVi
aVcan
p3071
aVmake
p3072
aVout
p3073
aV,
aVthe
p3074
aVleague
p3075
aVwas
p3076
aVfounded
p3077
aVby
p3078
aVan
p3079
aVamerican
p3080
aVmillionaire
p3081
aV,
aVezekiah
p3082
aVhopkins
p3083
aV,
aVwho
p3084
aVwas
p3085
aVvery
p3086
aVpeculiar
p3087
aVin
p3088
aVhis
p3089
aVways
p3090
aV.
aa(lp3091
Vhe
p3092
aVwas
p3093
aVhimself
p3094
aVred-headed
p3095
aV,
aVand
p3096
aVhe
p3097
aVhad
p3098
aVa
aVgreat
p3099
aVsympathy
p3100
aVfor
p3101
aVall
p3102
aVred-headed
p3103
aVmen
p3104
aV;
aVso
p3105
aVwhen
p3106
aVhe
p3107
aVdied
p3108
aVit
p3109
aVwas
p3110
aVfound
p3111
aVthat
p3112
aVhe
p3113
aVhad
p3114
aVleft
p3115
aVhis
p3116
aVenormous
p3117
aVfortune
p3118
aVin
p3119
aVthe
p3120
aVhands
p3121
aVof
p3122
aVtrustees
p3123
aV,
aVwith
p3124
aVinstructions
p3125
aVto
p3126
aVapply
p3127
aVthe
p3128
aVinterest
p3129
aVto
p3130
aVthe
p3131
aVproviding
p3132
aVof
p3133
aVeasy
p3134
aVberths
p3135
aVto
p3136
aVmen
p3137
aVwhose
p3138
aVhair
p3139
aVis
p3140
aVof
p3141
aVthat
p3142
aVcolor
p3143
aV.
aa(lp3144
Vfrom
p3145
aVall
p3146
aVi
aVhear
p3147
aVit
p3148
aVis
p3149
aVsplendid
p3150
aVpay
p3151
aVand
p3152
aVvery
p3153
aVlittle
p3154
aVto
p3155
aVdo
p3156
aV.
aV'
aa(lp3157
V``
p3158
aV'but
p3159
aV,
aV'
aVsaid
p3160
aVi
aV,
aV'there
p3161
aVwould
p3162
aVbe
p3163
aVmillions
p3164
aVof
p3165
aVred-headed
p3166
aVmen
p3167
aVwho
p3168
aVwould
p3169
aVapply
p3170
aV.
aV'
aa(lp3171
V``
p3172
aV'not
p3173
aVso
p3174
aVmany
p3175
aVas
p3176
aVyou
p3177
aVmight
p3178
aVthink
p3179
aV,
aV'
aVhe
p3180
aVanswered
p3181
aV.
aa(lp3182
V'you
p3183
aVsee
p3184
aVit
p3185
aVis
p3186
aVreally
p3187
aVconfined
p3188
aVto
p3189
aVlondoners
p3190
aV,
aVand
p3191
aVto
p3192
aVgrown
p3193
aVmen
p3194
aV.
aa(lp3195
Vthis
p3196
aVamerican
p3197
aVhad
p3198
aVstarted
p3199
aVfrom
p3200
aVlondon
p3201
aVwhen
p3202
aVhe
p3203
aVwas
p3204
aVyoung
p3205
aV,
aVand
p3206
aVhe
p3207
aVwanted
p3208
aVto
p3209
aVdo
p3210
aVthe
p3211
aVold
p3212
aVtown
p3213
aVa
aVgood
p3214
aVturn
p3215
aV.
aa(lp3216
Vthen
p3217
aV,
aVagain
p3218
aV,
aVi
aVhave
p3219
aVheard
p3220
aVit
p3221
aVis
p3222
aVno
p3223
aVuse
p3224
aVyour
p3225
aVapplying
p3226
aVif
p3227
aVyour
p3228
aVhair
p3229
aVis
p3230
aVlight
p3231
aVred
p3232
aV,
aVor
p3233
aVdark
p3234
aVred
p3235
aV,
aVor
p3236
aVanything
p3237
aVbut
p3238
aVreal
p3239
aVbright
p3240
aV,
aVblazing
p3241
aV,
aVfiery
p3242
aVred
p3243
aV.
aa(lp3244
Vnow
p3245
aV,
aVif
p3246
aVyou
p3247
aVcared
p3248
aVto
p3249
aVapply
p3250
aV,
aVmr.
p3251
aVwilson
p3252
aV,
aVyou
p3253
aVwould
p3254
aVjust
p3255
aVwalk
p3256
aVin
p3257
aV;
aVbut
p3258
aVperhaps
p3259
aVit
p3260
aVwould
p3261
aVhardly
p3262
aVbe
p3263
aVworth
p3264
aVyour
p3265
aVwhile
p3266
aVto
p3267
aVput
p3268
aVyourself
p3269
aVout
p3270
aVof
p3271
aVthe
p3272
aVway
p3273
aVfor
p3274
aVthe
p3275
aVsake
p3276
aVof
p3277
aVa
aVfew
p3278
aVhundred
p3279
aVpounds
p3280
aV.
aV'
aa(lp3281
V``
p3282
aVnow
p3283
aV,
aVit
p3284
aVis
p3285
aVa
aVfact
p3286
aV,
aVgentlemen
p3287
aV,
aVas
p3288
aVyou
p3289
aVmay
p3290
aVsee
p3291
aVfor
p3292
aVyourselves
p3293
aV,
aVthat
p3294
aVmy
p3295
aVhair
p3296
aVis
p3297
aVof
p3298
aVa
aVvery
p3299
aVfull
p3300
aVand
p3301
aVrich
p3302
aVtint
p3303
aV,
aVso
p3304
aVthat
p3305
aVit
p3306
aVseemed
p3307
aVto
p3308
aVme
p3309
aVthat
p3310
aVif
p3311
aVthere
p3312
aVwas
p3313
aVto
p3314
aVbe
p3315
aVany
p3316
aVcompetition
p3317
aVin
p3318
aVthe
p3319
aVmatter
p3320
aVi
aVstood
p3321
aVas
p3322
aVgood
p3323
aVa
aVchance
p3324
aVas
p3325
aVany
p3326
aVman
p3327
aVthat
p3328
aVi
aVhad
p3329
aVever
p3330
aVmet
p3331
aV.
aa(lp3332
Vvincent
p3333
aVspaulding
p3334
aVseemed
p3335
aVto
p3336
aVknow
p3337
aVso
p3338
aVmuch
p3339
aVabout
p3340
aVit
p3341
aVthat
p3342
aVi
aVthought
p3343
aVhe
p3344
aVmight
p3345
aVprove
p3346
aVuseful
p3347
aV,
aVso
p3348
aVi
aVjust
p3349
aVordered
p3350
aVhim
p3351
aVto
p3352
aVput
p3353
aVup
p3354
aVthe
p3355
aVshutters
p3356
aVfor
p3357
aVthe
p3358
aVday
p3359
aVand
p3360
aVto
p3361
aVcome
p3362
aVright
p3363
aVaway
p3364
aVwith
p3365
aVme
p3366
aV.
aa(lp3367
Vhe
p3368
aVwas
p3369
aVvery
p3370
aVwilling
p3371
aVto
p3372
aVhave
p3373
aVa
aVholiday
p3374
aV,
aVso
p3375
aVwe
p3376
aVshut
p3377
aVthe
p3378
aVbusiness
p3379
aVup
p3380
aVand
p3381
aVstarted
p3382
aVoff
p3383
aVfor
p3384
aVthe
p3385
aVaddress
p3386
aVthat
p3387
aVwas
p3388
aVgiven
p3389
aVus
p3390
aVin
p3391
aVthe
p3392
aVadvertisement
p3393
aV.
aa(lp3394
V``
p3395
aVi
aVnever
p3396
aVhope
p3397
aVto
p3398
aVsee
p3399
aVsuch
p3400
aVa
aVsight
p3401
aVas
p3402
aVthat
p3403
aVagain
p3404
aV,
aVmr.
p3405
aVholmes
p3406
aV.
aa(lp3407
Vfrom
p3408
aVnorth
p3409
aV,
aVsouth
p3410
aV,
aVeast
p3411
aV,
aVand
p3412
aVwest
p3413
aVevery
p3414
aVman
p3415
aVwho
p3416
aVhad
p3417
aVa
aVshade
p3418
aVof
p3419
aVred
p3420
aVin
p3421
aVhis
p3422
aVhair
p3423
aVhad
p3424
aVtramped
p3425
aVinto
p3426
aVthe
p3427
aVcity
p3428
aVto
p3429
aVanswer
p3430
aVthe
p3431
aVadvertisement
p3432
aV.
aa(lp3433
Vfleet
p3434
aVstreet
p3435
aVwas
p3436
aVchoked
p3437
aVwith
p3438
aVred-headed
p3439
aVfolk
p3440
aV,
aVand
p3441
aVpope
p3442
aV's
p3443
aVcourt
p3444
aVlooked
p3445
aVlike
p3446
aVa
aVcoster
p3447
aV's
p3448
aVorange
p3449
aVbarrow
p3450
aV.
aa(lp3451
Vi
aVshould
p3452
aVnot
p3453
aVhave
p3454
aVthought
p3455
aVthere
p3456
aVwere
p3457
aVso
p3458
aVmany
p3459
aVin
p3460
aVthe
p3461
aVwhole
p3462
aVcountry
p3463
aVas
p3464
aVwere
p3465
aVbrought
p3466
aVtogether
p3467
aVby
p3468
aVthat
p3469
aVsingle
p3470
aVadvertisement
p3471
aV.
aa(lp3472
Vevery
p3473
aVshade
p3474
aVof
p3475
aVcolor
p3476
aVthey
p3477
aVwere
p3478
aV--
p3479
aVstraw
p3480
aV,
aVlemon
p3481
aV,
aVorange
p3482
aV,
aVbrick
p3483
aV,
aVirish-setter
p3484
aV,
aVliver
p3485
aV,
aVclay
p3486
aV;
aVbut
p3487
aV,
aVas
p3488
aVspaulding
p3489
aVsaid
p3490
aV,
aVthere
p3491
aVwere
p3492
aVnot
p3493
aVmany
p3494
aVwho
p3495
aVhad
p3496
aVthe
p3497
aVreal
p3498
aVvivid
p3499
aVflame-colored
p3500
aVtint
p3501
aV.
aa(lp3502
Vwhen
p3503
aVi
aVsaw
p3504
aVhow
p3505
aVmany
p3506
aVwere
p3507
aVwaiting
p3508
aV,
aVi
aVwould
p3509
aVhave
p3510
aVgiven
p3511
aVit
p3512
aVup
p3513
aVin
p3514
aVdespair
p3515
aV;
aVbut
p3516
aVspaulding
p3517
aVwould
p3518
aVnot
p3519
aVhear
p3520
aVof
p3521
aVit
p3522
aV.
aa(lp3523
Vhow
p3524
aVhe
p3525
aVdid
p3526
aVit
p3527
aVi
aVcould
p3528
aVnot
p3529
aVimagine
p3530
aV,
aVbut
p3531
aVhe
p3532
aVpushed
p3533
aVand
p3534
aVpulled
p3535
aVand
p3536
aVbutted
p3537
aVuntil
p3538
aVhe
p3539
aVgot
p3540
aVme
p3541
aVthrough
p3542
aVthe
p3543
aVcrowd
p3544
aV,
aVand
p3545
aVright
p3546
aVup
p3547
aVto
p3548
aVthe
p3549
aVsteps
p3550
aVwhich
p3551
aVled
p3552
aVto
p3553
aVthe
p3554
aVoffice
p3555
aV.
aa(lp3556
Vthere
p3557
aVwas
p3558
aVa
aVdouble
p3559
aVstream
p3560
aVupon
p3561
aVthe
p3562
aVstair
p3563
aV,
aVsome
p3564
aVgoing
p3565
aVup
p3566
aVin
p3567
aVhope
p3568
aV,
aVand
p3569
aVsome
p3570
aVcoming
p3571
aVback
p3572
aVdejected
p3573
aV;
aVbut
p3574
aVwe
p3575
aVwedged
p3576
aVin
p3577
aVas
p3578
aVwell
p3579
aVas
p3580
aVwe
p3581
aVcould
p3582
aVand
p3583
aVsoon
p3584
aVfound
p3585
aVourselves
p3586
aVin
p3587
aVthe
p3588
aVoffice
p3589
aV.
aV''
p3590
aa(lp3591
V``
p3592
aVyour
p3593
aVexperience
p3594
aVhas
p3595
aVbeen
p3596
aVa
aVmost
p3597
aVentertaining
p3598
aVone
p3599
aV,
aV''
p3600
aVremarked
p3601
aVholmes
p3602
aVas
p3603
aVhis
p3604
aVclient
p3605
aVpaused
p3606
aVand
p3607
aVrefreshed
p3608
aVhis
p3609
aVmemory
p3610
aVwith
p3611
aVa
aVhuge
p3612
aVpinch
p3613
aVof
p3614
aVsnuff
p3615
aV.
aa(lp3616
V``
p3617
aVpray
p3618
aVcontinue
p3619
aVyour
p3620
aVvery
p3621
aVinteresting
p3622
aVstatement
p3623
aV.
aV''
p3624
aa(lp3625
V``
p3626
aVthere
p3627
aVwas
p3628
aVnothing
p3629
aVin
p3630
aVthe
p3631
aVoffice
p3632
aVbut
p3633
aVa
aVcouple
p3634
aVof
p3635
aVwooden
p3636
aVchairs
p3637
aVand
p3638
aVa
aVdeal
p3639
aVtable
p3640
aV,
aVbehind
p3641
aVwhich
p3642
aVsat
p3643
aVa
aVsmall
p3644
aVman
p3645
aVwith
p3646
aVa
aVhead
p3647
aVthat
p3648
aVwas
p3649
aVeven
p3650
aVredder
p3651
aVthan
p3652
aVmine
p3653
aV.
aa(lp3654
Vhe
p3655
aVsaid
p3656
aVa
aVfew
p3657
aVwords
p3658
aVto
p3659
aVeach
p3660
aVcandidate
p3661
aVas
p3662
aVhe
p3663
aVcame
p3664
aVup
p3665
aV,
aVand
p3666
aVthen
p3667
aVhe
p3668
aValways
p3669
aVmanaged
p3670
aVto
p3671
aVfind
p3672
aVsome
p3673
aVfault
p3674
aVin
p3675
aVthem
p3676
aVwhich
p3677
aVwould
p3678
aVdisqualify
p3679
aVthem
p3680
aV.
aa(lp3681
Vgetting
p3682
aVa
aVvacancy
p3683
aVdid
p3684
aVnot
p3685
aVseem
p3686
aVto
p3687
aVbe
p3688
aVsuch
p3689
aVa
aVvery
p3690
aVeasy
p3691
aVmatter
p3692
aV,
aVafter
p3693
aVall
p3694
aV.
aa(lp3695
Vhowever
p3696
aV,
aVwhen
p3697
aVour
p3698
aVturn
p3699
aVcame
p3700
aVthe
p3701
aVlittle
p3702
aVman
p3703
aVwas
p3704
aVmuch
p3705
aVmore
p3706
aVfavorable
p3707
aVto
p3708
aVme
p3709
aVthan
p3710
aVto
p3711
aVany
p3712
aVof
p3713
aVthe
p3714
aVothers
p3715
aV,
aVand
p3716
aVhe
p3717
aVclosed
p3718
aVthe
p3719
aVdoor
p3720
aVas
p3721
aVwe
p3722
aVentered
p3723
aV,
aVso
p3724
aVthat
p3725
aVhe
p3726
aVmight
p3727
aVhave
p3728
aVa
aVprivate
p3729
aVword
p3730
aVwith
p3731
aVus
p3732
aV.
aa(lp3733
V``
p3734
aV'this
p3735
aVis
p3736
aVmr.
p3737
aVjabez
p3738
aVwilson
p3739
aV,
aV'
aVsaid
p3740
aVmy
p3741
aVassistant
p3742
aV,
aV'and
p3743
aVhe
p3744
aVis
p3745
aVwilling
p3746
aVto
p3747
aVfill
p3748
aVa
aVvacancy
p3749
aVin
p3750
aVthe
p3751
aVleague
p3752
aV.
aV'
aa(lp3753
V``
p3754
aV'and
p3755
aVhe
p3756
aVis
p3757
aVadmirably
p3758
aVsuited
p3759
aVfor
p3760
aVit
p3761
aV,
aV'
aVthe
p3762
aVother
p3763
aVanswered
p3764
aV.
aa(lp3765
V'he
p3766
aVhas
p3767
aVevery
p3768
aVrequirement
p3769
aV.
aa(lp3770
Vi
aVcan
p3771
aVnot
p3772
aVrecall
p3773
aVwhen
p3774
aVi
aVhave
p3775
aVseen
p3776
aVanything
p3777
aVso
p3778
aVfine
p3779
aV.
aV'
aa(lp3780
Vhe
p3781
aVtook
p3782
aVa
aVstep
p3783
aVbackward
p3784
aV,
aVcocked
p3785
aVhis
p3786
aVhead
p3787
aVon
p3788
aVone
p3789
aVside
p3790
aV,
aVand
p3791
aVgazed
p3792
aVat
p3793
aVmy
p3794
aVhair
p3795
aVuntil
p3796
aVi
aVfelt
p3797
aVquite
p3798
aVbashful
p3799
aV.
aa(lp3800
Vthen
p3801
aVsuddenly
p3802
aVhe
p3803
aVplunged
p3804
aVforward
p3805
aV,
aVwrung
p3806
aVmy
p3807
aVhand
p3808
aV,
aVand
p3809
aVcongratulated
p3810
aVme
p3811
aVwarmly
p3812
aVon
p3813
aVmy
p3814
aVsuccess
p3815
aV.
aa(lp3816
V``
p3817
aV'it
p3818
aVwould
p3819
aVbe
p3820
aVinjustice
p3821
aVto
p3822
aVhesitate
p3823
aV,
aV'
aVsaid
p3824
aVhe
p3825
aV.
aa(lp3826
V'you
p3827
aVwill
p3828
aV,
aVhowever
p3829
aV,
aVi
aVam
p3830
aVsure
p3831
aV,
aVexcuse
p3832
aVme
p3833
aVfor
p3834
aVtaking
p3835
aVan
p3836
aVobvious
p3837
aVprecaution
p3838
aV.
aV'
aa(lp3839
Vwith
p3840
aVthat
p3841
aVhe
p3842
aVseized
p3843
aVmy
p3844
aVhair
p3845
aVin
p3846
aVboth
p3847
aVhis
p3848
aVhands
p3849
aV,
aVand
p3850
aVtugged
p3851
aVuntil
p3852
aVi
aVyelled
p3853
aVwith
p3854
aVthe
p3855
aVpain
p3856
aV.
aa(lp3857
V'there
p3858
aVis
p3859
aVwater
p3860
aVin
p3861
aVyour
p3862
aVeyes
p3863
aV,
aV'
aVsaid
p3864
aVhe
p3865
aVas
p3866
aVhe
p3867
aVreleased
p3868
aVme
p3869
aV.
aa(lp3870
V'i
p3871
aVperceive
p3872
aVthat
p3873
aVall
p3874
aVis
p3875
aVas
p3876
aVit
p3877
aVshould
p3878
aVbe
p3879
aV.
aa(lp3880
Vbut
p3881
aVwe
p3882
aVhave
p3883
aVto
p3884
aVbe
p3885
aVcareful
p3886
aV,
aVfor
p3887
aVwe
p3888
aVhave
p3889
aVtwice
p3890
aVbeen
p3891
aVdeceived
p3892
aVby
p3893
aVwigs
p3894
aVand
p3895
aVonce
p3896
aVby
p3897
aVpaint
p3898
aV.
aa(lp3899
Vi
aVcould
p3900
aVtell
p3901
aVyou
p3902
aVtales
p3903
aVof
p3904
aVcobbler
p3905
aV's
p3906
aVwax
p3907
aVwhich
p3908
aVwould
p3909
aVdisgust
p3910
aVyou
p3911
aVwith
p3912
aVhuman
p3913
aVnature
p3914
aV.
aV'
aa(lp3915
Vhe
p3916
aVstepped
p3917
aVover
p3918
aVto
p3919
aVthe
p3920
aVwindow
p3921
aVand
p3922
aVshouted
p3923
aVthrough
p3924
aVit
p3925
aVat
p3926
aVthe
p3927
aVtop
p3928
aVof
p3929
aVhis
p3930
aVvoice
p3931
aVthat
p3932
aVthe
p3933
aVvacancy
p3934
aVwas
p3935
aVfilled
p3936
aV.
aa(lp3937
Va
aVgroan
p3938
aVof
p3939
aVdisappointment
p3940
aVcame
p3941
aVup
p3942
aVfrom
p3943
aVbelow
p3944
aV,
aVand
p3945
aVthe
p3946
aVfolk
p3947
aVall
p3948
aVtrooped
p3949
aVaway
p3950
aVin
p3951
aVdifferent
p3952
aVdirections
p3953
aVuntil
p3954
aVthere
p3955
aVwas
p3956
aVnot
p3957
aVa
aVred-head
p3958
aVto
p3959
aVbe
p3960
aVseen
p3961
aVexcept
p3962
aVmy
p3963
aVown
p3964
aVand
p3965
aVthat
p3966
aVof
p3967
aVthe
p3968
aVmanager
p3969
aV.
aa(lp3970
V``
p3971
aV'my
p3972
aVname
p3973
aV,
aV'
aVsaid
p3974
aVhe
p3975
aV,
aV'is
p3976
aVmr.
p3977
aVduncan
p3978
aVross
p3979
aV,
aVand
p3980
aVi
aVam
p3981
aVmyself
p3982
aVone
p3983
aVof
p3984
aVthe
p3985
aVpensioners
p3986
aVupon
p3987
aVthe
p3988
aVfund
p3989
aVleft
p3990
aVby
p3991
aVour
p3992
aVnoble
p3993
aVbenefactor
p3994
aV.
aa(lp3995
Vare
p3996
aVyou
p3997
aVa
aVmarried
p3998
aVman
p3999
aV,
aVmr.
p4000
aVwilson
p4001
aV?
aa(lp4002
Vhave
p4003
aVyou
p4004
aVa
aVfamily
p4005
aV?
aV'
aa(lp4006
V``
p4007
aVi
aVanswered
p4008
aVthat
p4009
aVi
aVhad
p4010
aVnot
p4011
aV.
aa(lp4012
V``
p4013
aVhis
p4014
aVface
p4015
aVfell
p4016
aVimmediately
p4017
aV.
aa(lp4018
V``
p4019
aV'dear
p4020
aVme
p4021
aV!
aV'
aa(lp4022
Vhe
p4023
aVsaid
p4024
aVgravely
p4025
aV,
aV'that
p4026
aVis
p4027
aVvery
p4028
aVserious
p4029
aVindeed
p4030
aV!
aa(lp4031
Vi
aVam
p4032
aVsorry
p4033
aVto
p4034
aVhear
p4035
aVyou
p4036
aVsay
p4037
aVthat
p4038
aV.
aa(lp4039
Vthe
p4040
aVfund
p4041
aVwas
p4042
aV,
aVof
p4043
aVcourse
p4044
aV,
aVfor
p4045
aVthe
p4046
aVpropagation
p4047
aVand
p4048
aVspread
p4049
aVof
p4050
aVthe
p4051
aVred-heads
p4052
aVas
p4053
aVwell
p4054
aVas
p4055
aVfor
p4056
aVtheir
p4057
aVmaintenance
p4058
aV.
aa(lp4059
Vit
p4060
aVis
p4061
aVexceedingly
p4062
aVunfortunate
p4063
aVthat
p4064
aVyou
p4065
aVshould
p4066
aVbe
p4067
aVa
aVbachelor
p4068
aV.
aV'
aa(lp4069
V``
p4070
aVmy
p4071
aVface
p4072
aVlengthened
p4073
aVat
p4074
aVthis
p4075
aV,
aVmr.
p4076
aVholmes
p4077
aV,
aVfor
p4078
aVi
aVthought
p4079
aVthat
p4080
aVi
aVwas
p4081
aVnot
p4082
aVto
p4083
aVhave
p4084
aVthe
p4085
aVvacancy
p4086
aVafter
p4087
aVall
p4088
aV;
aVbut
p4089
aVafter
p4090
aVthinking
p4091
aVit
p4092
aVover
p4093
aVfor
p4094
aVa
aVfew
p4095
aVminutes
p4096
aVhe
p4097
aVsaid
p4098
aVthat
p4099
aVit
p4100
aVwould
p4101
aVbe
p4102
aVall
p4103
aVright
p4104
aV.
aa(lp4105
V``
p4106
aV'in
p4107
aVthe
p4108
aVcase
p4109
aVof
p4110
aVanother
p4111
aV,
aV'
aVsaid
p4112
aVhe
p4113
aV,
aV'the
p4114
aVobjection
p4115
aVmight
p4116
aVbe
p4117
aVfatal
p4118
aV,
aVbut
p4119
aVwe
p4120
aVmust
p4121
aVstretch
p4122
aVa
aVpoint
p4123
aVin
p4124
aVfavor
p4125
aVof
p4126
aVa
aVman
p4127
aVwith
p4128
aVsuch
p4129
aVa
aVhead
p4130
aVof
p4131
aVhair
p4132
aVas
p4133
aVyours
p4134
aV.
aa(lp4135
Vwhen
p4136
aVshall
p4137
aVyou
p4138
aVbe
p4139
aVable
p4140
aVto
p4141
aVenter
p4142
aVupon
p4143
aVyour
p4144
aVnew
p4145
aVduties
p4146
aV?
aV'
aa(lp4147
V``
p4148
aV'well
p4149
aV,
aVit
p4150
aVis
p4151
aVa
aVlittle
p4152
aVawkward
p4153
aV,
aVfor
p4154
aVi
aVhave
p4155
aVa
aVbusiness
p4156
aValready
p4157
aV,
aV'
aVsaid
p4158
aVi
aV.
aa(lp4159
V``
p4160
aV'oh
p4161
aV,
aVnever
p4162
aVmind
p4163
aVabout
p4164
aVthat
p4165
aV,
aVmr
p4166
aV.
aa(lp4167
Vwilson
p4168
aV!
aV'
aa(lp4169
Vsaid
p4170
aVvincent
p4171
aVspaulding
p4172
aV.
aa(lp4173
V'i
p4174
aVshould
p4175
aVbe
p4176
aVable
p4177
aVto
p4178
aVlook
p4179
aVafter
p4180
aVthat
p4181
aVfor
p4182
aVyou
p4183
aV.
aV'
aa(lp4184
V``
p4185
aV'what
p4186
aVwould
p4187
aVbe
p4188
aVthe
p4189
aVhours
p4190
aV?
aV'
aa(lp4191
Vi
aVasked
p4192
aV.
aa(lp4193
V``
p4194
aV'ten
p4195
aVto
p4196
aVtwo
p4197
aV.
aV'
aa(lp4198
V``
p4199
aVnow
p4200
aVa
aVpawnbroker
p4201
aV's
p4202
aVbusiness
p4203
aVis
p4204
aVmostly
p4205
aVdone
p4206
aVof
p4207
aVan
p4208
aVevening
p4209
aV,
aVmr.
p4210
aVholmes
p4211
aV,
aVespecially
p4212
aVthursday
p4213
aVand
p4214
aVfriday
p4215
aVevening
p4216
aV,
aVwhich
p4217
aVis
p4218
aVjust
p4219
aVbefore
p4220
aVpay-day
p4221
aV;
aVso
p4222
aVit
p4223
aVwould
p4224
aVsuit
p4225
aVme
p4226
aVvery
p4227
aVwell
p4228
aVto
p4229
aVearn
p4230
aVa
aVlittle
p4231
aVin
p4232
aVthe
p4233
aVmornings
p4234
aV.
aa(lp4235
Vbesides
p4236
aV,
aVi
aVknew
p4237
aVthat
p4238
aVmy
p4239
aVassistant
p4240
aVwas
p4241
aVa
aVgood
p4242
aVman
p4243
aV,
aVand
p4244
aVthat
p4245
aVhe
p4246
aVwould
p4247
aVsee
p4248
aVto
p4249
aVanything
p4250
aVthat
p4251
aVturned
p4252
aVup
p4253
aV.
aa(lp4254
V``
p4255
aV'that
p4256
aVwould
p4257
aVsuit
p4258
aVme
p4259
aVvery
p4260
aVwell
p4261
aV,
aV'
aVsaid
p4262
aVi
aV.
aa(lp4263
V'and
p4264
aVthe
p4265
aVpay
p4266
aV?
aV'
aa(lp4267
V``
p4268
aV'is
p4269
aV4
aVpounds
p4270
aVa
aVweek
p4271
aV.
aV'
aa(lp4272
V``
p4273
aV'and
p4274
aVthe
p4275
aVwork
p4276
aV?
aV'
aa(lp4277
V``
p4278
aV'is
p4279
aVpurely
p4280
aVnominal
p4281
aV.
aV'
aa(lp4282
V``
p4283
aV'what
p4284
aVdo
p4285
aVyou
p4286
aVcall
p4287
aVpurely
p4288
aVnominal
p4289
aV?
aV'
aa(lp4290
V``
p4291
aV'well
p4292
aV,
aVyou
p4293
aVhave
p4294
aVto
p4295
aVbe
p4296
aVin
p4297
aVthe
p4298
aVoffice
p4299
aV,
aVor
p4300
aVat
p4301
aVleast
p4302
aVin
p4303
aVthe
p4304
aVbuilding
p4305
aV,
aVthe
p4306
aVwhole
p4307
aVtime
p4308
aV.
aa(lp4309
Vif
p4310
aVyou
p4311
aVleave
p4312
aV,
aVyou
p4313
aVforfeit
p4314
aVyour
p4315
aVwhole
p4316
aVposition
p4317
aVforever
p4318
aV.
aa(lp4319
Vthe
p4320
aVwill
p4321
aVis
p4322
aVvery
p4323
aVclear
p4324
aVupon
p4325
aVthat
p4326
aVpoint
p4327
aV.
aa(lp4328
Vyou
p4329
aVdo
p4330
aVn't
p4331
aVcomply
p4332
aVwith
p4333
aVthe
p4334
aVconditions
p4335
aVif
p4336
aVyou
p4337
aVbudge
p4338
aVfrom
p4339
aVthe
p4340
aVoffice
p4341
aVduring
p4342
aVthat
p4343
aVtime
p4344
aV.
aV'
aa(lp4345
V``
p4346
aV'it
p4347
aV's
p4348
aVonly
p4349
aVfour
p4350
aVhours
p4351
aVa
aVday
p4352
aV,
aVand
p4353
aVi
aVshould
p4354
aVnot
p4355
aVthink
p4356
aVof
p4357
aVleaving
p4358
aV,
aV'
aVsaid
p4359
aVi
aV.
aa(lp4360
V``
p4361
aV'no
p4362
aVexcuse
p4363
aVwill
p4364
aVavail
p4365
aV,
aV'
aVsaid
p4366
aVmr.
p4367
aVduncan
p4368
aVross
p4369
aV;
aV'neither
p4370
aVsickness
p4371
aVnor
p4372
aVbusiness
p4373
aVnor
p4374
aVanything
p4375
aVelse
p4376
aV.
aa(lp4377
Vthere
p4378
aVyou
p4379
aVmust
p4380
aVstay
p4381
aV,
aVor
p4382
aVyou
p4383
aVlose
p4384
aVyour
p4385
aVbillet
p4386
aV.
aV'
aa(lp4387
V``
p4388
aV'and
p4389
aVthe
p4390
aVwork
p4391
aV?
aV'
aa(lp4392
V``
p4393
aV'is
p4394
aVto
p4395
aVcopy
p4396
aVout
p4397
aVthe
p4398
aVencyclopaedia
p4399
aVbritannica
p4400
aV.
aa(lp4401
Vthere
p4402
aVis
p4403
aVthe
p4404
aVfirst
p4405
aVvolume
p4406
aVof
p4407
aVit
p4408
aVin
p4409
aVthat
p4410
aVpress
p4411
aV.
aa(lp4412
Vyou
p4413
aVmust
p4414
aVfind
p4415
aVyour
p4416
aVown
p4417
aVink
p4418
aV,
aVpens
p4419
aV,
aVand
p4420
aVblotting-paper
p4421
aV,
aVbut
p4422
aVwe
p4423
aVprovide
p4424
aVthis
p4425
aVtable
p4426
aVand
p4427
aVchair
p4428
aV.
aa(lp4429
Vwill
p4430
aVyou
p4431
aVbe
p4432
aVready
p4433
aVto-morrow
p4434
aV?
aV'
aa(lp4435
V``
p4436
aV'certainly
p4437
aV,
aV'
aVi
aVanswered
p4438
aV.
aa(lp4439
V``
p4440
aV'then
p4441
aV,
aVgood-bye
p4442
aV,
aVmr.
p4443
aVjabez
p4444
aVwilson
p4445
aV,
aVand
p4446
aVlet
p4447
aVme
p4448
aVcongratulate
p4449
aVyou
p4450
aVonce
p4451
aVmore
p4452
aVon
p4453
aVthe
p4454
aVimportant
p4455
aVposition
p4456
aVwhich
p4457
aVyou
p4458
aVhave
p4459
aVbeen
p4460
aVfortunate
p4461
aVenough
p4462
aVto
p4463
aVgain
p4464
aV.
aV'
aa(lp4465
Vhe
p4466
aVbowed
p4467
aVme
p4468
aVout
p4469
aVof
p4470
aVthe
p4471
aVroom
p4472
aVand
p4473
aVi
aVwent
p4474
aVhome
p4475
aVwith
p4476
aVmy
p4477
aVassistant
p4478
aV,
aVhardly
p4479
aVknowing
p4480
aVwhat
p4481
aVto
p4482
aVsay
p4483
aVor
p4484
aVdo
p4485
aV,
aVi
aVwas
p4486
aVso
p4487
aVpleased
p4488
aVat
p4489
aVmy
p4490
aVown
p4491
aVgood
p4492
aVfortune
p4493
aV.
aa(lp4494
V``
p4495
aVwell
p4496
aV,
aVi
aVthought
p4497
aVover
p4498
aVthe
p4499
aVmatter
p4500
aVall
p4501
aVday
p4502
aV,
aVand
p4503
aVby
p4504
aVevening
p4505
aVi
aVwas
p4506
aVin
p4507
aVlow
p4508
aVspirits
p4509
aVagain
p4510
aV;
aVfor
p4511
aVi
aVhad
p4512
aVquite
p4513
aVpersuaded
p4514
aVmyself
p4515
aVthat
p4516
aVthe
p4517
aVwhole
p4518
aVaffair
p4519
aVmust
p4520
aVbe
p4521
aVsome
p4522
aVgreat
p4523
aVhoax
p4524
aVor
p4525
aVfraud
p4526
aV,
aVthough
p4527
aVwhat
p4528
aVits
p4529
aVobject
p4530
aVmight
p4531
aVbe
p4532
aVi
aVcould
p4533
aVnot
p4534
aVimagine
p4535
aV.
aa(lp4536
Vit
p4537
aVseemed
p4538
aValtogether
p4539
aVpast
p4540
aVbelief
p4541
aVthat
p4542
aVanyone
p4543
aVcould
p4544
aVmake
p4545
aVsuch
p4546
aVa
aVwill
p4547
aV,
aVor
p4548
aVthat
p4549
aVthey
p4550
aVwould
p4551
aVpay
p4552
aVsuch
p4553
aVa
aVsum
p4554
aVfor
p4555
aVdoing
p4556
aVanything
p4557
aVso
p4558
aVsimple
p4559
aVas
p4560
aVcopying
p4561
aVout
p4562
aVthe
p4563
aVencyclopaedia
p4564
aVbritannica
p4565
aV.
aa(lp4566
Vvincent
p4567
aVspaulding
p4568
aVdid
p4569
aVwhat
p4570
aVhe
p4571
aVcould
p4572
aVto
p4573
aVcheer
p4574
aVme
p4575
aVup
p4576
aV,
aVbut
p4577
aVby
p4578
aVbedtime
p4579
aVi
aVhad
p4580
aVreasoned
p4581
aVmyself
p4582
aVout
p4583
aVof
p4584
aVthe
p4585
aVwhole
p4586
aVthing
p4587
aV.
aa(lp4588
Vhowever
p4589
aV,
aVin
p4590
aVthe
p4591
aVmorning
p4592
aVi
aVdetermined
p4593
aVto
p4594
aVhave
p4595
aVa
aVlook
p4596
aVat
p4597
aVit
p4598
aVanyhow
p4599
aV,
aVso
p4600
aVi
aVbought
p4601
aVa
aVpenny
p4602
aVbottle
p4603
aVof
p4604
aVink
p4605
aV,
aVand
p4606
aVwith
p4607
aVa
aVquill-pen
p4608
aV,
aVand
p4609
aVseven
p4610
aVsheets
p4611
aVof
p4612
aVfoolscap
p4613
aVpaper
p4614
aV,
aVi
aVstarted
p4615
aVoff
p4616
aVfor
p4617
aVpope
p4618
aV's
p4619
aVcourt
p4620
aV.
aa(lp4621
V``
p4622
aVwell
p4623
aV,
aVto
p4624
aVmy
p4625
aVsurprise
p4626
aVand
p4627
aVdelight
p4628
aV,
aVeverything
p4629
aVwas
p4630
aVas
p4631
aVright
p4632
aVas
p4633
aVpossible
p4634
aV.
aa(lp4635
Vthe
p4636
aVtable
p4637
aVwas
p4638
aVset
p4639
aVout
p4640
aVready
p4641
aVfor
p4642
aVme
p4643
aV,
aVand
p4644
aVmr.
p4645
aVduncan
p4646
aVross
p4647
aVwas
p4648
aVthere
p4649
aVto
p4650
aVsee
p4651
aVthat
p4652
aVi
aVgot
p4653
aVfairly
p4654
aVto
p4655
aVwork
p4656
aV.
aa(lp4657
Vhe
p4658
aVstarted
p4659
aVme
p4660
aVoff
p4661
aVupon
p4662
aVthe
p4663
aVletter
p4664
aVa
aV,
aVand
p4665
aVthen
p4666
aVhe
p4667
aVleft
p4668
aVme
p4669
aV;
aVbut
p4670
aVhe
p4671
aVwould
p4672
aVdrop
p4673
aVin
p4674
aVfrom
p4675
aVtime
p4676
aVto
p4677
aVtime
p4678
aVto
p4679
aVsee
p4680
aVthat
p4681
aVall
p4682
aVwas
p4683
aVright
p4684
aVwith
p4685
aVme
p4686
aV.
aa(lp4687
Vat
p4688
aVtwo
p4689
aVo'clock
p4690
aVhe
p4691
aVbade
p4692
aVme
p4693
aVgood-day
p4694
aV,
aVcomplimented
p4695
aVme
p4696
aVupon
p4697
aVthe
p4698
aVamount
p4699
aVthat
p4700
aVi
aVhad
p4701
aVwritten
p4702
aV,
aVand
p4703
aVlocked
p4704
aVthe
p4705
aVdoor
p4706
aVof
p4707
aVthe
p4708
aVoffice
p4709
aVafter
p4710
aVme
p4711
aV.
aa(lp4712
V``
p4713
aVthis
p4714
aVwent
p4715
aVon
p4716
aVday
p4717
aVafter
p4718
aVday
p4719
aV,
aVmr.
p4720
aVholmes
p4721
aV,
aVand
p4722
aVon
p4723
aVsaturday
p4724
aVthe
p4725
aVmanager
p4726
aVcame
p4727
aVin
p4728
aVand
p4729
aVplanked
p4730
aVdown
p4731
aVfour
p4732
aVgolden
p4733
aVsovereigns
p4734
aVfor
p4735
aVmy
p4736
aVweek
p4737
aV's
p4738
aVwork
p4739
aV.
aa(lp4740
Vit
p4741
aVwas
p4742
aVthe
p4743
aVsame
p4744
aVnext
p4745
aVweek
p4746
aV,
aVand
p4747
aVthe
p4748
aVsame
p4749
aVthe
p4750
aVweek
p4751
aVafter
p4752
aV.
aa(lp4753
Vevery
p4754
aVmorning
p4755
aVi
aVwas
p4756
aVthere
p4757
aVat
p4758
aVten
p4759
aV,
aVand
p4760
aVevery
p4761
aVafternoon
p4762
aVi
aVleft
p4763
aVat
p4764
aVtwo
p4765
aV.
aa(lp4766
Vby
p4767
aVdegrees
p4768
aVmr.
p4769
aVduncan
p4770
aVross
p4771
aVtook
p4772
aVto
p4773
aVcoming
p4774
aVin
p4775
aVonly
p4776
aVonce
p4777
aVof
p4778
aVa
aVmorning
p4779
aV,
aVand
p4780
aVthen
p4781
aV,
aVafter
p4782
aVa
aVtime
p4783
aV,
aVhe
p4784
aVdid
p4785
aVnot
p4786
aVcome
p4787
aVin
p4788
aVat
p4789
aVall
p4790
aV.
aa(lp4791
Vstill
p4792
aV,
aVof
p4793
aVcourse
p4794
aV,
aVi
aVnever
p4795
aVdared
p4796
aVto
p4797
aVleave
p4798
aVthe
p4799
aVroom
p4800
aVfor
p4801
aVan
p4802
aVinstant
p4803
aV,
aVfor
p4804
aVi
aVwas
p4805
aVnot
p4806
aVsure
p4807
aVwhen
p4808
aVhe
p4809
aVmight
p4810
aVcome
p4811
aV,
aVand
p4812
aVthe
p4813
aVbillet
p4814
aVwas
p4815
aVsuch
p4816
aVa
aVgood
p4817
aVone
p4818
aV,
aVand
p4819
aVsuited
p4820
aVme
p4821
aVso
p4822
aVwell
p4823
aV,
aVthat
p4824
aVi
aVwould
p4825
aVnot
p4826
aVrisk
p4827
aVthe
p4828
aVloss
p4829
aVof
p4830
aVit
p4831
aV.
aa(lp4832
V``
p4833
aVeight
p4834
aVweeks
p4835
aVpassed
p4836
aVaway
p4837
aVlike
p4838
aVthis
p4839
aV,
aVand
p4840
aVi
aVhad
p4841
aVwritten
p4842
aVabout
p4843
aVabbots
p4844
aVand
p4845
aVarchery
p4846
aVand
p4847
aVarmour
p4848
aVand
p4849
aVarchitecture
p4850
aVand
p4851
aVattica
p4852
aV,
aVand
p4853
aVhoped
p4854
aVwith
p4855
aVdiligence
p4856
aVthat
p4857
aVi
aVmight
p4858
aVget
p4859
aVon
p4860
aVto
p4861
aVthe
p4862
aVb
aV's
p4863
aVbefore
p4864
aVvery
p4865
aVlong
p4866
aV.
aa(lp4867
Vit
p4868
aVcost
p4869
aVme
p4870
aVsomething
p4871
aVin
p4872
aVfoolscap
p4873
aV,
aVand
p4874
aVi
aVhad
p4875
aVpretty
p4876
aVnearly
p4877
aVfilled
p4878
aVa
aVshelf
p4879
aVwith
p4880
aVmy
p4881
aVwritings
p4882
aV.
aa(lp4883
Vand
p4884
aVthen
p4885
aVsuddenly
p4886
aVthe
p4887
aVwhole
p4888
aVbusiness
p4889
aVcame
p4890
aVto
p4891
aVan
p4892
aVend
p4893
aV.
aV''
p4894
aa(lp4895
V``
p4896
aVto
p4897
aVan
p4898
aVend
p4899
aV?
aV''
p4900
aa(lp4901
V``
p4902
aVyes
p4903
aV,
aVsir
p4904
aV.
aa(lp4905
Vand
p4906
aVno
p4907
aVlater
p4908
aVthan
p4909
aVthis
p4910
aVmorning
p4911
aV.
aa(lp4912
Vi
aVwent
p4913
aVto
p4914
aVmy
p4915
aVwork
p4916
aVas
p4917
aVusual
p4918
aVat
p4919
aVten
p4920
aVo'clock
p4921
aV,
aVbut
p4922
aVthe
p4923
aVdoor
p4924
aVwas
p4925
aVshut
p4926
aVand
p4927
aVlocked
p4928
aV,
aVwith
p4929
aVa
aVlittle
p4930
aVsquare
p4931
aVof
p4932
aVcard-board
p4933
aVhammered
p4934
aVon
p4935
aVto
p4936
aVthe
p4937
aVmiddle
p4938
aVof
p4939
aVthe
p4940
aVpanel
p4941
aVwith
p4942
aVa
aVtack
p4943
aV.
aa(lp4944
Vhere
p4945
aVit
p4946
aVis
p4947
aV,
aVand
p4948
aVyou
p4949
aVcan
p4950
aVread
p4951
aVfor
p4952
aVyourself
p4953
aV.
aV''
p4954
aa(lp4955
Vhe
p4956
aVheld
p4957
aVup
p4958
aVa
aVpiece
p4959
aVof
p4960
aVwhite
p4961
aVcard-board
p4962
aVabout
p4963
aVthe
p4964
aVsize
p4965
aVof
p4966
aVa
aVsheet
p4967
aVof
p4968
aVnote-paper
p4969
aV.
aa(lp4970
Vit
p4971
aVread
p4972
aVin
p4973
aVthis
p4974
aVfashion
p4975
aV:
aVthe
p4976
aVred-headed
p4977
aVleague
p4978
aVis
p4979
aVdissolved
p4980
aV.
aa(lp4981
Voctober
p4982
aV9
aV,
aV1890.
p4983
aVsherlock
p4984
aVholmes
p4985
aVand
p4986
aVi
aVsurveyed
p4987
aVthis
p4988
aVcurt
p4989
aVannouncement
p4990
aVand
p4991
aVthe
p4992
aVrueful
p4993
aVface
p4994
aVbehind
p4995
aVit
p4996
aV,
aVuntil
p4997
aVthe
p4998
aVcomical
p4999
aVside
p5000
aVof
p5001
aVthe
p5002
aVaffair
p5003
aVso
p5004
aVcompletely
p5005
aVovertopped
p5006
aVevery
p5007
aVother
p5008
aVconsideration
p5009
aVthat
p5010
aVwe
p5011
aVboth
p5012
aVburst
p5013
aVout
p5014
aVinto
p5015
aVa
aVroar
p5016
aVof
p5017
aVlaughter
p5018
aV.
aa(lp5019
V``
p5020
aVi
aVcan
p5021
aVnot
p5022
aVsee
p5023
aVthat
p5024
aVthere
p5025
aVis
p5026
aVanything
p5027
aVvery
p5028
aVfunny
p5029
aV,
aV''
p5030
aVcried
p5031
aVour
p5032
aVclient
p5033
aV,
aVflushing
p5034
aVup
p5035
aVto
p5036
aVthe
p5037
aVroots
p5038
aVof
p5039
aVhis
p5040
aVflaming
p5041
aVhead
p5042
aV.
aa(lp5043
V``
p5044
aVif
p5045
aVyou
p5046
aVcan
p5047
aVdo
p5048
aVnothing
p5049
aVbetter
p5050
aVthan
p5051
aVlaugh
p5052
aVat
p5053
aVme
p5054
aV,
aVi
aVcan
p5055
aVgo
p5056
aVelsewhere
p5057
aV.
aV''
p5058
aa(lp5059
V``
p5060
aVno
p5061
aV,
aVno
p5062
aV,
aV''
p5063
aVcried
p5064
aVholmes
p5065
aV,
aVshoving
p5066
aVhim
p5067
aVback
p5068
aVinto
p5069
aVthe
p5070
aVchair
p5071
aVfrom
p5072
aVwhich
p5073
aVhe
p5074
aVhad
p5075
aVhalf
p5076
aVrisen
p5077
aV.
aa(lp5078
V``
p5079
aVi
aVreally
p5080
aVwould
p5081
aVn't
p5082
aVmiss
p5083
aVyour
p5084
aVcase
p5085
aVfor
p5086
aVthe
p5087
aVworld
p5088
aV.
aa(lp5089
Vit
p5090
aVis
p5091
aVmost
p5092
aVrefreshingly
p5093
aVunusual
p5094
aV.
aa(lp5095
Vbut
p5096
aVthere
p5097
aVis
p5098
aV,
aVif
p5099
aVyou
p5100
aVwill
p5101
aVexcuse
p5102
aVmy
p5103
aVsaying
p5104
aVso
p5105
aV,
aVsomething
p5106
aVjust
p5107
aVa
aVlittle
p5108
aVfunny
p5109
aVabout
p5110
aVit
p5111
aV.
aa(lp5112
Vpray
p5113
aVwhat
p5114
aVsteps
p5115
aVdid
p5116
aVyou
p5117
aVtake
p5118
aVwhen
p5119
aVyou
p5120
aVfound
p5121
aVthe
p5122
aVcard
p5123
aVupon
p5124
aVthe
p5125
aVdoor
p5126
aV?
aV''
p5127
aa(lp5128
V``
p5129
aVi
aVwas
p5130
aVstaggered
p5131
aV,
aVsir
p5132
aV.
aa(lp5133
Vi
aVdid
p5134
aVnot
p5135
aVknow
p5136
aVwhat
p5137
aVto
p5138
aVdo
p5139
aV.
aa(lp5140
Vthen
p5141
aVi
aVcalled
p5142
aVat
p5143
aVthe
p5144
aVoffices
p5145
aVround
p5146
aV,
aVbut
p5147
aVnone
p5148
aVof
p5149
aVthem
p5150
aVseemed
p5151
aVto
p5152
aVknow
p5153
aVanything
p5154
aVabout
p5155
aVit
p5156
aV.
aa(lp5157
Vfinally
p5158
aV,
aVi
aVwent
p5159
aVto
p5160
aVthe
p5161
aVlandlord
p5162
aV,
aVwho
p5163
aVis
p5164
aVan
p5165
aVaccountant
p5166
aVliving
p5167
aVon
p5168
aVthe
p5169
aVground-floor
p5170
aV,
aVand
p5171
aVi
aVasked
p5172
aVhim
p5173
aVif
p5174
aVhe
p5175
aVcould
p5176
aVtell
p5177
aVme
p5178
aVwhat
p5179
aVhad
p5180
aVbecome
p5181
aVof
p5182
aVthe
p5183
aVred-headed
p5184
aVleague
p5185
aV.
aa(lp5186
Vhe
p5187
aVsaid
p5188
aVthat
p5189
aVhe
p5190
aVhad
p5191
aVnever
p5192
aVheard
p5193
aVof
p5194
aVany
p5195
aVsuch
p5196
aVbody
p5197
aV.
aa(lp5198
Vthen
p5199
aVi
aVasked
p5200
aVhim
p5201
aVwho
p5202
aVmr.
p5203
aVduncan
p5204
aVross
p5205
aVwas
p5206
aV.
aa(lp5207
Vhe
p5208
aVanswered
p5209
aVthat
p5210
aVthe
p5211
aVname
p5212
aVwas
p5213
aVnew
p5214
aVto
p5215
aVhim
p5216
aV.
aa(lp5217
V``
p5218
aV'well
p5219
aV,
aV'
aVsaid
p5220
aVi
aV,
aV'the
p5221
aVgentleman
p5222
aVat
p5223
aVno
p5224
aV.
aa(lp5225
V4
aV.
aV'
aa(lp5226
V``
p5227
aV'what
p5228
aV,
aVthe
p5229
aVred-headed
p5230
aVman
p5231
aV?
aV'
aa(lp5232
V``
p5233
aV'yes
p5234
aV.
aV'
aa(lp5235
V``
p5236
aV'oh
p5237
aV,
aV'
aVsaid
p5238
aVhe
p5239
aV,
aV'his
p5240
aVname
p5241
aVwas
p5242
aVwilliam
p5243
aVmorris
p5244
aV.
aa(lp5245
Vhe
p5246
aVwas
p5247
aVa
aVsolicitor
p5248
aVand
p5249
aVwas
p5250
aVusing
p5251
aVmy
p5252
aVroom
p5253
aVas
p5254
aVa
aVtemporary
p5255
aVconvenience
p5256
aVuntil
p5257
aVhis
p5258
aVnew
p5259
aVpremises
p5260
aVwere
p5261
aVready
p5262
aV.
aa(lp5263
Vhe
p5264
aVmoved
p5265
aVout
p5266
aVyesterday
p5267
aV.
aV'
aa(lp5268
V``
p5269
aV'where
p5270
aVcould
p5271
aVi
aVfind
p5272
aVhim
p5273
aV?
aV'
aa(lp5274
V``
p5275
aV'oh
p5276
aV,
aVat
p5277
aVhis
p5278
aVnew
p5279
aVoffices
p5280
aV.
aa(lp5281
Vhe
p5282
aVdid
p5283
aVtell
p5284
aVme
p5285
aVthe
p5286
aVaddress
p5287
aV.
aa(lp5288
Vyes
p5289
aV,
aV17
p5290
aVking
p5291
aVedward
p5292
aVstreet
p5293
aV,
aVnear
p5294
aVst
p5295
aV.
aa(lp5296
Vpaul
p5297
aV's
p5298
aV.
aV'
aa(lp5299
V``
p5300
aVi
aVstarted
p5301
aVoff
p5302
aV,
aVmr.
p5303
aVholmes
p5304
aV,
aVbut
p5305
aVwhen
p5306
aVi
aVgot
p5307
aVto
p5308
aVthat
p5309
aVaddress
p5310
aVit
p5311
aVwas
p5312
aVa
aVmanufactory
p5313
aVof
p5314
aVartificial
p5315
aVknee-caps
p5316
aV,
aVand
p5317
aVno
p5318
aVone
p5319
aVin
p5320
aVit
p5321
aVhad
p5322
aVever
p5323
aVheard
p5324
aVof
p5325
aVeither
p5326
aVmr.
p5327
aVwilliam
p5328
aVmorris
p5329
aVor
p5330
aVmr.
p5331
aVduncan
p5332
aVross
p5333
aV.
aV''
p5334
aa(lp5335
V``
p5336
aVand
p5337
aVwhat
p5338
aVdid
p5339
aVyou
p5340
aVdo
p5341
aVthen
p5342
aV?
aV''
p5343
aa(lp5344
Vasked
p5345
aVholmes
p5346
aV.
aa(lp5347
V``
p5348
aVi
aVwent
p5349
aVhome
p5350
aVto
p5351
aVsaxe-coburg
p5352
aVsquare
p5353
aV,
aVand
p5354
aVi
aVtook
p5355
aVthe
p5356
aVadvice
p5357
aVof
p5358
aVmy
p5359
aVassistant
p5360
aV.
aa(lp5361
Vbut
p5362
aVhe
p5363
aVcould
p5364
aVnot
p5365
aVhelp
p5366
aVme
p5367
aVin
p5368
aVany
p5369
aVway
p5370
aV.
aa(lp5371
Vhe
p5372
aVcould
p5373
aVonly
p5374
aVsay
p5375
aVthat
p5376
aVif
p5377
aVi
aVwaited
p5378
aVi
aVshould
p5379
aVhear
p5380
aVby
p5381
aVpost
p5382
aV.
aa(lp5383
Vbut
p5384
aVthat
p5385
aVwas
p5386
aVnot
p5387
aVquite
p5388
aVgood
p5389
aVenough
p5390
aV,
aVmr.
p5391
aVholmes
p5392
aV.
aa(lp5393
Vi
aVdid
p5394
aVnot
p5395
aVwish
p5396
aVto
p5397
aVlose
p5398
aVsuch
p5399
aVa
aVplace
p5400
aVwithout
p5401
aVa
aVstruggle
p5402
aV,
aVso
p5403
aV,
aVas
p5404
aVi
aVhad
p5405
aVheard
p5406
aVthat
p5407
aVyou
p5408
aVwere
p5409
aVgood
p5410
aVenough
p5411
aVto
p5412
aVgive
p5413
aVadvice
p5414
aVto
p5415
aVpoor
p5416
aVfolk
p5417
aVwho
p5418
aVwere
p5419
aVin
p5420
aVneed
p5421
aVof
p5422
aVit
p5423
aV,
aVi
aVcame
p5424
aVright
p5425
aVaway
p5426
aVto
p5427
aVyou
p5428
aV.
aV''
p5429
aa(lp5430
V``
p5431
aVand
p5432
aVyou
p5433
aVdid
p5434
aVvery
p5435
aVwisely
p5436
aV,
aV''
p5437
aVsaid
p5438
aVholmes
p5439
aV.
aa(lp5440
V``
p5441
aVyour
p5442
aVcase
p5443
aVis
p5444
aVan
p5445
aVexceedingly
p5446
aVremarkable
p5447
aVone
p5448
aV,
aVand
p5449
aVi
aVshall
p5450
aVbe
p5451
aVhappy
p5452
aVto
p5453
aVlook
p5454
aVinto
p5455
aVit
p5456
aV.
aa(lp5457
Vfrom
p5458
aVwhat
p5459
aVyou
p5460
aVhave
p5461
aVtold
p5462
aVme
p5463
aVi
aVthink
p5464
aVthat
p5465
aVit
p5466
aVis
p5467
aVpossible
p5468
aVthat
p5469
aVgraver
p5470
aVissues
p5471
aVhang
p5472
aVfrom
p5473
aVit
p5474
aVthan
p5475
aVmight
p5476
aVat
p5477
aVfirst
p5478
aVsight
p5479
aVappear
p5480
aV.
aV''
p5481
aa(lp5482
V``
p5483
aVgrave
p5484
aVenough
p5485
aV!
aV''
p5486
aa(lp5487
Vsaid
p5488
aVmr.
p5489
aVjabez
p5490
aVwilson
p5491
aV.
aa(lp5492
V``
p5493
aVwhy
p5494
aV,
aVi
aVhave
p5495
aVlost
p5496
aVfour
p5497
aVpound
p5498
aVa
aVweek
p5499
aV.
aV''
p5500
aa(lp5501
V``
p5502
aVas
p5503
aVfar
p5504
aVas
p5505
aVyou
p5506
aVare
p5507
aVpersonally
p5508
aVconcerned
p5509
aV,
aV''
p5510
aVremarked
p5511
aVholmes
p5512
aV,
aV``
p5513
aVi
aVdo
p5514
aVnot
p5515
aVsee
p5516
aVthat
p5517
aVyou
p5518
aVhave
p5519
aVany
p5520
aVgrievance
p5521
aVagainst
p5522
aVthis
p5523
aVextraordinary
p5524
aVleague
p5525
aV.
aa(lp5526
Von
p5527
aVthe
p5528
aVcontrary
p5529
aV,
aVyou
p5530
aVare
p5531
aV,
aVas
p5532
aVi
aVunderstand
p5533
aV,
aVricher
p5534
aVby
p5535
aVsome
p5536
aV30
p5537
aVpounds
p5538
aV,
aVto
p5539
aVsay
p5540
aVnothing
p5541
aVof
p5542
aVthe
p5543
aVminute
p5544
aVknowledge
p5545
aVwhich
p5546
aVyou
p5547
aVhave
p5548
aVgained
p5549
aVon
p5550
aVevery
p5551
aVsubject
p5552
aVwhich
p5553
aVcomes
p5554
aVunder
p5555
aVthe
p5556
aVletter
p5557
aVa.
p5558
aVyou
p5559
aVhave
p5560
aVlost
p5561
aVnothing
p5562
aVby
p5563
aVthem
p5564
aV.
aV''
p5565
aa(lp5566
V``
p5567
aVno
p5568
aV,
aVsir
p5569
aV.
aa(lp5570
Vbut
p5571
aVi
aVwant
p5572
aVto
p5573
aVfind
p5574
aVout
p5575
aVabout
p5576
aVthem
p5577
aV,
aVand
p5578
aVwho
p5579
aVthey
p5580
aVare
p5581
aV,
aVand
p5582
aVwhat
p5583
aVtheir
p5584
aVobject
p5585
aVwas
p5586
aVin
p5587
aVplaying
p5588
aVthis
p5589
aVprank
p5590
aV--
p5591
aVif
p5592
aVit
p5593
aVwas
p5594
aVa
aVprank
p5595
aV--
p5596
aVupon
p5597
aVme
p5598
aV.
aa(lp5599
Vit
p5600
aVwas
p5601
aVa
aVpretty
p5602
aVexpensive
p5603
aVjoke
p5604
aVfor
p5605
aVthem
p5606
aV,
aVfor
p5607
aVit
p5608
aVcost
p5609
aVthem
p5610
aVtwo
p5611
aVand
p5612
aVthirty
p5613
aVpounds
p5614
aV.
aV''
p5615
aa(lp5616
V``
p5617
aVwe
p5618
aVshall
p5619
aVendeavor
p5620
aVto
p5621
aVclear
p5622
aVup
p5623
aVthese
p5624
aVpoints
p5625
aVfor
p5626
aVyou
p5627
aV.
aa(lp5628
Vand
p5629
aV,
aVfirst
p5630
aV,
aVone
p5631
aVor
p5632
aVtwo
p5633
aVquestions
p5634
aV,
aVmr.
p5635
aVwilson
p5636
aV.
aa(lp5637
Vthis
p5638
aVassistant
p5639
aVof
p5640
aVyours
p5641
aVwho
p5642
aVfirst
p5643
aVcalled
p5644
aVyour
p5645
aVattention
p5646
aVto
p5647
aVthe
p5648
aVadvertisement
p5649
aV--
p5650
aVhow
p5651
aVlong
p5652
aVhad
p5653
aVhe
p5654
aVbeen
p5655
aVwith
p5656
aVyou
p5657
aV?
aV''
p5658
aa(lp5659
V``
p5660
aVabout
p5661
aVa
aVmonth
p5662
aVthen
p5663
aV.
aV''
p5664
aa(lp5665
V``
p5666
aVhow
p5667
aVdid
p5668
aVhe
p5669
aVcome
p5670
aV?
aV''
p5671
aa(lp5672
V``
p5673
aVin
p5674
aVanswer
p5675
aVto
p5676
aVan
p5677
aVadvertisement
p5678
aV.
aV''
p5679
aa(lp5680
V``
p5681
aVwas
p5682
aVhe
p5683
aVthe
p5684
aVonly
p5685
aVapplicant
p5686
aV?
aV''
p5687
aa(lp5688
V``
p5689
aVno
p5690
aV,
aVi
aVhad
p5691
aVa
aVdozen
p5692
aV.
aV''
p5693
aa(lp5694
V``
p5695
aVwhy
p5696
aVdid
p5697
aVyou
p5698
aVpick
p5699
aVhim
p5700
aV?
aV''
p5701
aa(lp5702
V``
p5703
aVbecause
p5704
aVhe
p5705
aVwas
p5706
aVhandy
p5707
aVand
p5708
aVwould
p5709
aVcome
p5710
aVcheap
p5711
aV.
aV''
p5712
aa(lp5713
V``
p5714
aVat
p5715
aVhalf-wages
p5716
aV,
aVin
p5717
aVfact
p5718
aV.
aV''
p5719
aa(lp5720
V``
p5721
aVyes
p5722
aV.
aV''
p5723
aa(lp5724
V``
p5725
aVwhat
p5726
aVis
p5727
aVhe
p5728
aVlike
p5729
aV,
aVthis
p5730
aVvincent
p5731
aVspaulding
p5732
aV?
aV''
p5733
aa(lp5734
V``
p5735
aVsmall
p5736
aV,
aVstout-built
p5737
aV,
aVvery
p5738
aVquick
p5739
aVin
p5740
aVhis
p5741
aVways
p5742
aV,
aVno
p5743
aVhair
p5744
aVon
p5745
aVhis
p5746
aVface
p5747
aV,
aVthough
p5748
aVhe
p5749
aV's
p5750
aVnot
p5751
aVshort
p5752
aVof
p5753
aVthirty
p5754
aV.
aa(lp5755
Vhas
p5756
aVa
aVwhite
p5757
aVsplash
p5758
aVof
p5759
aVacid
p5760
aVupon
p5761
aVhis
p5762
aVforehead
p5763
aV.
aV''
p5764
aa(lp5765
Vholmes
p5766
aVsat
p5767
aVup
p5768
aVin
p5769
aVhis
p5770
aVchair
p5771
aVin
p5772
aVconsiderable
p5773
aVexcitement
p5774
aV.
aa(lp5775
V``
p5776
aVi
aVthought
p5777
aVas
p5778
aVmuch
p5779
aV,
aV''
p5780
aVsaid
p5781
aVhe
p5782
aV.
aa(lp5783
V``
p5784
aVhave
p5785
aVyou
p5786
aVever
p5787
aVobserved
p5788
aVthat
p5789
aVhis
p5790
aVears
p5791
aVare
p5792
aVpierced
p5793
aVfor
p5794
aVearrings
p5795
aV?
aV''
p5796
aa(lp5797
V``
p5798
aVyes
p5799
aV,
aVsir
p5800
aV.
aa(lp5801
Vhe
p5802
aVtold
p5803
aVme
p5804
aVthat
p5805
aVa
aVgypsy
p5806
aVhad
p5807
aVdone
p5808
aVit
p5809
aVfor
p5810
aVhim
p5811
aVwhen
p5812
aVhe
p5813
aVwas
p5814
aVa
aVlad
p5815
aV.
aV''
p5816
aa(lp5817
V``
p5818
aVhum
p5819
aV!
aV''
p5820
aa(lp5821
Vsaid
p5822
aVholmes
p5823
aV,
aVsinking
p5824
aVback
p5825
aVin
p5826
aVdeep
p5827
aVthought
p5828
aV.
aa(lp5829
V``
p5830
aVhe
p5831
aVis
p5832
aVstill
p5833
aVwith
p5834
aVyou
p5835
aV?
aV''
p5836
aa(lp5837
V``
p5838
aVoh
p5839
aV,
aVyes
p5840
aV,
aVsir
p5841
aV;
aVi
aVhave
p5842
aVonly
p5843
aVjust
p5844
aVleft
p5845
aVhim
p5846
aV.
aV''
p5847
aa(lp5848
V``
p5849
aVand
p5850
aVhas
p5851
aVyour
p5852
aVbusiness
p5853
aVbeen
p5854
aVattended
p5855
aVto
p5856
aVin
p5857
aVyour
p5858
aVabsence
p5859
aV?
aV''
p5860
aa(lp5861
V``
p5862
aVnothing
p5863
aVto
p5864
aVcomplain
p5865
aVof
p5866
aV,
aVsir
p5867
aV.
aa(lp5868
Vthere
p5869
aV's
p5870
aVnever
p5871
aVvery
p5872
aVmuch
p5873
aVto
p5874
aVdo
p5875
aVof
p5876
aVa
aVmorning
p5877
aV.
aV''
p5878
aa(lp5879
V``
p5880
aVthat
p5881
aVwill
p5882
aVdo
p5883
aV,
aVmr.
p5884
aVwilson
p5885
aV.
aa(lp5886
Vi
aVshall
p5887
aVbe
p5888
aVhappy
p5889
aVto
p5890
aVgive
p5891
aVyou
p5892
aVan
p5893
aVopinion
p5894
aVupon
p5895
aVthe
p5896
aVsubject
p5897
aVin
p5898
aVthe
p5899
aVcourse
p5900
aVof
p5901
aVa
aVday
p5902
aVor
p5903
aVtwo
p5904
aV.
aa(lp5905
Vto-day
p5906
aVis
p5907
aVsaturday
p5908
aV,
aVand
p5909
aVi
aVhope
p5910
aVthat
p5911
aVby
p5912
aVmonday
p5913
aVwe
p5914
aVmay
p5915
aVcome
p5916
aVto
p5917
aVa
aVconclusion
p5918
aV.
aV''
p5919
aa(lp5920
V``
p5921
aVwell
p5922
aV,
aVwatson
p5923
aV,
aV''
p5924
aVsaid
p5925
aVholmes
p5926
aVwhen
p5927
aVour
p5928
aVvisitor
p5929
aVhad
p5930
aVleft
p5931
aVus
p5932
aV,
aV``
p5933
aVwhat
p5934
aVdo
p5935
aVyou
p5936
aVmake
p5937
aVof
p5938
aVit
p5939
aVall
p5940
aV?
aV''
p5941
aa(lp5942
V``
p5943
aVi
aVmake
p5944
aVnothing
p5945
aVof
p5946
aVit
p5947
aV,
aV''
p5948
aVi
aVanswered
p5949
aVfrankly
p5950
aV.
aa(lp5951
V``
p5952
aVit
p5953
aVis
p5954
aVa
aVmost
p5955
aVmysterious
p5956
aVbusiness
p5957
aV.
aV''
p5958
aa(lp5959
V``
p5960
aVas
p5961
aVa
aVrule
p5962
aV,
aV''
p5963
aVsaid
p5964
aVholmes
p5965
aV,
aV``
p5966
aVthe
p5967
aVmore
p5968
aVbizarre
p5969
aVa
aVthing
p5970
aVis
p5971
aVthe
p5972
aVless
p5973
aVmysterious
p5974
aVit
p5975
aVproves
p5976
aVto
p5977
aVbe
p5978
aV.
aa(lp5979
Vit
p5980
aVis
p5981
aVyour
p5982
aVcommonplace
p5983
aV,
aVfeatureless
p5984
aVcrimes
p5985
aVwhich
p5986
aVare
p5987
aVreally
p5988
aVpuzzling
p5989
aV,
aVjust
p5990
aVas
p5991
aVa
aVcommonplace
p5992
aVface
p5993
aVis
p5994
aVthe
p5995
aVmost
p5996
aVdifficult
p5997
aVto
p5998
aVidentify
p5999
aV.
aa(lp6000
Vbut
p6001
aVi
aVmust
p6002
aVbe
p6003
aVprompt
p6004
aVover
p6005
aVthis
p6006
aVmatter
p6007
aV.
aV''
p6008
aa(lp6009
V``
p6010
aVwhat
p6011
aVare
p6012
aVyou
p6013
aVgoing
p6014
aVto
p6015
aVdo
p6016
aV,
aVthen
p6017
aV?
aV''
p6018
aa(lp6019
Vi
aVasked
p6020
aV.
aa(lp6021
V``
p6022
aVto
p6023
aVsmoke
p6024
aV,
aV''
p6025
aVhe
p6026
aVanswered
p6027
aV.
aa(lp6028
V``
p6029
aVit
p6030
aVis
p6031
aVquite
p6032
aVa
aVthree
p6033
aVpipe
p6034
aVproblem
p6035
aV,
aVand
p6036
aVi
aVbeg
p6037
aVthat
p6038
aVyou
p6039
aVwo
p6040
aVn't
p6041
aVspeak
p6042
aVto
p6043
aVme
p6044
aVfor
p6045
aVfifty
p6046
aVminutes
p6047
aV.
aV''
p6048
aa(lp6049
Vhe
p6050
aVcurled
p6051
aVhimself
p6052
aVup
p6053
aVin
p6054
aVhis
p6055
aVchair
p6056
aV,
aVwith
p6057
aVhis
p6058
aVthin
p6059
aVknees
p6060
aVdrawn
p6061
aVup
p6062
aVto
p6063
aVhis
p6064
aVhawk-like
p6065
aVnose
p6066
aV,
aVand
p6067
aVthere
p6068
aVhe
p6069
aVsat
p6070
aVwith
p6071
aVhis
p6072
aVeyes
p6073
aVclosed
p6074
aVand
p6075
aVhis
p6076
aVblack
p6077
aVclay
p6078
aVpipe
p6079
aVthrusting
p6080
aVout
p6081
aVlike
p6082
aVthe
p6083
aVbill
p6084
aVof
p6085
aVsome
p6086
aVstrange
p6087
aVbird
p6088
aV.
aa(lp6089
Vi
aVhad
p6090
aVcome
p6091
aVto
p6092
aVthe
p6093
aVconclusion
p6094
aVthat
p6095
aVhe
p6096
aVhad
p6097
aVdropped
p6098
aVasleep
p6099
aV,
aVand
p6100
aVindeed
p6101
aVwas
p6102
aVnodding
p6103
aVmyself
p6104
aV,
aVwhen
p6105
aVhe
p6106
aVsuddenly
p6107
aVsprang
p6108
aVout
p6109
aVof
p6110
aVhis
p6111
aVchair
p6112
aVwith
p6113
aVthe
p6114
aVgesture
p6115
aVof
p6116
aVa
aVman
p6117
aVwho
p6118
aVhas
p6119
aVmade
p6120
aVup
p6121
aVhis
p6122
aVmind
p6123
aVand
p6124
aVput
p6125
aVhis
p6126
aVpipe
p6127
aVdown
p6128
aVupon
p6129
aVthe
p6130
aVmantelpiece
p6131
aV.
aa(lp6132
V``
p6133
aVsarasate
p6134
aVplays
p6135
aVat
p6136
aVthe
p6137
aVst.
p6138
aVjames
p6139
aV's
p6140
aVhall
p6141
aVthis
p6142
aVafternoon
p6143
aV,
aV''
p6144
aVhe
p6145
aVremarked
p6146
aV.
aa(lp6147
V``
p6148
aVwhat
p6149
aVdo
p6150
aVyou
p6151
aVthink
p6152
aV,
aVwatson
p6153
aV?
aa(lp6154
Vcould
p6155
aVyour
p6156
aVpatients
p6157
aVspare
p6158
aVyou
p6159
aVfor
p6160
aVa
aVfew
p6161
aVhours
p6162
aV?
aV''
p6163
aa(lp6164
V``
p6165
aVi
aVhave
p6166
aVnothing
p6167
aVto
p6168
aVdo
p6169
aVto-day
p6170
aV.
aa(lp6171
Vmy
p6172
aVpractice
p6173
aVis
p6174
aVnever
p6175
aVvery
p6176
aVabsorbing
p6177
aV.
aV''
p6178
aa(lp6179
V``
p6180
aVthen
p6181
aVput
p6182
aVon
p6183
aVyour
p6184
aVhat
p6185
aVand
p6186
aVcome
p6187
aV.
aa(lp6188
Vi
aVam
p6189
aVgoing
p6190
aVthrough
p6191
aVthe
p6192
aVcity
p6193
aVfirst
p6194
aV,
aVand
p6195
aVwe
p6196
aVcan
p6197
aVhave
p6198
aVsome
p6199
aVlunch
p6200
aVon
p6201
aVthe
p6202
aVway
p6203
aV.
aa(lp6204
Vi
aVobserve
p6205
aVthat
p6206
aVthere
p6207
aVis
p6208
aVa
aVgood
p6209
aVdeal
p6210
aVof
p6211
aVgerman
p6212
aVmusic
p6213
aVon
p6214
aVthe
p6215
aVprogramme
p6216
aV,
aVwhich
p6217
aVis
p6218
aVrather
p6219
aVmore
p6220
aVto
p6221
aVmy
p6222
aVtaste
p6223
aVthan
p6224
aVitalian
p6225
aVor
p6226
aVfrench
p6227
aV.
aa(lp6228
Vit
p6229
aVis
p6230
aVintrospective
p6231
aV,
aVand
p6232
aVi
aVwant
p6233
aVto
p6234
aVintrospect
p6235
aV.
aa(lp6236
Vcome
p6237
aValong
p6238
aV!
aV''
p6239
aa(lp6240
Vwe
p6241
aVtravelled
p6242
aVby
p6243
aVthe
p6244
aVunderground
p6245
aVas
p6246
aVfar
p6247
aVas
p6248
aValdersgate
p6249
aV;
aVand
p6250
aVa
aVshort
p6251
aVwalk
p6252
aVtook
p6253
aVus
p6254
aVto
p6255
aVsaxe-coburg
p6256
aVsquare
p6257
aV,
aVthe
p6258
aVscene
p6259
aVof
p6260
aVthe
p6261
aVsingular
p6262
aVstory
p6263
aVwhich
p6264
aVwe
p6265
aVhad
p6266
aVlistened
p6267
aVto
p6268
aVin
p6269
aVthe
p6270
aVmorning
p6271
aV.
aa(lp6272
Vit
p6273
aVwas
p6274
aVa
aVpoky
p6275
aV,
aVlittle
p6276
aV,
aVshabby-genteel
p6277
aVplace
p6278
aV,
aVwhere
p6279
aVfour
p6280
aVlines
p6281
aVof
p6282
aVdingy
p6283
aVtwo-storied
p6284
aVbrick
p6285
aVhouses
p6286
aVlooked
p6287
aVout
p6288
aVinto
p6289
aVa
aVsmall
p6290
aVrailed-in
p6291
aVenclosure
p6292
aV,
aVwhere
p6293
aVa
aVlawn
p6294
aVof
p6295
aVweedy
p6296
aVgrass
p6297
aVand
p6298
aVa
aVfew
p6299
aVclumps
p6300
aVof
p6301
aVfaded
p6302
aVlaurel-bushes
p6303
aVmade
p6304
aVa
aVhard
p6305
aVfight
p6306
aVagainst
p6307
aVa
aVsmoke-laden
p6308
aVand
p6309
aVuncongenial
p6310
aVatmosphere
p6311
aV.
aa(lp6312
Vthree
p6313
aVgilt
p6314
aVballs
p6315
aVand
p6316
aVa
aVbrown
p6317
aVboard
p6318
aVwith
p6319
aV``
p6320
aVjabez
p6321
aVwilson
p6322
aV''
p6323
aVin
p6324
aVwhite
p6325
aVletters
p6326
aV,
aVupon
p6327
aVa
aVcorner
p6328
aVhouse
p6329
aV,
aVannounced
p6330
aVthe
p6331
aVplace
p6332
aVwhere
p6333
aVour
p6334
aVred-headed
p6335
aVclient
p6336
aVcarried
p6337
aVon
p6338
aVhis
p6339
aVbusiness
p6340
aV.
aa(lp6341
Vsherlock
p6342
aVholmes
p6343
aVstopped
p6344
aVin
p6345
aVfront
p6346
aVof
p6347
aVit
p6348
aVwith
p6349
aVhis
p6350
aVhead
p6351
aVon
p6352
aVone
p6353
aVside
p6354
aVand
p6355
aVlooked
p6356
aVit
p6357
aVall
p6358
aVover
p6359
aV,
aVwith
p6360
aVhis
p6361
aVeyes
p6362
aVshining
p6363
aVbrightly
p6364
aVbetween
p6365
aVpuckered
p6366
aVlids
p6367
aV.
aa(lp6368
Vthen
p6369
aVhe
p6370
aVwalked
p6371
aVslowly
p6372
aVup
p6373
aVthe
p6374
aVstreet
p6375
aV,
aVand
p6376
aVthen
p6377
aVdown
p6378
aVagain
p6379
aVto
p6380
aVthe
p6381
aVcorner
p6382
aV,
aVstill
p6383
aVlooking
p6384
aVkeenly
p6385
aVat
p6386
aVthe
p6387
aVhouses
p6388
aV.
aa(lp6389
Vfinally
p6390
aVhe
p6391
aVreturned
p6392
aVto
p6393
aVthe
p6394
aVpawnbroker
p6395
aV's
p6396
aV,
aVand
p6397
aV,
aVhaving
p6398
aVthumped
p6399
aVvigorously
p6400
aVupon
p6401
aVthe
p6402
aVpavement
p6403
aVwith
p6404
aVhis
p6405
aVstick
p6406
aVtwo
p6407
aVor
p6408
aVthree
p6409
aVtimes
p6410
aV,
aVhe
p6411
aVwent
p6412
aVup
p6413
aVto
p6414
aVthe
p6415
aVdoor
p6416
aVand
p6417
aVknocked
p6418
aV.
aa(lp6419
Vit
p6420
aVwas
p6421
aVinstantly
p6422
aVopened
p6423
aVby
p6424
aVa
aVbright-looking
p6425
aV,
aVclean-shaven
p6426
aVyoung
p6427
aVfellow
p6428
aV,
aVwho
p6429
aVasked
p6430
aVhim
p6431
aVto
p6432
aVstep
p6433
aVin
p6434
aV.
aa(lp6435
V``
p6436
aVthank
p6437
aVyou
p6438
aV,
aV''
p6439
aVsaid
p6440
aVholmes
p6441
aV,
aV``
p6442
aVi
aVonly
p6443
aVwished
p6444
aVto
p6445
aVask
p6446
aVyou
p6447
aVhow
p6448
aVyou
p6449
aVwould
p6450
aVgo
p6451
aVfrom
p6452
aVhere
p6453
aVto
p6454
aVthe
p6455
aVstrand
p6456
aV.
aV''
p6457
aa(lp6458
V``
p6459
aVthird
p6460
aVright
p6461
aV,
aVfourth
p6462
aVleft
p6463
aV,
aV''
p6464
aVanswered
p6465
aVthe
p6466
aVassistant
p6467
aVpromptly
p6468
aV,
aVclosing
p6469
aVthe
p6470
aVdoor
p6471
aV.
aa(lp6472
V``
p6473
aVsmart
p6474
aVfellow
p6475
aV,
aVthat
p6476
aV,
aV''
p6477
aVobserved
p6478
aVholmes
p6479
aVas
p6480
aVwe
p6481
aVwalked
p6482
aVaway
p6483
aV.
aa(lp6484
V``
p6485
aVhe
p6486
aVis
p6487
aV,
aVin
p6488
aVmy
p6489
aVjudgment
p6490
aV.
aa(lp6491
Vthe
p6492
aVfourth
p6493
aVsmartest
p6494
aVman
p6495
aVin
p6496
aVlondon
p6497
aV,
aVand
p6498
aVfor
p6499
aVdaring
p6500
aVi
aVam
p6501
aVnot
p6502
aVsure
p6503
aVthat
p6504
aVhe
p6505
aVhas
p6506
aVnot
p6507
aVa
aVclaim
p6508
aVto
p6509
aVbe
p6510
aVthird
p6511
aV.
aa(lp6512
Vi
aVhave
p6513
aVknown
p6514
aVsomething
p6515
aVof
p6516
aVhim
p6517
aVbefore
p6518
aV.
aV''
p6519
aa(lp6520
V``
p6521
aVevidently
p6522
aV,
aV''
p6523
aVsaid
p6524
aVi
aV,
aV``
p6525
aVmr.
p6526
aVwilson
p6527
aV's
p6528
aVassistant
p6529
aVcounts
p6530
aVfor
p6531
aVa
aVgood
p6532
aVdeal
p6533
aVin
p6534
aVthis
p6535
aVmystery
p6536
aVof
p6537
aVthe
p6538
aVred-headed
p6539
aVleague
p6540
aV.
aa(lp6541
Vi
aVam
p6542
aVsure
p6543
aVthat
p6544
aVyou
p6545
aVinquired
p6546
aVyour
p6547
aVway
p6548
aVmerely
p6549
aVin
p6550
aVorder
p6551
aVthat
p6552
aVyou
p6553
aVmight
p6554
aVsee
p6555
aVhim
p6556
aV.
aV''
p6557
aa(lp6558
V``
p6559
aVnot
p6560
aVhim
p6561
aV.
aV''
p6562
aa(lp6563
V``
p6564
aVwhat
p6565
aVthen
p6566
aV?
aV''
p6567
aa(lp6568
V``
p6569
aVthe
p6570
aVknees
p6571
aVof
p6572
aVhis
p6573
aVtrousers
p6574
aV.
aV''
p6575
aa(lp6576
V``
p6577
aVand
p6578
aVwhat
p6579
aVdid
p6580
aVyou
p6581
aVsee
p6582
aV?
aV''
p6583
aa(lp6584
V``
p6585
aVwhat
p6586
aVi
aVexpected
p6587
aVto
p6588
aVsee
p6589
aV.
aV''
p6590
aa(lp6591
V``
p6592
aVwhy
p6593
aVdid
p6594
aVyou
p6595
aVbeat
p6596
aVthe
p6597
aVpavement
p6598
aV?
aV''
p6599
aa(lp6600
V``
p6601
aVmy
p6602
aVdear
p6603
aVdoctor
p6604
aV,
aVthis
p6605
aVis
p6606
aVa
aVtime
p6607
aVfor
p6608
aVobservation
p6609
aV,
aVnot
p6610
aVfor
p6611
aVtalk
p6612
aV.
aa(lp6613
Vwe
p6614
aVare
p6615
aVspies
p6616
aVin
p6617
aVan
p6618
aVenemy
p6619
aV's
p6620
aVcountry
p6621
aV.
aa(lp6622
Vwe
p6623
aVknow
p6624
aVsomething
p6625
aVof
p6626
aVsaxe-coburg
p6627
aVsquare
p6628
aV.
aa(lp6629
Vlet
p6630
aVus
p6631
aVnow
p6632
aVexplore
p6633
aVthe
p6634
aVparts
p6635
aVwhich
p6636
aVlie
p6637
aVbehind
p6638
aVit
p6639
aV.
aV''
p6640
aa(lp6641
Vthe
p6642
aVroad
p6643
aVin
p6644
aVwhich
p6645
aVwe
p6646
aVfound
p6647
aVourselves
p6648
aVas
p6649
aVwe
p6650
aVturned
p6651
aVround
p6652
aVthe
p6653
aVcorner
p6654
aVfrom
p6655
aVthe
p6656
aVretired
p6657
aVsaxe-coburg
p6658
aVsquare
p6659
aVpresented
p6660
aVas
p6661
aVgreat
p6662
aVa
aVcontrast
p6663
aVto
p6664
aVit
p6665
aVas
p6666
aVthe
p6667
aVfront
p6668
aVof
p6669
aVa
aVpicture
p6670
aVdoes
p6671
aVto
p6672
aVthe
p6673
aVback
p6674
aV.
aa(lp6675
Vit
p6676
aVwas
p6677
aVone
p6678
aVof
p6679
aVthe
p6680
aVmain
p6681
aVarteries
p6682
aVwhich
p6683
aVconveyed
p6684
aVthe
p6685
aVtraffic
p6686
aVof
p6687
aVthe
p6688
aVcity
p6689
aVto
p6690
aVthe
p6691
aVnorth
p6692
aVand
p6693
aVwest
p6694
aV.
aa(lp6695
Vthe
p6696
aVroadway
p6697
aVwas
p6698
aVblocked
p6699
aVwith
p6700
aVthe
p6701
aVimmense
p6702
aVstream
p6703
aVof
p6704
aVcommerce
p6705
aVflowing
p6706
aVin
p6707
aVa
aVdouble
p6708
aVtide
p6709
aVinward
p6710
aVand
p6711
aVoutward
p6712
aV,
aVwhile
p6713
aVthe
p6714
aVfootpaths
p6715
aVwere
p6716
aVblack
p6717
aVwith
p6718
aVthe
p6719
aVhurrying
p6720
aVswarm
p6721
aVof
p6722
aVpedestrians
p6723
aV.
aa(lp6724
Vit
p6725
aVwas
p6726
aVdifficult
p6727
aVto
p6728
aVrealize
p6729
aVas
p6730
aVwe
p6731
aVlooked
p6732
aVat
p6733
aVthe
p6734
aVline
p6735
aVof
p6736
aVfine
p6737
aVshops
p6738
aVand
p6739
aVstately
p6740
aVbusiness
p6741
aVpremises
p6742
aVthat
p6743
aVthey
p6744
aVreally
p6745
aVabutted
p6746
aVon
p6747
aVthe
p6748
aVother
p6749
aVside
p6750
aVupon
p6751
aVthe
p6752
aVfaded
p6753
aVand
p6754
aVstagnant
p6755
aVsquare
p6756
aVwhich
p6757
aVwe
p6758
aVhad
p6759
aVjust
p6760
aVquitted
p6761
aV.
aa(lp6762
V``
p6763
aVlet
p6764
aVme
p6765
aVsee
p6766
aV,
aV''
p6767
aVsaid
p6768
aVholmes
p6769
aV,
aVstanding
p6770
aVat
p6771
aVthe
p6772
aVcorner
p6773
aVand
p6774
aVglancing
p6775
aValong
p6776
aVthe
p6777
aVline
p6778
aV,
aV``
p6779
aVi
aVshould
p6780
aVlike
p6781
aVjust
p6782
aVto
p6783
aVremember
p6784
aVthe
p6785
aVorder
p6786
aVof
p6787
aVthe
p6788
aVhouses
p6789
aVhere
p6790
aV.
aa(lp6791
Vit
p6792
aVis
p6793
aVa
aVhobby
p6794
aVof
p6795
aVmine
p6796
aVto
p6797
aVhave
p6798
aVan
p6799
aVexact
p6800
aVknowledge
p6801
aVof
p6802
aVlondon
p6803
aV.
aa(lp6804
Vthere
p6805
aVis
p6806
aVmortimer
p6807
aV's
p6808
aV,
aVthe
p6809
aVtobacconist
p6810
aV,
aVthe
p6811
aVlittle
p6812
aVnewspaper
p6813
aVshop
p6814
aV,
aVthe
p6815
aVcoburg
p6816
aVbranch
p6817
aVof
p6818
aVthe
p6819
aVcity
p6820
aVand
p6821
aVsuburban
p6822
aVbank
p6823
aV,
aVthe
p6824
aVvegetarian
p6825
aVrestaurant
p6826
aV,
aVand
p6827
aVmcfarlane
p6828
aV's
p6829
aVcarriage-building
p6830
aVdepot
p6831
aV.
aa(lp6832
Vthat
p6833
aVcarries
p6834
aVus
p6835
aVright
p6836
aVon
p6837
aVto
p6838
aVthe
p6839
aVother
p6840
aVblock
p6841
aV.
aa(lp6842
Vand
p6843
aVnow
p6844
aV,
aVdoctor
p6845
aV,
aVwe
p6846
aV've
p6847
aVdone
p6848
aVour
p6849
aVwork
p6850
aV,
aVso
p6851
aVit
p6852
aV's
p6853
aVtime
p6854
aVwe
p6855
aVhad
p6856
aVsome
p6857
aVplay
p6858
aV.
aa(lp6859
Va
aVsandwich
p6860
aVand
p6861
aVa
aVcup
p6862
aVof
p6863
aVcoffee
p6864
aV,
aVand
p6865
aVthen
p6866
aVoff
p6867
aVto
p6868
aVviolin-land
p6869
aV,
aVwhere
p6870
aVall
p6871
aVis
p6872
aVsweetness
p6873
aVand
p6874
aVdelicacy
p6875
aVand
p6876
aVharmony
p6877
aV,
aVand
p6878
aVthere
p6879
aVare
p6880
aVno
p6881
aVred-headed
p6882
aVclients
p6883
aVto
p6884
aVvex
p6885
aVus
p6886
aVwith
p6887
aVtheir
p6888
aVconundrums
p6889
aV.
aV''
p6890
aa(lp6891
Vmy
p6892
aVfriend
p6893
aVwas
p6894
aVan
p6895
aVenthusiastic
p6896
aVmusician
p6897
aV,
aVbeing
p6898
aVhimself
p6899
aVnot
p6900
aVonly
p6901
aVa
aVvery
p6902
aVcapable
p6903
aVperfomer
p6904
aVbut
p6905
aVa
aVcomposer
p6906
aVof
p6907
aVno
p6908
aVordinary
p6909
aVmerit
p6910
aV.
aa(lp6911
Vall
p6912
aVthe
p6913
aVafternoon
p6914
aVhe
p6915
aVsat
p6916
aVin
p6917
aVthe
p6918
aVstalls
p6919
aVwrapped
p6920
aVin
p6921
aVthe
p6922
aVmost
p6923
aVperfect
p6924
aVhappiness
p6925
aV,
aVgently
p6926
aVwaving
p6927
aVhis
p6928
aVlong
p6929
aV,
aVthin
p6930
aVfingers
p6931
aVin
p6932
aVtime
p6933
aVto
p6934
aVthe
p6935
aVmusic
p6936
aV,
aVwhile
p6937
aVhis
p6938
aVgently
p6939
aVsmiling
p6940
aVface
p6941
aVand
p6942
aVhis
p6943
aVlanguid
p6944
aV,
aVdreamy
p6945
aVeyes
p6946
aVwere
p6947
aVas
p6948
aVunlike
p6949
aVthose
p6950
aVof
p6951
aVholmes
p6952
aV,
aVthe
p6953
aVsleuth-hound
p6954
aV,
aVholmes
p6955
aVthe
p6956
aVrelentless
p6957
aV,
aVkeen-witted
p6958
aV,
aVready-handed
p6959
aVcriminal
p6960
aVagent
p6961
aV,
aVas
p6962
aVit
p6963
aVwas
p6964
aVpossible
p6965
aVto
p6966
aVconceive
p6967
aV.
aa(lp6968
Vin
p6969
aVhis
p6970
aVsingular
p6971
aVcharacter
p6972
aVthe
p6973
aVdual
p6974
aVnature
p6975
aValternately
p6976
aVasserted
p6977
aVitself
p6978
aV,
aVand
p6979
aVhis
p6980
aVextreme
p6981
aVexactness
p6982
aVand
p6983
aVastuteness
p6984
aVrepresented
p6985
aV,
aVas
p6986
aVi
aVhave
p6987
aVoften
p6988
aVthought
p6989
aV,
aVthe
p6990
aVreaction
p6991
aVagainst
p6992
aVthe
p6993
aVpoetic
p6994
aVand
p6995
aVcontemplative
p6996
aVmood
p6997
aVwhich
p6998
aVoccasionally
p6999
aVpredominated
p7000
aVin
p7001
aVhim
p7002
aV.
aa(lp7003
Vthe
p7004
aVswing
p7005
aVof
p7006
aVhis
p7007
aVnature
p7008
aVtook
p7009
aVhim
p7010
aVfrom
p7011
aVextreme
p7012
aVlanguor
p7013
aVto
p7014
aVdevouring
p7015
aVenergy
p7016
aV;
aVand
p7017
aV,
aVas
p7018
aVi
aVknew
p7019
aVwell
p7020
aV,
aVhe
p7021
aVwas
p7022
aVnever
p7023
aVso
p7024
aVtruly
p7025
aVformidable
p7026
aVas
p7027
aVwhen
p7028
aV,
aVfor
p7029
aVdays
p7030
aVon
p7031
aVend
p7032
aV,
aVhe
p7033
aVhad
p7034
aVbeen
p7035
aVlounging
p7036
aVin
p7037
aVhis
p7038
aVarmchair
p7039
aVamid
p7040
aVhis
p7041
aVimprovisations
p7042
aVand
p7043
aVhis
p7044
aVblack-letter
p7045
aVeditions
p7046
aV.
aa(lp7047
Vthen
p7048
aVit
p7049
aVwas
p7050
aVthat
p7051
aVthe
p7052
aVlust
p7053
aVof
p7054
aVthe
p7055
aVchase
p7056
aVwould
p7057
aVsuddenly
p7058
aVcome
p7059
aVupon
p7060
aVhim
p7061
aV,
aVand
p7062
aVthat
p7063
aVhis
p7064
aVbrilliant
p7065
aVreasoning
p7066
aVpower
p7067
aVwould
p7068
aVrise
p7069
aVto
p7070
aVthe
p7071
aVlevel
p7072
aVof
p7073
aVintuition
p7074
aV,
aVuntil
p7075
aVthose
p7076
aVwho
p7077
aVwere
p7078
aVunacquainted
p7079
aVwith
p7080
aVhis
p7081
aVmethods
p7082
aVwould
p7083
aVlook
p7084
aVaskance
p7085
aVat
p7086
aVhim
p7087
aVas
p7088
aVon
p7089
aVa
aVman
p7090
aVwhose
p7091
aVknowledge
p7092
aVwas
p7093
aVnot
p7094
aVthat
p7095
aVof
p7096
aVother
p7097
aVmortals
p7098
aV.
aa(lp7099
Vwhen
p7100
aVi
aVsaw
p7101
aVhim
p7102
aVthat
p7103
aVafternoon
p7104
aVso
p7105
aVenwrapped
p7106
aVin
p7107
aVthe
p7108
aVmusic
p7109
aVat
p7110
aVst.
p7111
aVjames
p7112
aV's
p7113
aVhall
p7114
aVi
aVfelt
p7115
aVthat
p7116
aVan
p7117
aVevil
p7118
aVtime
p7119
aVmight
p7120
aVbe
p7121
aVcoming
p7122
aVupon
p7123
aVthose
p7124
aVwhom
p7125
aVhe
p7126
aVhad
p7127
aVset
p7128
aVhimself
p7129
aVto
p7130
aVhunt
p7131
aVdown
p7132
aV.
aa(lp7133
V``
p7134
aVyou
p7135
aVwant
p7136
aVto
p7137
aVgo
p7138
aVhome
p7139
aV,
aVno
p7140
aVdoubt
p7141
aV,
aVdoctor
p7142
aV,
aV''
p7143
aVhe
p7144
aVremarked
p7145
aVas
p7146
aVwe
p7147
aVemerged
p7148
aV.
aa(lp7149
V``
p7150
aVyes
p7151
aV,
aVit
p7152
aVwould
p7153
aVbe
p7154
aVas
p7155
aVwell
p7156
aV.
aV''
p7157
aa(lp7158
V``
p7159
aVand
p7160
aVi
aVhave
p7161
aVsome
p7162
aVbusiness
p7163
aVto
p7164
aVdo
p7165
aVwhich
p7166
aVwill
p7167
aVtake
p7168
aVsome
p7169
aVhours
p7170
aV.
aa(lp7171
Vthis
p7172
aVbusiness
p7173
aVat
p7174
aVcoburg
p7175
aVsquare
p7176
aVis
p7177
aVserious
p7178
aV.
aV''
p7179
aa(lp7180
V``
p7181
aVwhy
p7182
aVserious
p7183
aV?
aV''
p7184
aa(lp7185
V``
p7186
aVa
aVconsiderable
p7187
aVcrime
p7188
aVis
p7189
aVin
p7190
aVcontemplation
p7191
aV.
aa(lp7192
Vi
aVhave
p7193
aVevery
p7194
aVreason
p7195
aVto
p7196
aVbelieve
p7197
aVthat
p7198
aVwe
p7199
aVshall
p7200
aVbe
p7201
aVin
p7202
aVtime
p7203
aVto
p7204
aVstop
p7205
aVit
p7206
aV.
aa(lp7207
Vbut
p7208
aVto-day
p7209
aVbeing
p7210
aVsaturday
p7211
aVrather
p7212
aVcomplicates
p7213
aVmatters
p7214
aV.
aa(lp7215
Vi
aVshall
p7216
aVwant
p7217
aVyour
p7218
aVhelp
p7219
aVto-night
p7220
aV.
aV''
p7221
aa(lp7222
V``
p7223
aVat
p7224
aVwhat
p7225
aVtime
p7226
aV?
aV''
p7227
aa(lp7228
V``
p7229
aVten
p7230
aVwill
p7231
aVbe
p7232
aVearly
p7233
aVenough
p7234
aV.
aV''
p7235
aa(lp7236
V``
p7237
aVi
aVshall
p7238
aVbe
p7239
aVat
p7240
aVbaker
p7241
aVstreet
p7242
aVat
p7243
aVten
p7244
aV.
aV''
p7245
aa(lp7246
V``
p7247
aVvery
p7248
aVwell
p7249
aV.
aa(lp7250
Vand
p7251
aV,
aVi
aVsay
p7252
aV,
aVdoctor
p7253
aV,
aVthere
p7254
aVmay
p7255
aVbe
p7256
aVsome
p7257
aVlittle
p7258
aVdanger
p7259
aV,
aVso
p7260
aVkindly
p7261
aVput
p7262
aVyour
p7263
aVarmy
p7264
aVrevolver
p7265
aVin
p7266
aVyour
p7267
aVpocket
p7268
aV.
aV''
p7269
aa(lp7270
Vhe
p7271
aVwaved
p7272
aVhis
p7273
aVhand
p7274
aV,
aVturned
p7275
aVon
p7276
aVhis
p7277
aVheel
p7278
aV,
aVand
p7279
aVdisappeared
p7280
aVin
p7281
aVan
p7282
aVinstant
p7283
aVamong
p7284
aVthe
p7285
aVcrowd
p7286
aV.
aa(lp7287
Vi
aVtrust
p7288
aVthat
p7289
aVi
aVam
p7290
aVnot
p7291
aVmore
p7292
aVdense
p7293
aVthan
p7294
aVmy
p7295
aVneighbors
p7296
aV,
aVbut
p7297
aVi
aVwas
p7298
aValways
p7299
aVoppressed
p7300
aVwith
p7301
aVa
aVsense
p7302
aVof
p7303
aVmy
p7304
aVown
p7305
aVstupidity
p7306
aVin
p7307
aVmy
p7308
aVdealings
p7309
aVwith
p7310
aVsherlock
p7311
aVholmes
p7312
aV.
aa(lp7313
Vhere
p7314
aVi
aVhad
p7315
aVheard
p7316
aVwhat
p7317
aVhe
p7318
aVhad
p7319
aVheard
p7320
aV,
aVi
aVhad
p7321
aVseen
p7322
aVwhat
p7323
aVhe
p7324
aVhad
p7325
aVseen
p7326
aV,
aVand
p7327
aVyet
p7328
aVfrom
p7329
aVhis
p7330
aVwords
p7331
aVit
p7332
aVwas
p7333
aVevident
p7334
aVthat
p7335
aVhe
p7336
aVsaw
p7337
aVclearly
p7338
aVnot
p7339
aVonly
p7340
aVwhat
p7341
aVhad
p7342
aVhappened
p7343
aVbut
p7344
aVwhat
p7345
aVwas
p7346
aVabout
p7347
aVto
p7348
aVhappen
p7349
aV,
aVwhile
p7350
aVto
p7351
aVme
p7352
aVthe
p7353
aVwhole
p7354
aVbusiness
p7355
aVwas
p7356
aVstill
p7357
aVconfused
p7358
aVand
p7359
aVgrotesque
p7360
aV.
aa(lp7361
Vas
p7362
aVi
aVdrove
p7363
aVhome
p7364
aVto
p7365
aVmy
p7366
aVhouse
p7367
aVin
p7368
aVkensington
p7369
aVi
aVthought
p7370
aVover
p7371
aVit
p7372
aVall
p7373
aV,
aVfrom
p7374
aVthe
p7375
aVextraordinary
p7376
aVstory
p7377
aVof
p7378
aVthe
p7379
aVred-headed
p7380
aVcopier
p7381
aVof
p7382
aVthe
p7383
aVencyclopaedia
p7384
aVdown
p7385
aVto
p7386
aVthe
p7387
aVvisit
p7388
aVto
p7389
aVsaxe-coburg
p7390
aVsquare
p7391
aV,
aVand
p7392
aVthe
p7393
aVominous
p7394
aVwords
p7395
aVwith
p7396
aVwhich
p7397
aVhe
p7398
aVhad
p7399
aVparted
p7400
aVfrom
p7401
aVme
p7402
aV.
aa(lp7403
Vwhat
p7404
aVwas
p7405
aVthis
p7406
aVnocturnal
p7407
aVexpedition
p7408
aV,
aVand
p7409
aVwhy
p7410
aVshould
p7411
aVi
aVgo
p7412
aVarmed
p7413
aV?
aa(lp7414
Vwhere
p7415
aVwere
p7416
aVwe
p7417
aVgoing
p7418
aV,
aVand
p7419
aVwhat
p7420
aVwere
p7421
aVwe
p7422
aVto
p7423
aVdo
p7424
aV?
aa(lp7425
Vi
aVhad
p7426
aVthe
p7427
aVhint
p7428
aVfrom
p7429
aVholmes
p7430
aVthat
p7431
aVthis
p7432
aVsmooth-faced
p7433
aVpawnbroker
p7434
aV's
p7435
aVassistant
p7436
aVwas
p7437
aVa
aVformidable
p7438
aVman
p7439
aV--
p7440
aVa
aVman
p7441
aVwho
p7442
aVmight
p7443
aVplay
p7444
aVa
aVdeep
p7445
aVgame
p7446
aV.
aa(lp7447
Vi
aVtried
p7448
aVto
p7449
aVpuzzle
p7450
aVit
p7451
aVout
p7452
aV,
aVbut
p7453
aVgave
p7454
aVit
p7455
aVup
p7456
aVin
p7457
aVdespair
p7458
aVand
p7459
aVset
p7460
aVthe
p7461
aVmatter
p7462
aVaside
p7463
aVuntil
p7464
aVnight
p7465
aVshould
p7466
aVbring
p7467
aVan
p7468
aVexplanation
p7469
aV.
aa(lp7470
Vit
p7471
aVwas
p7472
aVa
aVquarter-past
p7473
aVnine
p7474
aVwhen
p7475
aVi
aVstarted
p7476
aVfrom
p7477
aVhome
p7478
aVand
p7479
aVmade
p7480
aVmy
p7481
aVway
p7482
aVacross
p7483
aVthe
p7484
aVpark
p7485
aV,
aVand
p7486
aVso
p7487
aVthrough
p7488
aVoxford
p7489
aVstreet
p7490
aVto
p7491
aVbaker
p7492
aVstreet
p7493
aV.
aa(lp7494
Vtwo
p7495
aVhansoms
p7496
aVwere
p7497
aVstanding
p7498
aVat
p7499
aVthe
p7500
aVdoor
p7501
aV,
aVand
p7502
aVas
p7503
aVi
aVentered
p7504
aVthe
p7505
aVpassage
p7506
aVi
aVheard
p7507
aVthe
p7508
aVsound
p7509
aVof
p7510
aVvoices
p7511
aVfrom
p7512
aVabove
p7513
aV.
aa(lp7514
Von
p7515
aVentering
p7516
aVhis
p7517
aVroom
p7518
aVi
aVfound
p7519
aVholmes
p7520
aVin
p7521
aVanimated
p7522
aVconversation
p7523
aVwith
p7524
aVtwo
p7525
aVmen
p7526
aV,
aVone
p7527
aVof
p7528
aVwhom
p7529
aVi
aVrecognized
p7530
aVas
p7531
aVpeter
p7532
aVjones
p7533
aV,
aVthe
p7534
aVofficial
p7535
aVpolice
p7536
aVagent
p7537
aV,
aVwhile
p7538
aVthe
p7539
aVother
p7540
aVwas
p7541
aVa
aVlong
p7542
aV,
aVthin
p7543
aV,
aVsad-faced
p7544
aVman
p7545
aV,
aVwith
p7546
aVa
aVvery
p7547
aVshiny
p7548
aVhat
p7549
aVand
p7550
aVoppressively
p7551
aVrespectable
p7552
aVfrock-coat
p7553
aV.
aa(lp7554
V``
p7555
aVha
p7556
aV!
aa(lp7557
Vour
p7558
aVparty
p7559
aVis
p7560
aVcomplete
p7561
aV,
aV''
p7562
aVsaid
p7563
aVholmes
p7564
aV,
aVbuttoning
p7565
aVup
p7566
aVhis
p7567
aVpeajacket
p7568
aVand
p7569
aVtaking
p7570
aVhis
p7571
aVheavy
p7572
aVhunting
p7573
aVcrop
p7574
aVfrom
p7575
aVthe
p7576
aVrack
p7577
aV.
aa(lp7578
V``
p7579
aVwatson
p7580
aV,
aVi
aVthink
p7581
aVyou
p7582
aVknow
p7583
aVmr.
p7584
aVjones
p7585
aV,
aVof
p7586
aVscotland
p7587
aVyard
p7588
aV?
aa(lp7589
Vlet
p7590
aVme
p7591
aVintroduce
p7592
aVyou
p7593
aVto
p7594
aVmr.
p7595
aVmerryweather
p7596
aV,
aVwho
p7597
aVis
p7598
aVto
p7599
aVbe
p7600
aVour
p7601
aVcompanion
p7602
aVin
p7603
aVto-night
p7604
aV's
p7605
aVadventure
p7606
aV.
aV''
p7607
aa(lp7608
V``
p7609
aVwe
p7610
aV're
p7611
aVhunting
p7612
aVin
p7613
aVcouples
p7614
aVagain
p7615
aV,
aVdoctor
p7616
aV,
aVyou
p7617
aVsee
p7618
aV,
aV''
p7619
aVsaid
p7620
aVjones
p7621
aVin
p7622
aVhis
p7623
aVconsequential
p7624
aVway
p7625
aV.
aa(lp7626
V``
p7627
aVour
p7628
aVfriend
p7629
aVhere
p7630
aVis
p7631
aVa
aVwonderful
p7632
aVman
p7633
aVfor
p7634
aVstarting
p7635
aVa
aVchase
p7636
aV.
aa(lp7637
Vall
p7638
aVhe
p7639
aVwants
p7640
aVis
p7641
aVan
p7642
aVold
p7643
aVdog
p7644
aVto
p7645
aVhelp
p7646
aVhim
p7647
aVto
p7648
aVdo
p7649
aVthe
p7650
aVrunning
p7651
aVdown
p7652
aV.
aV''
p7653
aa(lp7654
V``
p7655
aVi
aVhope
p7656
aVa
aVwild
p7657
aVgoose
p7658
aVmay
p7659
aVnot
p7660
aVprove
p7661
aVto
p7662
aVbe
p7663
aVthe
p7664
aVend
p7665
aVof
p7666
aVour
p7667
aVchase
p7668
aV,
aV''
p7669
aVobserved
p7670
aVmr.
p7671
aVmerryweather
p7672
aVgloomily
p7673
aV.
aa(lp7674
V``
p7675
aVyou
p7676
aVmay
p7677
aVplace
p7678
aVconsiderable
p7679
aVconfidence
p7680
aVin
p7681
aVmr.
p7682
aVholmes
p7683
aV,
aVsir
p7684
aV,
aV''
p7685
aVsaid
p7686
aVthe
p7687
aVpolice
p7688
aVagent
p7689
aVloftily
p7690
aV.
aa(lp7691
V``
p7692
aVhe
p7693
aVhas
p7694
aVhis
p7695
aVown
p7696
aVlittle
p7697
aVmethods
p7698
aV,
aVwhich
p7699
aVare
p7700
aV,
aVif
p7701
aVhe
p7702
aVwo
p7703
aVn't
p7704
aVmind
p7705
aVmy
p7706
aVsaying
p7707
aVso
p7708
aV,
aVjust
p7709
aVa
aVlittle
p7710
aVtoo
p7711
aVtheoretical
p7712
aVand
p7713
aVfantastic
p7714
aV,
aVbut
p7715
aVhe
p7716
aVhas
p7717
aVthe
p7718
aVmakings
p7719
aVof
p7720
aVa
aVdetective
p7721
aVin
p7722
aVhim
p7723
aV.
aa(lp7724
Vit
p7725
aVis
p7726
aVnot
p7727
aVtoo
p7728
aVmuch
p7729
aVto
p7730
aVsay
p7731
aVthat
p7732
aVonce
p7733
aVor
p7734
aVtwice
p7735
aV,
aVas
p7736
aVin
p7737
aVthat
p7738
aVbusiness
p7739
aVof
p7740
aVthe
p7741
aVsholto
p7742
aVmurder
p7743
aVand
p7744
aVthe
p7745
aVagra
p7746
aVtreasure
p7747
aV,
aVhe
p7748
aVhas
p7749
aVbeen
p7750
aVmore
p7751
aVnearly
p7752
aVcorrect
p7753
aVthan
p7754
aVthe
p7755
aVofficial
p7756
aVforce
p7757
aV.
aV''
p7758
aa(lp7759
V``
p7760
aVoh
p7761
aV,
aVif
p7762
aVyou
p7763
aVsay
p7764
aVso
p7765
aV,
aVmr.
p7766
aVjones
p7767
aV,
aVit
p7768
aVis
p7769
aVall
p7770
aVright
p7771
aV,
aV''
p7772
aVsaid
p7773
aVthe
p7774
aVstranger
p7775
aVwith
p7776
aVdeference
p7777
aV.
aa(lp7778
V``
p7779
aVstill
p7780
aV,
aVi
aVconfess
p7781
aVthat
p7782
aVi
aVmiss
p7783
aVmy
p7784
aVrubber
p7785
aV.
aa(lp7786
Vit
p7787
aVis
p7788
aVthe
p7789
aVfirst
p7790
aVsaturday
p7791
aVnight
p7792
aVfor
p7793
aVseven-and-twenty
p7794
aVyears
p7795
aVthat
p7796
aVi
aVhave
p7797
aVnot
p7798
aVhad
p7799
aVmy
p7800
aVrubber
p7801
aV.
aV''
p7802
aa(lp7803
V``
p7804
aVi
aVthink
p7805
aVyou
p7806
aVwill
p7807
aVfind
p7808
aV,
aV''
p7809
aVsaid
p7810
aVsherlock
p7811
aVholmes
p7812
aV,
aV``
p7813
aVthat
p7814
aVyou
p7815
aVwill
p7816
aVplay
p7817
aVfor
p7818
aVa
aVhigher
p7819
aVstake
p7820
aVto-night
p7821
aVthan
p7822
aVyou
p7823
aVhave
p7824
aVever
p7825
aVdone
p7826
aVyet
p7827
aV,
aVand
p7828
aVthat
p7829
aVthe
p7830
aVplay
p7831
aVwill
p7832
aVbe
p7833
aVmore
p7834
aVexciting
p7835
aV.
aa(lp7836
Vfor
p7837
aVyou
p7838
aV,
aVmr.
p7839
aVmerryweather
p7840
aV,
aVthe
p7841
aVstake
p7842
aVwill
p7843
aVbe
p7844
aVsome
p7845
aV30,000
p7846
aVpounds
p7847
aV;
aVand
p7848
aVfor
p7849
aVyou
p7850
aV,
aVjones
p7851
aV,
aVit
p7852
aVwill
p7853
aVbe
p7854
aVthe
p7855
aVman
p7856
aVupon
p7857
aVwhom
p7858
aVyou
p7859
aVwish
p7860
aVto
p7861
aVlay
p7862
aVyour
p7863
aVhands
p7864
aV.
aV''
p7865
aa(lp7866
V``
p7867
aVjohn
p7868
aVclay
p7869
aV,
aVthe
p7870
aVmurderer
p7871
aV,
aVthief
p7872
aV,
aVsmasher
p7873
aV,
aVand
p7874
aVforger
p7875
aV.
aa(lp7876
Vhe
p7877
aV's
p7878
aVa
aVyoung
p7879
aVman
p7880
aV,
aVmr.
p7881
aVmerryweather
p7882
aV,
aVbut
p7883
aVhe
p7884
aVis
p7885
aVat
p7886
aVthe
p7887
aVhead
p7888
aVof
p7889
aVhis
p7890
aVprofession
p7891
aV,
aVand
p7892
aVi
aVwould
p7893
aVrather
p7894
aVhave
p7895
aVmy
p7896
aVbracelets
p7897
aVon
p7898
aVhim
p7899
aVthan
p7900
aVon
p7901
aVany
p7902
aVcriminal
p7903
aVin
p7904
aVlondon
p7905
aV.
aa(lp7906
Vhe
p7907
aV's
p7908
aVa
aVremarkable
p7909
aVman
p7910
aV,
aVis
p7911
aVyoung
p7912
aVjohn
p7913
aVclay
p7914
aV.
aa(lp7915
Vhis
p7916
aVgrandfather
p7917
aVwas
p7918
aVa
aVroyal
p7919
aVduke
p7920
aV,
aVand
p7921
aVhe
p7922
aVhimself
p7923
aVhas
p7924
aVbeen
p7925
aVto
p7926
aVeton
p7927
aVand
p7928
aVoxford
p7929
aV.
aa(lp7930
Vhis
p7931
aVbrain
p7932
aVis
p7933
aVas
p7934
aVcunning.as
p7935
aVhis
p7936
aVfingers
p7937
aV,
aVand
p7938
aVthough
p7939
aVwe
p7940
aVmeet
p7941
aVsigns
p7942
aVof
p7943
aVhim
p7944
aVat
p7945
aVevery
p7946
aVturn
p7947
aV,
aVwe
p7948
aVnever
p7949
aVknow
p7950
aVwhere
p7951
aVto
p7952
aVfind
p7953
aVthe
p7954
aVman
p7955
aVhimself
p7956
aV.
aa(lp7957
Vhe
p7958
aV'll
p7959
aVcrack
p7960
aVa
aVcrib
p7961
aVin
p7962
aVscotland
p7963
aVone
p7964
aVweek
p7965
aV,
aVand
p7966
aVbe
p7967
aVraising
p7968
aVmoney
p7969
aVto
p7970
aVbuild
p7971
aVan
p7972
aVorphanage
p7973
aVin
p7974
aVcornwall
p7975
aVthe
p7976
aVnext
p7977
aV.
aa(lp7978
Vi
aV've
p7979
aVbeen
p7980
aVon
p7981
aVhis
p7982
aVtrack
p7983
aVfor
p7984
aVyears
p7985
aVand
p7986
aVhave
p7987
aVnever
p7988
aVset
p7989
aVeyes
p7990
aVon
p7991
aVhim
p7992
aVyet
p7993
aV.
aV''
p7994
aa(lp7995
V``
p7996
aVi
aVhope
p7997
aVthat
p7998
aVi
aVmay
p7999
aVhave
p8000
aVthe
p8001
aVpleasure
p8002
aVof
p8003
aVintroducing
p8004
aVyou
p8005
aVto-night
p8006
aV.
aa(lp8007
Vi
aV've
p8008
aVhad
p8009
aVone
p8010
aVor
p8011
aVtwo
p8012
aVlittle
p8013
aVturns
p8014
aValso
p8015
aVwith
p8016
aVmr.
p8017
aVjohn
p8018
aVclay
p8019
aV,
aVand
p8020
aVi
aVagree
p8021
aVwith
p8022
aVyou
p8023
aVthat
p8024
aVhe
p8025
aVis
p8026
aVat
p8027
aVthe
p8028
aVhead
p8029
aVof
p8030
aVhis
p8031
aVprofession
p8032
aV.
aa(lp8033
Vit
p8034
aVis
p8035
aVpast
p8036
aVten
p8037
aV,
aVhowever
p8038
aV,
aVand
p8039
aVquite
p8040
aVtime
p8041
aVthat
p8042
aVwe
p8043
aVstarted
p8044
aV.
aa(lp8045
Vif
p8046
aVyou
p8047
aVtwo
p8048
aVwill
p8049
aVtake
p8050
aVthe
p8051
aVfirst
p8052
aVhansom
p8053
aV,
aVwatson
p8054
aVand
p8055
aVi
aVwill
p8056
aVfollow
p8057
aVin
p8058
aVthe
p8059
aVsecond
p8060
aV.
aV''
p8061
aa(lp8062
Vsherlock
p8063
aVholmes
p8064
aVwas
p8065
aVnot
p8066
aVvery
p8067
aVcommunicative
p8068
aVduring
p8069
aVthe
p8070
aVlong
p8071
aVdrive
p8072
aVand
p8073
aVlay
p8074
aVback
p8075
aVin
p8076
aVthe
p8077
aVcab
p8078
aVhumming
p8079
aVthe
p8080
aVtunes
p8081
aVwhich
p8082
aVhe
p8083
aVhad
p8084
aVheard
p8085
aVin
p8086
aVthe
p8087
aVafternoon
p8088
aV.
aa(lp8089
Vwe
p8090
aVrattled
p8091
aVthrough
p8092
aVan
p8093
aVendless
p8094
aVlabyrinth
p8095
aVof
p8096
aVgas-lit
p8097
aVstreets
p8098
aVuntil
p8099
aVwe
p8100
aVemerged
p8101
aVinto
p8102
aVfarrington
p8103
aVstreet
p8104
aV.
aa(lp8105
V``
p8106
aVwe
p8107
aVare
p8108
aVclose
p8109
aVthere
p8110
aVnow
p8111
aV,
aV''
p8112
aVmy
p8113
aVfriend
p8114
aVremarked
p8115
aV.
aa(lp8116
V``
p8117
aVthis
p8118
aVfellow
p8119
aVmerryweather
p8120
aVis
p8121
aVa
aVbank
p8122
aVdirector
p8123
aV,
aVand
p8124
aVpersonally
p8125
aVinterested
p8126
aVin
p8127
aVthe
p8128
aVmatter
p8129
aV.
aa(lp8130
Vi
aVthought
p8131
aVit
p8132
aVas
p8133
aVwell
p8134
aVto
p8135
aVhave
p8136
aVjones
p8137
aVwith
p8138
aVus
p8139
aValso
p8140
aV.
aa(lp8141
Vhe
p8142
aVis
p8143
aVnot
p8144
aVa
aVbad
p8145
aVfellow
p8146
aV,
aVthough
p8147
aVan
p8148
aVabsolute
p8149
aVimbecile
p8150
aVin
p8151
aVhis
p8152
aVprofession
p8153
aV.
aa(lp8154
Vhe
p8155
aVhas
p8156
aVone
p8157
aVpositive
p8158
aVvirtue
p8159
aV.
aa(lp8160
Vhe
p8161
aVis
p8162
aVas
p8163
aVbrave
p8164
aVas
p8165
aVa
aVbulldog
p8166
aVand
p8167
aVas
p8168
aVtenacious
p8169
aVas
p8170
aVa
aVlobster
p8171
aVif
p8172
aVhe
p8173
aVgets
p8174
aVhis
p8175
aVclaws
p8176
aVupon
p8177
aVanyone
p8178
aV.
aa(lp8179
Vhere
p8180
aVwe
p8181
aVare
p8182
aV,
aVand
p8183
aVthey
p8184
aVare
p8185
aVwaiting
p8186
aVfor
p8187
aVus
p8188
aV.
aV''
p8189
aa(lp8190
Vwe
p8191
aVhad
p8192
aVreached
p8193
aVthe
p8194
aVsame
p8195
aVcrowded
p8196
aVthoroughfare
p8197
aVin
p8198
aVwhich
p8199
aVwe
p8200
aVhad
p8201
aVfound
p8202
aVourselves
p8203
aVin
p8204
aVthe
p8205
aVmorning
p8206
aV.
aa(lp8207
Vour
p8208
aVcabs
p8209
aVwere
p8210
aVdismissed
p8211
aV,
aVand
p8212
aV,
aVfollowing
p8213
aVthe
p8214
aVguidance
p8215
aVof
p8216
aVmr.
p8217
aVmerryweather
p8218
aV,
aVwe
p8219
aVpassed
p8220
aVdown
p8221
aVa
aVnarrow
p8222
aVpassage
p8223
aVand
p8224
aVthrough
p8225
aVa
aVside
p8226
aVdoor
p8227
aV,
aVwhich
p8228
aVhe
p8229
aVopened
p8230
aVfor
p8231
aVus
p8232
aV.
aa(lp8233
Vwithin
p8234
aVthere
p8235
aVwas
p8236
aVa
aVsmall
p8237
aVcorridor
p8238
aV,
aVwhich
p8239
aVended
p8240
aVin
p8241
aVa
aVvery
p8242
aVmassive
p8243
aViron
p8244
aVgate
p8245
aV.
aa(lp8246
Vthis
p8247
aValso
p8248
aVwas
p8249
aVopened
p8250
aV,
aVand
p8251
aVled
p8252
aVdown
p8253
aVa
aVflight
p8254
aVof
p8255
aVwinding
p8256
aVstone
p8257
aVsteps
p8258
aV,
aVwhich
p8259
aVterminated
p8260
aVat
p8261
aVanother
p8262
aVformidable
p8263
aVgate
p8264
aV.
aa(lp8265
Vmr.
p8266
aVmerryweather
p8267
aVstopped
p8268
aVto
p8269
aVlight
p8270
aVa
aVlantern
p8271
aV,
aVand
p8272
aVthen
p8273
aVconducted
p8274
aVus
p8275
aVdown
p8276
aVa
aVdark
p8277
aV,
aVearth-smelling
p8278
aVpassage
p8279
aV,
aVand
p8280
aVso
p8281
aV,
aVafter
p8282
aVopening
p8283
aVa
aVthird
p8284
aVdoor
p8285
aV,
aVinto
p8286
aVa
aVhuge
p8287
aVvault
p8288
aVor
p8289
aVcellar
p8290
aV,
aVwhich
p8291
aVwas
p8292
aVpiled
p8293
aVall
p8294
aVround
p8295
aVwith
p8296
aVcrates
p8297
aVand
p8298
aVmassive
p8299
aVboxes
p8300
aV.
aa(lp8301
V``
p8302
aVyou
p8303
aVare
p8304
aVnot
p8305
aVvery
p8306
aVvulnerable
p8307
aVfrom
p8308
aVabove
p8309
aV,
aV''
p8310
aVholmes
p8311
aVremarked
p8312
aVas
p8313
aVhe
p8314
aVheld
p8315
aVup
p8316
aVthe
p8317
aVlantern
p8318
aVand
p8319
aVgazed
p8320
aVabout
p8321
aVhim
p8322
aV.
aa(lp8323
V``
p8324
aVnor
p8325
aVfrom
p8326
aVbelow
p8327
aV,
aV''
p8328
aVsaid
p8329
aVmr.
p8330
aVmerryweather
p8331
aV,
aVstriking
p8332
aVhis
p8333
aVstick
p8334
aVupon
p8335
aVthe
p8336
aVflags
p8337
aVwhich
p8338
aVlined
p8339
aVthe
p8340
aVfloor
p8341
aV.
aa(lp8342
V``
p8343
aVwhy
p8344
aV,
aVdear
p8345
aVme
p8346
aV,
aVit
p8347
aVsounds
p8348
aVquite
p8349
aVhollow
p8350
aV!
aV''
p8351
aa(lp8352
Vhe
p8353
aVremarked
p8354
aV,
aVlooking
p8355
aVup
p8356
aVin
p8357
aVsurprise
p8358
aV.
aa(lp8359
V``
p8360
aVi
aVmust
p8361
aVreally
p8362
aVask
p8363
aVyou
p8364
aVto
p8365
aVbe
p8366
aVa
aVlittle
p8367
aVmore
p8368
aVquiet
p8369
aV!
aV''
p8370
aa(lp8371
Vsaid
p8372
aVholmes
p8373
aVseverely
p8374
aV.
aa(lp8375
V``
p8376
aVyou
p8377
aVhave
p8378
aValready
p8379
aVimperilled
p8380
aVthe
p8381
aVwhole
p8382
aVsuccess
p8383
aVof
p8384
aVour
p8385
aVexpedition
p8386
aV.
aa(lp8387
Vmight
p8388
aVi
aVbeg
p8389
aVthat
p8390
aVyou
p8391
aVwould
p8392
aVhave
p8393
aVthe
p8394
aVgoodness
p8395
aVto
p8396
aVsit
p8397
aVdown
p8398
aVupon
p8399
aVone
p8400
aVof
p8401
aVthose
p8402
aVboxes
p8403
aV,
aVand
p8404
aVnot
p8405
aVto
p8406
aVinterfere
p8407
aV?
aV''
p8408
aa(lp8409
Vthe
p8410
aVsolemn
p8411
aVmr.
p8412
aVmerryweather
p8413
aVperched
p8414
aVhimself
p8415
aVupon
p8416
aVa
aVcrate
p8417
aV,
aVwith
p8418
aVa
aVvery
p8419
aVinjured
p8420
aVexpression
p8421
aVupon
p8422
aVhis
p8423
aVface
p8424
aV,
aVwhile
p8425
aVholmes
p8426
aVfell
p8427
aVupon
p8428
aVhis
p8429
aVknees
p8430
aVupon
p8431
aVthe
p8432
aVfloor
p8433
aVand
p8434
aV,
aVwith
p8435
aVthe
p8436
aVlantern
p8437
aVand
p8438
aVa
aVmagnifying
p8439
aVlens
p8440
aV,
aVbegan
p8441
aVto
p8442
aVexamine
p8443
aVminutely
p8444
aVthe
p8445
aVcracks
p8446
aVbetween
p8447
aVthe
p8448
aVstones
p8449
aV.
aa(lp8450
Va
aVfew
p8451
aVseconds
p8452
aVsufficed
p8453
aVto
p8454
aVsatisfy
p8455
aVhim
p8456
aV,
aVfor
p8457
aVhe
p8458
aVsprang
p8459
aVto
p8460
aVhis
p8461
aVfeet
p8462
aVagain
p8463
aVand
p8464
aVput
p8465
aVhis
p8466
aVglass
p8467
aVin
p8468
aVhis
p8469
aVpocket
p8470
aV.
aa(lp8471
V``
p8472
aVwe
p8473
aVhave
p8474
aVat
p8475
aVleast
p8476
aVan
p8477
aVhour
p8478
aVbefore
p8479
aVus
p8480
aV,
aV''
p8481
aVhe
p8482
aVremarked
p8483
aV,
aV``
p8484
aVfor
p8485
aVthey
p8486
aVcan
p8487
aVhardly
p8488
aVtake
p8489
aVany
p8490
aVsteps
p8491
aVuntil
p8492
aVthe
p8493
aVgood
p8494
aVpawnbroker
p8495
aVis
p8496
aVsafely
p8497
aVin
p8498
aVbed
p8499
aV.
aa(lp8500
Vthen
p8501
aVthey
p8502
aVwill
p8503
aVnot
p8504
aVlose
p8505
aVa
aVminute
p8506
aV,
aVfor
p8507
aVthe
p8508
aVsooner
p8509
aVthey
p8510
aVdo
p8511
aVtheir
p8512
aVwork
p8513
aVthe
p8514
aVlonger
p8515
aVtime
p8516
aVthey
p8517
aVwill
p8518
aVhave
p8519
aVfor
p8520
aVtheir
p8521
aVescape
p8522
aV.
aa(lp8523
Vwe
p8524
aVare
p8525
aVat
p8526
aVpresent
p8527
aV,
aVdoctor
p8528
aV--
p8529
aVas
p8530
aVno
p8531
aVdoubt
p8532
aVyou
p8533
aVhave
p8534
aVdivined
p8535
aV--
p8536
aVin
p8537
aVthe
p8538
aVcellar
p8539
aVof
p8540
aVthe
p8541
aVcity
p8542
aVbranch
p8543
aVof
p8544
aVone
p8545
aVof
p8546
aVthe
p8547
aVprincipal
p8548
aVlondon
p8549
aVbanks
p8550
aV.
aa(lp8551
Vmr.
p8552
aVmerryweather
p8553
aVis
p8554
aVthe
p8555
aVchairman
p8556
aVof
p8557
aVdirectors
p8558
aV,
aVand
p8559
aVhe
p8560
aVwill
p8561
aVexplain
p8562
aVto
p8563
aVyou
p8564
aVthat
p8565
aVthere
p8566
aVare
p8567
aVreasons
p8568
aVwhy
p8569
aVthe
p8570
aVmore
p8571
aVdaring
p8572
aVcriminals
p8573
aVof
p8574
aVlondon
p8575
aVshould
p8576
aVtake
p8577
aVa
aVconsiderable
p8578
aVinterest
p8579
aVin
p8580
aVthis
p8581
aVcellar
p8582
aVat
p8583
aVpresent
p8584
aV.
aV''
p8585
aa(lp8586
V``
p8587
aVit
p8588
aVis
p8589
aVour
p8590
aVfrench
p8591
aVgold
p8592
aV,
aV''
p8593
aVwhispered
p8594
aVthe
p8595
aVdirector
p8596
aV.
aa(lp8597
V``
p8598
aVwe
p8599
aVhave
p8600
aVhad
p8601
aVseveral
p8602
aVwarnings
p8603
aVthat
p8604
aVan
p8605
aVattempt
p8606
aVmight
p8607
aVbe
p8608
aVmade
p8609
aVupon
p8610
aVit
p8611
aV.
aV''
p8612
aa(lp8613
V``
p8614
aVyour
p8615
aVfrench
p8616
aVgold
p8617
aV?
aV''
p8618
aa(lp8619
V``
p8620
aVyes
p8621
aV.
aa(lp8622
Vwe
p8623
aVhad
p8624
aVoccasion
p8625
aVsome
p8626
aVmonths
p8627
aVago
p8628
aVto
p8629
aVstrengthen
p8630
aVour
p8631
aVresources
p8632
aVand
p8633
aVborrowed
p8634
aVfor
p8635
aVthat
p8636
aVpurpose
p8637
aV30,000
p8638
aVnapoleons
p8639
aVfrom
p8640
aVthe
p8641
aVbank
p8642
aVof
p8643
aVfrance
p8644
aV.
aa(lp8645
Vit
p8646
aVhas
p8647
aVbecome
p8648
aVknown
p8649
aVthat
p8650
aVwe
p8651
aVhave
p8652
aVnever
p8653
aVhad
p8654
aVoccasion
p8655
aVto
p8656
aVunpack
p8657
aVthe
p8658
aVmoney
p8659
aV,
aVand
p8660
aVthat
p8661
aVit
p8662
aVis
p8663
aVstill
p8664
aVlying
p8665
aVin
p8666
aVour
p8667
aVcellar
p8668
aV.
aa(lp8669
Vthe
p8670
aVcrate
p8671
aVupon
p8672
aVwhich
p8673
aVi
aVsit
p8674
aVcontains
p8675
aV2,000
p8676
aVnapoleons
p8677
aVpacked
p8678
aVbetween
p8679
aVlayers
p8680
aVof
p8681
aVlead
p8682
aVfoil
p8683
aV.
aa(lp8684
Vour
p8685
aVreserve
p8686
aVof
p8687
aVbullion
p8688
aVis
p8689
aVmuch
p8690
aVlarger
p8691
aVat
p8692
aVpresent
p8693
aVthan
p8694
aVis
p8695
aVusually
p8696
aVkept
p8697
aVin
p8698
aVa
aVsingle
p8699
aVbranch
p8700
aVoffice
p8701
aV,
aVand
p8702
aVthe
p8703
aVdirectors
p8704
aVhave
p8705
aVhad
p8706
aVmisgivings
p8707
aVupon
p8708
aVthe
p8709
aVsubject
p8710
aV.
aV''
p8711
aa(lp8712
V``
p8713
aVwhich
p8714
aVwere
p8715
aVvery
p8716
aVwell
p8717
aVjustified
p8718
aV,
aV''
p8719
aVobserved
p8720
aVholmes
p8721
aV.
aa(lp8722
V``
p8723
aVand
p8724
aVnow
p8725
aVit
p8726
aVis
p8727
aVtime
p8728
aVthat
p8729
aVwe
p8730
aVarranged
p8731
aVour
p8732
aVlittle
p8733
aVplans
p8734
aV.
aa(lp8735
Vi
aVexpect
p8736
aVthat
p8737
aVwithin
p8738
aVan
p8739
aVhour
p8740
aVmatters
p8741
aVwill
p8742
aVcome
p8743
aVto
p8744
aVa
aVhead
p8745
aV.
aa(lp8746
Vin
p8747
aVthe
p8748
aVmeantime
p8749
aVmr.
p8750
aVmerryweather
p8751
aV,
aVwe
p8752
aVmust
p8753
aVput
p8754
aVthe
p8755
aVscreen
p8756
aVover
p8757
aVthat
p8758
aVdark
p8759
aVlantern
p8760
aV.
aV''
p8761
aa(lp8762
V``
p8763
aVand
p8764
aVsit
p8765
aVin
p8766
aVthe
p8767
aVdark
p8768
aV?
aV''
p8769
aa(lp8770
V``
p8771
aVi
aVam
p8772
aVafraid
p8773
aVso
p8774
aV.
aa(lp8775
Vi
aVhad
p8776
aVbrought
p8777
aVa
aVpack
p8778
aVof
p8779
aVcards
p8780
aVin
p8781
aVmy
p8782
aVpocket
p8783
aV,
aVand
p8784
aVi
aVthought
p8785
aVthat
p8786
aV,
aVas
p8787
aVwe
p8788
aVwere
p8789
aVa
aVpartie
p8790
aVcarree
p8791
aV,
aVyou
p8792
aVmight
p8793
aVhave
p8794
aVyour
p8795
aVrubber
p8796
aVafter
p8797
aVall
p8798
aV.
aa(lp8799
Vbut
p8800
aVi
aVsee
p8801
aVthat
p8802
aVthe
p8803
aVenemy
p8804
aV's
p8805
aVpreparations
p8806
aVhave
p8807
aVgone
p8808
aVso
p8809
aVfar
p8810
aVthat
p8811
aVwe
p8812
aVcan
p8813
aVnot
p8814
aVrisk
p8815
aVthe
p8816
aVpresence
p8817
aVof
p8818
aVa
aVlight
p8819
aV.
aa(lp8820
Vand
p8821
aV,
aVfirst
p8822
aVof
p8823
aVall
p8824
aV,
aVwe
p8825
aVmust
p8826
aVchoose
p8827
aVour
p8828
aVpositions
p8829
aV.
aa(lp8830
Vthese
p8831
aVare
p8832
aVdaring
p8833
aVmen
p8834
aV,
aVand
p8835
aVthough
p8836
aVwe
p8837
aVshall
p8838
aVtake
p8839
aVthem
p8840
aVat
p8841
aVa
aVdisadvantage
p8842
aV,
aVthey
p8843
aVmay
p8844
aVdo
p8845
aVus
p8846
aVsome
p8847
aVharm
p8848
aVunless
p8849
aVwe
p8850
aVare
p8851
aVcareful
p8852
aV.
aa(lp8853
Vi
aVshall
p8854
aVstand
p8855
aVbehind
p8856
aVthis
p8857
aVcrate
p8858
aV,
aVand
p8859
aVdo
p8860
aVyou
p8861
aVconceal
p8862
aVyourselves
p8863
aVbehind
p8864
aVthose
p8865
aV.
aa(lp8866
Vthen
p8867
aV,
aVwhen
p8868
aVi
aVflash
p8869
aVa
aVlight
p8870
aVupon
p8871
aVthem
p8872
aV,
aVclose
p8873
aVin
p8874
aVswiftly
p8875
aV.
aa(lp8876
Vif
p8877
aVthey
p8878
aVfire
p8879
aV,
aVwatson
p8880
aV,
aVhave
p8881
aVno
p8882
aVcompunction
p8883
aVabout
p8884
aVshooting
p8885
aVthem
p8886
aVdown
p8887
aV.
aV''
p8888
aa(lp8889
Vi
aVplaced
p8890
aVmy
p8891
aVrevolver
p8892
aV,
aVcocked
p8893
aV,
aVupon
p8894
aVthe
p8895
aVtop
p8896
aVof
p8897
aVthe
p8898
aVwooden
p8899
aVcase
p8900
aVbehind
p8901
aVwhich
p8902
aVi
aVcrouched
p8903
aV.
aa(lp8904
Vholmes
p8905
aVshot
p8906
aVthe
p8907
aVslide
p8908
aVacross
p8909
aVthe
p8910
aVfront
p8911
aVof
p8912
aVhis
p8913
aVlantern
p8914
aVand
p8915
aVleft
p8916
aVus
p8917
aVin
p8918
aVpitch
p8919
aVdarkness
p8920
aV--
p8921
aVsuch
p8922
aVan
p8923
aVabsolute
p8924
aVdarkness
p8925
aVas
p8926
aVi
aVhave
p8927
aVnever
p8928
aVbefore
p8929
aVexperienced
p8930
aV.
aa(lp8931
Vthe
p8932
aVsmell
p8933
aVof
p8934
aVhot
p8935
aVmetal
p8936
aVremained
p8937
aVto
p8938
aVassure
p8939
aVus
p8940
aVthat
p8941
aVthe
p8942
aVlight
p8943
aVwas
p8944
aVstill
p8945
aVthere
p8946
aV,
aVready
p8947
aVto
p8948
aVflash
p8949
aVout
p8950
aVat
p8951
aVa
aVmoment
p8952
aV's
p8953
aVnotice
p8954
aV.
aa(lp8955
Vto
p8956
aVme
p8957
aV,
aVwith
p8958
aVmy
p8959
aVnerves
p8960
aVworked
p8961
aVup
p8962
aVto
p8963
aVa
aVpitch
p8964
aVof
p8965
aVexpectancy
p8966
aV,
aVthere
p8967
aVwas
p8968
aVsomething
p8969
aVdepressing
p8970
aVand
p8971
aVsubduing
p8972
aVin
p8973
aVthe
p8974
aVsudden
p8975
aVgloom
p8976
aV,
aVand
p8977
aVin
p8978
aVthe
p8979
aVcold
p8980
aVdank
p8981
aVair
p8982
aVof
p8983
aVthe
p8984
aVvault
p8985
aV.
aa(lp8986
V``
p8987
aVthey
p8988
aVhave
p8989
aVbut
p8990
aVone
p8991
aVretreat
p8992
aV,
aV''
p8993
aVwhispered
p8994
aVholmes
p8995
aV.
aa(lp8996
V``
p8997
aVthat
p8998
aVis
p8999
aVback
p9000
aVthrough
p9001
aVthe
p9002
aVhouse
p9003
aVinto
p9004
aVsaxe-coburg
p9005
aVsquare
p9006
aV.
aa(lp9007
Vi
aVhope
p9008
aVthat
p9009
aVyou
p9010
aVhave
p9011
aVdone
p9012
aVwhat
p9013
aVi
aVasked
p9014
aVyou
p9015
aV,
aVjones
p9016
aV?
aV''
p9017
aa(lp9018
V``
p9019
aVl
aVhave
p9020
aVan
p9021
aVinspector
p9022
aVand
p9023
aVtwo
p9024
aVofficers
p9025
aVwaiting
p9026
aVat
p9027
aVthe
p9028
aVfront
p9029
aVdoor
p9030
aV.
aV''
p9031
aa(lp9032
V``
p9033
aVthen
p9034
aVwe
p9035
aVhave
p9036
aVstopped
p9037
aVall
p9038
aVthe
p9039
aVholes
p9040
aV.
aa(lp9041
Vand
p9042
aVnow
p9043
aVwe
p9044
aVmust
p9045
aVbe
p9046
aVsilent
p9047
aVand
p9048
aVwait
p9049
aV.
aV''
p9050
aa(lp9051
Vwhat
p9052
aVa
aVtime
p9053
aVit
p9054
aVseemed
p9055
aV!
aa(lp9056
Vfrom
p9057
aVcomparing
p9058
aVnotes
p9059
aVafterwards
p9060
aVit
p9061
aVwas
p9062
aVbut
p9063
aVan
p9064
aVhour
p9065
aVand
p9066
aVa
aVquarter
p9067
aV,
aVyet
p9068
aVit
p9069
aVappeared
p9070
aVto
p9071
aVme
p9072
aVthat
p9073
aVthe
p9074
aVnight
p9075
aVmust
p9076
aVhave
p9077
aValmost
p9078
aVgone
p9079
aV.
aa(lp9080
Vand
p9081
aVthe
p9082
aVdawn
p9083
aVbe
p9084
aVbreaking
p9085
aVabove
p9086
aVus
p9087
aV.
aa(lp9088
Vmy
p9089
aVlimbs
p9090
aVwere
p9091
aVweary
p9092
aVand
p9093
aVstiff
p9094
aV,
aVfor
p9095
aVi
aVfeared
p9096
aVto
p9097
aVchange
p9098
aVmy
p9099
aVposition
p9100
aV;
aVyet
p9101
aVmy
p9102
aVnerves
p9103
aVwere
p9104
aVworked
p9105
aVup
p9106
aVto
p9107
aVthe
p9108
aVhighest
p9109
aVpitch
p9110
aVof
p9111
aVtension
p9112
aV,
aVand
p9113
aVmy
p9114
aVhearing
p9115
aVwas
p9116
aVso
p9117
aVacute
p9118
aVthat
p9119
aVi
aVcould
p9120
aVnot
p9121
aVonly
p9122
aVhear
p9123
aVthe
p9124
aVgentle
p9125
aVbreathing
p9126
aVof
p9127
aVmy
p9128
aVcompanions
p9129
aV,
aVbut
p9130
aVi
aVcould
p9131
aVdistinguish
p9132
aVthe
p9133
aVdeeper
p9134
aV,
aVheavier
p9135
aVin-breath
p9136
aVof
p9137
aVthe
p9138
aVbulky
p9139
aVjones
p9140
aVfrom
p9141
aVthe
p9142
aVthin
p9143
aV,
aVsighing
p9144
aVnote
p9145
aVof
p9146
aVthe
p9147
aVbank
p9148
aVdirector
p9149
aV.
aa(lp9150
Vfrom
p9151
aVmy
p9152
aVposition
p9153
aVi
aVcould
p9154
aVlook
p9155
aVover
p9156
aVthe
p9157
aVcase
p9158
aVin
p9159
aVthe
p9160
aVdirection
p9161
aVof
p9162
aVthe
p9163
aVfloor
p9164
aV.
aa(lp9165
Vsuddenly
p9166
aVmy
p9167
aVeyes
p9168
aVcaught
p9169
aVthe
p9170
aVglint
p9171
aVof
p9172
aVa
aVlight
p9173
aV.
aa(lp9174
Vat
p9175
aVfirst
p9176
aVit
p9177
aVwas
p9178
aVbut
p9179
aVa
aVlurid
p9180
aVspark
p9181
aVupon
p9182
aVthe
p9183
aVstone
p9184
aVpavement
p9185
aV.
aa(lp9186
Vthen
p9187
aVit
p9188
aVlengthened
p9189
aVout
p9190
aVuntil
p9191
aVit
p9192
aVbecame
p9193
aVa
aVyellow
p9194
aVline
p9195
aV,
aVand
p9196
aVthen
p9197
aV,
aVwithout
p9198
aVany
p9199
aVwarning
p9200
aVor
p9201
aVsound
p9202
aV,
aVa
aVgash
p9203
aVseemed
p9204
aVto
p9205
aVopen
p9206
aVand
p9207
aVa
aVhand
p9208
aVappeared
p9209
aV;
aVa
aVwhite
p9210
aV,
aValmost
p9211
aVwomanly
p9212
aVhand
p9213
aV,
aVwhich
p9214
aVfelt
p9215
aVabout
p9216
aVin
p9217
aVthe
p9218
aVcentre
p9219
aVof
p9220
aVthe
p9221
aVlittle
p9222
aVarea
p9223
aVof
p9224
aVlight
p9225
aV.
aa(lp9226
Vfor
p9227
aVa
aVminute
p9228
aVor
p9229
aVmore
p9230
aVthe
p9231
aVhand
p9232
aV,
aVwith
p9233
aVits
p9234
aVwrithing
p9235
aVfingers
p9236
aV,
aVprotruded
p9237
aVout
p9238
aVof
p9239
aVthe
p9240
aVfloor
p9241
aV.
aa(lp9242
Vthen
p9243
aVit
p9244
aVwas
p9245
aVwithdrawn
p9246
aVas
p9247
aVsuddenly
p9248
aVas
p9249
aVit
p9250
aVappeared
p9251
aV,
aVand
p9252
aVall
p9253
aVwas
p9254
aVdark
p9255
aVagain
p9256
aVsave
p9257
aVthe
p9258
aVsingle
p9259
aVlurid
p9260
aVspark
p9261
aVwhich
p9262
aVmarked
p9263
aVa
aVchink
p9264
aVbetween
p9265
aVthe
p9266
aVstones
p9267
aV.
aa(lp9268
Vits
p9269
aVdisappearance
p9270
aV,
aVhowever
p9271
aV,
aVwas
p9272
aVbut
p9273
aVmomentary
p9274
aV.
aa(lp9275
Vwith
p9276
aVa
aVrending
p9277
aV,
aVtearing
p9278
aVsound
p9279
aV,
aVone
p9280
aVof
p9281
aVthe
p9282
aVbroad
p9283
aV,
aVwhite
p9284
aVstones
p9285
aVturned
p9286
aVover
p9287
aVupon
p9288
aVits
p9289
aVside
p9290
aVand
p9291
aVleft
p9292
aVa
aVsquare
p9293
aV,
aVgaping
p9294
aVhole
p9295
aV,
aVthrough
p9296
aVwhich
p9297
aVstreamed
p9298
aVthe
p9299
aVlight
p9300
aVof
p9301
aVa
aVlantern
p9302
aV.
aa(lp9303
Vover
p9304
aVthe
p9305
aVedge
p9306
aVthere
p9307
aVpeeped
p9308
aVa
aVclean-cut
p9309
aV,
aVboyish
p9310
aVface
p9311
aV,
aVwhich
p9312
aVlooked
p9313
aVkeenly
p9314
aVabout
p9315
aVit
p9316
aV,
aVand
p9317
aVthen
p9318
aV,
aVwith
p9319
aVa
aVhand
p9320
aVon
p9321
aVeither
p9322
aVside
p9323
aVof
p9324
aVthe
p9325
aVaperture
p9326
aV,
aVdrew
p9327
aVitself
p9328
aVshoulder-high
p9329
aVand
p9330
aVwaist-high
p9331
aV,
aVuntil
p9332
aVone
p9333
aVknee
p9334
aVrested
p9335
aVupon
p9336
aVthe
p9337
aVedge
p9338
aV.
aa(lp9339
Vin
p9340
aVanother
p9341
aVinstant
p9342
aVhe
p9343
aVstood
p9344
aVat
p9345
aVthe
p9346
aVside
p9347
aVof
p9348
aVthe
p9349
aVhole
p9350
aVand
p9351
aVwas
p9352
aVhauling
p9353
aVafter
p9354
aVhim
p9355
aVa
aVcompanion
p9356
aV,
aVlithe
p9357
aVand
p9358
aVsmall
p9359
aVlike
p9360
aVhimself
p9361
aV,
aVwith
p9362
aVa
aVpale
p9363
aVface
p9364
aVand
p9365
aVa
aVshock
p9366
aVof
p9367
aVvery
p9368
aVred
p9369
aVhair
p9370
aV.
aa(lp9371
V``
p9372
aVit
p9373
aV's
p9374
aVall
p9375
aVclear
p9376
aV,
aV''
p9377
aVhe
p9378
aVwhispered
p9379
aV.
aa(lp9380
V``
p9381
aVhave
p9382
aVyou
p9383
aVthe
p9384
aVchisel
p9385
aVand
p9386
aVthe
p9387
aVbags
p9388
aV?
aa(lp9389
Vgreat
p9390
aVscott
p9391
aV!
aa(lp9392
Vjump
p9393
aV,
aVarchie
p9394
aV,
aVjump
p9395
aV,
aVand
p9396
aVi
aV'll
p9397
aVswing
p9398
aVfor
p9399
aVit
p9400
aV!
aV''
p9401
aa(lp9402
Vsherlock
p9403
aVholmes
p9404
aVhad
p9405
aVsprung
p9406
aVout
p9407
aVand
p9408
aVseized
p9409
aVthe
p9410
aVintruder
p9411
aVby
p9412
aVthe
p9413
aVcollar
p9414
aV.
aa(lp9415
Vthe
p9416
aVother
p9417
aVdived
p9418
aVdown
p9419
aVthe
p9420
aVhole
p9421
aV,
aVand
p9422
aVi
aVheard
p9423
aVthe
p9424
aVsound
p9425
aVof
p9426
aVrending
p9427
aVcloth
p9428
aVas
p9429
aVjones
p9430
aVclutched
p9431
aVat
p9432
aVhis
p9433
aVskirts
p9434
aV.
aa(lp9435
Vthe
p9436
aVlight
p9437
aVflashed
p9438
aVupon
p9439
aVthe
p9440
aVbarrel
p9441
aVof
p9442
aVa
aVrevolver
p9443
aV,
aVbut
p9444
aVholmes
p9445
aV's
p9446
aVhunting
p9447
aVcrop
p9448
aVcame
p9449
aVdown
p9450
aVon
p9451
aVthe
p9452
aVman
p9453
aV's
p9454
aVwrist
p9455
aV,
aVand
p9456
aVthe
p9457
aVpistol
p9458
aVclinked
p9459
aVupon
p9460
aVthe
p9461
aVstone
p9462
aVfloor
p9463
aV.
aa(lp9464
V``
p9465
aVit
p9466
aV's
p9467
aVno
p9468
aVuse
p9469
aV,
aVjohn
p9470
aVclay
p9471
aV,
aV''
p9472
aVsaid
p9473
aVholmes
p9474
aVblandly
p9475
aV.
aa(lp9476
V``
p9477
aVyou
p9478
aVhave
p9479
aVno
p9480
aVchance
p9481
aVat
p9482
aVall
p9483
aV.
aV''
p9484
aa(lp9485
V``
p9486
aVso
p9487
aVi
aVsee
p9488
aV,
aV''
p9489
aVthe
p9490
aVother
p9491
aVanswered
p9492
aVwith
p9493
aVthe
p9494
aVutmost
p9495
aVcoolness
p9496
aV.
aa(lp9497
V``
p9498
aVi
aVfancy
p9499
aVthat
p9500
aVmy
p9501
aVpal
p9502
aVis
p9503
aVall
p9504
aVright
p9505
aV,
aVthough
p9506
aVi
aVsee
p9507
aVyou
p9508
aVhave
p9509
aVgot
p9510
aVhis
p9511
aVcoat-tails
p9512
aV.
aV''
p9513
aa(lp9514
V``
p9515
aVthere
p9516
aVare
p9517
aVthree
p9518
aVmen
p9519
aVwaiting
p9520
aVfor
p9521
aVhim
p9522
aVat
p9523
aVthe
p9524
aVdoor
p9525
aV,
aV''
p9526
aVsaid
p9527
aVholmes
p9528
aV.
aa(lp9529
V``
p9530
aVoh
p9531
aV,
aVindeed
p9532
aV!
aa(lp9533
Vyou
p9534
aVseem
p9535
aVto
p9536
aVhave
p9537
aVdone
p9538
aVthe
p9539
aVthing
p9540
aVvery
p9541
aVcompletely
p9542
aV.
aa(lp9543
Vi
aVmust
p9544
aVcompliment
p9545
aVyou
p9546
aV.
aV''
p9547
aa(lp9548
V``
p9549
aVand
p9550
aVi
aVyou
p9551
aV,
aV''
p9552
aVholmes
p9553
aVanswered
p9554
aV.
aa(lp9555
V``
p9556
aVyour
p9557
aVred-headed
p9558
aVidea
p9559
aVwas
p9560
aVvery
p9561
aVnew
p9562
aVand
p9563
aVeffective
p9564
aV.
aV''
p9565
aa(lp9566
V``
p9567
aVyou
p9568
aV'll
p9569
aVsee
p9570
aVyour
p9571
aVpal
p9572
aVagain
p9573
aVpresently
p9574
aV,
aV''
p9575
aVsaid
p9576
aVjones
p9577
aV.
aa(lp9578
V``
p9579
aVhe
p9580
aV's
p9581
aVquicker
p9582
aVat
p9583
aVclimbing
p9584
aVdown
p9585
aVholes
p9586
aVthan
p9587
aVi
aVam
p9588
aV.
aa(lp9589
Vjust
p9590
aVhold
p9591
aVout
p9592
aVwhile
p9593
aVi
aVfix
p9594
aVthe
p9595
aVderbies
p9596
aV.
aV''
p9597
aa(lp9598
V``
p9599
aVi
aVbeg
p9600
aVthat
p9601
aVyou
p9602
aVwill
p9603
aVnot
p9604
aVtouch
p9605
aVme
p9606
aVwith
p9607
aVyour
p9608
aVfilthy
p9609
aVhands
p9610
aV,
aV''
p9611
aVremarked
p9612
aVour
p9613
aVprisoner
p9614
aVas
p9615
aVthe
p9616
aVhandcuffs
p9617
aVclattered
p9618
aVupon
p9619
aVhis
p9620
aVwrists
p9621
aV.
aa(lp9622
V``
p9623
aVyou
p9624
aVmay
p9625
aVnot
p9626
aVbe
p9627
aVaware
p9628
aVthat
p9629
aVi
aVhave
p9630
aVroyal
p9631
aVblood
p9632
aVin
p9633
aVmy
p9634
aVveins
p9635
aV.
aa(lp9636
Vhave
p9637
aVthe
p9638
aVgoodness
p9639
aV,
aValso
p9640
aV,
aVwhen
p9641
aVyou
p9642
aVaddress
p9643
aVme
p9644
aValways
p9645
aVto
p9646
aVsay
p9647
aV'sir
p9648
aV'
aVand
p9649
aV'please
p9650
aV.
aV'
aV''
p9651
aa(lp9652
V``
p9653
aVall
p9654
aVright
p9655
aV,
aV''
p9656
aVsaid
p9657
aVjones
p9658
aVwith
p9659
aVa
aVstare
p9660
aVand
p9661
aVa
aVsnigger
p9662
aV.
aa(lp9663
V``
p9664
aVwell
p9665
aV,
aVwould
p9666
aVyou
p9667
aVplease
p9668
aV,
aVsir
p9669
aV,
aVmarch
p9670
aVupstairs
p9671
aV,
aVwhere
p9672
aVwe
p9673
aVcan
p9674
aVget
p9675
aVa
aVcab
p9676
aVto
p9677
aVcarry
p9678
aVyour
p9679
aVhighness
p9680
aVto
p9681
aVthe
p9682
aVpolice-station
p9683
aV?
aV''
p9684
aa(lp9685
V``
p9686
aVthat
p9687
aVis
p9688
aVbetter
p9689
aV,
aV''
p9690
aVsaid
p9691
aVjohn
p9692
aVclay
p9693
aVserenely
p9694
aV.
aa(lp9695
Vhe
p9696
aVmade
p9697
aVa
aVsweeping
p9698
aVbow
p9699
aVto
p9700
aVthe
p9701
aVthree
p9702
aVof
p9703
aVus
p9704
aVand
p9705
aVwalked
p9706
aVquietly
p9707
aVoff
p9708
aVin
p9709
aVthe
p9710
aVcustody
p9711
aVof
p9712
aVthe
p9713
aVdetective
p9714
aV.
aa(lp9715
V``
p9716
aVreally
p9717
aV,
aVmr.
p9718
aVholmes
p9719
aV,
aV''
p9720
aVsaid
p9721
aVmr.
p9722
aVmerryweather
p9723
aVas
p9724
aVwe
p9725
aVfollowed
p9726
aVthem
p9727
aVfrom
p9728
aVthe
p9729
aVcellar
p9730
aV,
aV``
p9731
aVi
aVdo
p9732
aVnot
p9733
aVknow
p9734
aVhow
p9735
aVthe
p9736
aVbank
p9737
aVcan
p9738
aVthank
p9739
aVyou
p9740
aVor
p9741
aVrepay
p9742
aVyou
p9743
aV.
aa(lp9744
Vthere
p9745
aVis
p9746
aVno
p9747
aVdoubt
p9748
aVthat
p9749
aVyou
p9750
aVhave
p9751
aVdetected
p9752
aVand
p9753
aVdefeated
p9754
aVin
p9755
aVthe
p9756
aVmost
p9757
aVcomplete
p9758
aVmanner
p9759
aVone
p9760
aVof
p9761
aVthe
p9762
aVmost
p9763
aVdetermined
p9764
aVattempts
p9765
aVat
p9766
aVbank
p9767
aVrobbery
p9768
aVthat
p9769
aVhave
p9770
aVever
p9771
aVcome
p9772
aVwithin
p9773
aVmy
p9774
aVexperience
p9775
aV.
aV''
p9776
aa(lp9777
V``
p9778
aVi
aVhave
p9779
aVhad
p9780
aVone
p9781
aVor
p9782
aVtwo
p9783
aVlittle
p9784
aVscores
p9785
aVof
p9786
aVmy
p9787
aVown
p9788
aVto
p9789
aVsettle
p9790
aVwith
p9791
aVmr.
p9792
aVjohn
p9793
aVclay
p9794
aV,
aV''
p9795
aVsaid
p9796
aVholmes
p9797
aV.
aa(lp9798
V``
p9799
aVi
aVhave
p9800
aVbeen
p9801
aVat
p9802
aVsome
p9803
aVsmall
p9804
aVexpense
p9805
aVover
p9806
aVthis
p9807
aVmatter
p9808
aV,
aVwhich
p9809
aVi
aVshall
p9810
aVexpect
p9811
aVthe
p9812
aVbank
p9813
aVto
p9814
aVrefund
p9815
aV,
aVbut
p9816
aVbeyond
p9817
aVthat
p9818
aVi
aVam
p9819
aVamply
p9820
aVrepaid
p9821
aVby
p9822
aVhaving
p9823
aVhad
p9824
aVan
p9825
aVexperience
p9826
aVwhich
p9827
aVis
p9828
aVin
p9829
aVmany
p9830
aVways
p9831
aVunique
p9832
aV,
aVand
p9833
aVby
p9834
aVhearing
p9835
aVthe
p9836
aVvery
p9837
aVremarkable
p9838
aVnarrative
p9839
aVof
p9840
aVthe
p9841
aVred-headed
p9842
aVleague
p9843
aV.
aV''
p9844
aa(lp9845
V``
p9846
aVyou
p9847
aVsee
p9848
aV,
aVwatson
p9849
aV,
aV''
p9850
aVhe
p9851
aVexplained
p9852
aVin
p9853
aVthe
p9854
aVearly
p9855
aVhours
p9856
aVof
p9857
aVthe
p9858
aVmorning
p9859
aVas
p9860
aVwe
p9861
aVsat
p9862
aVover
p9863
aVa
aVglass
p9864
aVof
p9865
aVwhisky
p9866
aVand
p9867
aVsoda
p9868
aVin
p9869
aVbaker
p9870
aVstreet
p9871
aV,
aV``
p9872
aVit
p9873
aVwas
p9874
aVperfectly
p9875
aVobvious
p9876
aVfrom
p9877
aVthe
p9878
aVfirst
p9879
aVthat
p9880
aVthe
p9881
aVonly
p9882
aVpossible
p9883
aVobject
p9884
aVof
p9885
aVthis
p9886
aVrather
p9887
aVfantastic
p9888
aVbusiness
p9889
aVof
p9890
aVthe
p9891
aVadvertisement
p9892
aVof
p9893
aVthe
p9894
aVleague
p9895
aV,
aVand
p9896
aVthe
p9897
aVcopying
p9898
aVof
p9899
aVthe
p9900
aVencyclopaedia
p9901
aV,
aVmust
p9902
aVbe
p9903
aVto
p9904
aVget
p9905
aVthis
p9906
aVnot
p9907
aVover-bright
p9908
aVpawnbroker
p9909
aVout
p9910
aVof
p9911
aVthe
p9912
aVway
p9913
aVfor
p9914
aVa
aVnumber
p9915
aVof
p9916
aVhours
p9917
aVevery
p9918
aVday
p9919
aV.
aa(lp9920
Vit
p9921
aVwas
p9922
aVa
aVcurious
p9923
aVway
p9924
aVof
p9925
aVmanaging
p9926
aVit
p9927
aV,
aVbut
p9928
aV,
aVreally
p9929
aV,
aVit
p9930
aVwould
p9931
aVbe
p9932
aVdifficult
p9933
aVto
p9934
aVsuggest
p9935
aVa
aVbetter
p9936
aV.
aa(lp9937
Vthe
p9938
aVmethod
p9939
aVwas
p9940
aVno
p9941
aVdoubt
p9942
aVsuggested
p9943
aVto
p9944
aVclay
p9945
aV's
p9946
aVingenious
p9947
aVmind
p9948
aVby
p9949
aVthe
p9950
aVcolor
p9951
aVof
p9952
aVhis
p9953
aVaccomplice
p9954
aV's
p9955
aVhair
p9956
aV.
aa(lp9957
Vthe
p9958
aV4
aVpounds
p9959
aVa
aVweek
p9960
aVwas
p9961
aVa
aVlure
p9962
aVwhich
p9963
aVmust
p9964
aVdraw
p9965
aVhim
p9966
aV,
aVand
p9967
aVwhat
p9968
aVwas
p9969
aVit
p9970
aVto
p9971
aVthem
p9972
aV,
aVwho
p9973
aVwere
p9974
aVplaying
p9975
aVfor
p9976
aVthousands
p9977
aV?
aa(lp9978
Vthey
p9979
aVput
p9980
aVin
p9981
aVthe
p9982
aVadvertisement
p9983
aV,
aVone
p9984
aVrogue
p9985
aVhas
p9986
aVthe
p9987
aVtemporary
p9988
aVoffice
p9989
aV,
aVthe
p9990
aVother
p9991
aVrogue
p9992
aVincites
p9993
aVthe
p9994
aVman
p9995
aVto
p9996
aVapply
p9997
aVfor
p9998
aVit
p9999
aV.
aa(lp10000
Vand
p10001
aVtogether
p10002
aVthey
p10003
aVmanage
p10004
aVto
p10005
aVsecure
p10006
aVhis
p10007
aVabsence
p10008
aVevery
p10009
aVmorning
p10010
aVin
p10011
aVthe
p10012
aVweek
p10013
aV.
aa(lp10014
Vfrom
p10015
aVthe
p10016
aVtime
p10017
aVthat
p10018
aVi
aVheard
p10019
aVof
p10020
aVthe
p10021
aVassistant
p10022
aVhaving
p10023
aVcome
p10024
aVfor
p10025
aVhalf
p10026
aVwages
p10027
aV,
aVit
p10028
aVwas
p10029
aVobvious
p10030
aVto
p10031
aVme
p10032
aVthat
p10033
aVhe
p10034
aVhad
p10035
aVsome
p10036
aVstrong
p10037
aVmotive
p10038
aVfor
p10039
aVsecuring
p10040
aVthe
p10041
aVsituation
p10042
aV.
aV''
p10043
aa(lp10044
V``
p10045
aVbut
p10046
aVhow
p10047
aVcould
p10048
aVyou
p10049
aVguess
p10050
aVwhat
p10051
aVthe
p10052
aVmotive
p10053
aVwas
p10054
aV?
aV''
p10055
aa(lp10056
V``
p10057
aVhad
p10058
aVthere
p10059
aVbeen
p10060
aVwomen
p10061
aVin
p10062
aVthe
p10063
aVhouse
p10064
aV,
aVi
aVshould
p10065
aVhave
p10066
aVsuspected
p10067
aVa
aVmere
p10068
aVvulgar
p10069
aVintrigue
p10070
aV.
aa(lp10071
Vthat
p10072
aV,
aVhowever
p10073
aV,
aVwas
p10074
aVout
p10075
aVof
p10076
aVthe
p10077
aVquestion
p10078
aV.
aa(lp10079
Vthe
p10080
aVman
p10081
aV's
p10082
aVbusiness
p10083
aVwas
p10084
aVa
aVsmall
p10085
aVone
p10086
aV,
aVand
p10087
aVthere
p10088
aVwas
p10089
aVnothing
p10090
aVin
p10091
aVhis
p10092
aVhouse
p10093
aVwhich
p10094
aVcould
p10095
aVaccount
p10096
aVfor
p10097
aVsuch
p10098
aVelaborate
p10099
aVpreparations
p10100
aV,
aVand
p10101
aVsuch
p10102
aVan
p10103
aVexpenditure
p10104
aVas
p10105
aVthey
p10106
aVwere
p10107
aVat
p10108
aV.
aa(lp10109
Vit
p10110
aVmust
p10111
aV,
aVthen
p10112
aV,
aVbe
p10113
aVsomething
p10114
aVout
p10115
aVof
p10116
aVthe
p10117
aVhouse
p10118
aV.
aa(lp10119
Vwhat
p10120
aVcould
p10121
aVit
p10122
aVbe
p10123
aV?
aa(lp10124
Vi
aVthought
p10125
aVof
p10126
aVthe
p10127
aVassistant
p10128
aV's
p10129
aVfondness
p10130
aVfor
p10131
aVphotography
p10132
aV,
aVand
p10133
aVhis
p10134
aVtrick
p10135
aVof
p10136
aVvanishing
p10137
aVinto
p10138
aVthe
p10139
aVcellar
p10140
aV.
aa(lp10141
Vthe
p10142
aVcellar
p10143
aV!
aa(lp10144
Vthere
p10145
aVwas
p10146
aVthe
p10147
aVend
p10148
aVof
p10149
aVthis
p10150
aVtangled
p10151
aVclew
p10152
aV.
aa(lp10153
Vthen
p10154
aVi
aVmade
p10155
aVinquiries
p10156
aVas
p10157
aVto
p10158
aVthis
p10159
aVmysterious
p10160
aVassistant
p10161
aVand
p10162
aVfound
p10163
aVthat
p10164
aVi
aVhad
p10165
aVto
p10166
aVdeal
p10167
aVwith
p10168
aVone
p10169
aVof
p10170
aVthe
p10171
aVcoolest
p10172
aVand
p10173
aVmost
p10174
aVdaring
p10175
aVcriminals
p10176
aVin
p10177
aVlondon
p10178
aV.
aa(lp10179
Vhe
p10180
aVwas
p10181
aVdoing
p10182
aVsomething
p10183
aVin
p10184
aVthe
p10185
aVcellar
p10186
aV--
p10187
aVsomething
p10188
aVwhich
p10189
aVtook
p10190
aVmany
p10191
aVhours
p10192
aVa
aVday
p10193
aVfor
p10194
aVmonths
p10195
aVon
p10196
aVend
p10197
aV.
aa(lp10198
Vwhat
p10199
aVcould
p10200
aVit
p10201
aVbe
p10202
aV,
aVonce
p10203
aVmore
p10204
aV?
aa(lp10205
Vi
aVcould
p10206
aVthink
p10207
aVof
p10208
aVnothing
p10209
aVsave
p10210
aVthat
p10211
aVhe
p10212
aVwas
p10213
aVrunning
p10214
aVa
aVtunnel
p10215
aVto
p10216
aVsome
p10217
aVother
p10218
aVbuilding
p10219
aV.
aa(lp10220
V``
p10221
aVso
p10222
aVfar
p10223
aVi
aVhad
p10224
aVgot
p10225
aVwhen
p10226
aVwe
p10227
aVwent
p10228
aVto
p10229
aVvisit
p10230
aVthe
p10231
aVscene
p10232
aVof
p10233
aVaction
p10234
aV.
aa(lp10235
Vi
aVsurprised
p10236
aVyou
p10237
aVby
p10238
aVbeating
p10239
aVupon
p10240
aVthe
p10241
aVpavement
p10242
aVwith
p10243
aVmy
p10244
aVstick
p10245
aV.
aa(lp10246
Vi
aVwas
p10247
aVascertaining
p10248
aVwhether
p10249
aVthe
p10250
aVcellar
p10251
aVstretched
p10252
aVout
p10253
aVin
p10254
aVfront
p10255
aVor
p10256
aVbehind
p10257
aV.
aa(lp10258
Vit
p10259
aVwas
p10260
aVnot
p10261
aVin
p10262
aVfront
p10263
aV.
aa(lp10264
Vthen
p10265
aVi
aVrang
p10266
aVthe
p10267
aVbell
p10268
aV,
aVand
p10269
aV,
aVas
p10270
aVi
aVhoped
p10271
aV,
aVthe
p10272
aVassistant
p10273
aVanswered
p10274
aVit
p10275
aV.
aa(lp10276
Vwe
p10277
aVhave
p10278
aVhad
p10279
aVsome
p10280
aVskirmishes
p10281
aV,
aVbut
p10282
aVwe
p10283
aVhad
p10284
aVnever
p10285
aVset
p10286
aVeyes
p10287
aVupon
p10288
aVeach
p10289
aVother
p10290
aVbefore
p10291
aV.
aa(lp10292
Vi
aVhardly
p10293
aVlooked
p10294
aVat
p10295
aVhis
p10296
aVface
p10297
aV.
aa(lp10298
Vhis
p10299
aVknees
p10300
aVwere
p10301
aVwhat
p10302
aVi
aVwished
p10303
aVto
p10304
aVsee
p10305
aV.
aa(lp10306
Vyou
p10307
aVmust
p10308
aVyourself
p10309
aVhave
p10310
aVremarked
p10311
aVhow
p10312
aVworn
p10313
aV,
aVwrinkled
p10314
aV,
aVand
p10315
aVstained
p10316
aVthey
p10317
aVwere
p10318
aV.
aa(lp10319
Vthey
p10320
aVspoke
p10321
aVof
p10322
aVthose
p10323
aVhours
p10324
aVof
p10325
aVburrowing
p10326
aV.
aa(lp10327
Vthe
p10328
aVonly
p10329
aVremaining
p10330
aVpoint
p10331
aVwas
p10332
aVwhat
p10333
aVthey
p10334
aVwere
p10335
aVburrowing
p10336
aVfor
p10337
aV.
aa(lp10338
Vi
aVwalked
p10339
aVround
p10340
aVthe
p10341
aVcorner
p10342
aV,
aVsaw
p10343
aVthe
p10344
aVcity
p10345
aVand
p10346
aVsuburban
p10347
aVbank
p10348
aVabutted
p10349
aVon
p10350
aVour
p10351
aVfriend
p10352
aV's
p10353
aVpremises
p10354
aV,
aVand
p10355
aVfelt
p10356
aVthat
p10357
aVi
aVhad
p10358
aVsolved
p10359
aVmy
p10360
aVproblem
p10361
aV.
aa(lp10362
Vwhen
p10363
aVyou
p10364
aVdrove
p10365
aVhome
p10366
aVafter
p10367
aVthe
p10368
aVconcert
p10369
aVi
aVcalled
p10370
aVupon
p10371
aVscotland
p10372
aVyard
p10373
aVand
p10374
aVupon
p10375
aVthe
p10376
aVchairman
p10377
aVof
p10378
aVthe
p10379
aVbank
p10380
aVdirectors
p10381
aV,
aVwith
p10382
aVthe
p10383
aVresult
p10384
aVthat
p10385
aVyou
p10386
aVhave
p10387
aVseen
p10388
aV.
aV''
p10389
aa(lp10390
V``
p10391
aVand
p10392
aVhow
p10393
aVcould
p10394
aVyou
p10395
aVtell
p10396
aVthat
p10397
aVthey
p10398
aVwould
p10399
aVmake
p10400
aVtheir
p10401
aVattempt
p10402
aVto-night
p10403
aV?
aV''
p10404
aa(lp10405
Vi
aVasked
p10406
aV.
aa(lp10407
V``
p10408
aVwell
p10409
aV,
aVwhen
p10410
aVthey
p10411
aVclosed
p10412
aVtheir
p10413
aVleague
p10414
aVoffices
p10415
aVthat
p10416
aVwas
p10417
aVa
aVsign
p10418
aVthat
p10419
aVthey
p10420
aVcared
p10421
aVno
p10422
aVlonger
p10423
aVabout
p10424
aVmr.
p10425
aVjabez
p10426
aVwilson
p10427
aV's
p10428
aVpresence
p10429
aV--
p10430
aVin
p10431
aVother
p10432
aVwords
p10433
aV,
aVthat
p10434
aVthey
p10435
aVhad
p10436
aVcompleted
p10437
aVtheir
p10438
aVtunnel
p10439
aV.
aa(lp10440
Vbut
p10441
aVit
p10442
aVwas
p10443
aVessential
p10444
aVthat
p10445
aVthey
p10446
aVshould
p10447
aVuse
p10448
aVit
p10449
aVsoon
p10450
aV,
aVas
p10451
aVit
p10452
aVmight
p10453
aVbe
p10454
aVdiscovered
p10455
aV,
aVor
p10456
aVthe
p10457
aVbullion
p10458
aVmight
p10459
aVbe
p10460
aVremoved
p10461
aV.
aa(lp10462
Vsaturday
p10463
aVwould
p10464
aVsuit
p10465
aVthem
p10466
aVbetter
p10467
aVthan
p10468
aVany
p10469
aVother
p10470
aVday
p10471
aV,
aVas
p10472
aVit
p10473
aVwould
p10474
aVgive
p10475
aVthem
p10476
aVtwo
p10477
aVdays
p10478
aVfor
p10479
aVtheir
p10480
aVescape
p10481
aV.
aa(lp10482
Vfor
p10483
aVall
p10484
aVthese
p10485
aVreasons
p10486
aVi
aVexpected
p10487
aVthem
p10488
aVto
p10489
aVcome
p10490
aVto-night
p10491
aV.
aV''
p10492
aa(lp10493
V``
p10494
aVyou
p10495
aVreasoned
p10496
aVit
p10497
aVout
p10498
aVbeautifully
p10499
aV,
aV''
p10500
aVi
aVexclaimed
p10501
aVin
p10502
aVunfeigned
p10503
aVadmiration
p10504
aV``
p10505
aVit
p10506
aVis
p10507
aVso
p10508
aVlong
p10509
aVa
aVchain
p10510
aV,
aVand
p10511
aVyet
p10512
aVevery
p10513
aVlink
p10514
aVrings
p10515
aVtrue
p10516
aV.
aV''
p10517
aa(lp10518
V``
p10519
aVit
p10520
aVsaved
p10521
aVme
p10522
aVfrom
p10523
aVennui
p10524
aV,
aV''
p10525
aVhe
p10526
aVanswered
p10527
aV,
aVyawning
p10528
aV.
aa(lp10529
V``
p10530
aValas
p10531
aV!
aa(lp10532
Vi
aValready
p10533
aVfeel
p10534
aVit
p10535
aVclosing
p10536
aVin
p10537
aVupon
p10538
aVme
p10539
aV.
aa(lp10540
Vmy
p10541
aVlife
p10542
aVis
p10543
aVspent
p10544
aVin
p10545
aVone
p10546
aVlong
p10547
aVeffort
p10548
aVto
p10549
aVescape
p10550
aVfrom
p10551
aVthe
p10552
aVcommonplaces
p10553
aVof
p10554
aVexistence
p10555
aV.
aa(lp10556
Vthese
p10557
aVlittle
p10558
aVproblems
p10559
aVhelp
p10560
aVme
p10561
aVto
p10562
aVdo
p10563
aVso
p10564
aV.
aV''
p10565
aa(lp10566
V``
p10567
aVand
p10568
aVyou
p10569
aVare
p10570
aVa
aVbenefactor
p10571
aVof
p10572
aVthe
p10573
aVrace
p10574
aV,
aV''
p10575
aVsaid
p10576
aVi.
p10577
aVhe
p10578
aVshrugged
p10579
aVhis
p10580
aVshoulders
p10581
aV.
aa(lp10582
V``
p10583
aVwell
p10584
aV,
aVperhaps
p10585
aV,
aVafter
p10586
aVall
p10587
aV,
aVit
p10588
aVis
p10589
aVof
p10590
aVsome
p10591
aVlittle
p10592
aVuse
p10593
aV,
aV''
p10594
aVhe
p10595
aVremarked.
p10596
aV``
p10597
aa(lp10598
V'l'homme
p10599
aVc'est
p10600
aVrien
p10601
aV--
p10602
aVl'oeuvre
p10603
aVc'est
p10604
aVtout
p10605
aV,
aV'
aVas
p10606
aVgustave
p10607
aVflaubert
p10608
aVwrote
p10609
aVto
p10610
aVgeorge
p10611
aVsand
p10612
aV.
aV''
p10613
aasb.