ccopy_reg
_reconstructor
p1
(cData.Book
Book
p2
c__builtin__
object
p3
NtRp4
(dp5
S'stored_object'
p6
S'Books/The_Jilting_of_Granny_Weatherall/Book_object.p'
p7
sS'title'
p8
S'The Jilting of Granny Weatherall'
p9
sS'main_text_path'
p10
S'Books/The_Jilting_of_Granny_Weatherall/main_cleaned.txt'
p11
sS'metadata_path'
p12
S'Books/The_Jilting_of_Granny_Weatherall/meta_data.csv'
p13
sS'book_path'
p14
S'Books/The_Jilting_of_Granny_Weatherall/'
p15
sS'characters'
p16
(dp17
S'jimmy'
p18
(dp19
S'list'
p20
(lp21
(lp22
V[
aVCHARACTER
p23
aV]
aV-
aVone
p24
aVof
p25
aVgranny
p26
aV's
p27
aVchildren
p28
aV.
aa(lp29
V[
aVCHARACTER
p30
aV]
aVasks
p31
aVgranny
p32
aVfor
p33
aVbusiness
p34
aVadvice
p35
aV.
aasS'analysis'
p36
NssS'doctor harry'
p37
(dp38
g20
(lp39
(lp40
V[
aVCHARACTER
p41
aV]
aV-
aVa
aVkind
p42
aVbut
p43
aVcondescending
p44
aVman
p45
aVwho
p46
aVattends
p47
aVto
p48
aVgranny
p49
aVon
p50
aVher
p51
aVdeathbed
p52
aV.
aa(lp53
Vgranny
p54
aVthinks
p55
aVof
p56
aVhim
p57
aVas
p58
aVludicrously
p59
aVyoung
p60
aV.
aasg36
NssS'father connolly'
p61
(dp62
g20
(lp63
(lp64
V[
aVCHARACTER
p65
aV]
aV-
aVthe
p66
aVpriest
p67
aVwho
p68
aVdelivers
p69
aVthe
p70
aVlast
p71
aVrites
p72
aVto
p73
aVgranny
p74
aV.
aa(lp75
V[
aVCHARACTER
p76
aV]
aVaffects
p77
aVa
aVpious
p78
aVair
p79
aVwhile
p80
aVspeaking
p81
aVlatin
p82
aVover
p83
aVgranny
p84
aV,
aVbut
p85
aVshe
p86
aVremembers
p87
aVhim
p88
aVas
p89
aVa
aVjokester
p90
aVwho
p91
aVwas
p92
aVless
p93
aVinterested
p94
aVin
p95
aVdiscussing
p96
aVreligion
p97
aVthan
p98
aVin
p99
aVgossiping
p100
aVover
p101
aVtea
p102
aV.
aasg36
NssS'lydia'
p103
(dp104
g20
(lp105
(lp106
V[
aVCHARACTER
p107
aV]
aV-
aVone
p108
aVof
p109
aVgranny
p110
aV's
p111
aVchildren
p112
aV.
aa(lp113
V[
aVCHARACTER
p114
aV]
aVoften
p115
aVcomes
p116
aVto
p117
aVgranny
p118
aVfor
p119
aVadvice
p120
aVwhen
p121
aVshe
p122
aVis
p123
aVhaving
p124
aVtrouble
p125
aVwith
p126
aVher
p127
aVchildren
p128
aV.
aa(lp129
Vgranny
p130
aVthinks
p131
aVthat
p132
aVbecause
p133
aV[
aVCHARACTER
p134
aV]
aVhas
p135
aVan
p136
aVirresponsible
p137
aVhusband
p138
aV,
aVshe
p139
aVwill
p140
aVneed
p141
aVthe
p142
aVland
p143
aV.
aasg36
NssS'cornelia'
p144
(dp145
g20
(lp146
(lp147
V[
aVCHARACTER
p148
aV]
aV-
aVone
p149
aVof
p150
aVgranny
p151
aV's
p152
aVchildren
p153
aV.
aa(lp154
V[
aVCHARACTER
p155
aV]
aVis
p156
aVthe
p157
aVprimary
p158
aVcaregiver
p159
aVduring
p160
aVgranny
p161
aV's
p162
aVillness
p163
aV.
aa(lp164
V[
aVCHARACTER
p165
aV]
aVloves
p166
aVher
p167
aVmother
p168
aVand
p169
aVis
p170
aVdevastated
p171
aVby
p172
aVthe
p173
aVprospect
p174
aVof
p175
aVher
p176
aVdeath
p177
aV.
aasg36
NssS'hapsy'
p178
(dp179
g20
(lp180
(lp181
V[
aVCHARACTER
p182
aV]
aV-
aVgranny
p183
aV's
p184
aVfavorite
p185
aVchild
p186
aV.
aa(lp187
Vgranny
p188
aVlongs
p189
aVto
p190
aVsee
p191
aV[
aVCHARACTER
p192
aV]
aV,
aVwho
p193
aVdoes
p194
aVn't
p195
aVcome
p196
aVto
p197
aVthe
p198
aVhouse
p199
aV.
aa(lp200
Vthere
p201
aVis
p202
aVsome
p203
aVsuggestion
p204
aV,
aVnever
p205
aVconfirmed
p206
aV,
aVthat
p207
aV[
aVCHARACTER
p208
aV]
aVdied
p209
aVin
p210
aVchildbirth
p211
aV.
aa(lp212
Vgranny
p213
aVhas
p214
aVa
aVvision
p215
aVof
p216
aV[
aVCHARACTER
p217
aV]
aVholding
p218
aVa
aVbaby
p219
aVand
p220
aVwelcoming
p221
aVher
p222
aV.
aa(lp223
Vand
p224
aVin
p225
aVher
p226
aVlast
p227
aVmoments
p228
aVof
p229
aVlife
p230
aV,
aVgranny
p231
aVthinks
p232
aVof
p233
aV[
aVCHARACTER
p234
aV]
aVpreparing
p235
aVto
p236
aVgive
p237
aVbirth
p238
aV.
aasg36
NssS'john'
p239
(dp240
g20
(lp241
(lp242
V[
aVCHARACTER
p243
aV]
aV-
aVgranny
p244
aV's
p245
aVhusband
p246
aV.
aa(lp247
V[
aVCHARACTER
p248
aV]
aVdied
p249
aVwhen
p250
aVhe
p251
aVwas
p252
aVa
aVyoung
p253
aVman
p254
aV,
aVand
p255
aVgranny
p256
aV's
p257
aVmemories
p258
aVsuggest
p259
aVthat
p260
aVhe
p261
aVwas
p262
aVa
aVkind
p263
aVhusband
p264
aVand
p265
aVfather
p266
aV.
aa(lp267
Vshe
p268
aVwishes
p269
aVhe
p270
aVcould
p271
aVsee
p272
aVthe
p273
aVchildren
p274
aVgrown
p275
aVup
p276
aVand
p277
aVbelieves
p278
aVthat
p279
aVhe
p280
aVwould
p281
aVadmire
p282
aVher
p283
aVskill
p284
aVin
p285
aVcaring
p286
aVfor
p287
aVothers
p288
aV.
aasg36
NssS'george'
p289
(dp290
g20
(lp291
(lp292
V[
aVCHARACTER
p293
aV]
aV-
aVthe
p294
aVman
p295
aVwho
p296
aVjilted
p297
aVgranny
p298
aVweatherall
p299
aV,
aVleaving
p300
aVher
p301
aValone
p302
aVat
p303
aVthe
p304
aValtar
p305
aVwhen
p306
aVshe
p307
aVwas
p308
aVa
aVyoung
p309
aVwoman
p310
aV.
aa(lp311
Vgranny
p312
aVstill
p313
aVloves
p314
aV[
aVCHARACTER
p315
aV]
aV,
aVeven
p316
aVthough
p317
aVshe
p318
aVhas
p319
aVspent
p320
aVmuch
p321
aVof
p322
aVher
p323
aVadult
p324
aVlife
p325
aVtrying
p326
aVnot
p327
aVto
p328
aVthink
p329
aVabout
p330
aVhim
p331
aV.
aasg36
NssS'granny weatherall'
p332
(dp333
g20
(lp334
(lp335
V[
aVCHARACTER
p336
aV]
aV-
aVa
aVwoman
p337
aVwho
p338
aV's
p339
aVabout
p340
aVeighty
p341
aV.
aa(lp342
Vafter
p343
aVshe
p344
aVwas
p345
aVjilted
p346
aVat
p347
aVthe
p348
aValtar
p349
aVby
p350
aVgeorge
p351
aV,
aV[
aVCHARACTER
p352
aV]
aVmarried
p353
aVjohn
p354
aV,
aVwho
p355
aVdied
p356
aVyoung
p357
aV,
aVleaving
p358
aVher
p359
aVwith
p360
aVseveral
p361
aVchildren
p362
aVto
p363
aVcare
p364
aVfor
p365
aV.
aa(lp366
Vgranny
p367
aV,
aVwhose
p368
aVgiven
p369
aVname
p370
aVis
p371
aVellen
p372
aV,
aVused
p373
aVto
p374
aVbe
p375
aVa
aVmidwife
p376
aVand
p377
aVnurse
p378
aV.
aa(lp379
Vmeticulous
p380
aVby
p381
aVnature
p382
aV,
aVshe
p383
aVis
p384
aVannoyed
p385
aVby
p386
aVcornelia
p387
aV's
p388
aVand
p389
aVthe
p390
aVdoctor
p391
aV's
p392
aVattempts
p393
aVto
p394
aVmake
p395
aVher
p396
aVmore
p397
aVcomfortable
p398
aV.
aasg36
(lp399
(lp400
V[
aVCHARACTER
p401
aV]
aV[
aVCHARACTER
p402
aV]
aVthinks
p403
aVof
p404
aVherself
p405
aVfirst
p406
aVand
p407
aVforemost
p408
aVas
p409
aVa
aVgritty
p410
aVsurvivor
p411
aV.
aa(lp412
Vshe
p413
aVprides
p414
aVherself
p415
aVon
p416
aVher
p417
aVstrength
p418
aV,
aVmothering
p419
aVskills
p420
aV,
aVand
p421
aVability
p422
aVto
p423
aVrun
p424
aVa
aVhousehold
p425
aVsingle-handedly
p426
aV.
aa(lp427
Vafter
p428
aVthe
p429
aVdeath
p430
aVof
p431
aVher
p432
aVhusband
p433
aV,
aVjohn
p434
aV,
aVgranny
p435
aVturned
p436
aVherself
p437
aVinto
p438
aVboth
p439
aVmother
p440
aVand
p441
aVfather
p442
aVto
p443
aVher
p444
aVchildren
p445
aV.
aa(lp446
Vwhen
p447
aVshe
p448
aVspeaks
p449
aVof
p450
aVher
p451
aVlife
p452
aV,
aVshe
p453
aVmentions
p454
aVtraditionally
p455
aVfeminine
p456
aVtasks
p457
aVsuch
p458
aVas
p459
aVcooking
p460
aV;
aVmaking
p461
aVclothes
p462
aV;
aVgardening
p463
aV;
aVand
p464
aVtending
p465
aVto
p466
aVsick
p467
aVpeople
p468
aV,
aVanimals
p469
aV,
aVand
p470
aVwomen
p471
aVin
p472
aVlabor
p473
aV.
aa(lp474
Vshe
p475
aValso
p476
aVspeaks
p477
aVof
p478
aVmasculine
p479
aVjobs
p480
aVsuch
p481
aVas
p482
aVpaying
p483
aVbills
p484
aVand
p485
aVdigging
p486
aVpost
p487
aVholes
p488
aVacross
p489
aVone
p490
aVhundred
p491
aVacres
p492
aVof
p493
aVland
p494
aV.
aa(lp495
Vgranny
p496
aV's
p497
aVlast
p498
aVname
p499
aV,
aV``
p500
aVweatherall
p501
aV,
aV''
p502
aVis
p503
aVsignificant
p504
aV:
aVshe
p505
aVhas
p506
aVweathered
p507
aVall
p508
aVkinds
p509
aVof
p510
aVdifficulties
p511
aVand
p512
aVca
p513
aVn't
p514
aVconceive
p515
aVof
p516
aVever
p517
aVgiving
p518
aVup
p519
aVthe
p520
aVfight
p521
aV.
aa(lp522
Veven
p523
aVwhen
p524
aVgravely
p525
aVill
p526
aV,
aVshe
p527
aVtells
p528
aVherself
p529
aVthat
p530
aVshe
p531
aV's
p532
aVnot
p533
aVtired
p534
aVor
p535
aVdying
p536
aVand
p537
aVwill
p538
aVbe
p539
aVup
p540
aVand
p541
aVabout
p542
aVand
p543
aVback
p544
aVto
p545
aVher
p546
aVold
p547
aVself
p548
aVin
p549
aVjust
p550
aVa
aVfew
p551
aVdays
p552
aV.
aa(lp553
Vbecause
p554
aVshe
p555
aVidentifies
p556
aVherself
p557
aVas
p558
aVa
aVstrong
p559
aV,
aVcapable
p560
aVmatriarch
p561
aV,
aVit
p562
aVenrages
p563
aVgranny
p564
aVwhen
p565
aVher
p566
aVown
p567
aVchildren
p568
aVtreat
p569
aVher
p570
aVlike
p571
aVa
aVchild
p572
aV,
aVhumoring
p573
aVher
p574
aVand
p575
aVshooting
p576
aVmeaningful
p577
aVglances
p578
aVat
p579
aVeach
p580
aVother
p581
aVas
p582
aVif
p583
aVshe
p584
aVca
p585
aVn't
p586
aVsee
p587
aVthem
p588
aV.
aa(lp589
Vthere
p590
aVare
p591
aVmany
p592
aVattributes
p593
aVof
p594
aV[
aVCHARACTER
p595
aV]
aV's
p596
aVpersonality
p597
aVthat
p598
aVshe
p599
aV's
p600
aVnot
p601
aVaware
p602
aVof
p603
aV--
p604
aVsome
p605
aVendearing
p606
aV,
aVsome
p607
aVfrustrating
p608
aV,
aVand
p609
aVsome
p610
aVtragic
p611
aV.
aa(lp612
Vshe
p613
aVis
p614
aVa
aVfunny
p615
aV,
aVwry
p616
aVwoman
p617
aV,
aVfor
p618
aVexample
p619
aV,
aVwho
p620
aVfinds
p621
aVexcessively
p622
aVgood
p623
aVbehavior
p624
aVannoying
p625
aVin
p626
aVeveryone
p627
aV,
aVincluding
p628
aVher
p629
aVchildren
p630
aV.
aa(lp631
Vshe
p632
aVis
p633
aValso
p634
aVa
aVsmart
p635
aVwoman
p636
aV,
aVperceptive
p637
aVabout
p638
aVpeople
p639
aVother
p640
aVthan
p641
aVherself
p642
aVand
p643
aVcapable
p644
aVof
p645
aVcracking
p646
aVjokes
p647
aVminutes
p648
aVbefore
p649
aVdeath
p650
aV.
aa(lp651
Vher
p652
aVquips
p653
aVand
p654
aVobservant
p655
aVremarks
p656
aVare
p657
aVlargely
p658
aVunspoken
p659
aVbecause
p660
aVof
p661
aVher
p662
aVillness
p663
aV,
aVbut
p664
aVit
p665
aVis
p666
aVclear
p667
aVfrom
p668
aVher
p669
aVthoughts
p670
aVthat
p671
aVshe
p672
aVhad
p673
aVa
aVsharp
p674
aV,
aVmerciless
p675
aVtongue
p676
aVwhen
p677
aVshe
p678
aVwas
p679
aVin
p680
aVher
p681
aVprime
p682
aV.
aa(lp683
Vthis
p684
aVsharpness
p685
aVoften
p686
aVborders
p687
aVon
p688
aVunkindness
p689
aV,
aVperhaps
p690
aVeven
p691
aVcruelty
p692
aV.
aa(lp693
Vgranny
p694
aVis
p695
aVshamefully
p696
aVshort-tempered
p697
aVwith
p698
aVher
p699
aVdaughter
p700
aVcornelia
p701
aV,
aVwho
p702
aVclearly
p703
aVadores
p704
aVher
p705
aVmother
p706
aVand
p707
aVwaits
p708
aVon
p709
aVher
p710
aVhand
p711
aVand
p712
aVfoot
p713
aV.
aa(lp714
Vgranny
p715
aV's
p716
aVlife
p717
aVhas
p718
aVbeen
p719
aVa
aVhard
p720
aVone
p721
aV,
aVand
p722
aVshe
p723
aVhas
p724
aVcoped
p725
aVwith
p726
aVit
p727
aVby
p728
aVrepressing
p729
aVmany
p730
aVof
p731
aVher
p732
aVmost
p733
aVpainful
p734
aVfeelings
p735
aVand
p736
aVmaintaining
p737
aVstrict
p738
aV,
aValmost
p739
aVobsessive
p740
aVcontrol
p741
aVover
p742
aVeverything
p743
aVfrom
p744
aVthe
p745
aVharvesting
p746
aVof
p747
aVfruit
p748
aVto
p749
aVthe
p750
aVplacement
p751
aVof
p752
aVhairbrushes
p753
aV.
aa(lp754
Vshe
p755
aVthinks
p756
aVof
p757
aVlife
p758
aVas
p759
aVan
p760
aVunmade
p761
aVbed
p762
aVand
p763
aVherself
p764
aVas
p765
aVthe
p766
aVonly
p767
aVperson
p768
aVwho
p769
aVcan
p770
aVmake
p771
aVit
p772
aVproperly
p773
aV.
aasssS'mainText'
p774
(lp775
(lp776
Vthe
p777
aVjilting
p778
aVof
p779
aVgranny
p780
aVweatherall
p781
aV(
aV1930
p782
aV)
aVby
p783
aVkatherine
p784
aVanne
p785
aVporter
p786
aVshe
p787
aVflicked
p788
aVher
p789
aVwrist
p790
aVneatly
p791
aVout
p792
aVof
p793
aVdoctor
p794
aVharry\u2019s
p795
aVpudgy
p796
aVcareful
p797
aVfingers
p798
aVand
p799
aVpulled
p800
aVthe
p801
aVsheet
p802
aVup
p803
aVto
p804
aVher
p805
aVchin
p806
aV.
aa(lp807
Vthe
p808
aVbrat
p809
aVought
p810
aVto
p811
aVbe
p812
aVin
p813
aVknee
p814
aVbreeches
p815
aV.
aa(lp816
Vdoctoring
p817
aVaround
p818
aVthe
p819
aVcountry
p820
aVwith
p821
aVspectacles
p822
aVon
p823
aVhis
p824
aVnose
p825
aV!
aa(lp826
V\u201cget
p827
aValong
p828
aVnow
p829
aV,
aVtake
p830
aVyour
p831
aVschoolbooks
p832
aVand
p833
aVgo
p834
aV.
aa(lp835
Vthere\u2019s
p836
aVnothing
p837
aVwrong
p838
aVwith
p839
aVme.\u201d
p840
aVdoctor
p841
aVharry
p842
aVspread
p843
aVa
aVwarm
p844
aVpaw
p845
aVlike
p846
aVa
aVcushion
p847
aVon
p848
aVher
p849
aVforehead
p850
aVwhere
p851
aVthe
p852
aVforked
p853
aVgreen
p854
aVvein
p855
aVdanced
p856
aVand
p857
aVmade
p858
aVher
p859
aVeyelids
p860
aVtwitch
p861
aV.
aa(lp862
V\u201cnow
p863
aV,
aVnow
p864
aV,
aVbe
p865
aVa
aVgood
p866
aVgirl
p867
aV,
aVand
p868
aVwe\u2019ll
p869
aVhave
p870
aVyou
p871
aVup
p872
aVin
p873
aVno
p874
aVtime.\u201d
p875
aV\u201cthat\u2019s
p876
aVno
p877
aVway
p878
aVto
p879
aVspeak
p880
aVto
p881
aVa
aVwoman
p882
aVnearly
p883
aVeighty
p884
aVyears
p885
aVold
p886
aVjust
p887
aVbecause
p888
aVshe\u2019s
p889
aVdown
p890
aV.
aa(lp891
Vi\u2019d
p892
aVhave
p893
aVyou
p894
aVrespect
p895
aVyour
p896
aVelders
p897
aV,
aVyoung
p898
aVman.\u201d
p899
aV\u201cwell
p900
aV,
aVmissy
p901
aV,
aVexcuse
p902
aVme.\u201d
p903
aVdoctor
p904
aVharry
p905
aVpatted
p906
aVher
p907
aVcheek
p908
aV.
aa(lp909
V\u201cbut
p910
aVi\u2019ve
p911
aVgot
p912
aVto
p913
aVwarm
p914
aVyou
p915
aV,
aVhaven\u2019t
p916
aVi
aV?
aa(lp917
Vyou\u2019re
p918
aVa
aVmarvel
p919
aV,
aVbut
p920
aVyou
p921
aVmust
p922
aVbe
p923
aVcareful
p924
aVor
p925
aVyou\u2019re
p926
aVgoing
p927
aVto
p928
aVbe
p929
aVgood
p930
aVand
p931
aVsorry.\u201d
p932
aV\u201cdon\u2019t
p933
aVtell
p934
aVme
p935
aVwhat
p936
aVi\u2019m
p937
aVgoing
p938
aVto
p939
aVbe
p940
aV.
aa(lp941
Vi\u2019m
p942
aVon
p943
aVmy
p944
aVfeet
p945
aVnow
p946
aV,
aVmorally
p947
aVspeaking
p948
aV.
aa(lp949
Vit\u2019s
p950
aVcornelia
p951
aV.
aa(lp952
Vi
aVhad
p953
aVto
p954
aVgo
p955
aVto
p956
aVbed
p957
aVto
p958
aVget
p959
aVrid
p960
aVof
p961
aVher.\u201d
p962
aVher
p963
aVbones
p964
aVfelt
p965
aVloose
p966
aV,
aVand
p967
aVfloated
p968
aVaround
p969
aVin
p970
aVher
p971
aVskin
p972
aV,
aVand
p973
aVdoctor
p974
aVharry
p975
aVfloated
p976
aVlike
p977
aVa
aVballoon
p978
aVaround
p979
aVthe
p980
aVfoot
p981
aVof
p982
aVthe
p983
aVbed
p984
aV.
aa(lp985
Vhe
p986
aVfloated
p987
aVand
p988
aVpulled
p989
aVdown
p990
aVhis
p991
aVwaistcoat
p992
aVand
p993
aVswung
p994
aVhis
p995
aVglasses
p996
aVon
p997
aVa
aVcord
p998
aV.
aa(lp999
V\u201cwell
p1000
aV,
aVstay
p1001
aVwhere
p1002
aVyou
p1003
aVare
p1004
aV,
aVit
p1005
aVcertainly
p1006
aVcan\u2019t
p1007
aVhurt
p1008
aVyou.\u201d
p1009
aV\u201cget
p1010
aValong
p1011
aVand
p1012
aVdoctor
p1013
aVyour
p1014
aVsick
p1015
aV,
aV\u201d
aVsaid
p1016
aVgranny
p1017
aVweatherall
p1018
aV.
aa(lp1019
V\u201cleave
p1020
aVa
aVwell
p1021
aVwoman
p1022
aValone
p1023
aV.
aa(lp1024
Vi\u2019ll
p1025
aVcall
p1026
aVfor
p1027
aVyou
p1028
aVwhen
p1029
aVi
aVwant
p1030
aVyou\u2026
p1031
aVwhere
p1032
aVwere
p1033
aVyou
p1034
aVforty
p1035
aVyears
p1036
aVago
p1037
aVwhen
p1038
aVi
aVpulled
p1039
aVthrough
p1040
aVmilk-leg2
p1041
aVand
p1042
aVdouble
p1043
aVpneumonia
p1044
aV?
aa(lp1045
Vyou
p1046
aVweren\u2019t
p1047
aVeven
p1048
aVborn
p1049
aV.
aa(lp1050
Vdon\u2019t
p1051
aVlet
p1052
aVcornelia
p1053
aVlead
p1054
aVyou
p1055
aVon
p1056
aV,
aV\u201d
aVshe
p1057
aVshouted
p1058
aV,
aVbecause
p1059
aVdoctor
p1060
aVharry
p1061
aVappeared
p1062
aVto
p1063
aVfloat
p1064
aVup
p1065
aVto
p1066
aVthe
p1067
aVceiling
p1068
aVand
p1069
aVout
p1070
aV.
aa(lp1071
V\u201ci
p1072
aVpay
p1073
aVmy
p1074
aVown
p1075
aVbills
p1076
aV,
aVand
p1077
aVi
aVdon\u2019t
p1078
aVthrow
p1079
aVmy
p1080
aVmoney
p1081
aVaway
p1082
aVon
p1083
aVnonsense
p1084
aV!
aV\u201d
aVshe
p1085
aVmeant
p1086
aVto
p1087
aVwave
p1088
aVgood-by
p1089
aV,
aVbut
p1090
aVit
p1091
aVwas
p1092
aVtoo
p1093
aVmuch
p1094
aVtrouble
p1095
aV.
aa(lp1096
Vher
p1097
aVeyes
p1098
aVclosed
p1099
aVof
p1100
aVthemselves
p1101
aV,
aVit
p1102
aVwas
p1103
aVlike
p1104
aVa
aVdark
p1105
aVcurtain
p1106
aVdrawn
p1107
aVaround
p1108
aVthe
p1109
aVbed
p1110
aV.
aa(lp1111
Vthe
p1112
aVpillow
p1113
aVrose
p1114
aVand
p1115
aVfloated
p1116
aVunder
p1117
aVher
p1118
aV,
aVpleasant
p1119
aVas
p1120
aVa
aVhammock
p1121
aVin
p1122
aVa
aVlight
p1123
aVwind
p1124
aV.
aa(lp1125
Vshe
p1126
aVlistened
p1127
aVto
p1128
aVthe
p1129
aVleaves
p1130
aVrustling
p1131
aVoutside
p1132
aVthe
p1133
aVwindow
p1134
aV.
aa(lp1135
Vno
p1136
aV,
aVsomebody
p1137
aVwas
p1138
aVswishing
p1139
aVnewspapers
p1140
aV:
aVno
p1141
aV,
aVcornelia
p1142
aVand
p1143
aVdoctor
p1144
aVharry
p1145
aVwerewhisperingtogether
p1146
aV.
aa(lp1147
Vshe
p1148
aVleaped
p1149
aVbroad
p1150
aVawake
p1151
aV,
aVthinking
p1152
aVthey
p1153
aVwhispered
p1154
aVin
p1155
aVher
p1156
aVear
p1157
aV.
aa(lp1158
V\u201cshe
p1159
aVwas
p1160
aVnever
p1161
aVlike
p1162
aVthis
p1163
aV,
aVnever
p1164
aVlike
p1165
aVthis
p1166
aV!
aV\u201d
aV\u201cwell
p1167
aV,
aVwhat
p1168
aVcan
p1169
aVwe
p1170
aVexpect
p1171
aV?
aV\u201d
aV\u201cyes
p1172
aV,
aVeighty
p1173
aVyears
p1174
aVold\u2026.\u201d
p1175
aVthe
p1176
aVjilting
p1177
aVof
p1178
aVgranny
p1179
aVweatherall
p1180
aV2
aVwell
p1181
aV,
aVand
p1182
aVwhat
p1183
aVif
p1184
aVshe
p1185
aVwas
p1186
aV?
aa(lp1187
Vshe
p1188
aVstill
p1189
aVhad
p1190
aVears
p1191
aV.
aa(lp1192
Vit
p1193
aVwas
p1194
aVlike
p1195
aVcornelia
p1196
aVto
p1197
aVwhisper
p1198
aVaround
p1199
aVdoors
p1200
aV.
aa(lp1201
Vshe
p1202
aValways
p1203
aVkept
p1204
aVthings
p1205
aVsecret
p1206
aVin
p1207
aVsuch
p1208
aVa
aVpublic
p1209
aVway
p1210
aV.
aa(lp1211
Vshe
p1212
aVwas
p1213
aValways
p1214
aVbeing
p1215
aVtactful
p1216
aVand
p1217
aVkind
p1218
aV.
aa(lp1219
Vcornelia
p1220
aVwas
p1221
aVdutiful
p1222
aV;
aVthat
p1223
aVwas
p1224
aVthe
p1225
aVtrouble
p1226
aVwith
p1227
aVher
p1228
aV.
aa(lp1229
Vdutiful
p1230
aVand
p1231
aVgood
p1232
aV:
aV\u201cso
p1233
aVgood
p1234
aVand
p1235
aVdutiful
p1236
aV,
aV\u201d
aVsaid
p1237
aVgranny
p1238
aV,
aV\u201cthat
p1239
aVi\u2019d
p1240
aVlike
p1241
aVto
p1242
aVspank
p1243
aVher.\u201d
p1244
aVshe
p1245
aVsaw
p1246
aVherself
p1247
aVspanking
p1248
aVcornelia
p1249
aVand
p1250
aVmaking
p1251
aVa
aVfine
p1252
aVjob
p1253
aVof
p1254
aVit
p1255
aV.
aa(lp1256
V\u201cwhat\u2019d
p1257
aVyou
p1258
aVsay
p1259
aV,
aVmother
p1260
aV?
aV\u201d
aVgranny
p1261
aVfelt
p1262
aVher
p1263
aVface
p1264
aVtying
p1265
aVup
p1266
aVin
p1267
aVhard
p1268
aVknots
p1269
aV.
aa(lp1270
V\u201ccan\u2019t
p1271
aVa
aVbody
p1272
aVthink
p1273
aV,
aVi\u2019d
p1274
aVlike
p1275
aVto
p1276
aVknow
p1277
aV?
aV\u201d
aV\u201ci
p1278
aVthought
p1279
aVyou
p1280
aVmight
p1281
aVwant
p1282
aVsomething.\u201d
p1283
aV\u201ci
p1284
aVdo
p1285
aV.
aa(lp1286
Vi
aVwant
p1287
aVa
aVlot
p1288
aVof
p1289
aVthings
p1290
aV.
aa(lp1291
Vfirst
p1292
aVoff
p1293
aV,
aVgo
p1294
aVaway
p1295
aVand
p1296
aVdon\u2019t
p1297
aVwhisper.\u201d
p1298
aVshe
p1299
aVlay
p1300
aVand
p1301
aVdrowsed
p1302
aV,
aVhoping
p1303
aVin
p1304
aVher
p1305
aVsleep
p1306
aVthat
p1307
aVthe
p1308
aVchildren
p1309
aVwould
p1310
aVkeep
p1311
aVout
p1312
aVand
p1313
aVlet
p1314
aVher
p1315
aVrest
p1316
aVa
aVminute
p1317
aV.
aa(lp1318
Vit
p1319
aVhad
p1320
aVbeen
p1321
aVa
aVlong
p1322
aVday
p1323
aV.
aa(lp1324
Vnot
p1325
aVthat
p1326
aVshe
p1327
aVwas
p1328
aVtired
p1329
aV.
aa(lp1330
Vit
p1331
aVwas
p1332
aValways
p1333
aVpleasant
p1334
aVto
p1335
aVsnatch
p1336
aVa
aVminute
p1337
aVnow
p1338
aVand
p1339
aVthen
p1340
aV.
aa(lp1341
Vthere
p1342
aVwas
p1343
aValways
p1344
aVso
p1345
aVmuch
p1346
aVto
p1347
aVbe
p1348
aVdone
p1349
aV,
aVlet
p1350
aVme
p1351
aVsee
p1352
aV:
aVtomorrow
p1353
aV.
aa(lp1354
Vtomorrow
p1355
aVwas
p1356
aVfar
p1357
aVaway
p1358
aVand
p1359
aVthere
p1360
aVwas
p1361
aVnothing
p1362
aVto
p1363
aVtrouble
p1364
aVabout
p1365
aV.
aa(lp1366
Vthings
p1367
aVwere
p1368
aVfinished
p1369
aVsomehow
p1370
aVwhen
p1371
aVthe
p1372
aVtime
p1373
aVcame
p1374
aV;
aVthank
p1375
aVgod
p1376
aVthere
p1377
aVwas
p1378
aValways
p1379
aVa
aVlittle
p1380
aVmargin
p1381
aVover
p1382
aVfor
p1383
aVpeace
p1384
aV:
aVthen
p1385
aVa
aVperson
p1386
aVcould
p1387
aVspread
p1388
aVout
p1389
aVthe
p1390
aVplan
p1391
aVof
p1392
aVlife
p1393
aVand
p1394
aVtuck
p1395
aVin
p1396
aVthe
p1397
aVedges
p1398
aVorderly
p1399
aV.
aa(lp1400
Vit
p1401
aVwas
p1402
aVgood
p1403
aVto
p1404
aVhave
p1405
aVeverything
p1406
aVclean
p1407
aVand
p1408
aVfolded
p1409
aVaway
p1410
aV,
aVwith
p1411
aVthe
p1412
aVhair
p1413
aVbrushes
p1414
aVand
p1415
aVtonic
p1416
aVbottles
p1417
aVsitting
p1418
aVstraight
p1419
aVon
p1420
aVthe
p1421
aVwhite
p1422
aVembroidered
p1423
aVlinen
p1424
aV:
aVthe
p1425
aVday
p1426
aVstarted
p1427
aVwithout
p1428
aVfuss
p1429
aVand
p1430
aVthe
p1431
aVpantry
p1432
aVshelves
p1433
aVlaid
p1434
aVout
p1435
aVwith
p1436
aVrows
p1437
aVof
p1438
aVjelly
p1439
aVglasses
p1440
aVand
p1441
aVbrown
p1442
aVjugs
p1443
aVand
p1444
aVwhite
p1445
aVstone-china
p1446
aVjars
p1447
aVwith
p1448
aVblue
p1449
aVwhirligigs
p1450
aVand
p1451
aVwords
p1452
aVpainted
p1453
aVon
p1454
aVthem
p1455
aV:
aVcoffee
p1456
aV,
aVtea
p1457
aV,
aVsugar
p1458
aV,
aVginger
p1459
aV,
aVcinnamon
p1460
aV,
aVallspice
p1461
aV:
aVand
p1462
aVthe
p1463
aVbronze
p1464
aVclock
p1465
aVwith
p1466
aVthe
p1467
aVlion
p1468
aVon
p1469
aVtop
p1470
aVnicely
p1471
aVdusted
p1472
aVoff
p1473
aV.
aa(lp1474
Vthe
p1475
aVdust
p1476
aVthat
p1477
aVlion
p1478
aVcould
p1479
aVcollect
p1480
aVin
p1481
aVtwenty-four
p1482
aVhours
p1483
aV!
aa(lp1484
Vthe
p1485
aVbox
p1486
aVin
p1487
aVthe
p1488
aVattic
p1489
aVwith
p1490
aVall
p1491
aVthose
p1492
aVletters
p1493
aVtied
p1494
aVup
p1495
aV,
aVwell
p1496
aVshe\u2019d
p1497
aVhave
p1498
aVto
p1499
aVgo
p1500
aVthrough
p1501
aVthat
p1502
aVtomorrow
p1503
aV.
aa(lp1504
Vall
p1505
aVthose
p1506
aVletters
p1507
aV\u2013
aVgeorge\u2019s
p1508
aVletters
p1509
aVand
p1510
aVjohn\u2019s
p1511
aVletters
p1512
aVand
p1513
aVher
p1514
aVletters
p1515
aVto
p1516
aVthem
p1517
aVboth
p1518
aV\u2013
aVlying
p1519
aVaround
p1520
aVfor
p1521
aVthe
p1522
aVchildren
p1523
aVto
p1524
aVfind
p1525
aVafterwards
p1526
aVmade
p1527
aVher
p1528
aVuneasy
p1529
aV.
aa(lp1530
Vyes
p1531
aV,
aVthat
p1532
aVwould
p1533
aVbe
p1534
aVtomorrow\u2019s
p1535
aVbusiness
p1536
aV.
aa(lp1537
Vno
p1538
aVuse
p1539
aVto
p1540
aVlet
p1541
aVthem
p1542
aVknow
p1543
aVhow
p1544
aVsilly
p1545
aVshe
p1546
aVhad
p1547
aVbeen
p1548
aVonce
p1549
aV.
aa(lp1550
Vwhile
p1551
aVshe
p1552
aVwas
p1553
aVrummaging
p1554
aVaround
p1555
aVshe
p1556
aVfound
p1557
aVdeath
p1558
aVin
p1559
aVher
p1560
aVmind
p1561
aVand
p1562
aVit
p1563
aVfelt
p1564
aVclammy
p1565
aVand
p1566
aVunfamiliar
p1567
aV.
aa(lp1568
Vshe
p1569
aVhad
p1570
aVspent
p1571
aVso
p1572
aVmuch
p1573
aVtime
p1574
aVpreparing
p1575
aVfor
p1576
aVdeath
p1577
aVthere
p1578
aVwas
p1579
aVno
p1580
aVneed
p1581
aVfor
p1582
aVbringing
p1583
aVit
p1584
aVup
p1585
aVagain
p1586
aV.
aa(lp1587
Vlet
p1588
aVit
p1589
aVtake
p1590
aVcare
p1591
aVof
p1592
aVitself
p1593
aVnow
p1594
aV.
aa(lp1595
Vwhen
p1596
aVshe
p1597
aVwas
p1598
aVsixty
p1599
aVshe
p1600
aVhad
p1601
aVfelt
p1602
aVvery
p1603
aVold
p1604
aV,
aVfinished
p1605
aV,
aVand
p1606
aVwent
p1607
aVaround
p1608
aVmaking
p1609
aVfarewell
p1610
aVtrips
p1611
aVto
p1612
aVsee
p1613
aVher
p1614
aVchildren
p1615
aVand
p1616
aVgrandchildren
p1617
aV!
aa(lp1618
Vthen
p1619
aVshe
p1620
aVmade
p1621
aVher
p1622
aVwill
p1623
aVand
p1624
aVcame
p1625
aVdown
p1626
aVwith
p1627
aVa
aVlong
p1628
aVfever
p1629
aV.
aa(lp1630
Vthat
p1631
aVwas
p1632
aVall
p1633
aVjust
p1634
aVa
aVnotion
p1635
aVlike
p1636
aVa
aVlot
p1637
aVof
p1638
aVother
p1639
aVthings
p1640
aV,
aVbut
p1641
aVit
p1642
aVwas
p1643
aVlucky
p1644
aVtoo
p1645
aV,
aVfor
p1646
aVshe
p1647
aVhad
p1648
aVonce
p1649
aVfor
p1650
aVall
p1651
aVgot
p1652
aVover
p1653
aVthe
p1654
aVidea
p1655
aVof
p1656
aVdying
p1657
aVfor
p1658
aVa
aVlong
p1659
aVtime
p1660
aV.
aa(lp1661
Vnow
p1662
aVshe
p1663
aVcouldn\u2019t
p1664
aVbe
p1665
aVworried
p1666
aV.
aa(lp1667
Vshe
p1668
aVhoped
p1669
aVshe
p1670
aVhad
p1671
aVbetter
p1672
aVsense
p1673
aVnow
p1674
aV.
aa(lp1675
Vher
p1676
aVfather
p1677
aVhad
p1678
aVlived
p1679
aVto
p1680
aVbe
p1681
aVone
p1682
aVhundred
p1683
aVand
p1684
aVtwo
p1685
aVyears
p1686
aVold
p1687
aVand
p1688
aVhad
p1689
aVdrunk
p1690
aVa
aVnoggin3
p1691
aVof
p1692
aVstrong
p1693
aVhot
p1694
aVtoddy
p1695
aVon
p1696
aVhis
p1697
aVlast
p1698
aVbirthday
p1699
aV.
aa(lp1700
Vhe
p1701
aVtold
p1702
aVthe
p1703
aVreporters
p1704
aVit
p1705
aVthe
p1706
aVjilting
p1707
aVof
p1708
aVgranny
p1709
aVweatherall
p1710
aV3
aVwas
p1711
aVhis
p1712
aVdaily
p1713
aVhabit
p1714
aV,
aVand
p1715
aVhe
p1716
aVowed
p1717
aVhis
p1718
aVlong
p1719
aVlife
p1720
aVto
p1721
aVthat
p1722
aV.
aa(lp1723
Vhe
p1724
aVhad
p1725
aVmade
p1726
aVquite
p1727
aVa
aVscandal
p1728
aVand
p1729
aVwas
p1730
aVvery
p1731
aVpleased
p1732
aVabout
p1733
aVit
p1734
aV.
aa(lp1735
Vshe
p1736
aVbelieved
p1737
aVshe\u2019d
p1738
aVjust
p1739
aVplague
p1740
aVcornelia
p1741
aVa
aVlittle
p1742
aV.
aa(lp1743
V\u201ccornelia
p1744
aV!
aa(lp1745
Vcornelia
p1746
aV!
aV\u201d
aVno
p1747
aVfootsteps
p1748
aV,
aVbut
p1749
aVa
aVsudden
p1750
aVhand
p1751
aVon
p1752
aVher
p1753
aVcheek
p1754
aV.
aa(lp1755
V\u201cbless
p1756
aVyou
p1757
aV,
aVwhere
p1758
aVhave
p1759
aVyou
p1760
aVbeen
p1761
aV?
aV\u201d
aV\u201chere
p1762
aV,
aVmother.\u201d
p1763
aV\u201cwell
p1764
aV,
aVcornelia
p1765
aV,
aVi
aVwant
p1766
aVa
aVnoggin
p1767
aVof
p1768
aVhot
p1769
aVtoddy.\u201d
p1770
aV\u201care
p1771
aVyou
p1772
aVcold
p1773
aV,
aVdarling
p1774
aV?
aV\u201d
aV\u201ci\u2019m
p1775
aVchilly
p1776
aV,
aVcornelia
p1777
aV.
aa(lp1778
Vlying
p1779
aVin
p1780
aVbed
p1781
aVstops
p1782
aVthe
p1783
aVcirculation
p1784
aV.
aa(lp1785
Vi
aVmust
p1786
aVhave
p1787
aVtold
p1788
aVyou
p1789
aVthat
p1790
aVa
aVthousand
p1791
aVtimes.\u201d
p1792
aVwell
p1793
aV,
aVshe
p1794
aVcould
p1795
aVjust
p1796
aVhear
p1797
aVcornelia
p1798
aVtelling
p1799
aVher
p1800
aVhusband
p1801
aVthat
p1802
aVmother
p1803
aVwas
p1804
aVgetting
p1805
aVchildish
p1806
aVand
p1807
aVthey\u2019d
p1808
aVhave
p1809
aVto
p1810
aVhumor
p1811
aVher
p1812
aV.
aa(lp1813
Vthe
p1814
aVthing
p1815
aVthat
p1816
aVmost
p1817
aVannoyed
p1818
aVher
p1819
aVwas
p1820
aVthat
p1821
aVcornelia
p1822
aVthought
p1823
aVshe
p1824
aVwas
p1825
aVdeaf
p1826
aV,
aVdumb
p1827
aV,
aVand
p1828
aVblind
p1829
aV.
aa(lp1830
Vlittle
p1831
aVhasty
p1832
aVglances
p1833
aVand
p1834
aVtiny
p1835
aVgestures
p1836
aVtossed
p1837
aVaround
p1838
aVher
p1839
aVand
p1840
aVover
p1841
aVher
p1842
aVhead
p1843
aVsaying
p1844
aV,
aV\u201cdon\u2019t
p1845
aVcross
p1846
aVher
p1847
aV,
aVlet
p1848
aVher
p1849
aVhave
p1850
aVher
p1851
aVway
p1852
aV,
aVshe\u2019s
p1853
aVeighty
p1854
aVyears
p1855
aVold
p1856
aV,
aV\u201d
aVand
p1857
aVsitting
p1858
aVthere
p1859
aVas
p1860
aVif
p1861
aVshe
p1862
aVlived
p1863
aVin
p1864
aVa
aVthin
p1865
aVglass
p1866
aVcage
p1867
aV.
aa(lp1868
Vsometimes
p1869
aVgranny
p1870
aValmost
p1871
aVmade
p1872
aVup
p1873
aVher
p1874
aVmind
p1875
aVto
p1876
aVpack
p1877
aVup
p1878
aVand
p1879
aVmove
p1880
aVback
p1881
aVto
p1882
aVher
p1883
aVown
p1884
aVhouse
p1885
aVwhere
p1886
aVnobody
p1887
aVcould
p1888
aVremind
p1889
aVher
p1890
aVevery
p1891
aVminute
p1892
aVthat
p1893
aVshe
p1894
aVwas
p1895
aVold
p1896
aV.
aa(lp1897
Vwait
p1898
aV,
aVwait
p1899
aV,
aVcornelia
p1900
aV,
aVtill
p1901
aVyour
p1902
aVown
p1903
aVchildren
p1904
aVwhisper
p1905
aVbehind
p1906
aVyour
p1907
aVback
p1908
aV!
aa(lp1909
Vin
p1910
aVher
p1911
aVday
p1912
aVshe
p1913
aVhad
p1914
aVkept
p1915
aVa
aVbetter
p1916
aVhouse
p1917
aVand
p1918
aVhad
p1919
aVgot
p1920
aVmore
p1921
aVwork
p1922
aVdone
p1923
aV.
aa(lp1924
Vshe
p1925
aVwasn\u2019t
p1926
aVtoo
p1927
aVold
p1928
aVyet
p1929
aVfor
p1930
aVlydia
p1931
aVto
p1932
aVbe
p1933
aVdriving
p1934
aVeighty
p1935
aVmiles
p1936
aVfor
p1937
aVadvice
p1938
aVwhen
p1939
aVone
p1940
aVof
p1941
aVthe
p1942
aVchildren
p1943
aVjumped
p1944
aVthe
p1945
aVtrack
p1946
aV,
aVand
p1947
aVjimmy
p1948
aVstill
p1949
aVdropped
p1950
aVin
p1951
aVand
p1952
aVtalked
p1953
aVthings
p1954
aVover
p1955
aV:
aV\u201cnow
p1956
aV,
aVmammy
p1957
aV,
aVyou\u2019ve
p1958
aVa
aVgood
p1959
aVbusiness
p1960
aVhead
p1961
aV,
aVi
aVwant
p1962
aVto
p1963
aVknow
p1964
aVwhat
p1965
aVyou
p1966
aVthink
p1967
aVof
p1968
aVthis
p1969
aV?
aV\u2026\u201d
p1970
aVold
p1971
aVcornelia
p1972
aVcouldn\u2019t
p1973
aVchange
p1974
aVthe
p1975
aVfurniture
p1976
aVaround
p1977
aVwithout
p1978
aVasking
p1979
aV.
aa(lp1980
Vlittle
p1981
aVthings
p1982
aV,
aVlittle
p1983
aVthings
p1984
aV!
aa(lp1985
Vthey
p1986
aVhad
p1987
aVbeen
p1988
aVso
p1989
aVsweet
p1990
aVwhen
p1991
aVthey
p1992
aVwere
p1993
aVlittle
p1994
aV.
aa(lp1995
Vgranny
p1996
aVwished
p1997
aVthe
p1998
aVold
p1999
aVdays
p2000
aVwere
p2001
aVback
p2002
aVagain
p2003
aVwith
p2004
aVthe
p2005
aVchildren
p2006
aVyoung
p2007
aVand
p2008
aVeverything
p2009
aVto
p2010
aVbe
p2011
aVdone
p2012
aVover
p2013
aV.
aa(lp2014
Vit
p2015
aVhad
p2016
aVbeen
p2017
aVa
aVhard
p2018
aVpull
p2019
aV,
aVbut
p2020
aVnot
p2021
aVtoo
p2022
aVmuch
p2023
aVfor
p2024
aVher
p2025
aV.
aa(lp2026
Vwhen
p2027
aVshe
p2028
aVthought
p2029
aVof
p2030
aVall
p2031
aVthe
p2032
aVfood
p2033
aVshe
p2034
aVhad
p2035
aVcooked
p2036
aV,
aVand
p2037
aVall
p2038
aVthe
p2039
aVclothes
p2040
aVshe
p2041
aVhad
p2042
aVcut
p2043
aVand
p2044
aVsewed
p2045
aV,
aVand
p2046
aVall
p2047
aVthe
p2048
aVgardens
p2049
aVshe
p2050
aVhad
p2051
aVmade
p2052
aV\u2013
aVwell
p2053
aV,
aVthe
p2054
aVchildren
p2055
aVshowed
p2056
aVit
p2057
aV.
aa(lp2058
Vthere
p2059
aVthey
p2060
aVwere
p2061
aV,
aVmade
p2062
aVout
p2063
aVof
p2064
aVher
p2065
aV,
aVand
p2066
aVthey
p2067
aVcouldn\u2019t
p2068
aVget
p2069
aVaway
p2070
aVfrom
p2071
aVthat
p2072
aV.
aa(lp2073
Vsometimes
p2074
aVshe
p2075
aVwanted
p2076
aVto
p2077
aVsee
p2078
aVjohn
p2079
aVagain
p2080
aVand
p2081
aVpoint
p2082
aVto
p2083
aVthem
p2084
aVand
p2085
aVsay
p2086
aV,
aVwell
p2087
aV,
aVi
aVdidn\u2019t
p2088
aVdo
p2089
aVso
p2090
aVbadly
p2091
aV,
aVdid
p2092
aVi
aV?
aa(lp2093
Vbut
p2094
aVthat
p2095
aVwould
p2096
aVhave
p2097
aVto
p2098
aVwait
p2099
aV.
aa(lp2100
Vthat
p2101
aVwas
p2102
aVfor
p2103
aVtomorrow
p2104
aV.
aa(lp2105
Vshe
p2106
aVused
p2107
aVto
p2108
aVthink
p2109
aVof
p2110
aVhim
p2111
aVas
p2112
aVa
aVman
p2113
aV,
aVbut
p2114
aVnow
p2115
aVall
p2116
aVthe
p2117
aVchildren
p2118
aVwere
p2119
aVolder
p2120
aVthan
p2121
aVtheir
p2122
aVfather
p2123
aV,
aVand
p2124
aVhe
p2125
aVwould
p2126
aVbe
p2127
aVa
aVchild
p2128
aVbeside
p2129
aVher
p2130
aVif
p2131
aVshe
p2132
aVsaw
p2133
aVhim
p2134
aVnow
p2135
aV.
aa(lp2136
Vit
p2137
aVseemed
p2138
aVstrange
p2139
aVand
p2140
aVthere
p2141
aVwas
p2142
aVsomething
p2143
aVwrong
p2144
aVin
p2145
aVthe
p2146
aVidea
p2147
aV.
aa(lp2148
Vwhy
p2149
aV,
aVhe
p2150
aVcouldn\u2019t
p2151
aVpossibly
p2152
aVrecognize
p2153
aVher
p2154
aV.
aa(lp2155
Vshe
p2156
aVhad
p2157
aVfenced
p2158
aVin
p2159
aVa
aVhundred
p2160
aVacres
p2161
aVonce
p2162
aV,
aVdigging
p2163
aVthe
p2164
aVpost
p2165
aVholes
p2166
aVherself
p2167
aVand
p2168
aVclamping
p2169
aVthe
p2170
aVwires
p2171
aVwith
p2172
aVjust
p2173
aVa
aVnegro
p2174
aVboy
p2175
aVto
p2176
aVhelp
p2177
aV.
aa(lp2178
Vthat
p2179
aVchanged
p2180
aVa
aVwoman
p2181
aV.
aa(lp2182
Vjohn
p2183
aVwould
p2184
aVbe
p2185
aVlooking
p2186
aVfor
p2187
aVa
aVyoung
p2188
aVwoman
p2189
aVwith
p2190
aVthe
p2191
aVpeaked
p2192
aVspanish
p2193
aVcomb
p2194
aVin
p2195
aVher
p2196
aVhair
p2197
aVand
p2198
aVthe
p2199
aVpainted
p2200
aVfan
p2201
aV.
aa(lp2202
Vdigging
p2203
aVpost
p2204
aVholes
p2205
aVchanged
p2206
aVa
aVwoman
p2207
aV.
aa(lp2208
Vriding
p2209
aVcountry
p2210
aVroads
p2211
aVin
p2212
aVthe
p2213
aVwinter
p2214
aVwhen
p2215
aVwomen
p2216
aVhad
p2217
aVtheir
p2218
aVbabies
p2219
aVthe
p2220
aVjilting
p2221
aVof
p2222
aVgranny
p2223
aVweatherall
p2224
aV4
aVwas
p2225
aVanother
p2226
aVthing
p2227
aV:
aVsitting
p2228
aVup
p2229
aVnights
p2230
aVwith
p2231
aVsick
p2232
aVhorses
p2233
aVand
p2234
aVsick
p2235
aVnegroes
p2236
aVand
p2237
aVsick
p2238
aVchildren
p2239
aVand
p2240
aVhardly
p2241
aVever
p2242
aVlosing
p2243
aVone
p2244
aV.
aa(lp2245
Vjohn
p2246
aV,
aVi
aVhardly
p2247
aVever
p2248
aVlost
p2249
aVone
p2250
aVof
p2251
aVthem
p2252
aV!
aa(lp2253
Vjohn
p2254
aVwould
p2255
aVsee
p2256
aVthat
p2257
aVin
p2258
aVa
aVminute
p2259
aV,
aVthat
p2260
aVwould
p2261
aVbe
p2262
aVsomething
p2263
aVhe
p2264
aVcould
p2265
aVunderstand
p2266
aV,
aVshe
p2267
aVwouldn\u2019t
p2268
aVhave
p2269
aVto
p2270
aVexplain
p2271
aVanything
p2272
aV!
aa(lp2273
Vit
p2274
aVmade
p2275
aVher
p2276
aVfeel
p2277
aVlike
p2278
aVrolling
p2279
aVup
p2280
aVher
p2281
aVsleeves
p2282
aVand
p2283
aVputting
p2284
aVthe
p2285
aVwhole
p2286
aVplace
p2287
aVto
p2288
aVrights
p2289
aVagain
p2290
aV.
aa(lp2291
Vno
p2292
aVmatter
p2293
aVif
p2294
aVcornelia
p2295
aVwas
p2296
aVdetermined
p2297
aVto
p2298
aVbe
p2299
aVeverywhere
p2300
aVat
p2301
aVonce
p2302
aV,
aVthere
p2303
aVwere
p2304
aVa
aVgreat
p2305
aVmany
p2306
aVthings
p2307
aVleft
p2308
aVundone
p2309
aVon
p2310
aVthis
p2311
aVplace
p2312
aV.
aa(lp2313
Vshe
p2314
aVwould
p2315
aVstart
p2316
aVtomorrow
p2317
aVand
p2318
aVdo
p2319
aVthem
p2320
aV.
aa(lp2321
Vit
p2322
aVwas
p2323
aVgood
p2324
aVto
p2325
aVbe
p2326
aVstrong
p2327
aVenough
p2328
aVfor
p2329
aVeverything
p2330
aV,
aVeven
p2331
aVif
p2332
aVall
p2333
aVyou
p2334
aVmade
p2335
aVmelted
p2336
aVand
p2337
aVchanged
p2338
aVand
p2339
aVslipped
p2340
aVunder
p2341
aVyour
p2342
aVhands
p2343
aV,
aVso
p2344
aVthat
p2345
aVby
p2346
aVthe
p2347
aVtime
p2348
aVyou
p2349
aVfinished
p2350
aVyou
p2351
aValmost
p2352
aVforgot
p2353
aVwhat
p2354
aVyou
p2355
aVwere
p2356
aVworking
p2357
aVfor
p2358
aV.
aa(lp2359
Vwhat
p2360
aVwas
p2361
aVit
p2362
aVi
aVset
p2363
aVout
p2364
aVto
p2365
aVdo
p2366
aV?
aa(lp2367
Vshe
p2368
aVasked
p2369
aVherself
p2370
aVintently
p2371
aV,
aVbut
p2372
aVshe
p2373
aVcould
p2374
aVnot
p2375
aVremember
p2376
aV.
aa(lp2377
Va
aVfog
p2378
aVrose
p2379
aVover
p2380
aVthe
p2381
aVvalley
p2382
aV,
aVshe
p2383
aVsaw
p2384
aVit
p2385
aVmarching
p2386
aVacross
p2387
aVthe
p2388
aVcreek
p2389
aVswallowing
p2390
aVthe
p2391
aVtrees
p2392
aVand
p2393
aVmoving
p2394
aVup
p2395
aVthe
p2396
aVhill
p2397
aVlike
p2398
aVan
p2399
aVarmy
p2400
aVof
p2401
aVghosts
p2402
aV.
aa(lp2403
Vsoon
p2404
aVit
p2405
aVwould
p2406
aVbe
p2407
aVat
p2408
aVthe
p2409
aVnear
p2410
aVedge
p2411
aVof
p2412
aVthe
p2413
aVorchard
p2414
aV,
aVand
p2415
aVthen
p2416
aVit
p2417
aVwas
p2418
aVtime
p2419
aVto
p2420
aVgo
p2421
aVin
p2422
aVand
p2423
aVlight
p2424
aVthe
p2425
aVlamps
p2426
aV.
aa(lp2427
Vcome
p2428
aVin
p2429
aV,
aVchildren
p2430
aV,
aVdon\u2019t
p2431
aVstay
p2432
aVout
p2433
aVin
p2434
aVthe
p2435
aVnight
p2436
aVair
p2437
aV.
aa(lp2438
Vlighting
p2439
aVthe
p2440
aVlamps
p2441
aVhad
p2442
aVbeen
p2443
aVbeautiful
p2444
aV.
aa(lp2445
Vthe
p2446
aVchildren
p2447
aVhuddled
p2448
aVup
p2449
aVto
p2450
aVher
p2451
aVand
p2452
aVbreathed
p2453
aVlike
p2454
aVlittle
p2455
aVcalves
p2456
aVwaiting
p2457
aVat
p2458
aVthe
p2459
aVbars
p2460
aVin
p2461
aVthe
p2462
aVtwilight
p2463
aV.
aa(lp2464
Vtheir
p2465
aVeyes
p2466
aVfollowed
p2467
aVthe
p2468
aVmatch
p2469
aVand
p2470
aVwatched
p2471
aVthe
p2472
aVflame
p2473
aVrise
p2474
aVand
p2475
aVsettle
p2476
aVin
p2477
aVa
aVblue
p2478
aVcurve
p2479
aV,
aVthen
p2480
aVthey
p2481
aVmoved
p2482
aVaway
p2483
aVfrom
p2484
aVher
p2485
aV.
aa(lp2486
Vthe
p2487
aVlamp
p2488
aVwas
p2489
aVlit
p2490
aV,
aVthey
p2491
aVdidn\u2019t
p2492
aVhave
p2493
aVto
p2494
aVbe
p2495
aVscared
p2496
aVand
p2497
aVhang
p2498
aVon
p2499
aVto
p2500
aVmother
p2501
aVany
p2502
aVmore
p2503
aV.
aa(lp2504
Vnever
p2505
aV,
aVnever
p2506
aV,
aVnever
p2507
aVmore
p2508
aV.
aa(lp2509
Vgod
p2510
aV,
aVfor
p2511
aVall
p2512
aVmy
p2513
aVlife
p2514
aVi
aVthank
p2515
aVthee
p2516
aV.
aa(lp2517
Vwithout
p2518
aVthee
p2519
aV,
aVmy
p2520
aVgod
p2521
aV,
aVi
aVcould
p2522
aVnever
p2523
aVhave
p2524
aVdone
p2525
aVit
p2526
aV.
aa(lp2527
Vhail
p2528
aV,
aVmary
p2529
aV,
aVfull
p2530
aVof
p2531
aVgrace
p2532
aV.
aa(lp2533
Vi
aVwant
p2534
aVyou
p2535
aVto
p2536
aVpick
p2537
aVall
p2538
aVthe
p2539
aVfruit
p2540
aVthis
p2541
aVyear
p2542
aVand
p2543
aVsee
p2544
aVthat
p2545
aVnothing
p2546
aVis
p2547
aVwasted
p2548
aV.
aa(lp2549
Vthere\u2019s
p2550
aValways
p2551
aVsomeone
p2552
aVwho
p2553
aVcan
p2554
aVuse
p2555
aVit
p2556
aV.
aa(lp2557
Vdon\u2019t
p2558
aVlet
p2559
aVgood
p2560
aVthings
p2561
aVrot
p2562
aVfor
p2563
aVwant
p2564
aVof
p2565
aVusing
p2566
aV.
aa(lp2567
Vyou
p2568
aVwaste
p2569
aVlife
p2570
aVwhen
p2571
aVyou
p2572
aVwaste
p2573
aVgood
p2574
aVfood
p2575
aV.
aa(lp2576
Vdon\u2019t
p2577
aVlet
p2578
aVthings
p2579
aVget
p2580
aVlost
p2581
aV.
aa(lp2582
Vit\u2019s
p2583
aVbitter
p2584
aVto
p2585
aVlose
p2586
aVthings
p2587
aV.
aa(lp2588
Vnow
p2589
aV,
aVdon\u2019t
p2590
aVlet
p2591
aVme
p2592
aVget
p2593
aVto
p2594
aVthinking
p2595
aV,
aVnot
p2596
aVwhen
p2597
aVi
aVam
p2598
aVtired
p2599
aVand
p2600
aVtaking
p2601
aVa
aVlittle
p2602
aVnap
p2603
aVbefore
p2604
aVsupper\u2026
p2605
aVthe
p2606
aVpillow
p2607
aVrose
p2608
aVabout
p2609
aVher
p2610
aVshoulders
p2611
aVand
p2612
aVpressed
p2613
aVagainst
p2614
aVher
p2615
aVheart
p2616
aVand
p2617
aVthe
p2618
aVmemory
p2619
aVwas
p2620
aVbeing
p2621
aVsqueezed
p2622
aVout
p2623
aVof
p2624
aVit
p2625
aV:
aVoh
p2626
aV,
aVpush
p2627
aVdown
p2628
aVthe
p2629
aVpillow
p2630
aV,
aVsomebody
p2631
aV:
aVit
p2632
aVwould
p2633
aVsmother
p2634
aVher
p2635
aVif
p2636
aVshe
p2637
aVtried
p2638
aVto
p2639
aVhold
p2640
aVit
p2641
aV.
aa(lp2642
Vsuch
p2643
aVa
aVfresh
p2644
aVbreeze
p2645
aVblowing
p2646
aVand
p2647
aVsuch
p2648
aVa
aVgreen
p2649
aVday
p2650
aVwith
p2651
aVno
p2652
aVthreats
p2653
aVin
p2654
aVit
p2655
aV.
aa(lp2656
Vbut
p2657
aVhe
p2658
aVhad
p2659
aVnot
p2660
aVcome
p2661
aV,
aVjust
p2662
aVthe
p2663
aVsame
p2664
aV.
aa(lp2665
Vwhat
p2666
aVdoes
p2667
aVa
aVwoman
p2668
aVdo
p2669
aVwhen
p2670
aVshe
p2671
aVhas
p2672
aVput
p2673
aVon
p2674
aVthe
p2675
aVwhite
p2676
aVveil
p2677
aVand
p2678
aVset
p2679
aVout
p2680
aVthe
p2681
aVwhite
p2682
aVcake
p2683
aVfor
p2684
aVa
aVman
p2685
aVand
p2686
aVhe
p2687
aVdoesn\u2019t
p2688
aVcome
p2689
aV?
aa(lp2690
Vshe
p2691
aVtried
p2692
aVto
p2693
aVremember
p2694
aV.
aa(lp2695
Vno
p2696
aV,
aVi
aVswear
p2697
aVhe
p2698
aVnever
p2699
aVharmed
p2700
aVme
p2701
aVbut
p2702
aVin
p2703
aVthat
p2704
aV.
aa(lp2705
Vhe
p2706
aVnever
p2707
aVharmed
p2708
aVme
p2709
aVbut
p2710
aVin
p2711
aVthat\u2026
p2712
aVand
p2713
aVwhat
p2714
aVif
p2715
aVhe
p2716
aVdid
p2717
aV?
aa(lp2718
Vthere
p2719
aVwas
p2720
aVthe
p2721
aVday
p2722
aV,
aVthe
p2723
aVday
p2724
aV,
aVbut
p2725
aVa
aVwhirl
p2726
aVof
p2727
aVdark
p2728
aVsmoke
p2729
aVrose
p2730
aVand
p2731
aVcovered
p2732
aVit
p2733
aV,
aVcrept
p2734
aVup
p2735
aVand
p2736
aVover
p2737
aVinto
p2738
aVthe
p2739
aVbright
p2740
aVfield
p2741
aVwhere
p2742
aVeverything
p2743
aVwas
p2744
aVplanted
p2745
aVso
p2746
aVcarefully
p2747
aVin
p2748
aVorderly
p2749
aVrows
p2750
aV.
aa(lp2751
Vthat
p2752
aVwas
p2753
aVhell
p2754
aV,
aVshe
p2755
aVknew
p2756
aVhell
p2757
aVwhen
p2758
aVshe
p2759
aVsaw
p2760
aVit
p2761
aV.
aa(lp2762
Vfor
p2763
aVsixty
p2764
aVyears
p2765
aVshe
p2766
aVhad
p2767
aVprayed
p2768
aVagainst
p2769
aVremembering
p2770
aVhim
p2771
aVand
p2772
aVagainst
p2773
aVlosing
p2774
aVher
p2775
aVsoul
p2776
aVin
p2777
aVthe
p2778
aVdeep
p2779
aVpit
p2780
aVof
p2781
aVhell
p2782
aV,
aVand
p2783
aVnow
p2784
aVthe
p2785
aVtwo
p2786
aVthings
p2787
aVwere
p2788
aVmingled
p2789
aVin
p2790
aVone
p2791
aVand
p2792
aVthe
p2793
aVthought
p2794
aVof
p2795
aVhim
p2796
aVwas
p2797
aVa
aVsmoking
p2798
aVcloud
p2799
aVfrom
p2800
aVhell
p2801
aVthat
p2802
aVmoved
p2803
aVand
p2804
aVcrept
p2805
aVin
p2806
aVher
p2807
aVhead
p2808
aVwhen
p2809
aVshe
p2810
aVhad
p2811
aVjust
p2812
aVgot
p2813
aVrid
p2814
aVof
p2815
aVdoctor
p2816
aVharry
p2817
aVand
p2818
aVwas
p2819
aVtrying
p2820
aVto
p2821
aVrest
p2822
aVa
aVminute
p2823
aV:
aVwounded
p2824
aVvanity
p2825
aV,
aVellen
p2826
aV,
aVsaid
p2827
aVa
aVsharp
p2828
aVvoice
p2829
aVin
p2830
aVthe
p2831
aVtop
p2832
aVof
p2833
aVher
p2834
aVmind
p2835
aV.
aa(lp2836
Vdon\u2019t
p2837
aVlet
p2838
aVyour
p2839
aVwounded
p2840
aVvanity
p2841
aVget
p2842
aVthe
p2843
aVthe
p2844
aVjilting
p2845
aVof
p2846
aVgranny
p2847
aVweatherall
p2848
aV5
aVupper
p2849
aVhand
p2850
aVof
p2851
aVyou
p2852
aV.
aa(lp2853
Vplenty
p2854
aVof
p2855
aVgirls
p2856
aVget
p2857
aVjilted
p2858
aV.
aa(lp2859
Vyou
p2860
aVwere
p2861
aVjilted
p2862
aV,
aVweren\u2019t
p2863
aVyou
p2864
aV?
aa(lp2865
Vthen
p2866
aVstand
p2867
aVup
p2868
aVto
p2869
aVit
p2870
aV.
aa(lp2871
Vher
p2872
aVeyelids
p2873
aVwavered
p2874
aVand
p2875
aVlet
p2876
aVin
p2877
aVstreamers
p2878
aVof
p2879
aVblue-gray
p2880
aVlight
p2881
aVlike
p2882
aVtissue
p2883
aVpaper
p2884
aVover
p2885
aVher
p2886
aVeyes
p2887
aV.
aa(lp2888
Vshe
p2889
aVmust
p2890
aVget
p2891
aVup
p2892
aVand
p2893
aVpull
p2894
aVthe
p2895
aVshades
p2896
aVdown
p2897
aVor
p2898
aVshe\u2019d
p2899
aVnever
p2900
aVsleep
p2901
aV.
aa(lp2902
Vshe
p2903
aVwas
p2904
aVin
p2905
aVbed
p2906
aVagain
p2907
aVand
p2908
aVthe
p2909
aVshades
p2910
aVwere
p2911
aVnot
p2912
aVdown
p2913
aV.
aa(lp2914
Vhow
p2915
aVcould
p2916
aVthat
p2917
aVhappen
p2918
aV?
aa(lp2919
Vbetter
p2920
aVturn
p2921
aVover
p2922
aV,
aVhide
p2923
aVfrom
p2924
aVthe
p2925
aVlight
p2926
aV,
aVsleeping
p2927
aVin
p2928
aVthe
p2929
aVlight
p2930
aVgave
p2931
aVyou
p2932
aVnightmares
p2933
aV.
aa(lp2934
V\u201cmother
p2935
aV,
aVhow
p2936
aVdo
p2937
aVyou
p2938
aVfeel
p2939
aVnow
p2940
aV?
aV\u201d
aVand
p2941
aVa
aVstinging
p2942
aVwetness
p2943
aVon
p2944
aVher
p2945
aVforehead
p2946
aV.
aa(lp2947
Vbut
p2948
aVi
aVdon\u2019t
p2949
aVlike
p2950
aVhaving
p2951
aVmy
p2952
aVface
p2953
aVwashed
p2954
aVin
p2955
aVcold
p2956
aVwater
p2957
aV!
aa(lp2958
Vhapsy
p2959
aV?
aa(lp2960
Vgeorge
p2961
aV?
aa(lp2962
Vlydia
p2963
aV?
aa(lp2964
Vjimmy
p2965
aV?
aa(lp2966
Vno
p2967
aV,
aVcornelia
p2968
aV,
aVand
p2969
aVher
p2970
aVfeatures
p2971
aVwere
p2972
aVswollen
p2973
aVand
p2974
aVfull
p2975
aVof
p2976
aVlittle
p2977
aVpuddles
p2978
aV.
aa(lp2979
V\u201cthey\u2019re
p2980
aVcoming
p2981
aV,
aVdarling
p2982
aV,
aVthey\u2019ll
p2983
aVall
p2984
aVbe
p2985
aVhere
p2986
aVsoon.\u201d
p2987
aVgo
p2988
aVwash
p2989
aVyour
p2990
aVface
p2991
aV,
aVchild
p2992
aV,
aVyou
p2993
aVlook
p2994
aVfunny
p2995
aV.
aa(lp2996
Vinstead
p2997
aVof
p2998
aVobeying
p2999
aV,
aVcornelia
p3000
aVknelt
p3001
aVdown
p3002
aVand
p3003
aVput
p3004
aVher
p3005
aVhead
p3006
aVon
p3007
aVthe
p3008
aVpillow
p3009
aV.
aa(lp3010
Vshe
p3011
aVseemed
p3012
aVto
p3013
aVbe
p3014
aVtalking
p3015
aVbut
p3016
aVthere
p3017
aVwas
p3018
aVno
p3019
aVsound
p3020
aV.
aa(lp3021
V\u201cwell
p3022
aV,
aVare
p3023
aVyou
p3024
aVtongue-tied
p3025
aV?
aa(lp3026
Vwhose
p3027
aVbirthday
p3028
aVis
p3029
aVit
p3030
aV?
aa(lp3031
Vare
p3032
aVyou
p3033
aVgoing
p3034
aVto
p3035
aVgive
p3036
aVa
aVparty
p3037
aV?
aV\u201d
aVcornelia\u2019s
p3038
aVmouth
p3039
aVmoved
p3040
aVurgently
p3041
aVin
p3042
aVstrange
p3043
aVshapes
p3044
aV.
aa(lp3045
V\u201cdon\u2019t
p3046
aVdo
p3047
aVthat
p3048
aV,
aVyou
p3049
aVbother
p3050
aVme
p3051
aV,
aVdaughter.\u201d
p3052
aV\u201coh
p3053
aV,
aVno
p3054
aV,
aVmother
p3055
aV,
aVoh
p3056
aV,
aVno\u2026\u201d
p3057
aVnonsense
p3058
aV.
aa(lp3059
Vit
p3060
aVwas
p3061
aVstrange
p3062
aVabout
p3063
aVchildren
p3064
aV.
aa(lp3065
Vthey
p3066
aVdisputed
p3067
aVyour
p3068
aVevery
p3069
aVword
p3070
aV.
aa(lp3071
V\u201cno
p3072
aVwhat
p3073
aV,
aVcornelia
p3074
aV?
aV\u201d
aV\u201chere\u2019s
p3075
aVdoctor
p3076
aVharry.\u201d
p3077
aV\u201ci
p3078
aVwon\u2019t
p3079
aVsee
p3080
aVthat
p3081
aVboy
p3082
aVagain
p3083
aV.
aa(lp3084
Vhe
p3085
aVjust
p3086
aVleft
p3087
aVfive
p3088
aVminutes
p3089
aVago.\u201d
p3090
aV\u201cthat
p3091
aVwas
p3092
aVthis
p3093
aVmorning
p3094
aV,
aVmother
p3095
aV.
aa(lp3096
Vit\u2019s
p3097
aVnight
p3098
aVnow
p3099
aV.
aa(lp3100
Vhere\u2019s
p3101
aVthe
p3102
aVnurse.\u201d
p3103
aV\u201cthis
p3104
aVis
p3105
aVdoctor
p3106
aVharry
p3107
aV,
aVmrs.
p3108
aVweatherall
p3109
aV.
aa(lp3110
Vi
aVnever
p3111
aVsaw
p3112
aVyou
p3113
aVlook
p3114
aVso
p3115
aVyoung
p3116
aVand
p3117
aVhappy
p3118
aV!
aV\u201d
aV\u201cah
p3119
aV,
aVi\u2019ll
p3120
aVnever
p3121
aVbe
p3122
aVyoung
p3123
aVagain
p3124
aV\u2013
aVbut
p3125
aVi\u2019d
p3126
aVbe
p3127
aVhappy
p3128
aVif
p3129
aVthey\u2019d
p3130
aVlet
p3131
aVme
p3132
aVbe
p3133
aVin
p3134
aVpeace
p3135
aVand
p3136
aVget
p3137
aVrested.\u201d
p3138
aVshe
p3139
aVthought
p3140
aVshe
p3141
aVspoke
p3142
aVup
p3143
aVloudly
p3144
aV,
aVbut
p3145
aVno
p3146
aVone
p3147
aVanswered
p3148
aV.
aa(lp3149
Va
aVwarm
p3150
aVweight
p3151
aVon
p3152
aVher
p3153
aVforehead
p3154
aV,
aVa
aVwarm
p3155
aVbracelet
p3156
aVon
p3157
aVher
p3158
aVwrist
p3159
aV,
aVand
p3160
aVa
aVbreeze
p3161
aVwent
p3162
aVon
p3163
aVwhispering
p3164
aV,
aVtrying
p3165
aVto
p3166
aVtell
p3167
aVher
p3168
aVsomething
p3169
aV.
aa(lp3170
Va
aVshuffle
p3171
aVof
p3172
aVleaves
p3173
aVin
p3174
aVthe
p3175
aVeverlasting
p3176
aVhand
p3177
aVof
p3178
aVgod
p3179
aV.
aa(lp3180
Vhe
p3181
aVblew
p3182
aVon
p3183
aVthem
p3184
aVand
p3185
aVthey
p3186
aVdanced
p3187
aVand
p3188
aVrattled
p3189
aV.
aa(lp3190
V\u201cmother
p3191
aV,
aVdon\u2019t
p3192
aVmind
p3193
aV,
aVwe\u2019re
p3194
aVgoing
p3195
aVto
p3196
aVgive
p3197
aVyou
p3198
aVa
aVlittle
p3199
aVhypodermic.\u201d
p3200
aV\u201clook
p3201
aVhere
p3202
aV,
aVdaughter
p3203
aV,
aVhow
p3204
aVdo
p3205
aVants
p3206
aVget
p3207
aVin
p3208
aVthis
p3209
aVbed
p3210
aV?
aa(lp3211
Vi
aVsaw
p3212
aVsugar
p3213
aVants
p3214
aVyesterday.\u201d
p3215
aVdid
p3216
aVyou
p3217
aVsend
p3218
aVfor
p3219
aVhapsy
p3220
aVtoo
p3221
aV?
aa(lp3222
Vit
p3223
aVwas
p3224
aVhapsy
p3225
aVshe
p3226
aVreally
p3227
aVwanted
p3228
aV.
aa(lp3229
Vshe
p3230
aVhad
p3231
aVto
p3232
aVgo
p3233
aVa
aVlong
p3234
aVway
p3235
aVback
p3236
aVthrough
p3237
aVa
aVgreat
p3238
aVmany
p3239
aVrooms
p3240
aVto
p3241
aVfind
p3242
aVhapsy
p3243
aVstanding
p3244
aVwith
p3245
aVa
aVbaby
p3246
aVon
p3247
aVher
p3248
aVarm
p3249
aV.
aa(lp3250
Vshe
p3251
aVseemed
p3252
aVto
p3253
aVherself
p3254
aVto
p3255
aVbe
p3256
aVhapsy
p3257
aValso
p3258
aV,
aVand
p3259
aVthe
p3260
aVbaby
p3261
aVon
p3262
aVhapsy\u2019s
p3263
aVarm
p3264
aVwas
p3265
aVhapsy
p3266
aVand
p3267
aVhimself
p3268
aVand
p3269
aVherself
p3270
aV,
aVall
p3271
aVat
p3272
aVthe
p3273
aVjilting
p3274
aVof
p3275
aVgranny
p3276
aVweatherall
p3277
aV6
aVonce
p3278
aV,
aVand
p3279
aVthere
p3280
aVwas
p3281
aVno
p3282
aVsurprise
p3283
aVin
p3284
aVthe
p3285
aVmeeting
p3286
aV.
aa(lp3287
Vthen
p3288
aVhapsy
p3289
aVmelted
p3290
aVfrom
p3291
aVwithin
p3292
aVand
p3293
aVturned
p3294
aVflimsy
p3295
aVas
p3296
aVgray
p3297
aVgauze
p3298
aVand
p3299
aVbaby
p3300
aVwas
p3301
aVa
aVgauzy
p3302
aVshadow
p3303
aV,
aVand
p3304
aVhapsy
p3305
aVcame
p3306
aVup
p3307
aVclose
p3308
aVand
p3309
aVsaid
p3310
aV,
aV\u201ci
p3311
aVthought
p3312
aVyou\u2019d
p3313
aVnever
p3314
aVcome
p3315
aV,
aV\u201d
aVand
p3316
aVlooked
p3317
aVat
p3318
aVher
p3319
aVvery
p3320
aVsearchingly
p3321
aVand
p3322
aVsaid
p3323
aV,
aV\u201cyou
p3324
aVhaven\u2019t
p3325
aVchanged
p3326
aVa
aVbit
p3327
aV!
aV\u201d
aVthey
p3328
aVleaned
p3329
aVforward
p3330
aVto
p3331
aVkiss
p3332
aV,
aVwhen
p3333
aVcornelia
p3334
aVbegan
p3335
aVwhispering
p3336
aVfrom
p3337
aVa
aVlong
p3338
aVway
p3339
aVoff
p3340
aV,
aV\u201coh
p3341
aV,
aVis
p3342
aVthere
p3343
aVanything
p3344
aVyou
p3345
aVwant
p3346
aVto
p3347
aVtell
p3348
aVme
p3349
aV?
aa(lp3350
Vis
p3351
aVthere
p3352
aVanything
p3353
aVi
aVcan
p3354
aVdo
p3355
aVfor
p3356
aVyou
p3357
aV?
aV\u201d
aVyes
p3358
aV,
aVshe
p3359
aVhad
p3360
aVchanged
p3361
aVher
p3362
aVmind
p3363
aVafter
p3364
aVsixty
p3365
aVyears
p3366
aVand
p3367
aVshe
p3368
aVwould
p3369
aVlike
p3370
aVto
p3371
aVsee
p3372
aVgeorge
p3373
aV.
aa(lp3374
Vi
aVwant
p3375
aVyou
p3376
aVto
p3377
aVfind
p3378
aVgeorge
p3379
aV.
aa(lp3380
Vfind
p3381
aVhim
p3382
aVand
p3383
aVbe
p3384
aVsure
p3385
aVto
p3386
aVtell
p3387
aVhim
p3388
aVi
aVforgot
p3389
aVhim
p3390
aV.
aa(lp3391
Vi
aVwant
p3392
aVhim
p3393
aVto
p3394
aVknow
p3395
aVi
aVhad
p3396
aVmy
p3397
aVhusband
p3398
aVjust
p3399
aVthe
p3400
aVsame
p3401
aVand
p3402
aVmy
p3403
aVchildren
p3404
aVand
p3405
aVmy
p3406
aVhouse
p3407
aVlike
p3408
aVany
p3409
aVother
p3410
aVwoman
p3411
aV.
aa(lp3412
Va
aVgood
p3413
aVhouse
p3414
aVtoo
p3415
aVand
p3416
aVa
aVgood
p3417
aVhusband
p3418
aVthat
p3419
aVi
aVloved
p3420
aVand
p3421
aVfine
p3422
aVchildren
p3423
aVout
p3424
aVof
p3425
aVhim
p3426
aV.
aa(lp3427
Vbetter
p3428
aVthan
p3429
aVi
aVhoped
p3430
aVfor
p3431
aVeven
p3432
aV.
aa(lp3433
Vtell
p3434
aVhim
p3435
aVi
aVwas
p3436
aVgiven
p3437
aVback
p3438
aVeverything
p3439
aVhe
p3440
aVtook
p3441
aVaway
p3442
aVand
p3443
aVmore
p3444
aV.
aa(lp3445
Voh
p3446
aV,
aVno
p3447
aV,
aVon
p3448
aV,
aVgod
p3449
aV,
aVno
p3450
aV,
aVthere
p3451
aVwas
p3452
aVsomething
p3453
aVelse
p3454
aVbesides
p3455
aVthe
p3456
aVhouse
p3457
aVand
p3458
aVthe
p3459
aVman
p3460
aVand
p3461
aVthe
p3462
aVchildren
p3463
aV.
aa(lp3464
Voh
p3465
aV,
aVsurely
p3466
aVthey
p3467
aVwere
p3468
aVnot
p3469
aVall
p3470
aV?
aa(lp3471
Vwhat
p3472
aVwas
p3473
aVit
p3474
aV?
aa(lp3475
Vsomething
p3476
aVnot
p3477
aVgiven
p3478
aVback\u2026
p3479
aVher
p3480
aVbreath
p3481
aVcrowded
p3482
aVdown
p3483
aVunder
p3484
aVher
p3485
aVribs
p3486
aVand
p3487
aVgrew
p3488
aVinto
p3489
aVa
aVmonstrous
p3490
aVfrightening
p3491
aVshape
p3492
aVwith
p3493
aVcutting
p3494
aVedges
p3495
aV;
aVit
p3496
aVbored
p3497
aVup
p3498
aVinto
p3499
aVher
p3500
aVhead
p3501
aV,
aVand
p3502
aVthe
p3503
aVagony
p3504
aVwas
p3505
aVunbelievable
p3506
aV:
aVyes
p3507
aV,
aVjohn
p3508
aV,
aVget
p3509
aVthe
p3510
aVdoctor
p3511
aVnow
p3512
aV,
aVno
p3513
aVmore
p3514
aVtalk
p3515
aV,
aVmy
p3516
aVtime
p3517
aVhas
p3518
aVcome
p3519
aV.
aa(lp3520
Vwhen
p3521
aVthis
p3522
aVone
p3523
aVwas
p3524
aVborn
p3525
aVit
p3526
aVshould
p3527
aVbe
p3528
aVthe
p3529
aVlast
p3530
aV.
aa(lp3531
Vthe
p3532
aVlast
p3533
aV.
aa(lp3534
Vit
p3535
aVshould
p3536
aVhave
p3537
aVbeen
p3538
aVborn
p3539
aVfirst
p3540
aV,
aVfor
p3541
aVit
p3542
aVwas
p3543
aVthe
p3544
aVone
p3545
aVshe
p3546
aVhad
p3547
aVtruly
p3548
aVwanted
p3549
aV.
aa(lp3550
Veverything
p3551
aVcame
p3552
aVin
p3553
aVgood
p3554
aVtime
p3555
aV.
aa(lp3556
Vnothing
p3557
aVleft
p3558
aVout
p3559
aV,
aVleft
p3560
aVover
p3561
aV.
aa(lp3562
Vshe
p3563
aVwas
p3564
aVstrong
p3565
aV,
aVin
p3566
aVthree
p3567
aVdays
p3568
aVshe
p3569
aVwould
p3570
aVbe
p3571
aVas
p3572
aVwell
p3573
aVas
p3574
aVever
p3575
aV.
aa(lp3576
Vbetter
p3577
aV.
aa(lp3578
Va
aVwoman
p3579
aVneeded
p3580
aVmilk
p3581
aVin
p3582
aVher
p3583
aVto
p3584
aVhave
p3585
aVher
p3586
aVfull
p3587
aVhealth
p3588
aV.
aa(lp3589
V\u201cmother
p3590
aV,
aVdo
p3591
aVyou
p3592
aVhear
p3593
aVme
p3594
aV?
aV\u201d
aV\u201ci\u2019ve
p3595
aVbeen
p3596
aVtelling
p3597
aVyou
p3598
aV\u2013\u201c
p3599
aV\u201cmother
p3600
aV,
aVfather
p3601
aVconnolly\u2019s
p3602
aVhere.\u201d
p3603
aV\u201ci
p3604
aVwent
p3605
aVto
p3606
aVholy
p3607
aVcommunion
p3608
aVonly
p3609
aVlast
p3610
aVweek
p3611
aV.
aa(lp3612
Vtell
p3613
aVhim
p3614
aVi\u2019m
p3615
aVnot
p3616
aVso
p3617
aVsinful
p3618
aVas
p3619
aVall
p3620
aVthat.\u201d
p3621
aV\u201cfather
p3622
aVjust
p3623
aVwants
p3624
aVto
p3625
aVspeak
p3626
aVto
p3627
aVyou.\u201d
p3628
aVhe
p3629
aVcould
p3630
aVspeak
p3631
aVas
p3632
aVmuch
p3633
aVas
p3634
aVhe
p3635
aVpleased
p3636
aV.
aa(lp3637
Vit
p3638
aVwas
p3639
aVlike
p3640
aVhim
p3641
aVto
p3642
aVdrop
p3643
aVin
p3644
aVand
p3645
aVinquire
p3646
aVabout
p3647
aVher
p3648
aVsoul
p3649
aVas
p3650
aVif
p3651
aVit
p3652
aVwere
p3653
aVa
aVteething
p3654
aVbaby
p3655
aV,
aVand
p3656
aVthen
p3657
aVstay
p3658
aVon
p3659
aVfor
p3660
aVa
aVcup
p3661
aVof
p3662
aVtea
p3663
aVand
p3664
aVa
aVround
p3665
aVof
p3666
aVcards
p3667
aVand
p3668
aVgossip
p3669
aV.
aa(lp3670
Vhe
p3671
aValways
p3672
aVhad
p3673
aVa
aVfunny
p3674
aVstory
p3675
aVof
p3676
aVsome
p3677
aVsort
p3678
aV,
aVusually
p3679
aVabout
p3680
aVan
p3681
aVirishman
p3682
aVwho
p3683
aVmade
p3684
aVhis
p3685
aVlittle
p3686
aVmistakes
p3687
aVand
p3688
aVconfessed
p3689
aVthem
p3690
aV,
aVand
p3691
aVthe
p3692
aVpoint
p3693
aVlay
p3694
aVin
p3695
aVsome
p3696
aVabsurd
p3697
aVthing
p3698
aVhe
p3699
aVwould
p3700
aVblurt
p3701
aVout
p3702
aVin
p3703
aVthe
p3704
aVconfessional
p3705
aVshowing
p3706
aVhis
p3707
aVstruggles
p3708
aVbetween
p3709
aVnative
p3710
aVpiety
p3711
aVand
p3712
aVoriginal
p3713
aVsin
p3714
aV.
aa(lp3715
Vgranny
p3716
aVfelt
p3717
aVeasy
p3718
aVabout
p3719
aVher
p3720
aVsoul
p3721
aV.
aa(lp3722
Vcornelia
p3723
aV,
aVwhere
p3724
aVare
p3725
aVyour
p3726
aVmanners
p3727
aV?
aa(lp3728
Vgive
p3729
aVfather
p3730
aVconnolly
p3731
aVa
aVchair
p3732
aV.
aa(lp3733
Vshe
p3734
aVhad
p3735
aVher
p3736
aVsecret
p3737
aV,
aVcomfortable
p3738
aVunderstanding
p3739
aVwith
p3740
aVa
aVfew
p3741
aVfavorite
p3742
aVsaints
p3743
aVwho
p3744
aVcleared
p3745
aVa
aVstraight
p3746
aVroad
p3747
aVto
p3748
aVgod
p3749
aVfor
p3750
aVher
p3751
aV.
aa(lp3752
Vall
p3753
aVas
p3754
aVsurely
p3755
aVsigned
p3756
aVand
p3757
aVsealed
p3758
aVas
p3759
aVthe
p3760
aVpapers
p3761
aVfor
p3762
aVthe
p3763
aVnew
p3764
aVforty
p3765
aVacres
p3766
aV.
aa(lp3767
Vforever\u2026
p3768
aVheirs
p3769
aVand
p3770
aVassigns
p3771
aVforever
p3772
aV.
aa(lp3773
Vsince
p3774
aVthe
p3775
aVday
p3776
aVthe
p3777
aVwedding
p3778
aVcake
p3779
aVwas
p3780
aVnot
p3781
aVcut
p3782
aV,
aVbut
p3783
aVthrown
p3784
aVout
p3785
aVand
p3786
aVwasted
p3787
aV.
aa(lp3788
Vthe
p3789
aVwhole
p3790
aVbottom
p3791
aVdropped
p3792
aVout
p3793
aVof
p3794
aVthe
p3795
aVworld
p3796
aV,
aVand
p3797
aVthere
p3798
aVshe
p3799
aVwas
p3800
aVblind
p3801
aVand
p3802
aVsweating
p3803
aVwith
p3804
aVthe
p3805
aVjilting
p3806
aVof
p3807
aVgranny
p3808
aVweatherall
p3809
aV7
aVnothing
p3810
aVunder
p3811
aVher
p3812
aVfeet
p3813
aVand
p3814
aVthe
p3815
aVwalls
p3816
aVfalling
p3817
aVaway
p3818
aV.
aa(lp3819
Vhis
p3820
aVhand
p3821
aVcaught
p3822
aVher
p3823
aVunder
p3824
aVthe
p3825
aVbreast
p3826
aV,
aVshe
p3827
aVhad
p3828
aVnot
p3829
aVfallen
p3830
aV,
aVthere
p3831
aVwas
p3832
aVthe
p3833
aVfreshly
p3834
aVpolished
p3835
aVfloor
p3836
aVwith
p3837
aVthe
p3838
aVgreen
p3839
aVrug
p3840
aVon
p3841
aVit
p3842
aV,
aVjust
p3843
aVas
p3844
aVbefore
p3845
aV.
aa(lp3846
Vhe
p3847
aVhad
p3848
aVcursed
p3849
aVlike
p3850
aVa
aVsailor\u2019s
p3851
aVparrot
p3852
aVand
p3853
aVsaid
p3854
aV,
aV\u201ci\u2019ll
p3855
aVkill
p3856
aVhim
p3857
aVfor
p3858
aVyou.\u201d
p3859
aVdon\u2019t
p3860
aVlay
p3861
aVa
aVhand
p3862
aVon
p3863
aVhim
p3864
aV,
aVfor
p3865
aVmy
p3866
aVsake
p3867
aVleave
p3868
aVsomething
p3869
aVto
p3870
aVgod
p3871
aV.
aa(lp3872
V\u201cnow
p3873
aV,
aVellen
p3874
aV,
aVyou
p3875
aVmust
p3876
aVbelieve
p3877
aVwhat
p3878
aVi
aVtell
p3879
aVyou\u2026\u201d
p3880
aVso
p3881
aVthere
p3882
aVwas
p3883
aVnothing
p3884
aV,
aVnothing
p3885
aVto
p3886
aVworry
p3887
aVabout
p3888
aVany
p3889
aVmore
p3890
aV,
aVexcept
p3891
aVsometimes
p3892
aVin
p3893
aVthe
p3894
aVnight
p3895
aVone
p3896
aVof
p3897
aVthe
p3898
aVchildren
p3899
aVscreamed
p3900
aVin
p3901
aVa
aVnightmare
p3902
aV,
aVand
p3903
aVthey
p3904
aVboth
p3905
aVhustled
p3906
aVout
p3907
aVshaking
p3908
aVand
p3909
aVhunting
p3910
aVfor
p3911
aVthe
p3912
aVmatches
p3913
aVand
p3914
aVcalling
p3915
aV,
aV\u201cthere
p3916
aV,
aVwait
p3917
aVa
aVminute
p3918
aV,
aVhere
p3919
aVwe
p3920
aVare
p3921
aV!
aV\u201d
aVjohn
p3922
aV,
aVget
p3923
aVthe
p3924
aVdoctor
p3925
aVnow
p3926
aV.
aa(lp3927
Vhapsy\u2019s
p3928
aVtime
p3929
aVhas
p3930
aVcome
p3931
aV.
aa(lp3932
Vbut
p3933
aVthere
p3934
aVwas
p3935
aVhapsy
p3936
aVstanding
p3937
aVby
p3938
aVthe
p3939
aVbed
p3940
aVin
p3941
aVa
aVwhite
p3942
aVcap
p3943
aV.
aa(lp3944
V\u201ccornelia
p3945
aV,
aVtell
p3946
aVhapsy
p3947
aVto
p3948
aVtake
p3949
aVoff
p3950
aVher
p3951
aVcap
p3952
aV.
aa(lp3953
Vi
aVcan\u2019t
p3954
aVsee
p3955
aVher
p3956
aVplain.\u201d
p3957
aVher
p3958
aVeyes
p3959
aVopened
p3960
aVvery
p3961
aVwide
p3962
aVand
p3963
aVthe
p3964
aVroom
p3965
aVstood
p3966
aVout
p3967
aVlike
p3968
aVa
aVpicture
p3969
aVshe
p3970
aVhad
p3971
aVseen
p3972
aVsomewhere
p3973
aV.
aa(lp3974
Vdark
p3975
aVcolors
p3976
aVwith
p3977
aVthe
p3978
aVshadows
p3979
aVrising
p3980
aVtowards
p3981
aVthe
p3982
aVceiling
p3983
aVin
p3984
aVlong
p3985
aVangles
p3986
aV.
aa(lp3987
Vthe
p3988
aVtall
p3989
aVblack
p3990
aVdresser
p3991
aVgleamed
p3992
aVwith
p3993
aVnothing
p3994
aVon
p3995
aVit
p3996
aVbut
p3997
aVjohn\u2019s
p3998
aVpicture
p3999
aV,
aVenlarged
p4000
aVfrom
p4001
aVa
aVlittle
p4002
aVone
p4003
aV,
aVwith
p4004
aVjohn\u2019s
p4005
aVeyes
p4006
aVvery
p4007
aVblack
p4008
aVwhen
p4009
aVthey
p4010
aVshould
p4011
aVhave
p4012
aVbeen
p4013
aVblue
p4014
aV.
aa(lp4015
Vyou
p4016
aVnever
p4017
aVsaw
p4018
aVhim
p4019
aV,
aVso
p4020
aVhow
p4021
aVdo
p4022
aVyou
p4023
aVknow
p4024
aVhow
p4025
aVhe
p4026
aVlooked
p4027
aV?
aa(lp4028
Vbut
p4029
aVthe
p4030
aVman
p4031
aVinsisted
p4032
aVthe
p4033
aVcopy
p4034
aVwas
p4035
aVperfect
p4036
aV,
aVit
p4037
aVwas
p4038
aVvery
p4039
aVrich
p4040
aVand
p4041
aVhandsome
p4042
aV.
aa(lp4043
Vfor
p4044
aVa
aVpicture
p4045
aV,
aVyes
p4046
aV,
aVbut
p4047
aVit\u2019s
p4048
aVnot
p4049
aVmy
p4050
aVhusband
p4051
aV.
aa(lp4052
Vthe
p4053
aVtable
p4054
aVby
p4055
aVthe
p4056
aVbed
p4057
aVhad
p4058
aVa
aVlinen
p4059
aVcover
p4060
aVand
p4061
aVa
aVcandle
p4062
aVand
p4063
aVa
aVcrucifix
p4064
aV.
aa(lp4065
Vthe
p4066
aVlight
p4067
aVwas
p4068
aVblue
p4069
aVfrom
p4070
aVcornelia\u2019s
p4071
aVsilk
p4072
aVlampshades
p4073
aV.
aa(lp4074
Vno
p4075
aVsort
p4076
aVof
p4077
aVlight
p4078
aVat
p4079
aVall
p4080
aV,
aVjust
p4081
aVfrippery.4
p4082
aVyou
p4083
aVhad
p4084
aVto
p4085
aVlive
p4086
aVforty
p4087
aVyears
p4088
aVwith
p4089
aVkerosene
p4090
aVlamps
p4091
aVto
p4092
aVappreciate
p4093
aVhonest
p4094
aVelectricity
p4095
aV.
aa(lp4096
Vshe
p4097
aVfelt
p4098
aVvery
p4099
aVstrong
p4100
aVand
p4101
aVshe
p4102
aVsaw
p4103
aVdoctor
p4104
aVharry
p4105
aVwith
p4106
aVa
aVrosy
p4107
aVnimbus
p4108
aVaround
p4109
aVhim
p4110
aV.
aa(lp4111
V\u201cyou
p4112
aVlook
p4113
aVlike
p4114
aVa
aVsaint
p4115
aV,
aVdoctor
p4116
aVharry
p4117
aV,
aVand
p4118
aVi
aVvow
p4119
aVthat\u2019s
p4120
aVas
p4121
aVnear
p4122
aVas
p4123
aVyou\u2019ll
p4124
aVever
p4125
aVdome
p4126
aVto
p4127
aVit.\u201d
p4128
aV\u201cshe\u2019s
p4129
aVsaying
p4130
aVsomething.\u201d
p4131
aV\u201ci
p4132
aVheard
p4133
aVyou
p4134
aV,
aVcornelia
p4135
aV.
aa(lp4136
Vwhat\u2019s
p4137
aVall
p4138
aVthis
p4139
aVcarrying-on
p4140
aV?
aV\u201d
aV\u201cfather
p4141
aVconnolly\u2019s
p4142
aVsaying
p4143
aV\u2013\u201c
p4144
aVcornelia\u2019s
p4145
aVvoice
p4146
aVstaggered
p4147
aVand
p4148
aVbumped
p4149
aVlike
p4150
aVa
aVcart
p4151
aVin
p4152
aVa
aVbad
p4153
aVroad
p4154
aV.
aa(lp4155
Vit
p4156
aVrounded
p4157
aVcorners
p4158
aVand
p4159
aVturned
p4160
aVback
p4161
aVagain
p4162
aVand
p4163
aVarrived
p4164
aVnowhere
p4165
aV.
aa(lp4166
Vgranny
p4167
aVstepped
p4168
aVup
p4169
aVin
p4170
aVthe
p4171
aVcart
p4172
aVvery
p4173
aVlightly
p4174
aVand
p4175
aVreached
p4176
aVfor
p4177
aVthe
p4178
aVreins
p4179
aV,
aVbut
p4180
aVa
aVman
p4181
aVsat
p4182
aVbeside
p4183
aVher
p4184
aVand
p4185
aVshe
p4186
aVknew
p4187
aVhim
p4188
aVby
p4189
aVhis
p4190
aVhands
p4191
aV,
aVdriving
p4192
aVthe
p4193
aVcart
p4194
aV.
aa(lp4195
Vshe
p4196
aVdid
p4197
aVnot
p4198
aVlook
p4199
aVin
p4200
aVhis
p4201
aVface
p4202
aV,
aVfor
p4203
aVshe
p4204
aVknew
p4205
aVwithout
p4206
aVseeing
p4207
aV,
aVbut
p4208
aVlooked
p4209
aVinstead
p4210
aVdown
p4211
aVthe
p4212
aVroad
p4213
aVwhere
p4214
aVthe
p4215
aVtrees
p4216
aVleaned
p4217
aVover
p4218
aVand
p4219
aVbowed
p4220
aVto
p4221
aVeach
p4222
aVother
p4223
aVand
p4224
aVa
aVthousand
p4225
aVbirds
p4226
aVwere
p4227
aVsinging
p4228
aVa
aVmass
p4229
aV.
aa(lp4230
Vshe
p4231
aVfelt
p4232
aVlike
p4233
aVsinging
p4234
aVtoo
p4235
aV,
aVbut
p4236
aVshe
p4237
aVput
p4238
aVher
p4239
aVhand
p4240
aVin
p4241
aVthe
p4242
aVbosom
p4243
aVof
p4244
aVher
p4245
aVdress
p4246
aVand
p4247
aVpulled
p4248
aVout
p4249
aVa
aVrosary
p4250
aV,
aVand
p4251
aVfather
p4252
aVconnolly
p4253
aVmurmured
p4254
aVlatin
p4255
aVin
p4256
aVa
aVvery
p4257
aVsolemn
p4258
aVvoice
p4259
aVand
p4260
aVtickled
p4261
aVher
p4262
aVfeet
p4263
aV.
aa(lp4264
Vmy
p4265
aVgod
p4266
aV,
aVwill
p4267
aVyou
p4268
aVstop
p4269
aVthat
p4270
aVnonsense
p4271
aV?
aa(lp4272
Vi\u2019m
p4273
aVa
aVmarried
p4274
aVwoman
p4275
aV.
aa(lp4276
Vwhat
p4277
aVif
p4278
aVhe
p4279
aVdid
p4280
aVrun
p4281
aVaway
p4282
aVand
p4283
aVleave
p4284
aVme
p4285
aVto
p4286
aVface
p4287
aVthe
p4288
aVpriest
p4289
aVby
p4290
aVmyself
p4291
aV?
aa(lp4292
Vi
aVfound
p4293
aVanother
p4294
aVa
aVwhole
p4295
aVworld
p4296
aVbetter
p4297
aV.
aa(lp4298
Vi
aVwouldn\u2019t
p4299
aVhave
p4300
aVexchanged
p4301
aVmy
p4302
aVthe
p4303
aVjilting
p4304
aVof
p4305
aVgranny
p4306
aVweatherall
p4307
aV8
aVhusband
p4308
aVfor
p4309
aVanybody
p4310
aVexcept
p4311
aVst.
p4312
aVmichael
p4313
aVhimself
p4314
aV,
aVand
p4315
aVyou
p4316
aVmay
p4317
aVtell
p4318
aVhim
p4319
aVthat
p4320
aVfor
p4321
aVme
p4322
aVwith
p4323
aVa
aVthank
p4324
aVyou
p4325
aVin
p4326
aVthe
p4327
aVbargain
p4328
aV.
aa(lp4329
Vlight
p4330
aVflashed
p4331
aVon
p4332
aVher
p4333
aVclosed
p4334
aVeyelids
p4335
aV,
aVand
p4336
aVa
aVdeep
p4337
aVroaring
p4338
aVshook
p4339
aVher
p4340
aV.
aa(lp4341
Vcornelia
p4342
aV,
aVis
p4343
aVthat
p4344
aVlightning
p4345
aV?
aa(lp4346
Vi
aVhear
p4347
aVthunder
p4348
aV.
aa(lp4349
Vthere\u2019s
p4350
aVgoing
p4351
aVto
p4352
aVbe
p4353
aVa
aVstorm
p4354
aV.
aa(lp4355
Vclose
p4356
aVall
p4357
aVthe
p4358
aVwindows
p4359
aV.
aa(lp4360
Vcall
p4361
aVthe
p4362
aVchildren
p4363
aVin
p4364
aV...
p4365
aV\u201cmother
p4366
aV,
aVwhere
p4367
aVwe
p4368
aVare
p4369
aV,
aVall
p4370
aVof
p4371
aVus.\u201d
p4372
aV\u201cis
p4373
aVthat
p4374
aVyou
p4375
aV,
aVhapsy
p4376
aV?
aV\u201d
aV\u201coh
p4377
aV,
aVno
p4378
aV,
aVi\u2019m
p4379
aVlydia
p4380
aV.
aa(lp4381
Vwe
p4382
aVdrove
p4383
aVas
p4384
aVfast
p4385
aVas
p4386
aVwe
p4387
aVcould.\u201d
p4388
aVtheir
p4389
aVfaces
p4390
aVdrifted
p4391
aVabove
p4392
aVher
p4393
aV,
aVdrifted
p4394
aVaway
p4395
aV.
aa(lp4396
Vthe
p4397
aVrosary
p4398
aVfell
p4399
aVout
p4400
aVof
p4401
aVher
p4402
aVhands
p4403
aVand
p4404
aVlydia
p4405
aVput
p4406
aVit
p4407
aVback
p4408
aV.
aa(lp4409
Vjimmy
p4410
aVtried
p4411
aVto
p4412
aVhelp
p4413
aV,
aVtheir
p4414
aVhands
p4415
aVfumbled
p4416
aVtogether
p4417
aV,
aVand
p4418
aVgranny
p4419
aVclosed
p4420
aVtwo
p4421
aVfingers
p4422
aVaround
p4423
aVjimmy\u2019s
p4424
aVthumb
p4425
aV.
aa(lp4426
Vbeads
p4427
aVwouldn\u2019t
p4428
aVdo
p4429
aVit
p4430
aV,
aVit
p4431
aVmust
p4432
aVbe
p4433
aVsomething
p4434
aValive
p4435
aV.
aa(lp4436
Vshe
p4437
aVwas
p4438
aVso
p4439
aVamazed
p4440
aVher
p4441
aVthoughts
p4442
aVran
p4443
aVround
p4444
aVand
p4445
aVround
p4446
aV.
aa(lp4447
Vso
p4448
aV,
aVmy
p4449
aVdear
p4450
aVlord
p4451
aV,
aVthis
p4452
aVis
p4453
aVmy
p4454
aVdeath
p4455
aVand
p4456
aVi
aVwasn\u2019t
p4457
aVeven
p4458
aVthinking
p4459
aVabout
p4460
aVit
p4461
aV.
aa(lp4462
Vmy
p4463
aVchildren
p4464
aVhave
p4465
aVcome
p4466
aVto
p4467
aVsee
p4468
aVme
p4469
aVdie
p4470
aV.
aa(lp4471
Vbut
p4472
aVi
aVcan\u2019t
p4473
aV,
aVit\u2019s
p4474
aVnot
p4475
aVtime
p4476
aV.
aa(lp4477
Voh
p4478
aV,
aVi
aValways
p4479
aVhated
p4480
aVsurprises
p4481
aV.
aa(lp4482
Vi
aVwanted
p4483
aVto
p4484
aVgive
p4485
aVcornelia
p4486
aVthe
p4487
aVamethyst
p4488
aVset
p4489
aV\u2013
aVcornelia
p4490
aV,
aVyou\u2019re
p4491
aVto
p4492
aVhave
p4493
aVthe
p4494
aVamethyst
p4495
aVset
p4496
aV,
aVbut
p4497
aVhapsy\u2019
p4498
aVto
p4499
aVwear
p4500
aVit
p4501
aVwhen
p4502
aVshe
p4503
aVwants
p4504
aV,
aVand
p4505
aV,
aVdoctor
p4506
aVharry
p4507
aV,
aVdo
p4508
aVshut
p4509
aVup
p4510
aV.
aa(lp4511
Vnobody
p4512
aVsent
p4513
aVfor
p4514
aVyou
p4515
aV.
aa(lp4516
Voh
p4517
aV,
aVmy
p4518
aVdear
p4519
aVlord
p4520
aV,
aVdo
p4521
aVwait
p4522
aVa
aVminute
p4523
aV.
aa(lp4524
Vi
aVmeant
p4525
aVto
p4526
aVdo
p4527
aVsomething
p4528
aVabout
p4529
aVthe
p4530
aVforty
p4531
aVacres
p4532
aV,
aVjimmy
p4533
aVdoesn\u2019t
p4534
aVneed
p4535
aVit
p4536
aVand
p4537
aVlydia
p4538
aVwill
p4539
aVlater
p4540
aVon
p4541
aV,
aVwith
p4542
aVthat
p4543
aVworthless
p4544
aVhusband
p4545
aVof
p4546
aVhers
p4547
aV.
aa(lp4548
Vi
aVmeant
p4549
aVto
p4550
aVfinish
p4551
aVthe
p4552
aValtar
p4553
aVcloth
p4554
aVand
p4555
aVsend
p4556
aVsix
p4557
aVbottles
p4558
aVof
p4559
aVwine
p4560
aVto
p4561
aVsister
p4562
aVborgia
p4563
aVfor
p4564
aVher
p4565
aVdyspepsia
p4566
aV.
aa(lp4567
Vi
aVwant
p4568
aVto
p4569
aVsend
p4570
aVsix
p4571
aVbottles
p4572
aVof
p4573
aVwine
p4574
aVto
p4575
aVsister
p4576
aVborgia
p4577
aV,
aVfather
p4578
aVconnolly
p4579
aV,
aVnow
p4580
aVdon\u2019t
p4581
aVlet
p4582
aVme
p4583
aVforget
p4584
aV.
aa(lp4585
Vcornelia\u2019s
p4586
aVvoice
p4587
aVmade
p4588
aVshort
p4589
aVturns
p4590
aVand
p4591
aVtilted
p4592
aVover
p4593
aVand
p4594
aVcrashed
p4595
aV.
aa(lp4596
V\u201coh
p4597
aV,
aVmother
p4598
aV,
aVoh
p4599
aV,
aVmother
p4600
aV,
aVoh
p4601
aV,
aVmother\u2026\u201d
p4602
aV\u201ci\u2019m
p4603
aVnot
p4604
aVgoing
p4605
aVcornelia
p4606
aV.
aa(lp4607
Vi\u2019m
p4608
aVtaken
p4609
aVby
p4610
aVsurprise
p4611
aV.
aa(lp4612
Vi
aVcan\u2019t
p4613
aVgo.\u201d
p4614
aVyou\u2019ll
p4615
aVsee
p4616
aVhapsy
p4617
aVagain
p4618
aV.
aa(lp4619
Vwhat
p4620
aVabout
p4621
aVher
p4622
aV?
aa(lp4623
V\u201ci
p4624
aVthought
p4625
aVyou\u2019d
p4626
aVnever
p4627
aVcome.\u201d
p4628
aVgranny
p4629
aVmade
p4630
aVa
aVlong
p4631
aVjourney
p4632
aVoutward
p4633
aV,
aVlooking
p4634
aVfor
p4635
aVhapsy
p4636
aV.
aa(lp4637
Vwhat
p4638
aVif
p4639
aVi
aVdon\u2019t
p4640
aVfind
p4641
aVher
p4642
aV?
aa(lp4643
Vwhat
p4644
aVthen
p4645
aV?
aa(lp4646
Vher
p4647
aVheart
p4648
aVsank
p4649
aVdown
p4650
aVand
p4651
aVdown
p4652
aV,
aVthere
p4653
aVwas
p4654
aVno
p4655
aVbottom
p4656
aVto
p4657
aVdeath
p4658
aV,
aVshe
p4659
aVcouldn\u2019t
p4660
aVcome
p4661
aVto
p4662
aVthe
p4663
aVend
p4664
aVof
p4665
aVit
p4666
aV.
aa(lp4667
Vthe
p4668
aVblue
p4669
aVlight
p4670
aVfrom
p4671
aVcornelia\u2019s
p4672
aVlampshade
p4673
aVdrew
p4674
aVinto
p4675
aVa
aVtiny
p4676
aVpoint
p4677
aVin
p4678
aVthe
p4679
aVcenter
p4680
aVof
p4681
aVher
p4682
aVbrain
p4683
aV,
aVit
p4684
aVflickered
p4685
aVand
p4686
aVwinked
p4687
aVlike
p4688
aVan
p4689
aVeye
p4690
aV,
aVquietly
p4691
aVit
p4692
aVfluttered
p4693
aVand
p4694
aVdwindled
p4695
aV.
aa(lp4696
Vgranny
p4697
aVlay
p4698
aVcurled
p4699
aVdown
p4700
aVwithin
p4701
aVherself
p4702
aV,
aVamazed
p4703
aVand
p4704
aVwatchful
p4705
aV,
aVstaring
p4706
aVat
p4707
aVthe
p4708
aVpoint
p4709
aVof
p4710
aVlight
p4711
aVthat
p4712
aVwas
p4713
aVherself
p4714
aV;
aVher
p4715
aVbody
p4716
aVwas
p4717
aVnow
p4718
aVonly
p4719
aVa
aVdeeper
p4720
aVmass
p4721
aVof
p4722
aVshadow
p4723
aVin
p4724
aVan
p4725
aVendless
p4726
aVdarkness
p4727
aVand
p4728
aVthis
p4729
aVdarkness
p4730
aVwould
p4731
aVcurl
p4732
aVaround
p4733
aVthe
p4734
aVlight
p4735
aVand
p4736
aVswallow
p4737
aVit
p4738
aVup
p4739
aV.
aa(lp4740
Vgod
p4741
aV,
aVgive
p4742
aVme
p4743
aVa
aVsign
p4744
aV!
aa(lp4745
Vfor
p4746
aVthe
p4747
aVsecond
p4748
aVtime
p4749
aVthere
p4750
aVwas
p4751
aVno
p4752
aVsign
p4753
aV.
aa(lp4754
Vagain
p4755
aVno
p4756
aVbridegroom
p4757
aVand
p4758
aVthe
p4759
aVpriest
p4760
aVin
p4761
aVthe
p4762
aVhouse
p4763
aV.
aa(lp4764
Vshe
p4765
aVcould
p4766
aVnot
p4767
aVremember
p4768
aVany
p4769
aVother
p4770
aVsorrow
p4771
aVbecause
p4772
aVthis
p4773
aVgrief
p4774
aVwiped
p4775
aVthem
p4776
aVall
p4777
aVaway
p4778
aV.
aa(lp4779
Voh
p4780
aV,
aVno
p4781
aV,
aVthere\u2019s
p4782
aVnothing
p4783
aVmore
p4784
aVcruel
p4785
aVthan
p4786
aVthis
p4787
aV\u2013
aVi\u2019ll
p4788
aVnever
p4789
aVforgive
p4790
aVit
p4791
aV.
aa(lp4792
Vshe
p4793
aVstretched
p4794
aVherself
p4795
aVwith
p4796
aVa
aVdeep
p4797
aVbreath
p4798
aVand
p4799
aVblew
p4800
aVout
p4801
aVthe
p4802
aVlight
p4803
aV.
aasb.