ccopy_reg
_reconstructor
p1
(cData.Book
Book
p2
c__builtin__
object
p3
NtRp4
(dp5
S'stored_object'
p6
S'Books/Hedda_Gabler/Book_object.p'
p7
sS'title'
p8
S'Hedda Gabler'
p9
sS'main_text_path'
p10
S'Books/Hedda_Gabler/main_cleaned.txt'
p11
sS'metadata_path'
p12
S'Books/Hedda_Gabler/meta_data.csv'
p13
sS'book_path'
p14
S'Books/Hedda_Gabler/'
p15
sS'characters'
p16
(dp17
S'aunt rina'
p18
(dp19
S'list'
p20
(lp21
(lp22
V[
aVCHARACTER
p23
aV]
aV-
aV[
aVCHARACTER
p24
aV]
aVis
p25
aVdying
p26
aVat
p27
aVthe
p28
aVstart
p29
aVof
p30
aVthe
p31
aVplay
p32
aV.
aa(lp33
Vshe
p34
aVnever
p35
aVappears
p36
aVonstage
p37
aV.
aa(lp38
Vshe
p39
aVhelped
p40
aVaunt
p41
aVjulle
p42
aVraise
p43
aVtesman*
p44
aasS'analysis'
p45
NssS'mrs. elvsted'
p46
(dp47
g20
(lp48
(lp49
Vmrs.
p50
aV[
aVCHARACTER
p51
aV]
aV-
aVmrs.
p52
aV[
aVCHARACTER
p53
aV]
aVis
p54
aVa
aVmeek
p55
aVbut
p56
aVpassionate
p57
aVwoman
p58
aV.
aa(lp59
Vshe
p60
aVand
p61
aVher
p62
aVhusband
p63
aVhired
p64
aVejlert
p65
aVlovborg
p66
aVas
p67
aVa
aVtutor
p68
aVto
p69
aVtheir
p70
aVchildren
p71
aV,
aVand
p72
aVmrs.
p73
aV[
aVCHARACTER
p74
aV]
aVgrew
p75
aVattached
p76
aVto
p77
aVejlert
p78
aV,
aVacting
p79
aVas
p80
aVhis
p81
aVpersonal
p82
aVsecretary
p83
aVand
p84
aVaiding
p85
aVhim
p86
aVin
p87
aVhis
p88
aVresearch
p89
aVand
p90
aVwriting
p91
aV.
aa(lp92
Vwhen
p93
aVejlert
p94
aVleaves
p95
aVher
p96
aVestate
p97
aVto
p98
aVreturn
p99
aVto
p100
aVthe
p101
aVcity
p102
aV,
aVmrs.
p103
aV[
aVCHARACTER
p104
aV]
aVcomes
p105
aVto
p106
aVtown
p107
aVand
p108
aVgoes
p109
aVto
p110
aVtesman*
p111
aVfor
p112
aVhelp
p113
aV,
aVfearing
p114
aVejlert
p115
aVwill
p116
aVrevert
p117
aVto
p118
aVhis
p119
aValcoholism
p120
aV.
aa(lp121
Vmrs.
p122
aV[
aVCHARACTER
p123
aV]
aVwent
p124
aVto
p125
aVschool
p126
aVwith
p127
aVhedda
p128
aVand
p129
aVremembers
p130
aVbeing
p131
aVtormented
p132
aVby
p133
aVher
p134
aV.
aasg45
NssS'berte'
p135
(dp136
g20
(lp137
(lp138
V[
aVCHARACTER
p139
aV]
aV-
aV[
aVCHARACTER
p140
aV]
aVis
p141
aVgeorge*
p142
aVand
p143
aVhedda
p144
aVtesman
p145
aV's
p146
aVservant
p147
aV.
aa(lp148
Vformerly
p149
aV,
aVshe
p150
aVwas
p151
aVthe
p152
aVservant
p153
aVin
p154
aVjuliane
p155
aVtesman
p156
aV's
p157
aVhousehold
p158
aV.
aa(lp159
Vshe
p160
aVtries
p161
aVvery
p162
aVhard
p163
aVto
p164
aVplease
p165
aVhedda
p166
aV,
aVher
p167
aVnew
p168
aVmistress
p169
aV,
aVbut
p170
aVhedda
p171
aVis
p172
aVquite
p173
aVdissatisfied
p174
aVwith
p175
aVher
p176
aV.
aasg45
NssS'hedda gabler'
p177
(dp178
g20
(lp179
(lp180
V[
aVCHARACTER
p181
aV]
aV-
aVhedda
p182
aVis
p183
aVthe
p184
aVdaughter
p185
aVof
p186
aVthe
p187
aVfamous
p188
aVgeneral
p189
aVgabler
p190
aV;
aVas
p191
aVa
aVchild
p192
aVshe
p193
aVwas
p194
aVused
p195
aVto
p196
aVluxury
p197
aVand
p198
aVhigh-class
p199
aVliving
p200
aV.
aa(lp201
Vas
p202
aVthe
p203
aVplay
p204
aVbegins
p205
aV,
aVshe
p206
aVis
p207
aVreturning
p208
aVfrom
p209
aVher
p210
aVhoneymoon
p211
aVwith
p212
aVjurgen
p213
aVtesman
p214
aV,
aVa
aVscholar
p215
aVwith
p216
aVgood
p217
aVprospects
p218
aVbut
p219
aVnot
p220
aVas
p221
aVmuch
p222
aVmoney
p223
aVas
p224
aVhedda
p225
aVis
p226
aVaccustomed
p227
aVto
p228
aV.
aa(lp229
Vher
p230
aVmarried
p231
aVname
p232
aVis
p233
aVhedda
p234
aVtesman
p235
aV.
aa(lp236
Vhedda
p237
aVis
p238
aVan
p239
aVintelligent
p240
aV,
aVunpredictable
p241
aV,
aVand
p242
aVsomewhat
p243
aVdishonest
p244
aVyoung
p245
aVwoman
p246
aVwho
p247
aVis
p248
aVnot
p249
aVafraid
p250
aVto
p251
aVmanipulate
p252
aVher
p253
aVhusband
p254
aVand
p255
aVfriends
p256
aV.
aasg45
NssS'juliane tesman'
p257
(dp258
g20
(lp259
(lp260
V[
aVCHARACTER
p261
aV]
aV-
aV[
aVCHARACTER
p262
aV]
aV,
aVor
p263
aVaunt
p264
aVjulle
p265
aV,
aVis
p266
aVthe
p267
aVaunt
p268
aVof
p269
aVjurgen
p270
aVtesman
p271
aV.
aa(lp272
Vafter
p273
aVtesman
p274
aV's
p275
aVparents
p276
aVdied
p277
aV,
aVaunt
p278
aVjulle
p279
aVraised
p280
aVhim
p281
aV.
aa(lp282
Vshe
p283
aVis
p284
aVwell-meaning
p285
aV,
aVand
p286
aVshe
p287
aVis
p288
aVconstantly
p289
aVhinting
p290
aVthat
p291
aVtesman
p292
aVand
p293
aVhedda
p294
aVshould
p295
aVhave
p296
aVa
aVbaby
p297
aV.
aa(lp298
Vaunt
p299
aVjulle
p300
aVtries
p301
aVto
p302
aVget
p303
aValong
p304
aVwith
p305
aVhedda
p306
aV,
aVbut
p307
aVthe
p308
aVdifference
p309
aVin
p310
aVtheir
p311
aVclass
p312
aVbackgrounds
p313
aVis
p314
aVpainfully
p315
aVapparent
p316
aV.
aa(lp317
Vaunt
p318
aVjulle
p319
aVlives
p320
aVwith
p321
aVthe
p322
aVailing
p323
aVaunt
p324
aVrina
p325
aV,
aVanother
p326
aVaunt
p327
aVof
p328
aVtesman
p329
aV's
p330
aV.
aasg45
NssS'ejlert lovborg'
p331
(dp332
g20
(lp333
(lp334
V[
aVCHARACTER
p335
aV]
aV-
aVa
aVgenius
p336
aV,
aVejlert
p337
aVlovoborg
p338
aVis
p339
aVtesman*
p340
aVbiggest
p341
aVcompetitor
p342
aVin
p343
aVthe
p344
aVacademic
p345
aVworld
p346
aV.
aa(lp347
Vafter
p348
aVa
aVseries
p349
aVof
p350
aVscandals
p351
aVrelated
p352
aVto
p353
aVdrinking
p354
aV,
aVhe
p355
aVwas
p356
aVonce
p357
aVa
aVpublic
p358
aVoutcast
p359
aVbut
p360
aVhas
p361
aVnow
p362
aVreturned
p363
aVto
p364
aVthe
p365
aVcity
p366
aVand
p367
aVhas
p368
aVpublished
p369
aVa
aVbook
p370
aVto
p371
aVrave
p372
aVreviews
p373
aV.
aa(lp374
Vhe
p375
aValso
p376
aVhas
p377
aVanother
p378
aVmanuscript
p379
aVthat
p380
aVis
p381
aVeven
p382
aVmore
p383
aVpromising
p384
aV.
aa(lp385
Vmrs.
p386
aVelvsted
p387
aVhelped
p388
aVhim
p389
aVwith
p390
aVboth
p391
aVmanuscripts
p392
aV.
aa(lp393
Vhe
p394
aVonce
p395
aVshared
p396
aVa
aVclose
p397
aVrelationship
p398
aVwith
p399
aVhedda
p400
aV.
aasg45
NssS'jurgen tesman'
p401
(dp402
g20
(lp403
(lp404
V[
aVCHARACTER
p405
aV]
aV-
aVtesman
p406
aVis
p407
aVan
p408
aVamiable
p409
aV,
aVintelligent
p410
aVyoung
p411
aVscholar
p412
aV.
aa(lp413
Vhe
p414
aVtries
p415
aVvery
p416
aVhard
p417
aVto
p418
aVplease
p419
aVhis
p420
aVyoung
p421
aVwife
p422
aV,
aVhedda
p423
aV,
aVand
p424
aVoften
p425
aVdoes
p426
aVnot
p427
aVrealize
p428
aVthat
p429
aVshe
p430
aVis
p431
aVmanipulating
p432
aVhim
p433
aV.
aa(lp434
Vin
p435
aVfact
p436
aV,
aVhe
p437
aVoften
p438
aVseems
p439
aVfoolish
p440
aVfor
p441
aVhis
p442
aVage
p443
aV,
aVand
p444
aVwhen
p445
aVhe
p446
aVannoys
p447
aVhedda
p448
aV,
aVthe
p449
aVaudience
p450
aVhas
p451
aVreason
p452
aVto
p453
aVsympathize
p454
aVwith
p455
aVher
p456
aV.
aa(lp457
Vtesman
p458
aVis
p459
aVhoping
p460
aVfor
p461
aVa
aVprofessorship
p462
aVin
p463
aVhistory
p464
aV,
aVand
p465
aVat
p466
aVthe
p467
aVbeginning
p468
aVof
p469
aVthe
p470
aVplay
p471
aVit
p472
aVseems
p473
aVthat
p474
aVhis
p475
aVone
p476
aVgreat
p477
aVrival
p478
aV,
aVejlert
p479
aVlovborg
p480
aV,
aVa
aVnotorious
p481
aValcoholic
p482
aV,
aVno
p483
aVlonger
p484
aVstands
p485
aVin
p486
aVtesman
p487
aV's
p488
aVway
p489
aV.
aa(lp490
Vtesman
p491
aVwas
p492
aVraised
p493
aVby
p494
aVhis
p495
aVaunt
p496
aVjulle
p497
aV.
aasg45
NssS'judge brack'
p498
(dp499
g20
(lp500
(lp501
V[
aVCHARACTER
p502
aV]
aV-
aVbrack
p503
aVis
p504
aVa
aVjudge
p505
aVof
p506
aVrelatively
p507
aVinferior
p508
aVrank
p509
aV.
aa(lp510
Vhe
p511
aVis
p512
aVa
aVfriend
p513
aVof
p514
aVboth
p515
aVtesman*
p516
aVand
p517
aVhedda
p518
aV,
aVand
p519
aVhe
p520
aVvisits
p521
aVtheir
p522
aVhouse
p523
aVregularly
p524
aV.
aa(lp525
Vhe
p526
aVhas
p527
aVconnections
p528
aVaround
p529
aVthe
p530
aVcity
p531
aV,
aVand
p532
aVis
p533
aVoften
p534
aVthe
p535
aVfirst
p536
aVto
p537
aVgive
p538
aVtesman
p539
aVinformation
p540
aVabout
p541
aValterations
p542
aVin
p543
aVthe
p544
aVpossibility
p545
aVof
p546
aVhis
p547
aVprofessorship
p548
aV.
aa(lp549
Vhe
p550
aVseems
p551
aVto
p552
aVenjoy
p553
aVmeddling
p554
aVin
p555
aVother
p556
aVpeople
p557
aV's
p558
aVaffairs
p559
aV.
aa(lp560
Vhe
p561
aVis
p562
aVa
aVworldly
p563
aVand
p564
aVcynical
p565
aVman
p566
aV.
aasg45
NsssS'mainText'
p567
(lp568
(lp569
Vhedda
p570
aVgabler
p571
aVby
p572
aVhenrik
p573
aVibsen
p574
aVtranslated
p575
aVby
p576
aVedmund
p577
aVgosse
p578
aVand
p579
aVwilliam
p580
aVarcher
p581
aVintroduction
p582
aVby
p583
aVwilliam
p584
aVarcher
p585
aVintroduction
p586
aV.
aa(lp587
Vfrom
p588
aVmunich
p589
aV,
aVon
p590
aVjune
p591
aV29
p592
aV,
aV1890
p593
aV,
aVibsen
p594
aVwrote
p595
aVto
p596
aVthe
p597
aVswedish
p598
aVpoet
p599
aV,
aVcount
p600
aVcarl
p601
aVsoilsky
p602
aV:
aV``
p603
aVour
p604
aVintention
p605
aVhas
p606
aVall
p607
aValong
p608
aVbeen
p609
aVto
p610
aVspend
p611
aVthe
p612
aVsummer
p613
aVin
p614
aVthe
p615
aVtyrol
p616
aVagain
p617
aV.
aa(lp618
Vbut
p619
aVcircumstances
p620
aVare
p621
aVagainst
p622
aVour
p623
aVdoing
p624
aVso
p625
aV.
aa(lp626
Vi
aVam
p627
aVat
p628
aVpresent
p629
aVengaged
p630
aVupon
p631
aVa
aVnew
p632
aVdramatic
p633
aVwork
p634
aV,
aVwhich
p635
aVfor
p636
aVseveral
p637
aVreasons
p638
aVhas
p639
aVmade
p640
aVvery
p641
aVslow
p642
aVprogress
p643
aV,
aVand
p644
aVi
aVdo
p645
aVnot
p646
aVleave
p647
aVmunich
p648
aVuntil
p649
aVi
aVcan
p650
aVtake
p651
aVwith
p652
aVme
p653
aVthe
p654
aVcompleted
p655
aVfirst
p656
aVdraft
p657
aV.
aa(lp658
Vthere
p659
aVis
p660
aVlittle
p661
aVor
p662
aVno
p663
aVprospect
p664
aVof
p665
aVmy
p666
aVbeing
p667
aVable
p668
aVto
p669
aVcomplete
p670
aVit
p671
aVin
p672
aVjuly
p673
aV.
aV''
p674
aa(lp675
Vibsen
p676
aVdid
p677
aVnot
p678
aVleave
p679
aVmunich
p680
aVat
p681
aVall
p682
aVthat
p683
aVseason
p684
aV.
aa(lp685
Von
p686
aVoctober
p687
aV30
p688
aVhe
p689
aVwrote
p690
aV:
aV``
p691
aVat
p692
aVpresent
p693
aVi
aVam
p694
aVutterly
p695
aVengrossed
p696
aVin
p697
aVa
aVnew
p698
aVplay
p699
aV.
aa(lp700
Vnot
p701
aVone
p702
aVleisure
p703
aVhour
p704
aVhave
p705
aVi
aVhad
p706
aVfor
p707
aVseveral
p708
aVmonths
p709
aV.
aV''
p710
aa(lp711
Vthree
p712
aVweeks
p713
aVlater
p714
aV(
aVnovember
p715
aV20
p716
aV)
aVhe
p717
aVwrote
p718
aVto
p719
aVhis
p720
aVfrench
p721
aVtranslator
p722
aV,
aVcount
p723
aVprozor
p724
aV:
aV``
p725
aVmy
p726
aVnew
p727
aVplay
p728
aVis
p729
aVfinished
p730
aV;
aVthe
p731
aVmanuscript
p732
aVwent
p733
aVoff
p734
aVto
p735
aVcopenhagen
p736
aVthe
p737
aVday
p738
aVbefore
p739
aVyesterday
p740
aV...
p741
aV.
aVit
p742
aVproduces
p743
aVa
aVcurious
p744
aVfeeling
p745
aVof
p746
aVemptiness
p747
aVto
p748
aVbe
p749
aVthus
p750
aVsuddenly
p751
aVseparated
p752
aVfrom
p753
aVa
aVwork
p754
aVwhich
p755
aVhas
p756
aVoccupied
p757
aVone
p758
aV's
p759
aVtime
p760
aVand
p761
aVthoughts
p762
aVfor
p763
aVseveral
p764
aVmonths
p765
aV,
aVto
p766
aVthe
p767
aVexclusion
p768
aVof
p769
aVall
p770
aVelse
p771
aV.
aa(lp772
Vbut
p773
aVit
p774
aVis
p775
aVa
aVgood
p776
aVthing
p777
aV,
aVtoo
p778
aV,
aVto
p779
aVhave
p780
aVdone
p781
aVwith
p782
aVit
p783
aV.
aa(lp784
Vthe
p785
aVconstant
p786
aVintercourse
p787
aVwith
p788
aVthe
p789
aVfictitious
p790
aVpersonages
p791
aVwas
p792
aVbeginning
p793
aVto
p794
aVmake
p795
aVme
p796
aVquite
p797
aVnervous
p798
aV.
aV''
p799
aa(lp800
Vto
p801
aVthe
p802
aVsame
p803
aVcorrespondent
p804
aVhe
p805
aVwrote
p806
aVon
p807
aVdecember
p808
aV4
aV:
aV``
p809
aVthe
p810
aVtitle
p811
aVof
p812
aVthe
p813
aVplay
p814
aVis
p815
aV_hedda
p816
aVgabler_
p817
aV.
aa(lp818
Vmy
p819
aVintention
p820
aVin
p821
aVgiving
p822
aVit
p823
aVthis
p824
aVname
p825
aVwas
p826
aVto
p827
aVindicate
p828
aVthat
p829
aVhedda
p830
aV,
aVas
p831
aVa
aVpersonality
p832
aV,
aVis
p833
aVto
p834
aVbe
p835
aVregarded
p836
aVrather
p837
aVas
p838
aVher
p839
aVfather's
p840
aVdaughter
p841
aVthan
p842
aVas
p843
aVher
p844
aVhusband
p845
aV's
p846
aVwife
p847
aV.
aa(lp848
Vit
p849
aVwas
p850
aVnot
p851
aVmy
p852
aVdesire
p853
aVto
p854
aVdeal
p855
aVin
p856
aVthis
p857
aVplay
p858
aVwith
p859
aVso-called
p860
aVproblems
p861
aV.
aa(lp862
Vwhat
p863
aVi
aVprincipally
p864
aVwanted
p865
aVto
p866
aVdo
p867
aVwas
p868
aVto
p869
aVdepict
p870
aVhuman
p871
aVbeings
p872
aV,
aVhuman
p873
aVemotions
p874
aV,
aVand
p875
aVhuman
p876
aVdestinies
p877
aV,
aVupon
p878
aVa
aVgroundwork
p879
aVof
p880
aVcertain
p881
aVof
p882
aVthe
p883
aVsocial
p884
aVconditions
p885
aVand
p886
aVprinciples
p887
aVof
p888
aVthe
p889
aVpresent
p890
aVday
p891
aV.
aV''
p892
aa(lp893
Vso
p894
aVfar
p895
aVwe
p896
aVread
p897
aVthe
p898
aVhistory
p899
aVof
p900
aVthe
p901
aVplay
p902
aVin
p903
aVthe
p904
aVofficial
p905
aV''
p906
aVcorrespondence
p907
aV.
aa(lp908
V``
p909
aV(
aV1
aV)
aVsome
p910
aVinteresting
p911
aVglimpses
p912
aVinto
p913
aVthe
p914
aVpoet
p915
aV's
p916
aVmoods
p917
aVduring
p918
aVthe
p919
aVperiod
p920
aVbetween
p921
aVthe
p922
aVcompletion
p923
aVof
p924
aV_the
p925
aVlady
p926
aVfrom
p927
aVthe
p928
aVsea_
p929
aVand
p930
aVthe
p931
aVpublication
p932
aVof
p933
aV_hedda
p934
aVgabler_
p935
aVare
p936
aVto
p937
aVbe
p938
aVfound
p939
aVin
p940
aVthe
p941
aVseries
p942
aVof
p943
aVletters
p944
aVto
p945
aVfraulein
p946
aVemilie
p947
aVbardach
p948
aV,
aVof
p949
aVvienna
p950
aV,
aVpublished
p951
aVby
p952
aVdr.
p953
aVgeorge
p954
aVbrandes
p955
aV.
aa(lp956
V(
aV2
aV)
aVthis
p957
aVyoung
p958
aVlady
p959
aVibsen
p960
aVmet
p961
aVat
p962
aVgossensass
p963
aVin
p964
aVthe
p965
aVtyrol
p966
aVin
p967
aVthe
p968
aVautumn
p969
aVof
p970
aV1889.
p971
aVthe
p972
aVrecord
p973
aVof
p974
aVtheir
p975
aVbrief
p976
aVfriendship
p977
aVbelongs
p978
aVto
p979
aVthe
p980
aVhistory
p981
aVof
p982
aV_the
p983
aVmaster
p984
aVbuilder_
p985
aVrather
p986
aVthan
p987
aVto
p988
aVthat
p989
aVof
p990
aV_hedda
p991
aVgabler_
p992
aV,
aVbut
p993
aVthe
p994
aVallusions
p995
aVto
p996
aVhis
p997
aVwork
p998
aVin
p999
aVhis
p1000
aVletters
p1001
aVto
p1002
aVher
p1003
aVduring
p1004
aVthe
p1005
aVwinter
p1006
aVof
p1007
aV1889
p1008
aVdemand
p1009
aVsome
p1010
aVexamination
p1011
aV.
aa(lp1012
Vso
p1013
aVearly
p1014
aVas
p1015
aVoctober
p1016
aV7
aV,
aV1889
p1017
aV,
aVhe
p1018
aVwrites
p1019
aVto
p1020
aVher
p1021
aV:
aV``
p1022
aVa
aVnew
p1023
aVpoem
p1024
aVbegins
p1025
aVto
p1026
aVdawn
p1027
aVin
p1028
aVme
p1029
aV.
aa(lp1030
Vi
aVwill
p1031
aVexecute
p1032
aVit
p1033
aVthis
p1034
aVwinter
p1035
aV,
aVand
p1036
aVtry
p1037
aVto
p1038
aVtransfer
p1039
aVto
p1040
aVit
p1041
aVthe
p1042
aVbright
p1043
aVatmosphere
p1044
aVof
p1045
aVthe
p1046
aVsummer
p1047
aV.
aa(lp1048
Vbut
p1049
aVi
aVfeel
p1050
aVthat
p1051
aVit
p1052
aVwill
p1053
aVend
p1054
aVin
p1055
aVsadness
p1056
aV--
p1057
aVsuch
p1058
aVis
p1059
aVmy
p1060
aVnature
p1061
aV.
aV''
p1062
aa(lp1063
Vwas
p1064
aVthis
p1065
aV``
p1066
aVdawning
p1067
aV''
p1068
aVpoem
p1069
aV_hedda
p1070
aVgabler_
p1071
aV?
aa(lp1072
Vor
p1073
aVwas
p1074
aVit
p1075
aVrather
p1076
aV_the
p1077
aVmaster
p1078
aVbuilder_
p1079
aVthat
p1080
aVwas
p1081
aVgerminating
p1082
aVin
p1083
aVhis
p1084
aVmind
p1085
aV?
aa(lp1086
Vwho
p1087
aVshall
p1088
aVsay
p1089
aV?
aa(lp1090
Vthe
p1091
aVlatter
p1092
aVhypothesis
p1093
aVseems
p1094
aVthe
p1095
aVmore
p1096
aVprobable
p1097
aV,
aVfor
p1098
aVit
p1099
aVis
p1100
aVhard
p1101
aVto
p1102
aVbelieve
p1103
aVthat
p1104
aVat
p1105
aVany
p1106
aVstage
p1107
aVin
p1108
aVthe
p1109
aVincubation
p1110
aVof
p1111
aV_hedda
p1112
aVgabler_
p1113
aVhe
p1114
aVcan
p1115
aVhave
p1116
aVconceived
p1117
aVit
p1118
aVas
p1119
aVeven
p1120
aVbeginning
p1121
aVin
p1122
aVgaiety
p1123
aV.
aa(lp1124
Va
aVweek
p1125
aVlater
p1126
aV,
aVhowever
p1127
aV,
aVhe
p1128
aVappears
p1129
aVto
p1130
aVhave
p1131
aVmade
p1132
aVup
p1133
aVhis
p1134
aVmind
p1135
aVthat
p1136
aVthe
p1137
aVtime
p1138
aVhad
p1139
aVnot
p1140
aVcome
p1141
aVfor
p1142
aVthe
p1143
aVpoetic
p1144
aVutilisation
p1145
aVof
p1146
aVhis
p1147
aVrecent
p1148
aVexperiences
p1149
aV.
aa(lp1150
Vhe
p1151
aVwrites
p1152
aVon
p1153
aVoctober
p1154
aV15
p1155
aV:
aV''
p1156
aVhere
p1157
aVi
aVsit
p1158
aVas
p1159
aVusual
p1160
aVat
p1161
aVmy
p1162
aVwriting-table
p1163
aV.
aa(lp1164
Vnow
p1165
aVi
aVwould
p1166
aVfain
p1167
aVwork
p1168
aV,
aVbut
p1169
aVam
p1170
aVunable
p1171
aVto
p1172
aV.
aa(lp1173
Vmy
p1174
aVfancy
p1175
aV,
aVindeed
p1176
aV,
aVis
p1177
aVvery
p1178
aVactive
p1179
aV.
aa(lp1180
Vbut
p1181
aVit
p1182
aValways
p1183
aVwanders
p1184
aVaway
p1185
aVours
p1186
aV.
aa(lp1187
Vi
aVcan
p1188
aVnot
p1189
aVrepress
p1190
aVmy
p1191
aVsummer
p1192
aVmemories
p1193
aV--
p1194
aVnor
p1195
aVdo
p1196
aVi
aVwish
p1197
aVto
p1198
aV.
aa(lp1199
Vi
aVlive
p1200
aVthrough
p1201
aVmy
p1202
aVexperience
p1203
aVagain
p1204
aVand
p1205
aVagain
p1206
aVand
p1207
aVyet
p1208
aVagain
p1209
aV.
aa(lp1210
Vto
p1211
aVtransmute
p1212
aVit
p1213
aVall
p1214
aVinto
p1215
aVa
aVpoem
p1216
aV,
aVi
aVfind
p1217
aV,
aVin
p1218
aVthe
p1219
aVmeantime
p1220
aV,
aVimpossible
p1221
aV.
aV''
p1222
aa(lp1223
Vclearly
p1224
aV,
aVthen
p1225
aV,
aVhe
p1226
aVfelt
p1227
aVthat
p1228
aVhis
p1229
aVimagination
p1230
aVought
p1231
aVto
p1232
aVhave
p1233
aVbeen
p1234
aVengaged
p1235
aVon
p1236
aVsome
p1237
aVtheme
p1238
aVhaving
p1239
aVno
p1240
aVrelation
p1241
aVto
p1242
aVhis
p1243
aVsummer
p1244
aVexperiences
p1245
aV--
p1246
aVthe
p1247
aVtheme
p1248
aV,
aVno
p1249
aVdoubt
p1250
aV,
aVof
p1251
aV_hedda
p1252
aVgabler_
p1253
aV.
aa(lp1254
Vin
p1255
aVhis
p1256
aVnext
p1257
aVletter
p1258
aV,
aVdated
p1259
aVoctober
p1260
aV29
p1261
aV,
aVhe
p1262
aVwrites
p1263
aV:
aV``
p1264
aVdo
p1265
aVnot
p1266
aVbe
p1267
aVtroubled
p1268
aVbecause
p1269
aVi
aVcan
p1270
aVnot
p1271
aV,
aVin
p1272
aVthe
p1273
aVmeantime
p1274
aV,
aVcreate
p1275
aV(
aV_dichten_
p1276
aV)
aV.
aa(lp1277
Vin
p1278
aVreality
p1279
aVi
aVam
p1280
aVfor
p1281
aVever
p1282
aVcreating
p1283
aV,
aVor
p1284
aV,
aVat
p1285
aVany
p1286
aVrate
p1287
aV,
aVdreaming
p1288
aVof
p1289
aVsomething
p1290
aVwhich
p1291
aV,
aVwhen
p1292
aVin
p1293
aVthe
p1294
aVfulness
p1295
aVof
p1296
aVtime
p1297
aVit
p1298
aVripens
p1299
aV,
aVwill
p1300
aVreveal
p1301
aVitself
p1302
aVas
p1303
aVa
aVcreation
p1304
aV(
aV_dichtung_
p1305
aV)
aV.
aV''
p1306
aa(lp1307
Von
p1308
aVnovember
p1309
aV19
p1310
aVhe
p1311
aVsays
p1312
aV:
aV``
p1313
aVi
aVam
p1314
aVvery
p1315
aVbusily
p1316
aVoccupied
p1317
aVwith
p1318
aVpreparations
p1319
aVfor
p1320
aVmy
p1321
aVnew
p1322
aVpoem
p1323
aV.
aa(lp1324
Vi
aVsit
p1325
aValmost
p1326
aVthe
p1327
aVwhole
p1328
aVday
p1329
aVat
p1330
aVmy
p1331
aVwriting-table
p1332
aV.
aa(lp1333
Vgo
p1334
aVout
p1335
aVonly
p1336
aVin
p1337
aVthe
p1338
aVevening
p1339
aVfor
p1340
aVa
aVlittle
p1341
aVwhile
p1342
aV.
aV''
p1343
aa(lp1344
Vthe
p1345
aVfive
p1346
aVfollowing
p1347
aVletters
p1348
aVcontain
p1349
aVno
p1350
aVallusion
p1351
aVto
p1352
aVthe
p1353
aVplay
p1354
aV;
aVbut
p1355
aVon
p1356
aVseptember
p1357
aV18
p1358
aV,
aV1890
p1359
aV,
aVhe
p1360
aVwrote
p1361
aV:
aV``
p1362
aVmy
p1363
aVwife
p1364
aVand
p1365
aVson
p1366
aVare
p1367
aVat
p1368
aVpresent
p1369
aVat
p1370
aVriva
p1371
aV,
aVon
p1372
aVthe
p1373
aVlake
p1374
aVof
p1375
aVgarda
p1376
aV,
aVand
p1377
aVwill
p1378
aVprobably
p1379
aVremain
p1380
aVthere
p1381
aVuntil
p1382
aVthe
p1383
aVmiddle
p1384
aVof
p1385
aVoctober
p1386
aV,
aVor
p1387
aVeven
p1388
aVlonger
p1389
aV.
aa(lp1390
Vthus
p1391
aVi
aVam
p1392
aVquite
p1393
aValone
p1394
aVhere
p1395
aV,
aVand
p1396
aVcan
p1397
aVnot
p1398
aVget
p1399
aVaway
p1400
aV.
aa(lp1401
Vthe
p1402
aVnew
p1403
aVplay
p1404
aVon
p1405
aVwhich
p1406
aVi
aVam
p1407
aVat
p1408
aVpresent
p1409
aVengaged
p1410
aVwill
p1411
aVprobably
p1412
aVnot
p1413
aVbe
p1414
aVready
p1415
aVuntil
p1416
aVnovember
p1417
aV,
aVthough
p1418
aVi
aVsit
p1419
aVat
p1420
aVmy
p1421
aVwriting-table
p1422
aVdaily
p1423
aV,
aVand
p1424
aValmost
p1425
aVthe
p1426
aVwhole
p1427
aVday
p1428
aVlong
p1429
aV.
aV''
p1430
aa(lp1431
Vhere
p1432
aVends
p1433
aVthe
p1434
aVhistory
p1435
aVof
p1436
aV_hedda
p1437
aVgabler_
p1438
aV,
aVso
p1439
aVfar
p1440
aVas
p1441
aVthe
p1442
aVpoet's
p1443
aVletters
p1444
aVcarry
p1445
aVus
p1446
aV.
aa(lp1447
Vits
p1448
aVhard
p1449
aVclear
p1450
aVoutlines
p1451
aV,
aVand
p1452
aVperhaps
p1453
aVsomewhat
p1454
aVbleak
p1455
aVatmosphere
p1456
aV,
aVseem
p1457
aVto
p1458
aVhave
p1459
aVresulted
p1460
aVfrom
p1461
aVa
aVsort
p1462
aVof
p1463
aVreaction
p1464
aVagainst
p1465
aVthe
p1466
aVsentimental
p1467
aV``
p1468
aVdreamery
p1469
aV''
p1470
aVbegotten
p1471
aVof
p1472
aVhis
p1473
aVgossensass
p1474
aVexperiences
p1475
aV.
aa(lp1476
Vhe
p1477
aVsought
p1478
aVrefuge
p1479
aVin
p1480
aVthe
p1481
aVchill
p1482
aVmaterialism
p1483
aVof
p1484
aVhedda
p1485
aVfrom
p1486
aVthe
p1487
aVardent
p1488
aVtranscendentalism
p1489
aVof
p1490
aVhilda
p1491
aV,
aVwhom
p1492
aVhe
p1493
aValready
p1494
aVheard
p1495
aVknocking
p1496
aVat
p1497
aVthe
p1498
aVdoor
p1499
aV.
aa(lp1500
Vhe
p1501
aVwas
p1502
aVnot
p1503
aVyet
p1504
aVin
p1505
aVthe
p1506
aVmood
p1507
aVto
p1508
aVdeal
p1509
aVwith
p1510
aVher
p1511
aVon
p1512
aVthe
p1513
aVplane
p1514
aVof
p1515
aVpoetry
p1516
aV.
aa(lp1517
V(
aV3
aV)
aV_hedda
p1518
aVgabler_
p1519
aVwas
p1520
aVpublished
p1521
aVin
p1522
aVcopenhagen
p1523
aVon
p1524
aVdecember
p1525
aV16
p1526
aV,
aV1890.
p1527
aVthis
p1528
aVwas
p1529
aVthe
p1530
aVfirst
p1531
aVof
p1532
aVibsen
p1533
aV's
p1534
aVplays
p1535
aVto
p1536
aVbe
p1537
aVtranslated
p1538
aVfrom
p1539
aVproof-sheets
p1540
aVand
p1541
aVpublished
p1542
aVin
p1543
aVengland
p1544
aVand
p1545
aVamerica
p1546
aValmost
p1547
aVsimultaneously
p1548
aVwith
p1549
aVits
p1550
aVfirst
p1551
aVappearance
p1552
aVin
p1553
aVscandinavia
p1554
aV.
aa(lp1555
Vthe
p1556
aVearliest
p1557
aVtheatrical
p1558
aVperformance
p1559
aVtook
p1560
aVplace
p1561
aVat
p1562
aVthe
p1563
aVresidenz
p1564
aVtheater
p1565
aV,
aVmunich
p1566
aV,
aVon
p1567
aVthe
p1568
aVlast
p1569
aVday
p1570
aVof
p1571
aVjanuary
p1572
aV1891
p1573
aV,
aVin
p1574
aVthe
p1575
aVpresence
p1576
aVof
p1577
aVthe
p1578
aVpoet
p1579
aV,
aVfrau
p1580
aVconrad-ramlo
p1581
aVplaying
p1582
aVthe
p1583
aVtitle-part
p1584
aV.
aa(lp1585
Vthe
p1586
aVlessing
p1587
aVtheater
p1588
aV,
aVberlin
p1589
aV,
aVfollowed
p1590
aVsuit
p1591
aVon
p1592
aVfebruary
p1593
aV10.
p1594
aVnot
p1595
aVtill
p1596
aVfebruary
p1597
aV25
p1598
aVwas
p1599
aVthe
p1600
aVplay
p1601
aVseen
p1602
aVin
p1603
aVcopenhagen
p1604
aV,
aVwith
p1605
aVfru
p1606
aVhennings
p1607
aVas
p1608
aVhedda
p1609
aV.
aa(lp1610
Von
p1611
aVthe
p1612
aVfollowing
p1613
aVnight
p1614
aVit
p1615
aVwas
p1616
aVgiven
p1617
aVfor
p1618
aVthe
p1619
aVfirst
p1620
aVtime
p1621
aVin
p1622
aVchristiania
p1623
aV,
aVthe
p1624
aVnorwegian
p1625
aVhedda
p1626
aVbeing
p1627
aVfroken
p1628
aVconstance
p1629
aVbruun
p1630
aV.
aa(lp1631
Vit
p1632
aVwas
p1633
aVthis
p1634
aVproduction
p1635
aVwhich
p1636
aVthe
p1637
aVpoet
p1638
aVsaw
p1639
aVwhen
p1640
aVhe
p1641
aVvisited
p1642
aVthe
p1643
aVchristiania
p1644
aVtheater
p1645
aVfor
p1646
aVthe
p1647
aVfirst
p1648
aVtime
p1649
aVafter
p1650
aVhis
p1651
aVreturn
p1652
aVto
p1653
aVnorway
p1654
aV,
aVaugust
p1655
aV28
p1656
aV,
aV1891.
p1657
aVit
p1658
aVwould
p1659
aVtake
p1660
aVpages
p1661
aVto
p1662
aVgive
p1663
aVeven
p1664
aVthe
p1665
aVbaldest
p1666
aVlist
p1667
aVof
p1668
aVthe
p1669
aVproductions
p1670
aVand
p1671
aVrevivals
p1672
aVof
p1673
aV_hedda
p1674
aVgabler_
p1675
aVin
p1676
aVscandinavia
p1677
aVand
p1678
aVgermany
p1679
aV,
aVwhere
p1680
aVit
p1681
aVhas
p1682
aValways
p1683
aVranked
p1684
aVamong
p1685
aVibsen
p1686
aV's
p1687
aVmost
p1688
aVpopular
p1689
aVworks
p1690
aV.
aa(lp1691
Vthe
p1692
aVadmirable
p1693
aVproduction
p1694
aVof
p1695
aVthe
p1696
aVplay
p1697
aVby
p1698
aVmiss
p1699
aVelizabeth
p1700
aVrobins
p1701
aVand
p1702
aVmiss
p1703
aVmarion
p1704
aVlea
p1705
aV,
aVat
p1706
aVthe
p1707
aVvaudeville
p1708
aVtheatre
p1709
aV,
aVlondon
p1710
aV,
aVapril
p1711
aV20
p1712
aV,
aV1891
p1713
aV,
aVmay
p1714
aVrank
p1715
aVas
p1716
aVthe
p1717
aVsecond
p1718
aVgreat
p1719
aVstep
p1720
aVtowards
p1721
aVthe
p1722
aVpopularisation
p1723
aVof
p1724
aVibsen
p1725
aVin
p1726
aVengland
p1727
aV,
aVthe
p1728
aVfirst
p1729
aVbeing
p1730
aVthe
p1731
aVcharrington-achurch
p1732
aVproduction
p1733
aVof
p1734
aV_a
p1735
aVdoll
p1736
aV's
p1737
aVhouse_
p1738
aVin
p1739
aV1889.
p1740
aVmiss
p1741
aVrobins
p1742
aVafterwards
p1743
aVrepeated
p1744
aVher
p1745
aVfine
p1746
aVperformance
p1747
aVof
p1748
aVhedda
p1749
aVmany
p1750
aVtimes
p1751
aV,
aVin
p1752
aVlondon
p1753
aV,
aVin
p1754
aVthe
p1755
aVenglish
p1756
aVprovinces
p1757
aV,
aVand
p1758
aVin
p1759
aVnew
p1760
aVyork
p1761
aV.
aa(lp1762
Vthe
p1763
aVcharacter
p1764
aVhas
p1765
aValso
p1766
aVbeen
p1767
aVacted
p1768
aVin
p1769
aVlondon
p1770
aVby
p1771
aVeleonora
p1772
aVduse
p1773
aV,
aVand
p1774
aVas
p1775
aVi
aVwrite
p1776
aV(
aVmarch
p1777
aV,
aV5
aV,
aV1907
p1778
aV)
aVby
p1779
aVmrs.
p1780
aVpatrick
p1781
aVcampbell
p1782
aV,
aVat
p1783
aVthe
p1784
aVcourt
p1785
aVtheatre
p1786
aV.
aa(lp1787
Vin
p1788
aVaustralia
p1789
aVand
p1790
aVamerica
p1791
aV,
aVhedda
p1792
aVhas
p1793
aVfrequently
p1794
aVbeen
p1795
aVacted
p1796
aVby
p1797
aVmiss
p1798
aVnance
p1799
aVo'neill
p1800
aVand
p1801
aVother
p1802
aVactresses
p1803
aV--
p1804
aVquite
p1805
aVrecently
p1806
aVby
p1807
aVa
aVrussian
p1808
aVactress
p1809
aV,
aVmadame
p1810
aValla
p1811
aVnazimova
p1812
aV,
aVwho
p1813
aV(
aVplaying
p1814
aVin
p1815
aVenglish
p1816
aV)
aVseems
p1817
aVto
p1818
aVhave
p1819
aVmade
p1820
aVa
aVnotable
p1821
aVsuccess
p1822
aVboth
p1823
aVin
p1824
aVthis
p1825
aVpart
p1826
aVand
p1827
aVin
p1828
aVnora
p1829
aV.
aa(lp1830
Vthe
p1831
aVfirst
p1832
aVfrench
p1833
aVhedda
p1834
aVgabler
p1835
aVwas
p1836
aVmlle
p1837
aV.
aa(lp1838
Vmarthe
p1839
aVbrandes
p1840
aV,
aVwho
p1841
aVplayed
p1842
aVthe
p1843
aVpart
p1844
aVat
p1845
aVthe
p1846
aVvaudeville
p1847
aVtheatre
p1848
aV,
aVparis
p1849
aV,
aVon
p1850
aVdecember
p1851
aV17
p1852
aV,
aV1891
p1853
aV,
aVthe
p1854
aVperformance
p1855
aVbeing
p1856
aVintroduced
p1857
aVby
p1858
aVa
aVlecture
p1859
aVby
p1860
aVm.
p1861
aVjules
p1862
aVlemaitre
p1863
aV.
aa(lp1864
Vin
p1865
aVholland
p1866
aV,
aVin
p1867
aVitaly
p1868
aV,
aVin
p1869
aVrussia
p1870
aV,
aVthe
p1871
aVplay
p1872
aVhas
p1873
aVbeen
p1874
aVacted
p1875
aVtimes
p1876
aVwithout
p1877
aVnumber
p1878
aV.
aa(lp1879
Vin
p1880
aVshort
p1881
aV(
aVas
p1882
aVmight
p1883
aVeasily
p1884
aVhave
p1885
aVbeen
p1886
aVforetold
p1887
aV)
aVit
p1888
aVhas
p1889
aVrivalled
p1890
aV_a
p1891
aVdoll
p1892
aV's
p1893
aVhouse_
p1894
aVin
p1895
aVworld-wide
p1896
aVpopularity
p1897
aV.
aa(lp1898
Vit
p1899
aVhas
p1900
aVbeen
p1901
aVsuggested
p1902
aV,
aV(
aV4
aV)
aVi
aVthink
p1903
aVwithout
p1904
aVsufficient
p1905
aVground
p1906
aV,
aVthat
p1907
aVibsen
p1908
aVdeliberately
p1909
aVconceived
p1910
aV_hedda
p1911
aVgabler_
p1912
aVas
p1913
aVan
p1914
aV``
p1915
aVinternational
p1916
aV''
p1917
aVplay
p1918
aV,
aVand
p1919
aVthat
p1920
aVthe
p1921
aVscene
p1922
aVis
p1923
aVreally
p1924
aVthe
p1925
aV``
p1926
aVwest
p1927
aVend
p1928
aV''
p1929
aVof
p1930
aVany
p1931
aVeuropean
p1932
aVcity
p1933
aV.
aa(lp1934
Vto
p1935
aVme
p1936
aVit
p1937
aVseems
p1938
aVquite
p1939
aVclear
p1940
aVthat
p1941
aVibsen
p1942
aVhad
p1943
aVchristiania
p1944
aVin
p1945
aVmind
p1946
aV,
aVand
p1947
aVthe
p1948
aVchristiania
p1949
aVof
p1950
aVa
aVsomewhat
p1951
aVearlier
p1952
aVperiod
p1953
aVthan
p1954
aVthe
p1955
aV'nineties
p1956
aV.
aa(lp1957
Vthe
p1958
aVelectric
p1959
aVcars
p1960
aV,
aVtelephones
p1961
aV,
aVand
p1962
aVother
p1963
aVconspicuous
p1964
aVfactors
p1965
aVin
p1966
aVthe
p1967
aVlife
p1968
aVof
p1969
aVa
aVmodern
p1970
aVcapital
p1971
aVare
p1972
aVnotably
p1973
aVabsent
p1974
aVfrom
p1975
aVthe
p1976
aVplay
p1977
aV.
aa(lp1978
Vthere
p1979
aVis
p1980
aVno
p1981
aVelectric
p1982
aVlight
p1983
aVin
p1984
aVsecretary
p1985
aVfalk
p1986
aV's
p1987
aVvilla
p1988
aV.
aa(lp1989
Vit
p1990
aVis
p1991
aVstill
p1992
aVthe
p1993
aVhabit
p1994
aVfor
p1995
aVladies
p1996
aVto
p1997
aVreturn
p1998
aVon
p1999
aVfoot
p2000
aVfrom
p2001
aVevening
p2002
aVparties
p2003
aV,
aVwith
p2004
aVgallant
p2005
aVswains
p2006
aVescorting
p2007
aVthem
p2008
aV.
aa(lp2009
Vthis
p2010
aV``
p2011
aVsuburbanism
p2012
aV,
aV''
p2013
aVwhich
p2014
aVso
p2015
aVdistressed
p2016
aVthe
p2017
aVlondon
p2018
aVcritics
p2019
aVof
p2020
aV1891
p2021
aV,
aVwas
p2022
aVcharacteristic
p2023
aVof
p2024
aVthe
p2025
aVchristiania
p2026
aVibsen
p2027
aVhimself
p2028
aVhad
p2029
aVknown
p2030
aVin
p2031
aVthe
p2032
aV'sixties
p2033
aV--
p2034
aVthe
p2035
aVchristiania
p2036
aVof
p2037
aV_love
p2038
aV's
p2039
aVcomedy_
p2040
aV--
p2041
aVrather
p2042
aVthan
p2043
aVof
p2044
aVthe
p2045
aVgreatly
p2046
aVextended
p2047
aVand
p2048
aVmodernised
p2049
aVcity
p2050
aVof
p2051
aVthe
p2052
aVend
p2053
aVof
p2054
aVthe
p2055
aVcentury
p2056
aV.
aa(lp2057
Vmoreover
p2058
aVlovborg
p2059
aV's
p2060
aVallusions
p2061
aVto
p2062
aVthe
p2063
aVfiord
p2064
aV,
aVand
p2065
aVthe
p2066
aVsuggested
p2067
aVpicture
p2068
aVof
p2069
aVsheriff
p2070
aVelvsted
p2071
aV,
aVhis
p2072
aVfamily
p2073
aVand
p2074
aVhis
p2075
aVavocations
p2076
aVare
p2077
aVall
p2078
aVdistinctively
p2079
aVnorwegian
p2080
aV.
aa(lp2081
Vthe
p2082
aVtruth
p2083
aVseems
p2084
aVto
p2085
aVbe
p2086
aVvery
p2087
aVsimple
p2088
aV--
p2089
aVthe
p2090
aVenvironment
p2091
aVand
p2092
aVthe
p2093
aVsubsidiary
p2094
aVpersonages
p2095
aVare
p2096
aVall
p2097
aVthoroughly
p2098
aVnational
p2099
aV,
aVbut
p2100
aVhedda
p2101
aVherself
p2102
aVis
p2103
aVan
p2104
aV''
p2105
aVinternational
p2106
aV''
p2107
aVtype
p2108
aV,
aVa
aVproduct
p2109
aVof
p2110
aVcivilisation
p2111
aVby
p2112
aVno
p2113
aVmeans
p2114
aVpeculiar
p2115
aVto
p2116
aVnorway
p2117
aV.
aa(lp2118
Vwe
p2119
aVcan
p2120
aVnot
p2121
aVpoint
p2122
aVto
p2123
aVany
p2124
aVindividual
p2125
aVmodel
p2126
aVor
p2127
aVmodels
p2128
aVwho
p2129
aV``
p2130
aVsat
p2131
aVto
p2132
aV''
p2133
aVibsen
p2134
aVfor
p2135
aVthe
p2136
aVcharacter
p2137
aVof
p2138
aVhedda
p2139
aV.
aa(lp2140
V(
aV5
aV)
aVthe
p2141
aVlate
p2142
aVgrant
p2143
aVallen
p2144
aVdeclared
p2145
aVthat
p2146
aVhedda
p2147
aVwas
p2148
aV''
p2149
aVnothing
p2150
aVmore
p2151
aVnor
p2152
aVless
p2153
aVthan
p2154
aVthe
p2155
aVgirl
p2156
aVwe
p2157
aVtake
p2158
aVdown
p2159
aVto
p2160
aVdinner
p2161
aVin
p2162
aVlondon
p2163
aVnineteen
p2164
aVtimes
p2165
aVout
p2166
aVof
p2167
aVtwenty
p2168
aV''
p2169
aV;
aVin
p2170
aVwhich
p2171
aVcase
p2172
aVibsen
p2173
aVmust
p2174
aVhave
p2175
aVsuffered
p2176
aVfrom
p2177
aVa
aVsuperfluidity
p2178
aVof
p2179
aVmodels
p2180
aV,
aVrather
p2181
aVthan
p2182
aVfrom
p2183
aVany
p2184
aVdifficulty
p2185
aVin
p2186
aVfinding
p2187
aVone
p2188
aV.
aa(lp2189
Vbut
p2190
aVthe
p2191
aVfact
p2192
aVis
p2193
aVthat
p2194
aVin
p2195
aVthis
p2196
aV,
aVas
p2197
aVin
p2198
aVall
p2199
aVother
p2200
aVinstances
p2201
aV,
aVthe
p2202
aVword
p2203
aV``
p2204
aVmodel
p2205
aV''
p2206
aVmust
p2207
aVbe
p2208
aVtaken
p2209
aVin
p2210
aVa
aVvery
p2211
aVdifferent
p2212
aVsense
p2213
aVfrom
p2214
aVthat
p2215
aVin
p2216
aVwhich
p2217
aVit
p2218
aVis
p2219
aVcommonly
p2220
aVused
p2221
aVin
p2222
aVpainting
p2223
aV.
aa(lp2224
Vibsen
p2225
aVundoubtedly
p2226
aVused
p2227
aVmodels
p2228
aVfor
p2229
aVthis
p2230
aVtrait
p2231
aVand
p2232
aVthat
p2233
aV,
aVbut
p2234
aVnever
p2235
aVfor
p2236
aVa
aVwhole
p2237
aVfigure
p2238
aV.
aa(lp2239
Vif
p2240
aVhis
p2241
aVcharacters
p2242
aVcan
p2243
aVbe
p2244
aVcalled
p2245
aVportraits
p2246
aVat
p2247
aVall
p2248
aV,
aVthey
p2249
aVare
p2250
aVcomposite
p2251
aVportraits
p2252
aV.
aa(lp2253
Veven
p2254
aVwhen
p2255
aVit
p2256
aVseems
p2257
aVpretty
p2258
aVclear
p2259
aVthat
p2260
aVthe
p2261
aVinitial
p2262
aVimpulse
p2263
aVtowards
p2264
aVthe
p2265
aVcreation
p2266
aVof
p2267
aVa
aVparticular
p2268
aVcharacter
p2269
aVcame
p2270
aVfrom
p2271
aVsome
p2272
aVindividual
p2273
aV,
aVthe
p2274
aVoriginal
p2275
aVfigure
p2276
aVis
p2277
aVentirely
p2278
aVtransmuted
p2279
aVin
p2280
aVthe
p2281
aVprocess
p2282
aVof
p2283
aVharmonisation
p2284
aVwith
p2285
aVthe
p2286
aVdramatic
p2287
aVscheme
p2288
aV.
aa(lp2289
Vwe
p2290
aVneed
p2291
aVnot
p2292
aV,
aVtherefore
p2293
aV,
aVlook
p2294
aVfor
p2295
aVa
aVdefinite
p2296
aVprototype
p2297
aVof
p2298
aVhedda
p2299
aV;
aVbut
p2300
aVdr.
p2301
aVbrandes
p2302
aVshows
p2303
aVthat
p2304
aVtwo
p2305
aVof
p2306
aVthat
p2307
aVlady
p2308
aV's
p2309
aVexploits
p2310
aVwere
p2311
aVprobably
p2312
aVsuggested
p2313
aVby
p2314
aVthe
p2315
aVanecdotic
p2316
aVhistory
p2317
aVof
p2318
aVthe
p2319
aVday
p2320
aV.
aa(lp2321
Vibsen
p2322
aVhad
p2323
aVno
p2324
aVdoubt
p2325
aVheard
p2326
aVhow
p2327
aVthe
p2328
aVwife
p2329
aVof
p2330
aVa
aVwell-known
p2331
aVnorwegian
p2332
aVcomposer
p2333
aV,
aVin
p2334
aVa
aVfit
p2335
aVof
p2336
aVraging
p2337
aVjealousy
p2338
aVexcited
p2339
aVby
p2340
aVher
p2341
aVhusband
p2342
aV's
p2343
aVprolonged
p2344
aVabsence
p2345
aVfrom
p2346
aVhome
p2347
aV,
aVburnt
p2348
aVthe
p2349
aVmanuscript
p2350
aVof
p2351
aVa
aVsymphony
p2352
aVwhich
p2353
aVhe
p2354
aVhad
p2355
aVjust
p2356
aVfinished
p2357
aV.
aa(lp2358
Vthe
p2359
aVcircumstances
p2360
aVunder
p2361
aVwhich
p2362
aVhedda
p2363
aVburns
p2364
aVlovborg
p2365
aV's
p2366
aVmanuscript
p2367
aVare
p2368
aV,
aVof
p2369
aVcourse
p2370
aV,
aVentirely
p2371
aVdifferent
p2372
aVand
p2373
aVinfinitely
p2374
aVmore
p2375
aVdramatic
p2376
aV;
aVbut
p2377
aVhere
p2378
aVwe
p2379
aVhave
p2380
aVmerely
p2381
aVanother
p2382
aVinstance
p2383
aVof
p2384
aVthe
p2385
aVdramatisation
p2386
aVor
p2387
aV''
p2388
aVpoetisation
p2389
aV''
p2390
aVof
p2391
aVthe
p2392
aVraw
p2393
aVmaterial
p2394
aVof
p2395
aVlife
p2396
aV.
aa(lp2397
Vagain
p2398
aV,
aVa
aVstill
p2399
aVmore
p2400
aVpainful
p2401
aVincident
p2402
aVprobably
p2403
aVcame
p2404
aVto
p2405
aVhis
p2406
aVknowledge
p2407
aVabout
p2408
aVthe
p2409
aVsame
p2410
aVtime
p2411
aV.
aa(lp2412
Va
aVbeautiful
p2413
aVand
p2414
aVvery
p2415
aVintellectual
p2416
aVwoman
p2417
aVwas
p2418
aVmarried
p2419
aVto
p2420
aVa
aVwell-known
p2421
aVman
p2422
aVwho
p2423
aVhad
p2424
aVbeen
p2425
aVaddicted
p2426
aVto
p2427
aVdrink
p2428
aV,
aVbut
p2429
aVhad
p2430
aVentirely
p2431
aVconquered
p2432
aVthe
p2433
aVvice
p2434
aV.
aa(lp2435
Vone
p2436
aVday
p2437
aVa
aVmad
p2438
aVwhim
p2439
aVseized
p2440
aVher
p2441
aVto
p2442
aVput
p2443
aVhis
p2444
aVself-mastery
p2445
aVand
p2446
aVher
p2447
aVpower
p2448
aVover
p2449
aVhim
p2450
aVto
p2451
aVthe
p2452
aVtest
p2453
aV.
aa(lp2454
Vas
p2455
aVit
p2456
aVhappened
p2457
aVto
p2458
aVbe
p2459
aVhis
p2460
aVbirthday
p2461
aV,
aVshe
p2462
aVrolled
p2463
aVinto
p2464
aVhis
p2465
aVstudy
p2466
aVa
aVsmall
p2467
aVkeg
p2468
aVof
p2469
aVbrandy
p2470
aV,
aVand
p2471
aVthen
p2472
aVwithdrew
p2473
aV.
aa(lp2474
Vshe
p2475
aVreturned
p2476
aVsome
p2477
aVtime
p2478
aVafter
p2479
aVwards
p2480
aVto
p2481
aVfind
p2482
aVthat
p2483
aVhe
p2484
aVhad
p2485
aVbroached
p2486
aVthe
p2487
aVkeg
p2488
aV,
aVand
p2489
aVlay
p2490
aVinsensible
p2491
aVon
p2492
aVthe
p2493
aVfloor
p2494
aV.
aa(lp2495
Vin
p2496
aVthis
p2497
aVanecdote
p2498
aVwe
p2499
aVcan
p2500
aVnot
p2501
aVbut
p2502
aVrecognise
p2503
aVthe
p2504
aVgerm
p2505
aV,
aVnot
p2506
aVonly
p2507
aVof
p2508
aVhedda
p2509
aV's
p2510
aVtemptation
p2511
aVof
p2512
aVlovborg
p2513
aV,
aVbut
p2514
aVof
p2515
aVa
aVlarge
p2516
aVpart
p2517
aVof
p2518
aVher
p2519
aVcharacter
p2520
aV.
aa(lp2521
V``
p2522
aVthus
p2523
aV,
aV''
p2524
aVsays
p2525
aVdr.
p2526
aVbrandes
p2527
aV,
aV``
p2528
aVout
p2529
aVof
p2530
aVsmall
p2531
aVand
p2532
aVscattered
p2533
aVtraits
p2534
aVof
p2535
aVreality
p2536
aVibsen
p2537
aVfashioned
p2538
aVhis
p2539
aVclose-knit
p2540
aVand
p2541
aVprofoundly
p2542
aVthought-out
p2543
aVworks
p2544
aVof
p2545
aVart
p2546
aV.
aV''
p2547
aa(lp2548
Vfor
p2549
aVthe
p2550
aVcharacter
p2551
aVof
p2552
aVeilert
p2553
aVlovborg
p2554
aV,
aVagain
p2555
aV,
aVibsen
p2556
aVseem
p2557
aVunquestionably
p2558
aVto
p2559
aVhave
p2560
aVborrowed
p2561
aVseveral
p2562
aVtraits
p2563
aVfrom
p2564
aVa
aVdefinite
p2565
aVoriginal
p2566
aV.
aa(lp2567
Va
aVyoung
p2568
aVdanish
p2569
aVman
p2570
aVof
p2571
aVletters
p2572
aV,
aVwhom
p2573
aVdr.
p2574
aVbrandes
p2575
aVcalls
p2576
aVholm
p2577
aV,
aVwas
p2578
aVan
p2579
aVenthusiastic
p2580
aVadmirer
p2581
aVof
p2582
aVibsen
p2583
aV,
aVand
p2584
aVcame
p2585
aVto
p2586
aVbe
p2587
aVon
p2588
aVvery
p2589
aVfriendly
p2590
aVterms
p2591
aVwith
p2592
aVhim
p2593
aV.
aa(lp2594
Vone
p2595
aVday
p2596
aVibsen
p2597
aVwas
p2598
aVastonished
p2599
aVto
p2600
aVreceive
p2601
aV,
aVin
p2602
aVmunich
p2603
aV,
aVa
aVparcel
p2604
aVaddressed
p2605
aVfrom
p2606
aVberlin
p2607
aVby
p2608
aVthis
p2609
aVyoung
p2610
aVman
p2611
aV,
aVcontaining
p2612
aV,
aVwithout
p2613
aVa
aVword
p2614
aVof
p2615
aVexplanation
p2616
aV,
aVa
aVpacket
p2617
aVof
p2618
aVhis
p2619
aV(
aVibsen
p2620
aV's
p2621
aV)
aVletters
p2622
aV,
aVand
p2623
aVa
aVphotograph
p2624
aVwhich
p2625
aVhe
p2626
aVhad
p2627
aVpresented
p2628
aVto
p2629
aVholm
p2630
aV.
aa(lp2631
Vibsen
p2632
aVbrooded
p2633
aVand
p2634
aVbrooded
p2635
aVover
p2636
aVthe
p2637
aVincident
p2638
aV,
aVand
p2639
aVat
p2640
aVlast
p2641
aVcame
p2642
aVto
p2643
aVthe
p2644
aVconclusion
p2645
aVthat
p2646
aVthe
p2647
aVyoung
p2648
aVman
p2649
aVhad
p2650
aVintended
p2651
aVto
p2652
aVreturn
p2653
aVher
p2654
aVletters
p2655
aVand
p2656
aVphotograph
p2657
aVto
p2658
aVa
aVyoung
p2659
aVlady
p2660
aVto
p2661
aVwhom
p2662
aVhe
p2663
aVwas
p2664
aVknown
p2665
aVto
p2666
aVbe
p2667
aVattached
p2668
aV,
aVand
p2669
aVhad
p2670
aVin
p2671
aVa
aVfit
p2672
aVof
p2673
aVaberration
p2674
aVmixed
p2675
aVup
p2676
aVthe
p2677
aVtwo
p2678
aVobjects
p2679
aVof
p2680
aVhis
p2681
aVworship
p2682
aV.
aa(lp2683
Vsome
p2684
aVtime
p2685
aVafter
p2686
aV,
aVholm
p2687
aVappeared
p2688
aVat
p2689
aVibsen
p2690
aV's
p2691
aVrooms
p2692
aV.
aa(lp2693
Vhe
p2694
aVtalked
p2695
aVquite
p2696
aVrationally
p2697
aV,
aVbut
p2698
aVprofessed
p2699
aVto
p2700
aVhave
p2701
aVno
p2702
aVknowledge
p2703
aVwhatever
p2704
aVof
p2705
aVthe
p2706
aVletter-incident
p2707
aV,
aVthough
p2708
aVhe
p2709
aVadmitted
p2710
aVthe
p2711
aVtruth
p2712
aVof
p2713
aVibsen
p2714
aV's
p2715
aVconjecture
p2716
aVthat
p2717
aVthe
p2718
aV``
p2719
aVbelle
p2720
aVdame
p2721
aVsans
p2722
aVmerci
p2723
aV''
p2724
aVhad
p2725
aVdemanded
p2726
aVthe
p2727
aVreturn
p2728
aVof
p2729
aVher
p2730
aVletters
p2731
aVand
p2732
aVportrait
p2733
aV.
aa(lp2734
Vibsen
p2735
aVwas
p2736
aVdetermined
p2737
aVto
p2738
aVget
p2739
aVat
p2740
aVthe
p2741
aVroot
p2742
aVof
p2743
aVthe
p2744
aVmystery
p2745
aV;
aVand
p2746
aVa
aVlittle
p2747
aVinquiry
p2748
aVinto
p2749
aVhis
p2750
aVyoung
p2751
aVfriend
p2752
aV's
p2753
aVhabits
p2754
aVrevealed
p2755
aVthe
p2756
aVfact
p2757
aVthat
p2758
aVhe
p2759
aVbroke
p2760
aVhis
p2761
aVfast
p2762
aVon
p2763
aVa
aVbottle
p2764
aVof
p2765
aVport
p2766
aVwine
p2767
aV,
aVconsumed
p2768
aVa
aVbottle
p2769
aVof
p2770
aVrhine
p2771
aVwine
p2772
aVat
p2773
aVlunch
p2774
aV,
aVof
p2775
aVburgundy
p2776
aVat
p2777
aVdinner
p2778
aV,
aVand
p2779
aVfinished
p2780
aVoff
p2781
aVthe
p2782
aVevening
p2783
aVwith
p2784
aVone
p2785
aVor
p2786
aVtwo
p2787
aVmore
p2788
aVbottles
p2789
aVof
p2790
aVport
p2791
aV.
aa(lp2792
Vthen
p2793
aVhe
p2794
aVheard
p2795
aV,
aVtoo
p2796
aV,
aVhow
p2797
aV,
aVin
p2798
aVthe
p2799
aVcourse
p2800
aVof
p2801
aVa
aVnight's
p2802
aVcarouse
p2803
aV,
aVholm
p2804
aVhad
p2805
aVlost
p2806
aVthe
p2807
aVmanuscript
p2808
aVof
p2809
aVa
aVbook
p2810
aV;
aVand
p2811
aVin
p2812
aVthese
p2813
aVtraits
p2814
aVhe
p2815
aVsaw
p2816
aVthe
p2817
aVoutline
p2818
aVof
p2819
aVthe
p2820
aVfigure
p2821
aVof
p2822
aVeilert
p2823
aVlovborg
p2824
aV.
aa(lp2825
Vsome
p2826
aVtime
p2827
aVelapsed
p2828
aV,
aVand
p2829
aVagain
p2830
aVibsen
p2831
aVreceived
p2832
aVa
aVpostal
p2833
aVpacket
p2834
aVfrom
p2835
aVholm
p2836
aV.
aa(lp2837
Vthis
p2838
aVone
p2839
aVcontained
p2840
aVhis
p2841
aVwill
p2842
aV,
aVin
p2843
aVwhich
p2844
aVibsen
p2845
aVfigured
p2846
aVas
p2847
aVhis
p2848
aVresiduary
p2849
aVlegatee
p2850
aV.
aa(lp2851
Vbut
p2852
aVmany
p2853
aVother
p2854
aVlegatees
p2855
aVwere
p2856
aVmentioned
p2857
aVin
p2858
aVthe
p2859
aVinstrument
p2860
aV--
p2861
aVall
p2862
aVof
p2863
aVthem
p2864
aVladies
p2865
aV,
aVsuch
p2866
aVas
p2867
aVfraulein
p2868
aValma
p2869
aVrothbart
p2870
aV,
aVof
p2871
aVbremen
p2872
aV,
aVand
p2873
aVfraulein
p2874
aVelise
p2875
aVkraushaar
p2876
aV,
aVof
p2877
aVberlin
p2878
aV.
aa(lp2879
Vthe
p2880
aVbequests
p2881
aVto
p2882
aVthese
p2883
aVmeritorious
p2884
aVspinsters
p2885
aVwere
p2886
aVso
p2887
aVgenerous
p2888
aVthat
p2889
aVtheir
p2890
aVsum
p2891
aVconsiderably
p2892
aVexceeded
p2893
aVthe
p2894
aVamount
p2895
aVof
p2896
aVthe
p2897
aVtestator
p2898
aV's
p2899
aVproperty
p2900
aV.
aa(lp2901
Vibsen
p2902
aVgently
p2903
aVbut
p2904
aVfirmly
p2905
aVdeclined
p2906
aVthe
p2907
aVproffered
p2908
aVinheritance
p2909
aV;
aVbut
p2910
aVholm
p2911
aV's
p2912
aVwill
p2913
aVno
p2914
aVdoubt
p2915
aVsuggested
p2916
aVto
p2917
aVhim
p2918
aVthe
p2919
aVfigure
p2920
aVof
p2921
aVthat
p2922
aVred-haired
p2923
aV``
p2924
aVmademoiselle
p2925
aVdiana
p2926
aV,
aV''
p2927
aVwho
p2928
aVis
p2929
aVheard
p2930
aVof
p2931
aVbut
p2932
aVnot
p2933
aVseen
p2934
aVin
p2935
aV_hedda
p2936
aVgabler_
p2937
aV,
aVand
p2938
aVenabled
p2939
aVhim
p2940
aVto
p2941
aVadd
p2942
aVsome
p2943
aVfurther
p2944
aVtraits
p2945
aVto
p2946
aVthe
p2947
aVportraiture
p2948
aVof
p2949
aVlovborg
p2950
aV.
aa(lp2951
Vwhen
p2952
aVthe
p2953
aVplay
p2954
aVappeared
p2955
aV,
aVholm
p2956
aVrecognised
p2957
aVhimself
p2958
aVwith
p2959
aVglee
p2960
aVin
p2961
aVthe
p2962
aVcharacter
p2963
aVof
p2964
aVthe
p2965
aVbibulous
p2966
aVman
p2967
aVof
p2968
aVletters
p2969
aV,
aVand
p2970
aVthereafter
p2971
aVadopted
p2972
aV``
p2973
aVeilert
p2974
aVlovborg
p2975
aV''
p2976
aVas
p2977
aVhis
p2978
aVpseudonym
p2979
aV.
aa(lp2980
Vi
aVdo
p2981
aVnot
p2982
aV,
aVtherefore
p2983
aV,
aVsee
p2984
aVwhy
p2985
aVdr.
p2986
aVbrandes
p2987
aVshould
p2988
aVsuppress
p2989
aVhis
p2990
aVreal
p2991
aVname
p2992
aV;
aVbut
p2993
aVi
aVwillingly
p2994
aVimitate
p2995
aVhim
p2996
aVin
p2997
aVerring
p2998
aVon
p2999
aVthe
p3000
aVside
p3001
aVof
p3002
aVdiscretion
p3003
aV.
aa(lp3004
Vthe
p3005
aVpoor
p3006
aVfellow
p3007
aVdied
p3008
aVseveral
p3009
aVyears
p3010
aVago
p3011
aV.
aa(lp3012
Vsome
p3013
aVcritics
p3014
aVhave
p3015
aVbeen
p3016
aVgreatly
p3017
aVtroubled
p3018
aVas
p3019
aVto
p3020
aVthe
p3021
aVprecise
p3022
aVmeaning
p3023
aVof
p3024
aVhedda
p3025
aV's
p3026
aVfantastic
p3027
aVvision
p3028
aVof
p3029
aVlovborg
p3030
aV``
p3031
aVwith
p3032
aVvine-leaves
p3033
aVin
p3034
aVhis
p3035
aVhair
p3036
aV.
aV''
p3037
aa(lp3038
Vsurely
p3039
aVthis
p3040
aVis
p3041
aVa
aVvery
p3042
aVobvious
p3043
aVimage
p3044
aVor
p3045
aVsymbol
p3046
aVof
p3047
aVthe
p3048
aVbeautiful
p3049
aV,
aVthe
p3050
aVideal
p3051
aV,
aVaspect
p3052
aVof
p3053
aVbacchic
p3054
aVelation
p3055
aVand
p3056
aVrevelry
p3057
aV.
aa(lp3058
Vantique
p3059
aVart
p3060
aV,
aVor
p3061
aVi
aVam
p3062
aVmuch
p3063
aVmistaken
p3064
aV,
aVshows
p3065
aVus
p3066
aVmany
p3067
aVfigures
p3068
aVof
p3069
aVdionysus
p3070
aVhimself
p3071
aVand
p3072
aVhis
p3073
aVfollowers
p3074
aVwith
p3075
aVvine-leaves
p3076
aVentwined
p3077
aVtheir
p3078
aVhair
p3079
aV.
aa(lp3080
Vto
p3081
aVibsen
p3082
aV's
p3083
aVmind
p3084
aV,
aVat
p3085
aVany
p3086
aVrate
p3087
aV,
aVthe
p3088
aVimage
p3089
aVhad
p3090
aVlong
p3091
aVbeen
p3092
aVfamiliar
p3093
aV.
aa(lp3094
Vin
p3095
aV_peer
p3096
aVgynt_
p3097
aV(
aVact
p3098
aViv
p3099
aV.
aa(lp3100
Vsc
p3101
aV.
aa(lp3102
V8
aV)
aV,
aVwhen
p3103
aVpeer
p3104
aV,
aVhaving
p3105
aVcarried
p3106
aVoff
p3107
aVanitra
p3108
aV,
aVfinds
p3109
aVhimself
p3110
aVin
p3111
aVa
aVparticularly
p3112
aVfestive
p3113
aVmood
p3114
aV,
aVhe
p3115
aVcries
p3116
aV:
aV``
p3117
aVwere
p3118
aVthere
p3119
aVvine-leaves
p3120
aVaround
p3121
aV,
aVi
aVwould
p3122
aVgarland
p3123
aVmy
p3124
aVbrow
p3125
aV.
aV''
p3126
aa(lp3127
Vagain
p3128
aV,
aVin
p3129
aV_emperor
p3130
aVand
p3131
aVgalilean_
p3132
aV(
aVpt
p3133
aV.
aa(lp3134
Vii
p3135
aV.
aa(lp3136
Vact
p3137
aV1
aV)
aVwhere
p3138
aVjulian
p3139
aV,
aVin
p3140
aVthe
p3141
aVprocession
p3142
aVof
p3143
aVdionysus
p3144
aV,
aVimpersonates
p3145
aVthe
p3146
aVgod
p3147
aVhimself
p3148
aV,
aVit
p3149
aVis
p3150
aVdirected
p3151
aVthat
p3152
aVhe
p3153
aVshall
p3154
aVwear
p3155
aVa
aVwreath
p3156
aVof
p3157
aVvine-leaves
p3158
aV.
aa(lp3159
Vprofessor
p3160
aVdietrichson
p3161
aVrelates
p3162
aVthat
p3163
aVamong
p3164
aVthe
p3165
aVyoung
p3166
aVartists
p3167
aVwhose
p3168
aVsociety
p3169
aVibsen
p3170
aVfrequented
p3171
aVduring
p3172
aVhis
p3173
aVfirst
p3174
aVyears
p3175
aVin
p3176
aVrome
p3177
aV,
aVit
p3178
aVwas
p3179
aVcustomary
p3180
aV,
aVat
p3181
aVtheir
p3182
aVlittle
p3183
aVfestivals
p3184
aV,
aVfor
p3185
aVthe
p3186
aVrevellers
p3187
aVto
p3188
aVdeck
p3189
aVthemselves
p3190
aVin
p3191
aVthis
p3192
aVfashion
p3193
aV.
aa(lp3194
Vbut
p3195
aVthe
p3196
aVimage
p3197
aVis
p3198
aVso
p3199
aVobvious
p3200
aVthat
p3201
aVthere
p3202
aVis
p3203
aVno
p3204
aVneed
p3205
aVto
p3206
aVtrace
p3207
aVit
p3208
aVto
p3209
aVany
p3210
aVpersonal
p3211
aVexperience
p3212
aV.
aa(lp3213
Vthe
p3214
aVattempt
p3215
aVto
p3216
aVplace
p3217
aVhedda
p3218
aV's
p3219
aVvine-leaves
p3220
aVamong
p3221
aVibsen's
p3222
aVobscurities
p3223
aVis
p3224
aVan
p3225
aVexample
p3226
aVof
p3227
aVthe
p3228
aVfirm
p3229
aVresolution
p3230
aVnot
p3231
aVto
p3232
aVunderstand
p3233
aVwhich
p3234
aVanimated
p3235
aVthe
p3236
aVcriticism
p3237
aVof
p3238
aVthe
p3239
aV'nineties
p3240
aV.
aa(lp3241
Vdr.
p3242
aVbrandes
p3243
aVhas
p3244
aVdealt
p3245
aVvery
p3246
aVseverely
p3247
aVwith
p3248
aVthe
p3249
aVcharacter
p3250
aVof
p3251
aVeilert
p3252
aVlovborg
p3253
aV,
aValleging
p3254
aVthat
p3255
aVwe
p3256
aVcan
p3257
aVnot
p3258
aVbelieve
p3259
aVin
p3260
aVthe
p3261
aVgenius
p3262
aVattributed
p3263
aVto
p3264
aVhim
p3265
aV.
aa(lp3266
Vbut
p3267
aVwhere
p3268
aVis
p3269
aVhe
p3270
aVdescribed
p3271
aVas
p3272
aVa
aVgenius
p3273
aV?
aa(lp3274
Vthe
p3275
aVpoet
p3276
aVrepresents
p3277
aVhim
p3278
aVas
p3279
aVa
aVvery
p3280
aVable
p3281
aVstudent
p3282
aVof
p3283
aVsociology
p3284
aV;
aVbut
p3285
aVthat
p3286
aVis
p3287
aVquite
p3288
aVa
aVdifferent
p3289
aVthing
p3290
aVfrom
p3291
aVattributing
p3292
aVto
p3293
aVhim
p3294
aVsuch
p3295
aVgenius
p3296
aVas
p3297
aVmust
p3298
aVnecessarily
p3299
aVshine
p3300
aVforth
p3301
aVin
p3302
aVevery
p3303
aVword
p3304
aVhe
p3305
aVutters
p3306
aV.
aa(lp3307
Vdr.
p3308
aVbrandes
p3309
aV,
aVindeed
p3310
aV,
aVdeclines
p3311
aVto
p3312
aVbelieve
p3313
aVeven
p3314
aVin
p3315
aVhis
p3316
aVability
p3317
aVas
p3318
aVa
aVsociologist
p3319
aV,
aVon
p3320
aVthe
p3321
aVground
p3322
aVthat
p3323
aVit
p3324
aVis
p3325
aVidle
p3326
aVto
p3327
aVwrite
p3328
aVabout
p3329
aVthe
p3330
aVsocial
p3331
aVdevelopment
p3332
aVof
p3333
aVthe
p3334
aVfuture
p3335
aV.
aa(lp3336
V``
p3337
aVto
p3338
aVour
p3339
aVprosaic
p3340
aVminds
p3341
aV,
aV''
p3342
aVhe
p3343
aVsays
p3344
aV,
aV''
p3345
aVit
p3346
aVmay
p3347
aVseem
p3348
aVas
p3349
aVif
p3350
aVthe
p3351
aVmost
p3352
aVsensible
p3353
aVutterance
p3354
aVon
p3355
aVthe
p3356
aVsubject
p3357
aVis
p3358
aVthat
p3359
aVof
p3360
aVthe
p3361
aVfool
p3362
aVof
p3363
aVthe
p3364
aVplay
p3365
aV:
aV'the
p3366
aVfuture
p3367
aV!
aa(lp3368
Vgood
p3369
aVheavens
p3370
aV,
aVwe
p3371
aVknow
p3372
aVnothing
p3373
aVof
p3374
aVthe
p3375
aVfuture
p3376
aV.
aV'
aV''
p3377
aa(lp3378
Vthe
p3379
aVbest
p3380
aVretort
p3381
aVto
p3382
aVthis
p3383
aVcriticism
p3384
aVis
p3385
aVthat
p3386
aVwhich
p3387
aVeilert
p3388
aVhimself
p3389
aVmakes
p3390
aV:
aV``
p3391
aVthere
p3392
aV's
p3393
aVa
aVthing
p3394
aVor
p3395
aVtwo
p3396
aVto
p3397
aVbe
p3398
aVsaid
p3399
aVabout
p3400
aVit
p3401
aVall
p3402
aVthe
p3403
aVsame
p3404
aV.
aV''
p3405
aa(lp3406
Vthe
p3407
aVintelligent
p3408
aVforecasting
p3409
aVof
p3410
aVthe
p3411
aVfuture
p3412
aV(
aVas
p3413
aVmr.
p3414
aVh.
p3415
aVg.
p3416
aVwells
p3417
aVhas
p3418
aVshown
p3419
aV)
aVis
p3420
aVnot
p3421
aVonly
p3422
aVclearly
p3423
aVdistinguishable
p3424
aVfrom
p3425
aVfantastic
p3426
aVutopianism
p3427
aV,
aVbut
p3428
aVis
p3429
aVindispensable
p3430
aVto
p3431
aVany
p3432
aVlarge
p3433
aVstatesmanship
p3434
aVor
p3435
aVenlightened
p3436
aVsocial
p3437
aVactivity
p3438
aV.
aa(lp3439
Vwith
p3440
aVvery
p3441
aVreal
p3442
aVand
p3443
aVvery
p3444
aVgreat
p3445
aVrespect
p3446
aVfor
p3447
aVdr.
p3448
aVbrandes
p3449
aV,
aVi
aVcan
p3450
aVnot
p3451
aVthink
p3452
aVthat
p3453
aVhe
p3454
aVhas
p3455
aVbeen
p3456
aVfortunate
p3457
aVin
p3458
aVhis
p3459
aVtreatment
p3460
aVof
p3461
aVlovborg
p3462
aV's
p3463
aVcharacter
p3464
aV.
aa(lp3465
Vit
p3466
aVhas
p3467
aVbeen
p3468
aVrepresented
p3469
aVas
p3470
aVan
p3471
aVabsurdity
p3472
aVthat
p3473
aVhe
p3474
aVwould
p3475
aVthink
p3476
aVof
p3477
aVreading
p3478
aVabstracts
p3479
aVfrom
p3480
aVhis
p3481
aVnew
p3482
aVbook
p3483
aVto
p3484
aVa
aVman
p3485
aVlike
p3486
aVtesman
p3487
aV,
aVwhom
p3488
aVhe
p3489
aVdespises
p3490
aV.
aa(lp3491
Vbut
p3492
aVthough
p3493
aVtesman
p3494
aVis
p3495
aVa
aVninny
p3496
aV,
aVhe
p3497
aVis
p3498
aV,
aVas
p3499
aVhedda
p3500
aVsays
p3501
aV,
aVa
aV``
p3502
aVspecialist
p3503
aV''
p3504
aV--
p3505
aVhe
p3506
aVis
p3507
aVa
aVcompetent
p3508
aV,
aVplodding
p3509
aVstudent
p3510
aVof
p3511
aVhis
p3512
aVsubject
p3513
aV.
aa(lp3514
Vlovborg
p3515
aVmay
p3516
aVquite
p3517
aVnaturally
p3518
aVwish
p3519
aVto
p3520
aVsee
p3521
aVhow
p3522
aVhis
p3523
aVnew
p3524
aVmethod
p3525
aV,
aVor
p3526
aVhis
p3527
aVexcursion
p3528
aVinto
p3529
aVa
aVnew
p3530
aVfield
p3531
aV,
aVstrikes
p3532
aVthe
p3533
aVaverage
p3534
aVscholar
p3535
aVof
p3536
aVthe
p3537
aVtesman
p3538
aVtype
p3539
aV.
aa(lp3540
Vhe
p3541
aVis
p3542
aV,
aVin
p3543
aVfact
p3544
aV,
aV``
p3545
aVtrying
p3546
aVit
p3547
aVon
p3548
aVthe
p3549
aVdog
p3550
aV''
p3551
aV--
p3552
aVneither
p3553
aVan
p3554
aVunreasonable
p3555
aVnor
p3556
aVan
p3557
aVunusual
p3558
aVproceeding
p3559
aV.
aa(lp3560
Vthere
p3561
aVis
p3562
aV,
aVno
p3563
aVdoubt
p3564
aV,
aVa
aVcertain
p3565
aVimprobability
p3566
aVin
p3567
aVthe
p3568
aVway
p3569
aVin
p3570
aVwhich
p3571
aVlovborg
p3572
aVis
p3573
aVrepresented
p3574
aVas
p3575
aVcarrying
p3576
aVhis
p3577
aVmanuscript
p3578
aVaround
p3579
aV,
aVand
p3580
aVespecially
p3581
aVin
p3582
aVmrs.
p3583
aVelvsted
p3584
aV's
p3585
aVproduction
p3586
aVof
p3587
aVhis
p3588
aVrough
p3589
aVdraft
p3590
aVfrom
p3591
aVher
p3592
aVpocket
p3593
aV;
aVbut
p3594
aVthese
p3595
aVare
p3596
aVmechanical
p3597
aVtrifles
p3598
aV,
aVon
p3599
aVwhich
p3600
aVonly
p3601
aVa
aVniggling
p3602
aVcriticism
p3603
aVwould
p3604
aVdream
p3605
aVof
p3606
aVlaying
p3607
aVstress
p3608
aV.
aa(lp3609
Vof
p3610
aVall
p3611
aVibsen
p3612
aV's
p3613
aVworks
p3614
aV,
aV_hedda
p3615
aVgabler_
p3616
aVis
p3617
aVthe
p3618
aVmost
p3619
aVdetached
p3620
aV,
aVthe
p3621
aVmost
p3622
aVobjective
p3623
aV--
p3624
aVa
aVcharacter-study
p3625
aVpure
p3626
aVand
p3627
aVsimple
p3628
aV.
aa(lp3629
Vit
p3630
aVis
p3631
aVimpossible
p3632
aV--
p3633
aVor
p3634
aVso
p3635
aVit
p3636
aVseems
p3637
aVto
p3638
aVme
p3639
aV--
p3640
aVto
p3641
aVextract
p3642
aVany
p3643
aVsort
p3644
aVof
p3645
aVgeneral
p3646
aVidea
p3647
aVfrom
p3648
aVit
p3649
aV.
aa(lp3650
Vone
p3651
aVcan
p3652
aVnot
p3653
aVeven
p3654
aVcall
p3655
aVit
p3656
aVa
aVsatire
p3657
aV,
aVunless
p3658
aVone
p3659
aVis
p3660
aVprepared
p3661
aVto
p3662
aVapply
p3663
aVthat
p3664
aVterm
p3665
aVto
p3666
aVthe
p3667
aVrecord
p3668
aVof
p3669
aVa
aV``
p3670
aVcase
p3671
aV''
p3672
aVin
p3673
aVa
aVwork
p3674
aVof
p3675
aVcriminology
p3676
aV.
aa(lp3677
Vreverting
p3678
aVto
p3679
aVdumas
p3680
aV's
p3681
aVdictum
p3682
aVthat
p3683
aVa
aVplay
p3684
aVshould
p3685
aVcontain
p3686
aV``
p3687
aVa
aVpainting
p3688
aV,
aVa
aVjudgment
p3689
aV,
aVan
p3690
aVideal
p3691
aV,
aV''
p3692
aVwe
p3693
aVmay
p3694
aVsay
p3695
aVthe
p3696
aV_hedda
p3697
aVgabler_
p3698
aVfulfils
p3699
aVonly
p3700
aVthe
p3701
aVfirst
p3702
aVof
p3703
aVthese
p3704
aVrequirements
p3705
aV.
aa(lp3706
Vthe
p3707
aVpoet
p3708
aVdoes
p3709
aVnot
p3710
aVeven
p3711
aVpass
p3712
aVjudgment
p3713
aVon
p3714
aVhis
p3715
aVheroine
p3716
aV:
aVhe
p3717
aVsimply
p3718
aVpaints
p3719
aVher
p3720
aVfull-length
p3721
aVportrait
p3722
aVwith
p3723
aVscientific
p3724
aVimpassivity
p3725
aV.
aa(lp3726
Vbut
p3727
aVwhat
p3728
aVa
aVportrait
p3729
aV!
aa(lp3730
Vhow
p3731
aVsearching
p3732
aVin
p3733
aVinsight
p3734
aV,
aVhow
p3735
aVbrilliant
p3736
aVin
p3737
aVcolouring
p3738
aV,
aVhow
p3739
aVrich
p3740
aVin
p3741
aVdetail
p3742
aV!
aa(lp3743
Vgrant
p3744
aVallen
p3745
aV's
p3746
aVremark
p3747
aV,
aVabove
p3748
aVquoted
p3749
aV,
aVwas
p3750
aV,
aVof
p3751
aVcourse
p3752
aV,
aVa
aVwhimsical
p3753
aVexaggeration
p3754
aV;
aVthe
p3755
aVhedda
p3756
aVtype
p3757
aVis
p3758
aVnot
p3759
aVso
p3760
aVcommon
p3761
aVas
p3762
aVall
p3763
aVthat
p3764
aV,
aVelse
p3765
aVthe
p3766
aVworld
p3767
aVwould
p3768
aVquickly
p3769
aVcome
p3770
aVto
p3771
aVan
p3772
aVend
p3773
aV.
aa(lp3774
Vbut
p3775
aVparticular
p3776
aVtraits
p3777
aVand
p3778
aVtendencies
p3779
aVof
p3780
aVthe
p3781
aVhedda
p3782
aVtype
p3783
aVare
p3784
aVvery
p3785
aVcommon
p3786
aVin
p3787
aVmodern
p3788
aVlife
p3789
aV,
aVand
p3790
aVnot
p3791
aVonly
p3792
aVamong
p3793
aVwomen
p3794
aV.
aa(lp3795
Vhyperaesthesia
p3796
aVlies
p3797
aVat
p3798
aVthe
p3799
aVroot
p3800
aVof
p3801
aVher
p3802
aVtragedy
p3803
aV.
aa(lp3804
Vwith
p3805
aVa
aVkeenly
p3806
aVcritical
p3807
aV,
aVrelentlessly
p3808
aVsolvent
p3809
aVintelligence
p3810
aV,
aVshe
p3811
aVcombines
p3812
aVa
aVmorbid
p3813
aVshrinking
p3814
aVfrom
p3815
aVall
p3816
aVthe
p3817
aVgross
p3818
aVand
p3819
aVprosaic
p3820
aVdetail
p3821
aVof
p3822
aVthe
p3823
aVsensual
p3824
aVlife
p3825
aV.
aa(lp3826
Vshe
p3827
aVhas
p3828
aVnothing
p3829
aVto
p3830
aVtake
p3831
aVher
p3832
aVout
p3833
aVof
p3834
aVherself
p3835
aV--
p3836
aVnot
p3837
aVa
aVsingle
p3838
aVintellectual
p3839
aVinterest
p3840
aVor
p3841
aVmoral
p3842
aVenthusiasm
p3843
aV.
aa(lp3844
Vshe
p3845
aVcherishes
p3846
aV,
aVin
p3847
aVa
aVlanguid
p3848
aVway
p3849
aV,
aVa
aVpetty
p3850
aVsocial
p3851
aVambition
p3852
aV;
aVand
p3853
aVeven
p3854
aVthat
p3855
aVshe
p3856
aVfinds
p3857
aVobstructed
p3858
aVand
p3859
aVbaffled
p3860
aV.
aa(lp3861
Vat
p3862
aVthe
p3863
aVsame
p3864
aVtime
p3865
aVshe
p3866
aVlearns
p3867
aVthat
p3868
aVanother
p3869
aVwoman
p3870
aVhas
p3871
aVhad
p3872
aVthe
p3873
aVcourage
p3874
aVto
p3875
aVlove
p3876
aVand
p3877
aVventure
p3878
aVall
p3879
aV,
aVwhere
p3880
aVshe
p3881
aV,
aVin
p3882
aVher
p3883
aVcowardice
p3884
aV,
aVonly
p3885
aVhankered
p3886
aVand
p3887
aVrefrained
p3888
aV.
aa(lp3889
Vher
p3890
aVmalign
p3891
aVegoism
p3892
aVrises
p3893
aVup
p3894
aVuncontrolled
p3895
aV,
aVand
p3896
aVcalls
p3897
aVto
p3898
aVits
p3899
aVaid
p3900
aVher
p3901
aVquick
p3902
aVand
p3903
aVsubtle
p3904
aVintellect
p3905
aV.
aa(lp3906
Vshe
p3907
aVruins
p3908
aVthe
p3909
aVother
p3910
aVwoman
p3911
aV's
p3912
aVhappiness
p3913
aV,
aVbut
p3914
aVin
p3915
aVdoing
p3916
aVso
p3917
aVincurs
p3918
aVa
aVdanger
p3919
aVfrom
p3920
aVwhich
p3921
aVher
p3922
aVsense
p3923
aVof
p3924
aVpersonal
p3925
aVdignity
p3926
aVrevolts
p3927
aV.
aa(lp3928
Vlife
p3929
aVhas
p3930
aVno
p3931
aVsuch
p3932
aVcharm
p3933
aVfor
p3934
aVher
p3935
aVthat
p3936
aVshe
p3937
aVcares
p3938
aVto
p3939
aVpurchase
p3940
aVit
p3941
aVat
p3942
aVthe
p3943
aVcost
p3944
aVof
p3945
aVsqualid
p3946
aVhumiliation
p3947
aVand
p3948
aVself-contempt
p3949
aV.
aa(lp3950
Vthe
p3951
aVgood
p3952
aVand
p3953
aVthe
p3954
aVbad
p3955
aVin
p3956
aVher
p3957
aValike
p3958
aVimpel
p3959
aVher
p3960
aVto
p3961
aVhave
p3962
aVdone
p3963
aVwith
p3964
aVit
p3965
aVall
p3966
aV;
aVand
p3967
aVa
aVpistol-shot
p3968
aVends
p3969
aVwhat
p3970
aVis
p3971
aVsurely
p3972
aVone
p3973
aVof
p3974
aVthe
p3975
aVmost
p3976
aVpoignant
p3977
aVcharacter-tragedies
p3978
aVin
p3979
aVliterature
p3980
aV.
aa(lp3981
Vibsen
p3982
aV's
p3983
aVbrain
p3984
aVnever
p3985
aVworked
p3986
aVat
p3987
aVhigher
p3988
aVpressure
p3989
aVthan
p3990
aVin
p3991
aVthe
p3992
aVconception
p3993
aVand
p3994
aVadjustment
p3995
aVof
p3996
aVthose
p3997
aV``
p3998
aVcrowded
p3999
aVhours
p4000
aV''
p4001
aVin
p4002
aVwhich
p4003
aVhedda
p4004
aV,
aVtangled
p4005
aVin
p4006
aVthe
p4007
aVweb
p4008
aVof
p4009
aVwill
p4010
aVand
p4011
aVcircumstance
p4012
aV,
aVstruggles
p4013
aVon
p4014
aVtill
p4015
aVshe
p4016
aVis
p4017
aVtoo
p4018
aVweary
p4019
aVto
p4020
aVstruggle
p4021
aVany
p4022
aVmore
p4023
aV.
aa(lp4024
Vit
p4025
aVmay
p4026
aVnot
p4027
aVbe
p4028
aVsuperfluous
p4029
aVto
p4030
aVnote
p4031
aVthat
p4032
aVthe
p4033
aV``
p4034
aVa
aV''
p4035
aVin
p4036
aV``
p4037
aVgabler
p4038
aV''
p4039
aVshould
p4040
aVbe
p4041
aVsounded
p4042
aVlong
p4043
aVand
p4044
aVfull
p4045
aV,
aVlike
p4046
aVthe
p4047
aV``
p4048
aVa
aV''
p4049
aVin
p4050
aV``
p4051
aVgarden
p4052
aV''
p4053
aV--
p4054
aVnot
p4055
aVlike
p4056
aVthe
p4057
aV``
p4058
aVa
aV''
p4059
aVin
p4060
aV''
p4061
aVgable
p4062
aV''
p4063
aVor
p4064
aVin
p4065
aV``
p4066
aVgabble
p4067
aV.
aV''
p4068
aa(lp4069
Vw.
p4070
aVa
aV.
aasb.