ccopy_reg
_reconstructor
p1
(cData.Book
Book
p2
c__builtin__
object
p3
NtRp4
(dp5
S'stored_object'
p6
S'Books/Hedda_Gabler/Book_object.p'
p7
sS'title'
p8
S'Hedda Gabler'
p9
sS'main_text_path'
p10
S'Books/Hedda_Gabler/main_cleaned.txt'
p11
sS'metadata_path'
p12
S'Books/Hedda_Gabler/meta_data.csv'
p13
sS'book_path'
p14
S'Books/Hedda_Gabler/'
p15
sS'characters'
p16
(dp17
S'aunt rina'
p18
(dp19
S'list'
p20
(lp21
(lp22
V[
aVCHARACTER
p23
aV]
aV-
aV[
aVCHARACTER
p24
aV]
aVis
p25
aVdying
p26
aVat
p27
aVthe
p28
aVstart
p29
aVof
p30
aVthe
p31
aVplay
p32
aV.
aa(lp33
Vshe
p34
aVnever
p35
aVappears
p36
aVonstage
p37
aV.
aa(lp38
Vshe
p39
aVhelped
p40
aVaunt
p41
aVjulle
p42
aVraise
p43
aVtesman*
p44
aasS'relevant_text'
p45
(lp46
(lp47
asS'analysis'
p48
NssS'mrs. elvsted'
p49
(dp50
g20
(lp51
(lp52
Vmrs.
p53
aV[
aVCHARACTER
p54
aV]
aV-
aVmrs.
p55
aV[
aVCHARACTER
p56
aV]
aVis
p57
aVa
aVmeek
p58
aVbut
p59
aVpassionate
p60
aVwoman
p61
aV.
aa(lp62
Vshe
p63
aVand
p64
aVher
p65
aVhusband
p66
aVhired
p67
aVejlert
p68
aVlovborg
p69
aVas
p70
aVa
aVtutor
p71
aVto
p72
aVtheir
p73
aVchildren
p74
aV,
aVand
p75
aVmrs.
p76
aV[
aVCHARACTER
p77
aV]
aVgrew
p78
aVattached
p79
aVto
p80
aVejlert
p81
aV,
aVacting
p82
aVas
p83
aVhis
p84
aVpersonal
p85
aVsecretary
p86
aVand
p87
aVaiding
p88
aVhim
p89
aVin
p90
aVhis
p91
aVresearch
p92
aVand
p93
aVwriting
p94
aV.
aa(lp95
Vwhen
p96
aVejlert
p97
aVleaves
p98
aVher
p99
aVestate
p100
aVto
p101
aVreturn
p102
aVto
p103
aVthe
p104
aVcity
p105
aV,
aVmrs.
p106
aV[
aVCHARACTER
p107
aV]
aVcomes
p108
aVto
p109
aVtown
p110
aVand
p111
aVgoes
p112
aVto
p113
aVtesman*
p114
aVfor
p115
aVhelp
p116
aV,
aVfearing
p117
aVejlert
p118
aVwill
p119
aVrevert
p120
aVto
p121
aVhis
p122
aValcoholism
p123
aV.
aa(lp124
Vmrs.
p125
aV[
aVCHARACTER
p126
aV]
aVwent
p127
aVto
p128
aVschool
p129
aVwith
p130
aVhedda
p131
aVand
p132
aVremembers
p133
aVbeing
p134
aVtormented
p135
aVby
p136
aVher
p137
aV.
aasg45
(lp138
(lp139
asg48
NssS'berte'
p140
(dp141
g20
(lp142
(lp143
V[
aVCHARACTER
p144
aV]
aV-
aV[
aVCHARACTER
p145
aV]
aVis
p146
aVgeorge*
p147
aVand
p148
aVhedda
p149
aVtesman
p150
aV's
p151
aVservant
p152
aV.
aa(lp153
Vformerly
p154
aV,
aVshe
p155
aVwas
p156
aVthe
p157
aVservant
p158
aVin
p159
aVjuliane
p160
aVtesman
p161
aV's
p162
aVhousehold
p163
aV.
aa(lp164
Vshe
p165
aVtries
p166
aVvery
p167
aVhard
p168
aVto
p169
aVplease
p170
aVhedda
p171
aV,
aVher
p172
aVnew
p173
aVmistress
p174
aV,
aVbut
p175
aVhedda
p176
aVis
p177
aVquite
p178
aVdissatisfied
p179
aVwith
p180
aVher
p181
aV.
aasg45
(lp182
(lp183
asg48
NssS'hedda gabler'
p184
(dp185
g20
(lp186
(lp187
V[
aVCHARACTER
p188
aV]
aV-
aVhedda
p189
aVis
p190
aVthe
p191
aVdaughter
p192
aVof
p193
aVthe
p194
aVfamous
p195
aVgeneral
p196
aVgabler
p197
aV;
aVas
p198
aVa
aVchild
p199
aVshe
p200
aVwas
p201
aVused
p202
aVto
p203
aVluxury
p204
aVand
p205
aVhigh-class
p206
aVliving
p207
aV.
aa(lp208
Vas
p209
aVthe
p210
aVplay
p211
aVbegins
p212
aV,
aVshe
p213
aVis
p214
aVreturning
p215
aVfrom
p216
aVher
p217
aVhoneymoon
p218
aVwith
p219
aVjurgen
p220
aVtesman
p221
aV,
aVa
aVscholar
p222
aVwith
p223
aVgood
p224
aVprospects
p225
aVbut
p226
aVnot
p227
aVas
p228
aVmuch
p229
aVmoney
p230
aVas
p231
aVhedda
p232
aVis
p233
aVaccustomed
p234
aVto
p235
aV.
aa(lp236
Vher
p237
aVmarried
p238
aVname
p239
aVis
p240
aVhedda
p241
aVtesman
p242
aV.
aa(lp243
Vhedda
p244
aVis
p245
aVan
p246
aVintelligent
p247
aV,
aVunpredictable
p248
aV,
aVand
p249
aVsomewhat
p250
aVdishonest
p251
aVyoung
p252
aVwoman
p253
aVwho
p254
aVis
p255
aVnot
p256
aVafraid
p257
aVto
p258
aVmanipulate
p259
aVher
p260
aVhusband
p261
aVand
p262
aVfriends
p263
aV.
aasg45
(lp264
(lp265
(lp266
Vhedda
p267
aVgabler
p268
aVby
p269
aVhenrik
p270
aVibsen
p271
aVtranslated
p272
aVby
p273
aVedmund
p274
aVgosse
p275
aVand
p276
aVwilliam
p277
aVarcher
p278
aVintroduction
p279
aVby
p280
aVwilliam
p281
aVarcher
p282
aVintroduction
p283
aV.
aa(lp284
Vfrom
p285
aVmunich
p286
aV,
aVon
p287
aVjune
p288
aV29
p289
aV,
aV1890
p290
aV,
aVibsen
p291
aVwrote
p292
aVto
p293
aVthe
p294
aVswedish
p295
aVpoet
p296
aV,
aVcount
p297
aVcarl
p298
aVsoilsky
p299
aV:
aV``
p300
aVour
p301
aVintention
p302
aVhas
p303
aVall
p304
aValong
p305
aVbeen
p306
aVto
p307
aVspend
p308
aVthe
p309
aVsummer
p310
aVin
p311
aVthe
p312
aVtyrol
p313
aVagain
p314
aV.
aa(lp315
Vbut
p316
aVcircumstances
p317
aVare
p318
aVagainst
p319
aVour
p320
aVdoing
p321
aVso
p322
aV.
aa(lp323
Vi
aVam
p324
aVat
p325
aVpresent
p326
aVengaged
p327
aVupon
p328
aVa
aVnew
p329
aVdramatic
p330
aVwork
p331
aV,
aVwhich
p332
aVfor
p333
aVseveral
p334
aVreasons
p335
aVhas
p336
aVmade
p337
aVvery
p338
aVslow
p339
aVprogress
p340
aV,
aVand
p341
aVi
aVdo
p342
aVnot
p343
aVleave
p344
aVmunich
p345
aVuntil
p346
aVi
aVcan
p347
aVtake
p348
aVwith
p349
aVme
p350
aVthe
p351
aVcompleted
p352
aVfirst
p353
aVdr
p354
aaa(lp355
(lp356
Vor
p357
aV:
aV``
p358
aVmy
p359
aVnew
p360
aVplay
p361
aVis
p362
aVfinished
p363
aV;
aVthe
p364
aVmanuscript
p365
aVwent
p366
aVoff
p367
aVto
p368
aVcopenhagen
p369
aVthe
p370
aVday
p371
aVbefore
p372
aVyesterday
p373
aV...
p374
aV.
aVit
p375
aVproduces
p376
aVa
aVcurious
p377
aVfeeling
p378
aVof
p379
aVemptiness
p380
aVto
p381
aVbe
p382
aVthus
p383
aVsuddenly
p384
aVseparated
p385
aVfrom
p386
aVa
aVwork
p387
aVwhich
p388
aVhas
p389
aVoccupied
p390
aVone
p391
aV's
p392
aVtime
p393
aVand
p394
aVthoughts
p395
aVfor
p396
aVseveral
p397
aVmonths
p398
aV,
aVto
p399
aVthe
p400
aVexclusion
p401
aVof
p402
aVall
p403
aVelse
p404
aV.
aa(lp405
Vbut
p406
aVit
p407
aVis
p408
aVa
aVgood
p409
aVthing
p410
aV,
aVtoo
p411
aV,
aVto
p412
aVhave
p413
aVdone
p414
aVwith
p415
aVit
p416
aV.
aa(lp417
Vthe
p418
aVconstant
p419
aVintercourse
p420
aVwith
p421
aVthe
p422
aVfictitious
p423
aVpersonages
p424
aVwas
p425
aVbeginning
p426
aVto
p427
aVmake
p428
aVme
p429
aVquite
p430
aVnervous
p431
aV.
aV''
p432
aa(lp433
Vto
p434
aVthe
p435
aVsame
p436
aVcorrespondent
p437
aVhe
p438
aVwrote
p439
aVon
p440
aVdecember
p441
aV4
aV:
aV``
p442
aVthe
p443
aVtitle
p444
aVof
p445
aVthe
p446
aVplay
p447
aVis
p448
aV_hedda
p449
aVgabler_
p450
aV.
aa(lp451
Vmy
p452
aVintention
p453
aVin
p454
aVgiving
p455
aVit
p456
aVthis
p457
aVname
p458
aVwas
p459
aVto
p460
aVindicate
p461
aVthat
p462
aVhedda
p463
aV,
aVas
p464
aVa
aVpersonality
p465
aV,
aVis
p466
aVto
p467
aVbe
p468
aVregarded
p469
aVrather
p470
aVas
p471
aVher
p472
aVfather's
p473
aVdaughter
p474
aVthan
p475
aVas
p476
aVher
p477
aVhusband
p478
aV's
p479
aVwife
p480
aV.
aa(lp481
Vit
p482
aVwas
p483
aVnot
p484
aVmy
p485
aVdesire
p486
aVto
p487
aVdeal
p488
aVin
p489
aVthis
p490
aVplay
p491
aVwith
p492
aVso-called
p493
aVproblems
p494
aV.
aa(lp495
Vwhat
p496
aVi
aVprincipally
p497
aVwanted
p498
aVto
p499
aVdo
p500
aVwas
p501
aVto
p502
aVdepict
p503
aVhuman
p504
aVbeings
p505
aV,
aVhuman
p506
aVemotions
p507
aV,
aVand
p508
aVhuman
p509
aVdestinies
p510
aV,
aVupon
p511
aVa
aVgroundwork
p512
aVof
p513
aVcertain
p514
aVof
p515
aVthe
p516
aVsocial
p517
aVconditions
p518
aVand
p519
aVprinciples
p520
aVof
p521
aVthe
p522
aVpresent
p523
aVday
p524
aV.
aV''
p525
aa(lp526
Vso
p527
aVfar
p528
aVwe
p529
aVread
p530
aVthe
p531
aVhistory
p532
aVof
p533
aVthe
p534
aVplay
p535
aVin
p536
aVthe
p537
aVofficial
p538
aV''
p539
aVcorrespondence
p540
aV.
aa(lp541
V``
p542
aV(
aV1
aV)
aVsome
p543
aVi
aaa(lp544
(lp545
Vnteresting
p546
aVglimpses
p547
aVinto
p548
aVthe
p549
aVpoet
p550
aV's
p551
aVmoods
p552
aVduring
p553
aVthe
p554
aVperiod
p555
aVbetween
p556
aVthe
p557
aVcompletion
p558
aVof
p559
aV_the
p560
aVlady
p561
aVfrom
p562
aVthe
p563
aVsea_
p564
aVand
p565
aVthe
p566
aVpublication
p567
aVof
p568
aV_hedda
p569
aVgabler_
p570
aVare
p571
aVto
p572
aVbe
p573
aVfound
p574
aVin
p575
aVthe
p576
aVseries
p577
aVof
p578
aVletters
p579
aVto
p580
aVfraulein
p581
aVemilie
p582
aVbardach
p583
aV,
aVof
p584
aVvienna
p585
aV,
aVpublished
p586
aVby
p587
aVdr.
p588
aVgeorge
p589
aVbrandes
p590
aV.
aa(lp591
V(
aV2
aV)
aVthis
p592
aVyoung
p593
aVlady
p594
aVibsen
p595
aVmet
p596
aVat
p597
aVgossensass
p598
aVin
p599
aVthe
p600
aVtyrol
p601
aVin
p602
aVthe
p603
aVautumn
p604
aVof
p605
aV1889.
p606
aVthe
p607
aVrecord
p608
aVof
p609
aVtheir
p610
aVbrief
p611
aVfriendship
p612
aVbelongs
p613
aVto
p614
aVthe
p615
aVhistory
p616
aVof
p617
aV_the
p618
aVmaster
p619
aVbuilder_
p620
aVrather
p621
aVthan
p622
aVto
p623
aVthat
p624
aVof
p625
aV_hedda
p626
aVgabler_
p627
aV,
aVbut
p628
aVthe
p629
aVallusions
p630
aVto
p631
aVhis
p632
aVwork
p633
aVin
p634
aVhis
p635
aVletters
p636
aVto
p637
aVher
p638
aVduring
p639
aVthe
p640
aVwinter
p641
aVof
p642
aV1889
p643
aVdemand
p644
aVsome
p645
aVexamination
p646
aV.
aa(lp647
Vso
p648
aVearly
p649
aVas
p650
aVoctober
p651
aV7
aV,
aV1889
p652
aV,
aVhe
p653
aVwrites
p654
aVto
p655
aVher
p656
aV:
aV``
p657
aVa
aVnew
p658
aVpoem
p659
aVbegins
p660
aVto
p661
aVdawn
p662
aVin
p663
aVme
p664
aV.
aa(lp665
Vi
aVwill
p666
aVexecute
p667
aVit
p668
aVthis
p669
aVwinter
p670
aV,
aVand
p671
aVtry
p672
aVto
p673
aVtransfer
p674
aVto
p675
aVit
p676
aVthe
p677
aVbright
p678
aVatmosphere
p679
aVof
p680
aVthe
p681
aVsummer
p682
aV.
aa(lp683
Vbut
p684
aVi
aVfeel
p685
aVthat
p686
aVit
p687
aVwill
p688
aVend
p689
aVin
p690
aVsadness
p691
aV--
p692
aVsuch
p693
aVis
p694
aVmy
p695
aVnature
p696
aV.
aV''
p697
aa(lp698
Vwas
p699
aVthis
p700
aV``
p701
aVdawning
p702
aV''
p703
aVpoem
p704
aV_hedda
p705
aVgabler_
p706
aV?
aa(lp707
Vor
p708
aVwas
p709
aVit
p710
aVrather
p711
aV_the
p712
aVmaster
p713
aVbuilder_
p714
aVthat
p715
aVwas
p716
aVgerminating
p717
aVin
p718
aVhis
p719
aVmind
p720
aV?
aa(lp721
Vwho
p722
aVshall
p723
aVsay
p724
aV?
aa(lp725
Vthe
p726
aVlatter
p727
aVhypothesis
p728
aVseems
p729
aVthe
p730
aaa(lp731
(lp732
Vmore
p733
aVprobable
p734
aV,
aVfor
p735
aVit
p736
aVis
p737
aVhard
p738
aVto
p739
aVbelieve
p740
aVthat
p741
aVat
p742
aVany
p743
aVstage
p744
aVin
p745
aVthe
p746
aVincubation
p747
aVof
p748
aV_hedda
p749
aVgabler_
p750
aVhe
p751
aVcan
p752
aVhave
p753
aVconceived
p754
aVit
p755
aVas
p756
aVeven
p757
aVbeginning
p758
aVin
p759
aVgaiety
p760
aV.
aa(lp761
Va
aVweek
p762
aVlater
p763
aV,
aVhowever
p764
aV,
aVhe
p765
aVappears
p766
aVto
p767
aVhave
p768
aVmade
p769
aVup
p770
aVhis
p771
aVmind
p772
aVthat
p773
aVthe
p774
aVtime
p775
aVhad
p776
aVnot
p777
aVcome
p778
aVfor
p779
aVthe
p780
aVpoetic
p781
aVutilisation
p782
aVof
p783
aVhis
p784
aVrecent
p785
aVexperiences
p786
aV.
aa(lp787
Vhe
p788
aVwrites
p789
aVon
p790
aVoctober
p791
aV15
p792
aV:
aV''
p793
aVhere
p794
aVi
aVsit
p795
aVas
p796
aVusual
p797
aVat
p798
aVmy
p799
aVwriting-table
p800
aV.
aa(lp801
Vnow
p802
aVi
aVwould
p803
aVfain
p804
aVwork
p805
aV,
aVbut
p806
aVam
p807
aVunable
p808
aVto
p809
aV.
aa(lp810
Vmy
p811
aVfancy
p812
aV,
aVindeed
p813
aV,
aVis
p814
aVvery
p815
aVactive
p816
aV.
aa(lp817
Vbut
p818
aVit
p819
aValways
p820
aVwanders
p821
aVaway
p822
aVours
p823
aV.
aa(lp824
Vi
aVcan
p825
aVnot
p826
aVrepress
p827
aVmy
p828
aVsummer
p829
aVmemories
p830
aV--
p831
aVnor
p832
aVdo
p833
aVi
aVwish
p834
aVto
p835
aV.
aa(lp836
Vi
aVlive
p837
aVthrough
p838
aVmy
p839
aVexperience
p840
aVagain
p841
aVand
p842
aVagain
p843
aVand
p844
aVyet
p845
aVagain
p846
aV.
aa(lp847
Vto
p848
aVtransmute
p849
aVi
aaa(lp850
(lp851
Vt
aVall
p852
aVinto
p853
aVa
aVpoem
p854
aV,
aVi
aVfind
p855
aV,
aVin
p856
aVthe
p857
aVmeantime
p858
aV,
aVimpossible
p859
aV.
aV''
p860
aa(lp861
Vclearly
p862
aV,
aVthen
p863
aV,
aVhe
p864
aVfelt
p865
aVthat
p866
aVhis
p867
aVimagination
p868
aVought
p869
aVto
p870
aVhave
p871
aVbeen
p872
aVengaged
p873
aVon
p874
aVsome
p875
aVtheme
p876
aVhaving
p877
aVno
p878
aVrelation
p879
aVto
p880
aVhis
p881
aVsummer
p882
aVexperiences
p883
aV--
p884
aVthe
p885
aVtheme
p886
aV,
aVno
p887
aVdoubt
p888
aV,
aVof
p889
aV_hedda
p890
aVgabler_
p891
aV.
aa(lp892
Vin
p893
aVhis
p894
aVnext
p895
aVletter
p896
aV,
aVdated
p897
aVoctober
p898
aV29
p899
aV,
aVhe
p900
aVwrites
p901
aV:
aV``
p902
aVdo
p903
aVnot
p904
aVbe
p905
aVtroubled
p906
aVbecause
p907
aVi
aVcan
p908
aVnot
p909
aV,
aVin
p910
aVthe
p911
aVmeantime
p912
aV,
aVcreate
p913
aV(
aV_dichten_
p914
aV)
aV.
aa(lp915
Vin
p916
aVreality
p917
aVi
aVam
p918
aVfor
p919
aVever
p920
aVcreating
p921
aV,
aVor
p922
aV,
aVat
p923
aVany
p924
aVrate
p925
aV,
aVdreaming
p926
aVof
p927
aVsomething
p928
aVwhich
p929
aV,
aVwhen
p930
aVin
p931
aVthe
p932
aVfulness
p933
aVof
p934
aVtime
p935
aVit
p936
aVripens
p937
aV,
aVwill
p938
aVreveal
p939
aVitself
p940
aVas
p941
aVa
aVcreation
p942
aV(
aV_dichtung_
p943
aV)
aV.
aV''
p944
aa(lp945
Von
p946
aVnovember
p947
aV19
p948
aVhe
p949
aVsays
p950
aV:
aV``
p951
aVi
aVam
p952
aVvery
p953
aVbusily
p954
aVoccupied
p955
aVwith
p956
aVpreparations
p957
aVfor
p958
aVmy
p959
aVnew
p960
aVpoem
p961
aV.
aa(lp962
Vi
aVsit
p963
aValmost
p964
aVthe
p965
aVwhole
p966
aVday
p967
aVat
p968
aVmy
p969
aVwriting-table
p970
aV.
aa(lp971
Vgo
p972
aVout
p973
aVonly
p974
aVin
p975
aVthe
p976
aVevening
p977
aVfor
p978
aVa
aVlittle
p979
aVwhile
p980
aV.
aV''
p981
aa(lp982
Vthe
p983
aVfive
p984
aVfollowing
p985
aVlett
p986
aaa(lp987
(lp988
Vers
p989
aVcontain
p990
aVno
p991
aVallusion
p992
aVto
p993
aVthe
p994
aVplay
p995
aV;
aVbut
p996
aVon
p997
aVseptember
p998
aV18
p999
aV,
aV1890
p1000
aV,
aVhe
p1001
aVwrote
p1002
aV:
aV``
p1003
aVmy
p1004
aVwife
p1005
aVand
p1006
aVson
p1007
aVare
p1008
aVat
p1009
aVpresent
p1010
aVat
p1011
aVriva
p1012
aV,
aVon
p1013
aVthe
p1014
aVlake
p1015
aVof
p1016
aVgarda
p1017
aV,
aVand
p1018
aVwill
p1019
aVprobably
p1020
aVremain
p1021
aVthere
p1022
aVuntil
p1023
aVthe
p1024
aVmiddle
p1025
aVof
p1026
aVoctober
p1027
aV,
aVor
p1028
aVeven
p1029
aVlonger
p1030
aV.
aa(lp1031
Vthus
p1032
aVi
aVam
p1033
aVquite
p1034
aValone
p1035
aVhere
p1036
aV,
aVand
p1037
aVcan
p1038
aVnot
p1039
aVget
p1040
aVaway
p1041
aV.
aa(lp1042
Vthe
p1043
aVnew
p1044
aVplay
p1045
aVon
p1046
aVwhich
p1047
aVi
aVam
p1048
aVat
p1049
aVpresent
p1050
aVengaged
p1051
aVwill
p1052
aVprobably
p1053
aVnot
p1054
aVbe
p1055
aVready
p1056
aVuntil
p1057
aVnovember
p1058
aV,
aVthough
p1059
aVi
aVsit
p1060
aVat
p1061
aVmy
p1062
aVwriting-table
p1063
aVdaily
p1064
aV,
aVand
p1065
aValmost
p1066
aVthe
p1067
aVwhole
p1068
aVday
p1069
aVlong
p1070
aV.
aV''
p1071
aa(lp1072
Vhere
p1073
aVends
p1074
aVthe
p1075
aVhistory
p1076
aVof
p1077
aV_hedda
p1078
aVgabler_
p1079
aV,
aVso
p1080
aVfar
p1081
aVas
p1082
aVthe
p1083
aVpoet's
p1084
aVletters
p1085
aVcarry
p1086
aVus
p1087
aV.
aa(lp1088
Vits
p1089
aVhard
p1090
aVclear
p1091
aVoutlines
p1092
aV,
aVand
p1093
aVperhaps
p1094
aVsomewhat
p1095
aVbleak
p1096
aVatmosphere
p1097
aV,
aVseem
p1098
aVto
p1099
aVhave
p1100
aVresulted
p1101
aVfrom
p1102
aVa
aVsort
p1103
aVof
p1104
aVreaction
p1105
aVagainst
p1106
aVthe
p1107
aVsentimental
p1108
aV``
p1109
aVdreamery
p1110
aV''
p1111
aVbegotten
p1112
aVof
p1113
aVhis
p1114
aVgossensass
p1115
aVexperiences
p1116
aV.
aa(lp1117
Vhe
p1118
aVsought
p1119
aVrefuge
p1120
aVin
p1121
aVthe
p1122
aVchill
p1123
aVmaterialism
p1124
aVof
p1125
aVhedda
p1126
aVfrom
p1127
aVthe
p1128
aVardent
p1129
aVtranscendentalism
p1130
aVof
p1131
aVhilda
p1132
aV,
aVwhom
p1133
aVhe
p1134
aValready
p1135
aVheard
p1136
aVknocking
p1137
aVat
p1138
aVthe
p1139
aVdoor
p1140
aV.
aa(lp1141
Vhe
p1142
aVwas
p1143
aVnot
p1144
aVyet
p1145
aVin
p1146
aVthe
p1147
aVmood
p1148
aVto
p1149
aVdeal
p1150
aVwith
p1151
aVher
p1152
aVon
p1153
aVthe
p1154
aVplane
p1155
aVof
p1156
aVpoetry
p1157
aV.
aa(lp1158
V(
aV3
aV)
aV_hedda
p1159
aVgabler_
p1160
aVwas
p1161
aVpublished
p1162
aVin
p1163
aVcopenhagen
p1164
aVon
p1165
aVdecember
p1166
aV16
p1167
aV,
aV189
p1168
aaa(lp1169
(lp1170
Vperformance
p1171
aVof
p1172
aVhedda
p1173
aVmany
p1174
aVtimes
p1175
aV,
aVin
p1176
aVlondon
p1177
aV,
aVin
p1178
aVthe
p1179
aVenglish
p1180
aVprovinces
p1181
aV,
aVand
p1182
aVin
p1183
aVnew
p1184
aVyork
p1185
aV.
aa(lp1186
Vthe
p1187
aVcharacter
p1188
aVhas
p1189
aValso
p1190
aVbeen
p1191
aVacted
p1192
aVin
p1193
aVlondon
p1194
aVby
p1195
aVeleonora
p1196
aVduse
p1197
aV,
aVand
p1198
aVas
p1199
aVi
aVwrite
p1200
aV(
aVmarch
p1201
aV,
aV5
aV,
aV1907
p1202
aV)
aVby
p1203
aVmrs.
p1204
aVpatrick
p1205
aVcampbell
p1206
aV,
aVat
p1207
aVthe
p1208
aVcourt
p1209
aVtheatre
p1210
aV.
aa(lp1211
Vin
p1212
aVaustralia
p1213
aVand
p1214
aVamerica
p1215
aV,
aVhedda
p1216
aVhas
p1217
aVfrequently
p1218
aVbeen
p1219
aVacted
p1220
aVby
p1221
aVmiss
p1222
aVnance
p1223
aVo'neill
p1224
aVand
p1225
aVother
p1226
aVactresses
p1227
aV--
p1228
aVquite
p1229
aVrecently
p1230
aVby
p1231
aVa
aVrussian
p1232
aVactress
p1233
aV,
aVmadame
p1234
aValla
p1235
aVnazimova
p1236
aV,
aVwho
p1237
aV(
aVplaying
p1238
aVin
p1239
aVenglish
p1240
aV)
aVseems
p1241
aVto
p1242
aVhave
p1243
aVmade
p1244
aVa
aVnotable
p1245
aVsuccess
p1246
aVboth
p1247
aVin
p1248
aVthis
p1249
aVpart
p1250
aVand
p1251
aVin
p1252
aVnora
p1253
aV.
aa(lp1254
Vthe
p1255
aVfirst
p1256
aVfrench
p1257
aVhedda
p1258
aVgabler
p1259
aVwas
p1260
aVmlle
p1261
aV.
aa(lp1262
Vmarthe
p1263
aVbrandes
p1264
aV,
aVwho
p1265
aVplayed
p1266
aVthe
p1267
aVpart
p1268
aVat
p1269
aVthe
p1270
aVvaudeville
p1271
aVtheatre
p1272
aV,
aVparis
p1273
aV,
aVon
p1274
aVdecember
p1275
aV17
p1276
aV,
aV1891
p1277
aV,
aVthe
p1278
aVperformance
p1279
aVbeing
p1280
aVintroduced
p1281
aVby
p1282
aVa
aVlecture
p1283
aVby
p1284
aVm.
p1285
aVjules
p1286
aVlemaitre
p1287
aV.
aa(lp1288
Vin
p1289
aVholland
p1290
aV,
aVin
p1291
aVitaly
p1292
aV,
aVin
p1293
aVrussia
p1294
aV,
aVthe
p1295
aVplay
p1296
aVhas
p1297
aVbeen
p1298
aVacted
p1299
aVtimes
p1300
aVwithout
p1301
aVnumber
p1302
aV.
aa(lp1303
Vin
p1304
aVshort
p1305
aV(
aVas
p1306
aVmight
p1307
aVeasily
p1308
aVhave
p1309
aVbeen
p1310
aVforetold
p1311
aV)
aVit
p1312
aVhas
p1313
aVrivalled
p1314
aV_a
p1315
aVdoll
p1316
aV's
p1317
aVhouse_
p1318
aVin
p1319
aVworld-wide
p1320
aVpopularity
p1321
aV.
aa(lp1322
Vit
p1323
aVhas
p1324
aVbeen
p1325
aVsuggested
p1326
aV,
aV(
aV4
aV)
aVi
aVthink
p1327
aVwithout
p1328
aVsufficient
p1329
aVground
p1330
aV,
aVthat
p1331
aVibsen
p1332
aVdeliberately
p1333
aVconceived
p1334
aV_hedda
p1335
aVgabler_
p1336
aVas
p1337
aVan
p1338
aV``
p1339
aVinternational
p1340
aV''
p1341
aVplay
p1342
aV,
aVand
p1343
aVth
p1344
aaa(lp1345
(lp1346
Vuary
p1347
aVlegatee
p1348
aV.
aa(lp1349
Vbut
p1350
aVmany
p1351
aVother
p1352
aVlegatees
p1353
aVwere
p1354
aVmentioned
p1355
aVin
p1356
aVthe
p1357
aVinstrument
p1358
aV--
p1359
aVall
p1360
aVof
p1361
aVthem
p1362
aVladies
p1363
aV,
aVsuch
p1364
aVas
p1365
aVfraulein
p1366
aValma
p1367
aVrothbart
p1368
aV,
aVof
p1369
aVbremen
p1370
aV,
aVand
p1371
aVfraulein
p1372
aVelise
p1373
aVkraushaar
p1374
aV,
aVof
p1375
aVberlin
p1376
aV.
aa(lp1377
Vthe
p1378
aVbequests
p1379
aVto
p1380
aVthese
p1381
aVmeritorious
p1382
aVspinsters
p1383
aVwere
p1384
aVso
p1385
aVgenerous
p1386
aVthat
p1387
aVtheir
p1388
aVsum
p1389
aVconsiderably
p1390
aVexceeded
p1391
aVthe
p1392
aVamount
p1393
aVof
p1394
aVthe
p1395
aVtestator
p1396
aV's
p1397
aVproperty
p1398
aV.
aa(lp1399
Vibsen
p1400
aVgently
p1401
aVbut
p1402
aVfirmly
p1403
aVdeclined
p1404
aVthe
p1405
aVproffered
p1406
aVinheritance
p1407
aV;
aVbut
p1408
aVholm
p1409
aV's
p1410
aVwill
p1411
aVno
p1412
aVdoubt
p1413
aVsuggested
p1414
aVto
p1415
aVhim
p1416
aVthe
p1417
aVfigure
p1418
aVof
p1419
aVthat
p1420
aVred-haired
p1421
aV``
p1422
aVmademoiselle
p1423
aVdiana
p1424
aV,
aV''
p1425
aVwho
p1426
aVis
p1427
aVheard
p1428
aVof
p1429
aVbut
p1430
aVnot
p1431
aVseen
p1432
aVin
p1433
aV_hedda
p1434
aVgabler_
p1435
aV,
aVand
p1436
aVenabled
p1437
aVhim
p1438
aVto
p1439
aVadd
p1440
aVsome
p1441
aVfurther
p1442
aVtraits
p1443
aVto
p1444
aVthe
p1445
aVportraiture
p1446
aVof
p1447
aVlovborg
p1448
aV.
aa(lp1449
Vwhen
p1450
aVthe
p1451
aVplay
p1452
aVappeared
p1453
aV,
aVholm
p1454
aVrecognised
p1455
aVhimself
p1456
aVwith
p1457
aVglee
p1458
aVin
p1459
aVthe
p1460
aVcharacter
p1461
aVof
p1462
aVthe
p1463
aVbibulous
p1464
aVman
p1465
aVof
p1466
aVletters
p1467
aV,
aVand
p1468
aVthereafter
p1469
aVadopted
p1470
aV``
p1471
aVeilert
p1472
aVlovborg
p1473
aV''
p1474
aVas
p1475
aVhis
p1476
aVpseudonym
p1477
aV.
aa(lp1478
Vi
aVdo
p1479
aVnot
p1480
aV,
aVtherefore
p1481
aV,
aVsee
p1482
aVwhy
p1483
aVdr.
p1484
aVbrandes
p1485
aVshould
p1486
aVsuppress
p1487
aVhis
p1488
aVreal
p1489
aVname
p1490
aV;
aVbut
p1491
aVi
aVwillingly
p1492
aVimitate
p1493
aVhim
p1494
aVin
p1495
aVerring
p1496
aVon
p1497
aVthe
p1498
aVside
p1499
aVof
p1500
aVdiscretion
p1501
aV.
aa(lp1502
Vthe
p1503
aVpoor
p1504
aVfellow
p1505
aVdied
p1506
aVseveral
p1507
aVyears
p1508
aVago
p1509
aV.
aa(lp1510
Vsome
p1511
aVcritics
p1512
aVhave
p1513
aVbeen
p1514
aVgreatly
p1515
aVtroubled
p1516
aVas
p1517
aVto
p1518
aVthe
p1519
aVprecise
p1520
aVmeaning
p1521
aVof
p1522
aVhedda
p1523
aV's
p1524
aVfan
p1525
aaa(lp1526
(lp1527
Vor
p1528
aVhis
p1529
aVexcursion
p1530
aVinto
p1531
aVa
aVnew
p1532
aVfield
p1533
aV,
aVstrikes
p1534
aVthe
p1535
aVaverage
p1536
aVscholar
p1537
aVof
p1538
aVthe
p1539
aVtesman
p1540
aVtype
p1541
aV.
aa(lp1542
Vhe
p1543
aVis
p1544
aV,
aVin
p1545
aVfact
p1546
aV,
aV``
p1547
aVtrying
p1548
aVit
p1549
aVon
p1550
aVthe
p1551
aVdog
p1552
aV''
p1553
aV--
p1554
aVneither
p1555
aVan
p1556
aVunreasonable
p1557
aVnor
p1558
aVan
p1559
aVunusual
p1560
aVproceeding
p1561
aV.
aa(lp1562
Vthere
p1563
aVis
p1564
aV,
aVno
p1565
aVdoubt
p1566
aV,
aVa
aVcertain
p1567
aVimprobability
p1568
aVin
p1569
aVthe
p1570
aVway
p1571
aVin
p1572
aVwhich
p1573
aVlovborg
p1574
aVis
p1575
aVrepresented
p1576
aVas
p1577
aVcarrying
p1578
aVhis
p1579
aVmanuscript
p1580
aVaround
p1581
aV,
aVand
p1582
aVespecially
p1583
aVin
p1584
aVmrs.
p1585
aVelvsted
p1586
aV's
p1587
aVproduction
p1588
aVof
p1589
aVhis
p1590
aVrough
p1591
aVdraft
p1592
aVfrom
p1593
aVher
p1594
aVpocket
p1595
aV;
aVbut
p1596
aVthese
p1597
aVare
p1598
aVmechanical
p1599
aVtrifles
p1600
aV,
aVon
p1601
aVwhich
p1602
aVonly
p1603
aVa
aVniggling
p1604
aVcriticism
p1605
aVwould
p1606
aVdream
p1607
aVof
p1608
aVlaying
p1609
aVstress
p1610
aV.
aa(lp1611
Vof
p1612
aVall
p1613
aVibsen
p1614
aV's
p1615
aVworks
p1616
aV,
aV_hedda
p1617
aVgabler_
p1618
aVis
p1619
aVthe
p1620
aVmost
p1621
aVdetached
p1622
aV,
aVthe
p1623
aVmost
p1624
aVobjective
p1625
aV--
p1626
aVa
aVcharacter-study
p1627
aVpure
p1628
aVand
p1629
aVsimple
p1630
aV.
aa(lp1631
Vit
p1632
aVis
p1633
aVimpossible
p1634
aV--
p1635
aVor
p1636
aVso
p1637
aVit
p1638
aVseems
p1639
aVto
p1640
aVme
p1641
aV--
p1642
aVto
p1643
aVextract
p1644
aVany
p1645
aVsort
p1646
aVof
p1647
aVgeneral
p1648
aVidea
p1649
aVfrom
p1650
aVit
p1651
aV.
aa(lp1652
Vone
p1653
aVcan
p1654
aVnot
p1655
aVeven
p1656
aVcall
p1657
aVit
p1658
aVa
aVsatire
p1659
aV,
aVunless
p1660
aVone
p1661
aVis
p1662
aVprepared
p1663
aVto
p1664
aVapply
p1665
aVthat
p1666
aVterm
p1667
aVto
p1668
aVthe
p1669
aVrecord
p1670
aVof
p1671
aVa
aV``
p1672
aVcase
p1673
aV''
p1674
aVin
p1675
aVa
aVwork
p1676
aVof
p1677
aVcriminology
p1678
aV.
aa(lp1679
Vreverting
p1680
aVto
p1681
aVdumas
p1682
aV's
p1683
aVdictum
p1684
aVthat
p1685
aVa
aVplay
p1686
aVshould
p1687
aVcontain
p1688
aV``
p1689
aVa
aVpainting
p1690
aV,
aVa
aVjudgment
p1691
aV,
aVan
p1692
aVideal
p1693
aV,
aV''
p1694
aVwe
p1695
aVmay
p1696
aVsay
p1697
aVthe
p1698
aV_hedda
p1699
aVgabler_
p1700
aVfulfils
p1701
aVonly
p1702
aVthe
p1703
aVfirst
p1704
aVof
p1705
aVthese
p1706
aVrequirements
p1707
aV.
aa(lp1708
Vthe
p1709
aVpoet
p1710
aVdoes
p1711
aVnot
p1712
aVeven
p1713
aVpass
p1714
aVjudgment
p1715
aVon
p1716
aVh
aaasg48
NssS'juliane tesman'
p1717
(dp1718
g20
(lp1719
(lp1720
V[
aVCHARACTER
p1721
aV]
aV-
aV[
aVCHARACTER
p1722
aV]
aV,
aVor
p1723
aVaunt
p1724
aVjulle
p1725
aV,
aVis
p1726
aVthe
p1727
aVaunt
p1728
aVof
p1729
aVjurgen
p1730
aVtesman
p1731
aV.
aa(lp1732
Vafter
p1733
aVtesman
p1734
aV's
p1735
aVparents
p1736
aVdied
p1737
aV,
aVaunt
p1738
aVjulle
p1739
aVraised
p1740
aVhim
p1741
aV.
aa(lp1742
Vshe
p1743
aVis
p1744
aVwell-meaning
p1745
aV,
aVand
p1746
aVshe
p1747
aVis
p1748
aVconstantly
p1749
aVhinting
p1750
aVthat
p1751
aVtesman
p1752
aVand
p1753
aVhedda
p1754
aVshould
p1755
aVhave
p1756
aVa
aVbaby
p1757
aV.
aa(lp1758
Vaunt
p1759
aVjulle
p1760
aVtries
p1761
aVto
p1762
aVget
p1763
aValong
p1764
aVwith
p1765
aVhedda
p1766
aV,
aVbut
p1767
aVthe
p1768
aVdifference
p1769
aVin
p1770
aVtheir
p1771
aVclass
p1772
aVbackgrounds
p1773
aVis
p1774
aVpainfully
p1775
aVapparent
p1776
aV.
aa(lp1777
Vaunt
p1778
aVjulle
p1779
aVlives
p1780
aVwith
p1781
aVthe
p1782
aVailing
p1783
aVaunt
p1784
aVrina
p1785
aV,
aVanother
p1786
aVaunt
p1787
aVof
p1788
aVtesman
p1789
aV's
p1790
aV.
aasg45
(lp1791
(lp1792
asg48
NssS'ejlert lovborg'
p1793
(dp1794
g20
(lp1795
(lp1796
V[
aVCHARACTER
p1797
aV]
aV-
aVa
aVgenius
p1798
aV,
aVejlert
p1799
aVlovoborg
p1800
aVis
p1801
aVtesman*
p1802
aVbiggest
p1803
aVcompetitor
p1804
aVin
p1805
aVthe
p1806
aVacademic
p1807
aVworld
p1808
aV.
aa(lp1809
Vafter
p1810
aVa
aVseries
p1811
aVof
p1812
aVscandals
p1813
aVrelated
p1814
aVto
p1815
aVdrinking
p1816
aV,
aVhe
p1817
aVwas
p1818
aVonce
p1819
aVa
aVpublic
p1820
aVoutcast
p1821
aVbut
p1822
aVhas
p1823
aVnow
p1824
aVreturned
p1825
aVto
p1826
aVthe
p1827
aVcity
p1828
aVand
p1829
aVhas
p1830
aVpublished
p1831
aVa
aVbook
p1832
aVto
p1833
aVrave
p1834
aVreviews
p1835
aV.
aa(lp1836
Vhe
p1837
aValso
p1838
aVhas
p1839
aVanother
p1840
aVmanuscript
p1841
aVthat
p1842
aVis
p1843
aVeven
p1844
aVmore
p1845
aVpromising
p1846
aV.
aa(lp1847
Vmrs.
p1848
aVelvsted
p1849
aVhelped
p1850
aVhim
p1851
aVwith
p1852
aVboth
p1853
aVmanuscripts
p1854
aV.
aa(lp1855
Vhe
p1856
aVonce
p1857
aVshared
p1858
aVa
aVclose
p1859
aVrelationship
p1860
aVwith
p1861
aVhedda
p1862
aV.
aasg45
(lp1863
(lp1864
asg48
NssS'jurgen tesman'
p1865
(dp1866
g20
(lp1867
(lp1868
V[
aVCHARACTER
p1869
aV]
aV-
aVtesman
p1870
aVis
p1871
aVan
p1872
aVamiable
p1873
aV,
aVintelligent
p1874
aVyoung
p1875
aVscholar
p1876
aV.
aa(lp1877
Vhe
p1878
aVtries
p1879
aVvery
p1880
aVhard
p1881
aVto
p1882
aVplease
p1883
aVhis
p1884
aVyoung
p1885
aVwife
p1886
aV,
aVhedda
p1887
aV,
aVand
p1888
aVoften
p1889
aVdoes
p1890
aVnot
p1891
aVrealize
p1892
aVthat
p1893
aVshe
p1894
aVis
p1895
aVmanipulating
p1896
aVhim
p1897
aV.
aa(lp1898
Vin
p1899
aVfact
p1900
aV,
aVhe
p1901
aVoften
p1902
aVseems
p1903
aVfoolish
p1904
aVfor
p1905
aVhis
p1906
aVage
p1907
aV,
aVand
p1908
aVwhen
p1909
aVhe
p1910
aVannoys
p1911
aVhedda
p1912
aV,
aVthe
p1913
aVaudience
p1914
aVhas
p1915
aVreason
p1916
aVto
p1917
aVsympathize
p1918
aVwith
p1919
aVher
p1920
aV.
aa(lp1921
Vtesman
p1922
aVis
p1923
aVhoping
p1924
aVfor
p1925
aVa
aVprofessorship
p1926
aVin
p1927
aVhistory
p1928
aV,
aVand
p1929
aVat
p1930
aVthe
p1931
aVbeginning
p1932
aVof
p1933
aVthe
p1934
aVplay
p1935
aVit
p1936
aVseems
p1937
aVthat
p1938
aVhis
p1939
aVone
p1940
aVgreat
p1941
aVrival
p1942
aV,
aVejlert
p1943
aVlovborg
p1944
aV,
aVa
aVnotorious
p1945
aValcoholic
p1946
aV,
aVno
p1947
aVlonger
p1948
aVstands
p1949
aVin
p1950
aVtesman
p1951
aV's
p1952
aVway
p1953
aV.
aa(lp1954
Vtesman
p1955
aVwas
p1956
aVraised
p1957
aVby
p1958
aVhis
p1959
aVaunt
p1960
aVjulle
p1961
aV.
aasg45
(lp1962
(lp1963
asg48
NssS'judge brack'
p1964
(dp1965
g20
(lp1966
(lp1967
V[
aVCHARACTER
p1968
aV]
aV-
aVbrack
p1969
aVis
p1970
aVa
aVjudge
p1971
aVof
p1972
aVrelatively
p1973
aVinferior
p1974
aVrank
p1975
aV.
aa(lp1976
Vhe
p1977
aVis
p1978
aVa
aVfriend
p1979
aVof
p1980
aVboth
p1981
aVtesman*
p1982
aVand
p1983
aVhedda
p1984
aV,
aVand
p1985
aVhe
p1986
aVvisits
p1987
aVtheir
p1988
aVhouse
p1989
aVregularly
p1990
aV.
aa(lp1991
Vhe
p1992
aVhas
p1993
aVconnections
p1994
aVaround
p1995
aVthe
p1996
aVcity
p1997
aV,
aVand
p1998
aVis
p1999
aVoften
p2000
aVthe
p2001
aVfirst
p2002
aVto
p2003
aVgive
p2004
aVtesman
p2005
aVinformation
p2006
aVabout
p2007
aValterations
p2008
aVin
p2009
aVthe
p2010
aVpossibility
p2011
aVof
p2012
aVhis
p2013
aVprofessorship
p2014
aV.
aa(lp2015
Vhe
p2016
aVseems
p2017
aVto
p2018
aVenjoy
p2019
aVmeddling
p2020
aVin
p2021
aVother
p2022
aVpeople
p2023
aV's
p2024
aVaffairs
p2025
aV.
aa(lp2026
Vhe
p2027
aVis
p2028
aVa
aVworldly
p2029
aVand
p2030
aVcynical
p2031
aVman
p2032
aV.
aasg45
(lp2033
(lp2034
asg48
NsssS'mainText'
p2035
(lp2036
(lp2037
Vhedda
p2038
aVgabler
p2039
aVby
p2040
aVhenrik
p2041
aVibsen
p2042
aVtranslated
p2043
aVby
p2044
aVedmund
p2045
aVgosse
p2046
aVand
p2047
aVwilliam
p2048
aVarcher
p2049
aVintroduction
p2050
aVby
p2051
aVwilliam
p2052
aVarcher
p2053
aVintroduction
p2054
aV.
aa(lp2055
Vfrom
p2056
aVmunich
p2057
aV,
aVon
p2058
aVjune
p2059
aV29
p2060
aV,
aV1890
p2061
aV,
aVibsen
p2062
aVwrote
p2063
aVto
p2064
aVthe
p2065
aVswedish
p2066
aVpoet
p2067
aV,
aVcount
p2068
aVcarl
p2069
aVsoilsky
p2070
aV:
aV``
p2071
aVour
p2072
aVintention
p2073
aVhas
p2074
aVall
p2075
aValong
p2076
aVbeen
p2077
aVto
p2078
aVspend
p2079
aVthe
p2080
aVsummer
p2081
aVin
p2082
aVthe
p2083
aVtyrol
p2084
aVagain
p2085
aV.
aa(lp2086
Vbut
p2087
aVcircumstances
p2088
aVare
p2089
aVagainst
p2090
aVour
p2091
aVdoing
p2092
aVso
p2093
aV.
aa(lp2094
Vi
aVam
p2095
aVat
p2096
aVpresent
p2097
aVengaged
p2098
aVupon
p2099
aVa
aVnew
p2100
aVdramatic
p2101
aVwork
p2102
aV,
aVwhich
p2103
aVfor
p2104
aVseveral
p2105
aVreasons
p2106
aVhas
p2107
aVmade
p2108
aVvery
p2109
aVslow
p2110
aVprogress
p2111
aV,
aVand
p2112
aVi
aVdo
p2113
aVnot
p2114
aVleave
p2115
aVmunich
p2116
aVuntil
p2117
aVi
aVcan
p2118
aVtake
p2119
aVwith
p2120
aVme
p2121
aVthe
p2122
aVcompleted
p2123
aVfirst
p2124
aVdraft
p2125
aV.
aa(lp2126
Vthere
p2127
aVis
p2128
aVlittle
p2129
aVor
p2130
aVno
p2131
aVprospect
p2132
aVof
p2133
aVmy
p2134
aVbeing
p2135
aVable
p2136
aVto
p2137
aVcomplete
p2138
aVit
p2139
aVin
p2140
aVjuly
p2141
aV.
aV''
p2142
aa(lp2143
Vibsen
p2144
aVdid
p2145
aVnot
p2146
aVleave
p2147
aVmunich
p2148
aVat
p2149
aVall
p2150
aVthat
p2151
aVseason
p2152
aV.
aa(lp2153
Von
p2154
aVoctober
p2155
aV30
p2156
aVhe
p2157
aVwrote
p2158
aV:
aV``
p2159
aVat
p2160
aVpresent
p2161
aVi
aVam
p2162
aVutterly
p2163
aVengrossed
p2164
aVin
p2165
aVa
aVnew
p2166
aVplay
p2167
aV.
aa(lp2168
Vnot
p2169
aVone
p2170
aVleisure
p2171
aVhour
p2172
aVhave
p2173
aVi
aVhad
p2174
aVfor
p2175
aVseveral
p2176
aVmonths
p2177
aV.
aV''
p2178
aa(lp2179
Vthree
p2180
aVweeks
p2181
aVlater
p2182
aV(
aVnovember
p2183
aV20
p2184
aV)
aVhe
p2185
aVwrote
p2186
aVto
p2187
aVhis
p2188
aVfrench
p2189
aVtranslator
p2190
aV,
aVcount
p2191
aVprozor
p2192
aV:
aV``
p2193
aVmy
p2194
aVnew
p2195
aVplay
p2196
aVis
p2197
aVfinished
p2198
aV;
aVthe
p2199
aVmanuscript
p2200
aVwent
p2201
aVoff
p2202
aVto
p2203
aVcopenhagen
p2204
aVthe
p2205
aVday
p2206
aVbefore
p2207
aVyesterday
p2208
aV...
p2209
aV.
aVit
p2210
aVproduces
p2211
aVa
aVcurious
p2212
aVfeeling
p2213
aVof
p2214
aVemptiness
p2215
aVto
p2216
aVbe
p2217
aVthus
p2218
aVsuddenly
p2219
aVseparated
p2220
aVfrom
p2221
aVa
aVwork
p2222
aVwhich
p2223
aVhas
p2224
aVoccupied
p2225
aVone
p2226
aV's
p2227
aVtime
p2228
aVand
p2229
aVthoughts
p2230
aVfor
p2231
aVseveral
p2232
aVmonths
p2233
aV,
aVto
p2234
aVthe
p2235
aVexclusion
p2236
aVof
p2237
aVall
p2238
aVelse
p2239
aV.
aa(lp2240
Vbut
p2241
aVit
p2242
aVis
p2243
aVa
aVgood
p2244
aVthing
p2245
aV,
aVtoo
p2246
aV,
aVto
p2247
aVhave
p2248
aVdone
p2249
aVwith
p2250
aVit
p2251
aV.
aa(lp2252
Vthe
p2253
aVconstant
p2254
aVintercourse
p2255
aVwith
p2256
aVthe
p2257
aVfictitious
p2258
aVpersonages
p2259
aVwas
p2260
aVbeginning
p2261
aVto
p2262
aVmake
p2263
aVme
p2264
aVquite
p2265
aVnervous
p2266
aV.
aV''
p2267
aa(lp2268
Vto
p2269
aVthe
p2270
aVsame
p2271
aVcorrespondent
p2272
aVhe
p2273
aVwrote
p2274
aVon
p2275
aVdecember
p2276
aV4
aV:
aV``
p2277
aVthe
p2278
aVtitle
p2279
aVof
p2280
aVthe
p2281
aVplay
p2282
aVis
p2283
aV_hedda
p2284
aVgabler_
p2285
aV.
aa(lp2286
Vmy
p2287
aVintention
p2288
aVin
p2289
aVgiving
p2290
aVit
p2291
aVthis
p2292
aVname
p2293
aVwas
p2294
aVto
p2295
aVindicate
p2296
aVthat
p2297
aVhedda
p2298
aV,
aVas
p2299
aVa
aVpersonality
p2300
aV,
aVis
p2301
aVto
p2302
aVbe
p2303
aVregarded
p2304
aVrather
p2305
aVas
p2306
aVher
p2307
aVfather's
p2308
aVdaughter
p2309
aVthan
p2310
aVas
p2311
aVher
p2312
aVhusband
p2313
aV's
p2314
aVwife
p2315
aV.
aa(lp2316
Vit
p2317
aVwas
p2318
aVnot
p2319
aVmy
p2320
aVdesire
p2321
aVto
p2322
aVdeal
p2323
aVin
p2324
aVthis
p2325
aVplay
p2326
aVwith
p2327
aVso-called
p2328
aVproblems
p2329
aV.
aa(lp2330
Vwhat
p2331
aVi
aVprincipally
p2332
aVwanted
p2333
aVto
p2334
aVdo
p2335
aVwas
p2336
aVto
p2337
aVdepict
p2338
aVhuman
p2339
aVbeings
p2340
aV,
aVhuman
p2341
aVemotions
p2342
aV,
aVand
p2343
aVhuman
p2344
aVdestinies
p2345
aV,
aVupon
p2346
aVa
aVgroundwork
p2347
aVof
p2348
aVcertain
p2349
aVof
p2350
aVthe
p2351
aVsocial
p2352
aVconditions
p2353
aVand
p2354
aVprinciples
p2355
aVof
p2356
aVthe
p2357
aVpresent
p2358
aVday
p2359
aV.
aV''
p2360
aa(lp2361
Vso
p2362
aVfar
p2363
aVwe
p2364
aVread
p2365
aVthe
p2366
aVhistory
p2367
aVof
p2368
aVthe
p2369
aVplay
p2370
aVin
p2371
aVthe
p2372
aVofficial
p2373
aV''
p2374
aVcorrespondence
p2375
aV.
aa(lp2376
V``
p2377
aV(
aV1
aV)
aVsome
p2378
aVinteresting
p2379
aVglimpses
p2380
aVinto
p2381
aVthe
p2382
aVpoet
p2383
aV's
p2384
aVmoods
p2385
aVduring
p2386
aVthe
p2387
aVperiod
p2388
aVbetween
p2389
aVthe
p2390
aVcompletion
p2391
aVof
p2392
aV_the
p2393
aVlady
p2394
aVfrom
p2395
aVthe
p2396
aVsea_
p2397
aVand
p2398
aVthe
p2399
aVpublication
p2400
aVof
p2401
aV_hedda
p2402
aVgabler_
p2403
aVare
p2404
aVto
p2405
aVbe
p2406
aVfound
p2407
aVin
p2408
aVthe
p2409
aVseries
p2410
aVof
p2411
aVletters
p2412
aVto
p2413
aVfraulein
p2414
aVemilie
p2415
aVbardach
p2416
aV,
aVof
p2417
aVvienna
p2418
aV,
aVpublished
p2419
aVby
p2420
aVdr.
p2421
aVgeorge
p2422
aVbrandes
p2423
aV.
aa(lp2424
V(
aV2
aV)
aVthis
p2425
aVyoung
p2426
aVlady
p2427
aVibsen
p2428
aVmet
p2429
aVat
p2430
aVgossensass
p2431
aVin
p2432
aVthe
p2433
aVtyrol
p2434
aVin
p2435
aVthe
p2436
aVautumn
p2437
aVof
p2438
aV1889.
p2439
aVthe
p2440
aVrecord
p2441
aVof
p2442
aVtheir
p2443
aVbrief
p2444
aVfriendship
p2445
aVbelongs
p2446
aVto
p2447
aVthe
p2448
aVhistory
p2449
aVof
p2450
aV_the
p2451
aVmaster
p2452
aVbuilder_
p2453
aVrather
p2454
aVthan
p2455
aVto
p2456
aVthat
p2457
aVof
p2458
aV_hedda
p2459
aVgabler_
p2460
aV,
aVbut
p2461
aVthe
p2462
aVallusions
p2463
aVto
p2464
aVhis
p2465
aVwork
p2466
aVin
p2467
aVhis
p2468
aVletters
p2469
aVto
p2470
aVher
p2471
aVduring
p2472
aVthe
p2473
aVwinter
p2474
aVof
p2475
aV1889
p2476
aVdemand
p2477
aVsome
p2478
aVexamination
p2479
aV.
aa(lp2480
Vso
p2481
aVearly
p2482
aVas
p2483
aVoctober
p2484
aV7
aV,
aV1889
p2485
aV,
aVhe
p2486
aVwrites
p2487
aVto
p2488
aVher
p2489
aV:
aV``
p2490
aVa
aVnew
p2491
aVpoem
p2492
aVbegins
p2493
aVto
p2494
aVdawn
p2495
aVin
p2496
aVme
p2497
aV.
aa(lp2498
Vi
aVwill
p2499
aVexecute
p2500
aVit
p2501
aVthis
p2502
aVwinter
p2503
aV,
aVand
p2504
aVtry
p2505
aVto
p2506
aVtransfer
p2507
aVto
p2508
aVit
p2509
aVthe
p2510
aVbright
p2511
aVatmosphere
p2512
aVof
p2513
aVthe
p2514
aVsummer
p2515
aV.
aa(lp2516
Vbut
p2517
aVi
aVfeel
p2518
aVthat
p2519
aVit
p2520
aVwill
p2521
aVend
p2522
aVin
p2523
aVsadness
p2524
aV--
p2525
aVsuch
p2526
aVis
p2527
aVmy
p2528
aVnature
p2529
aV.
aV''
p2530
aa(lp2531
Vwas
p2532
aVthis
p2533
aV``
p2534
aVdawning
p2535
aV''
p2536
aVpoem
p2537
aV_hedda
p2538
aVgabler_
p2539
aV?
aa(lp2540
Vor
p2541
aVwas
p2542
aVit
p2543
aVrather
p2544
aV_the
p2545
aVmaster
p2546
aVbuilder_
p2547
aVthat
p2548
aVwas
p2549
aVgerminating
p2550
aVin
p2551
aVhis
p2552
aVmind
p2553
aV?
aa(lp2554
Vwho
p2555
aVshall
p2556
aVsay
p2557
aV?
aa(lp2558
Vthe
p2559
aVlatter
p2560
aVhypothesis
p2561
aVseems
p2562
aVthe
p2563
aVmore
p2564
aVprobable
p2565
aV,
aVfor
p2566
aVit
p2567
aVis
p2568
aVhard
p2569
aVto
p2570
aVbelieve
p2571
aVthat
p2572
aVat
p2573
aVany
p2574
aVstage
p2575
aVin
p2576
aVthe
p2577
aVincubation
p2578
aVof
p2579
aV_hedda
p2580
aVgabler_
p2581
aVhe
p2582
aVcan
p2583
aVhave
p2584
aVconceived
p2585
aVit
p2586
aVas
p2587
aVeven
p2588
aVbeginning
p2589
aVin
p2590
aVgaiety
p2591
aV.
aa(lp2592
Va
aVweek
p2593
aVlater
p2594
aV,
aVhowever
p2595
aV,
aVhe
p2596
aVappears
p2597
aVto
p2598
aVhave
p2599
aVmade
p2600
aVup
p2601
aVhis
p2602
aVmind
p2603
aVthat
p2604
aVthe
p2605
aVtime
p2606
aVhad
p2607
aVnot
p2608
aVcome
p2609
aVfor
p2610
aVthe
p2611
aVpoetic
p2612
aVutilisation
p2613
aVof
p2614
aVhis
p2615
aVrecent
p2616
aVexperiences
p2617
aV.
aa(lp2618
Vhe
p2619
aVwrites
p2620
aVon
p2621
aVoctober
p2622
aV15
p2623
aV:
aV''
p2624
aVhere
p2625
aVi
aVsit
p2626
aVas
p2627
aVusual
p2628
aVat
p2629
aVmy
p2630
aVwriting-table
p2631
aV.
aa(lp2632
Vnow
p2633
aVi
aVwould
p2634
aVfain
p2635
aVwork
p2636
aV,
aVbut
p2637
aVam
p2638
aVunable
p2639
aVto
p2640
aV.
aa(lp2641
Vmy
p2642
aVfancy
p2643
aV,
aVindeed
p2644
aV,
aVis
p2645
aVvery
p2646
aVactive
p2647
aV.
aa(lp2648
Vbut
p2649
aVit
p2650
aValways
p2651
aVwanders
p2652
aVaway
p2653
aVours
p2654
aV.
aa(lp2655
Vi
aVcan
p2656
aVnot
p2657
aVrepress
p2658
aVmy
p2659
aVsummer
p2660
aVmemories
p2661
aV--
p2662
aVnor
p2663
aVdo
p2664
aVi
aVwish
p2665
aVto
p2666
aV.
aa(lp2667
Vi
aVlive
p2668
aVthrough
p2669
aVmy
p2670
aVexperience
p2671
aVagain
p2672
aVand
p2673
aVagain
p2674
aVand
p2675
aVyet
p2676
aVagain
p2677
aV.
aa(lp2678
Vto
p2679
aVtransmute
p2680
aVit
p2681
aVall
p2682
aVinto
p2683
aVa
aVpoem
p2684
aV,
aVi
aVfind
p2685
aV,
aVin
p2686
aVthe
p2687
aVmeantime
p2688
aV,
aVimpossible
p2689
aV.
aV''
p2690
aa(lp2691
Vclearly
p2692
aV,
aVthen
p2693
aV,
aVhe
p2694
aVfelt
p2695
aVthat
p2696
aVhis
p2697
aVimagination
p2698
aVought
p2699
aVto
p2700
aVhave
p2701
aVbeen
p2702
aVengaged
p2703
aVon
p2704
aVsome
p2705
aVtheme
p2706
aVhaving
p2707
aVno
p2708
aVrelation
p2709
aVto
p2710
aVhis
p2711
aVsummer
p2712
aVexperiences
p2713
aV--
p2714
aVthe
p2715
aVtheme
p2716
aV,
aVno
p2717
aVdoubt
p2718
aV,
aVof
p2719
aV_hedda
p2720
aVgabler_
p2721
aV.
aa(lp2722
Vin
p2723
aVhis
p2724
aVnext
p2725
aVletter
p2726
aV,
aVdated
p2727
aVoctober
p2728
aV29
p2729
aV,
aVhe
p2730
aVwrites
p2731
aV:
aV``
p2732
aVdo
p2733
aVnot
p2734
aVbe
p2735
aVtroubled
p2736
aVbecause
p2737
aVi
aVcan
p2738
aVnot
p2739
aV,
aVin
p2740
aVthe
p2741
aVmeantime
p2742
aV,
aVcreate
p2743
aV(
aV_dichten_
p2744
aV)
aV.
aa(lp2745
Vin
p2746
aVreality
p2747
aVi
aVam
p2748
aVfor
p2749
aVever
p2750
aVcreating
p2751
aV,
aVor
p2752
aV,
aVat
p2753
aVany
p2754
aVrate
p2755
aV,
aVdreaming
p2756
aVof
p2757
aVsomething
p2758
aVwhich
p2759
aV,
aVwhen
p2760
aVin
p2761
aVthe
p2762
aVfulness
p2763
aVof
p2764
aVtime
p2765
aVit
p2766
aVripens
p2767
aV,
aVwill
p2768
aVreveal
p2769
aVitself
p2770
aVas
p2771
aVa
aVcreation
p2772
aV(
aV_dichtung_
p2773
aV)
aV.
aV''
p2774
aa(lp2775
Von
p2776
aVnovember
p2777
aV19
p2778
aVhe
p2779
aVsays
p2780
aV:
aV``
p2781
aVi
aVam
p2782
aVvery
p2783
aVbusily
p2784
aVoccupied
p2785
aVwith
p2786
aVpreparations
p2787
aVfor
p2788
aVmy
p2789
aVnew
p2790
aVpoem
p2791
aV.
aa(lp2792
Vi
aVsit
p2793
aValmost
p2794
aVthe
p2795
aVwhole
p2796
aVday
p2797
aVat
p2798
aVmy
p2799
aVwriting-table
p2800
aV.
aa(lp2801
Vgo
p2802
aVout
p2803
aVonly
p2804
aVin
p2805
aVthe
p2806
aVevening
p2807
aVfor
p2808
aVa
aVlittle
p2809
aVwhile
p2810
aV.
aV''
p2811
aa(lp2812
Vthe
p2813
aVfive
p2814
aVfollowing
p2815
aVletters
p2816
aVcontain
p2817
aVno
p2818
aVallusion
p2819
aVto
p2820
aVthe
p2821
aVplay
p2822
aV;
aVbut
p2823
aVon
p2824
aVseptember
p2825
aV18
p2826
aV,
aV1890
p2827
aV,
aVhe
p2828
aVwrote
p2829
aV:
aV``
p2830
aVmy
p2831
aVwife
p2832
aVand
p2833
aVson
p2834
aVare
p2835
aVat
p2836
aVpresent
p2837
aVat
p2838
aVriva
p2839
aV,
aVon
p2840
aVthe
p2841
aVlake
p2842
aVof
p2843
aVgarda
p2844
aV,
aVand
p2845
aVwill
p2846
aVprobably
p2847
aVremain
p2848
aVthere
p2849
aVuntil
p2850
aVthe
p2851
aVmiddle
p2852
aVof
p2853
aVoctober
p2854
aV,
aVor
p2855
aVeven
p2856
aVlonger
p2857
aV.
aa(lp2858
Vthus
p2859
aVi
aVam
p2860
aVquite
p2861
aValone
p2862
aVhere
p2863
aV,
aVand
p2864
aVcan
p2865
aVnot
p2866
aVget
p2867
aVaway
p2868
aV.
aa(lp2869
Vthe
p2870
aVnew
p2871
aVplay
p2872
aVon
p2873
aVwhich
p2874
aVi
aVam
p2875
aVat
p2876
aVpresent
p2877
aVengaged
p2878
aVwill
p2879
aVprobably
p2880
aVnot
p2881
aVbe
p2882
aVready
p2883
aVuntil
p2884
aVnovember
p2885
aV,
aVthough
p2886
aVi
aVsit
p2887
aVat
p2888
aVmy
p2889
aVwriting-table
p2890
aVdaily
p2891
aV,
aVand
p2892
aValmost
p2893
aVthe
p2894
aVwhole
p2895
aVday
p2896
aVlong
p2897
aV.
aV''
p2898
aa(lp2899
Vhere
p2900
aVends
p2901
aVthe
p2902
aVhistory
p2903
aVof
p2904
aV_hedda
p2905
aVgabler_
p2906
aV,
aVso
p2907
aVfar
p2908
aVas
p2909
aVthe
p2910
aVpoet's
p2911
aVletters
p2912
aVcarry
p2913
aVus
p2914
aV.
aa(lp2915
Vits
p2916
aVhard
p2917
aVclear
p2918
aVoutlines
p2919
aV,
aVand
p2920
aVperhaps
p2921
aVsomewhat
p2922
aVbleak
p2923
aVatmosphere
p2924
aV,
aVseem
p2925
aVto
p2926
aVhave
p2927
aVresulted
p2928
aVfrom
p2929
aVa
aVsort
p2930
aVof
p2931
aVreaction
p2932
aVagainst
p2933
aVthe
p2934
aVsentimental
p2935
aV``
p2936
aVdreamery
p2937
aV''
p2938
aVbegotten
p2939
aVof
p2940
aVhis
p2941
aVgossensass
p2942
aVexperiences
p2943
aV.
aa(lp2944
Vhe
p2945
aVsought
p2946
aVrefuge
p2947
aVin
p2948
aVthe
p2949
aVchill
p2950
aVmaterialism
p2951
aVof
p2952
aVhedda
p2953
aVfrom
p2954
aVthe
p2955
aVardent
p2956
aVtranscendentalism
p2957
aVof
p2958
aVhilda
p2959
aV,
aVwhom
p2960
aVhe
p2961
aValready
p2962
aVheard
p2963
aVknocking
p2964
aVat
p2965
aVthe
p2966
aVdoor
p2967
aV.
aa(lp2968
Vhe
p2969
aVwas
p2970
aVnot
p2971
aVyet
p2972
aVin
p2973
aVthe
p2974
aVmood
p2975
aVto
p2976
aVdeal
p2977
aVwith
p2978
aVher
p2979
aVon
p2980
aVthe
p2981
aVplane
p2982
aVof
p2983
aVpoetry
p2984
aV.
aa(lp2985
V(
aV3
aV)
aV_hedda
p2986
aVgabler_
p2987
aVwas
p2988
aVpublished
p2989
aVin
p2990
aVcopenhagen
p2991
aVon
p2992
aVdecember
p2993
aV16
p2994
aV,
aV1890.
p2995
aVthis
p2996
aVwas
p2997
aVthe
p2998
aVfirst
p2999
aVof
p3000
aVibsen
p3001
aV's
p3002
aVplays
p3003
aVto
p3004
aVbe
p3005
aVtranslated
p3006
aVfrom
p3007
aVproof-sheets
p3008
aVand
p3009
aVpublished
p3010
aVin
p3011
aVengland
p3012
aVand
p3013
aVamerica
p3014
aValmost
p3015
aVsimultaneously
p3016
aVwith
p3017
aVits
p3018
aVfirst
p3019
aVappearance
p3020
aVin
p3021
aVscandinavia
p3022
aV.
aa(lp3023
Vthe
p3024
aVearliest
p3025
aVtheatrical
p3026
aVperformance
p3027
aVtook
p3028
aVplace
p3029
aVat
p3030
aVthe
p3031
aVresidenz
p3032
aVtheater
p3033
aV,
aVmunich
p3034
aV,
aVon
p3035
aVthe
p3036
aVlast
p3037
aVday
p3038
aVof
p3039
aVjanuary
p3040
aV1891
p3041
aV,
aVin
p3042
aVthe
p3043
aVpresence
p3044
aVof
p3045
aVthe
p3046
aVpoet
p3047
aV,
aVfrau
p3048
aVconrad-ramlo
p3049
aVplaying
p3050
aVthe
p3051
aVtitle-part
p3052
aV.
aa(lp3053
Vthe
p3054
aVlessing
p3055
aVtheater
p3056
aV,
aVberlin
p3057
aV,
aVfollowed
p3058
aVsuit
p3059
aVon
p3060
aVfebruary
p3061
aV10.
p3062
aVnot
p3063
aVtill
p3064
aVfebruary
p3065
aV25
p3066
aVwas
p3067
aVthe
p3068
aVplay
p3069
aVseen
p3070
aVin
p3071
aVcopenhagen
p3072
aV,
aVwith
p3073
aVfru
p3074
aVhennings
p3075
aVas
p3076
aVhedda
p3077
aV.
aa(lp3078
Von
p3079
aVthe
p3080
aVfollowing
p3081
aVnight
p3082
aVit
p3083
aVwas
p3084
aVgiven
p3085
aVfor
p3086
aVthe
p3087
aVfirst
p3088
aVtime
p3089
aVin
p3090
aVchristiania
p3091
aV,
aVthe
p3092
aVnorwegian
p3093
aVhedda
p3094
aVbeing
p3095
aVfroken
p3096
aVconstance
p3097
aVbruun
p3098
aV.
aa(lp3099
Vit
p3100
aVwas
p3101
aVthis
p3102
aVproduction
p3103
aVwhich
p3104
aVthe
p3105
aVpoet
p3106
aVsaw
p3107
aVwhen
p3108
aVhe
p3109
aVvisited
p3110
aVthe
p3111
aVchristiania
p3112
aVtheater
p3113
aVfor
p3114
aVthe
p3115
aVfirst
p3116
aVtime
p3117
aVafter
p3118
aVhis
p3119
aVreturn
p3120
aVto
p3121
aVnorway
p3122
aV,
aVaugust
p3123
aV28
p3124
aV,
aV1891.
p3125
aVit
p3126
aVwould
p3127
aVtake
p3128
aVpages
p3129
aVto
p3130
aVgive
p3131
aVeven
p3132
aVthe
p3133
aVbaldest
p3134
aVlist
p3135
aVof
p3136
aVthe
p3137
aVproductions
p3138
aVand
p3139
aVrevivals
p3140
aVof
p3141
aV_hedda
p3142
aVgabler_
p3143
aVin
p3144
aVscandinavia
p3145
aVand
p3146
aVgermany
p3147
aV,
aVwhere
p3148
aVit
p3149
aVhas
p3150
aValways
p3151
aVranked
p3152
aVamong
p3153
aVibsen
p3154
aV's
p3155
aVmost
p3156
aVpopular
p3157
aVworks
p3158
aV.
aa(lp3159
Vthe
p3160
aVadmirable
p3161
aVproduction
p3162
aVof
p3163
aVthe
p3164
aVplay
p3165
aVby
p3166
aVmiss
p3167
aVelizabeth
p3168
aVrobins
p3169
aVand
p3170
aVmiss
p3171
aVmarion
p3172
aVlea
p3173
aV,
aVat
p3174
aVthe
p3175
aVvaudeville
p3176
aVtheatre
p3177
aV,
aVlondon
p3178
aV,
aVapril
p3179
aV20
p3180
aV,
aV1891
p3181
aV,
aVmay
p3182
aVrank
p3183
aVas
p3184
aVthe
p3185
aVsecond
p3186
aVgreat
p3187
aVstep
p3188
aVtowards
p3189
aVthe
p3190
aVpopularisation
p3191
aVof
p3192
aVibsen
p3193
aVin
p3194
aVengland
p3195
aV,
aVthe
p3196
aVfirst
p3197
aVbeing
p3198
aVthe
p3199
aVcharrington-achurch
p3200
aVproduction
p3201
aVof
p3202
aV_a
p3203
aVdoll
p3204
aV's
p3205
aVhouse_
p3206
aVin
p3207
aV1889.
p3208
aVmiss
p3209
aVrobins
p3210
aVafterwards
p3211
aVrepeated
p3212
aVher
p3213
aVfine
p3214
aVperformance
p3215
aVof
p3216
aVhedda
p3217
aVmany
p3218
aVtimes
p3219
aV,
aVin
p3220
aVlondon
p3221
aV,
aVin
p3222
aVthe
p3223
aVenglish
p3224
aVprovinces
p3225
aV,
aVand
p3226
aVin
p3227
aVnew
p3228
aVyork
p3229
aV.
aa(lp3230
Vthe
p3231
aVcharacter
p3232
aVhas
p3233
aValso
p3234
aVbeen
p3235
aVacted
p3236
aVin
p3237
aVlondon
p3238
aVby
p3239
aVeleonora
p3240
aVduse
p3241
aV,
aVand
p3242
aVas
p3243
aVi
aVwrite
p3244
aV(
aVmarch
p3245
aV,
aV5
aV,
aV1907
p3246
aV)
aVby
p3247
aVmrs.
p3248
aVpatrick
p3249
aVcampbell
p3250
aV,
aVat
p3251
aVthe
p3252
aVcourt
p3253
aVtheatre
p3254
aV.
aa(lp3255
Vin
p3256
aVaustralia
p3257
aVand
p3258
aVamerica
p3259
aV,
aVhedda
p3260
aVhas
p3261
aVfrequently
p3262
aVbeen
p3263
aVacted
p3264
aVby
p3265
aVmiss
p3266
aVnance
p3267
aVo'neill
p3268
aVand
p3269
aVother
p3270
aVactresses
p3271
aV--
p3272
aVquite
p3273
aVrecently
p3274
aVby
p3275
aVa
aVrussian
p3276
aVactress
p3277
aV,
aVmadame
p3278
aValla
p3279
aVnazimova
p3280
aV,
aVwho
p3281
aV(
aVplaying
p3282
aVin
p3283
aVenglish
p3284
aV)
aVseems
p3285
aVto
p3286
aVhave
p3287
aVmade
p3288
aVa
aVnotable
p3289
aVsuccess
p3290
aVboth
p3291
aVin
p3292
aVthis
p3293
aVpart
p3294
aVand
p3295
aVin
p3296
aVnora
p3297
aV.
aa(lp3298
Vthe
p3299
aVfirst
p3300
aVfrench
p3301
aVhedda
p3302
aVgabler
p3303
aVwas
p3304
aVmlle
p3305
aV.
aa(lp3306
Vmarthe
p3307
aVbrandes
p3308
aV,
aVwho
p3309
aVplayed
p3310
aVthe
p3311
aVpart
p3312
aVat
p3313
aVthe
p3314
aVvaudeville
p3315
aVtheatre
p3316
aV,
aVparis
p3317
aV,
aVon
p3318
aVdecember
p3319
aV17
p3320
aV,
aV1891
p3321
aV,
aVthe
p3322
aVperformance
p3323
aVbeing
p3324
aVintroduced
p3325
aVby
p3326
aVa
aVlecture
p3327
aVby
p3328
aVm.
p3329
aVjules
p3330
aVlemaitre
p3331
aV.
aa(lp3332
Vin
p3333
aVholland
p3334
aV,
aVin
p3335
aVitaly
p3336
aV,
aVin
p3337
aVrussia
p3338
aV,
aVthe
p3339
aVplay
p3340
aVhas
p3341
aVbeen
p3342
aVacted
p3343
aVtimes
p3344
aVwithout
p3345
aVnumber
p3346
aV.
aa(lp3347
Vin
p3348
aVshort
p3349
aV(
aVas
p3350
aVmight
p3351
aVeasily
p3352
aVhave
p3353
aVbeen
p3354
aVforetold
p3355
aV)
aVit
p3356
aVhas
p3357
aVrivalled
p3358
aV_a
p3359
aVdoll
p3360
aV's
p3361
aVhouse_
p3362
aVin
p3363
aVworld-wide
p3364
aVpopularity
p3365
aV.
aa(lp3366
Vit
p3367
aVhas
p3368
aVbeen
p3369
aVsuggested
p3370
aV,
aV(
aV4
aV)
aVi
aVthink
p3371
aVwithout
p3372
aVsufficient
p3373
aVground
p3374
aV,
aVthat
p3375
aVibsen
p3376
aVdeliberately
p3377
aVconceived
p3378
aV_hedda
p3379
aVgabler_
p3380
aVas
p3381
aVan
p3382
aV``
p3383
aVinternational
p3384
aV''
p3385
aVplay
p3386
aV,
aVand
p3387
aVthat
p3388
aVthe
p3389
aVscene
p3390
aVis
p3391
aVreally
p3392
aVthe
p3393
aV``
p3394
aVwest
p3395
aVend
p3396
aV''
p3397
aVof
p3398
aVany
p3399
aVeuropean
p3400
aVcity
p3401
aV.
aa(lp3402
Vto
p3403
aVme
p3404
aVit
p3405
aVseems
p3406
aVquite
p3407
aVclear
p3408
aVthat
p3409
aVibsen
p3410
aVhad
p3411
aVchristiania
p3412
aVin
p3413
aVmind
p3414
aV,
aVand
p3415
aVthe
p3416
aVchristiania
p3417
aVof
p3418
aVa
aVsomewhat
p3419
aVearlier
p3420
aVperiod
p3421
aVthan
p3422
aVthe
p3423
aV'nineties
p3424
aV.
aa(lp3425
Vthe
p3426
aVelectric
p3427
aVcars
p3428
aV,
aVtelephones
p3429
aV,
aVand
p3430
aVother
p3431
aVconspicuous
p3432
aVfactors
p3433
aVin
p3434
aVthe
p3435
aVlife
p3436
aVof
p3437
aVa
aVmodern
p3438
aVcapital
p3439
aVare
p3440
aVnotably
p3441
aVabsent
p3442
aVfrom
p3443
aVthe
p3444
aVplay
p3445
aV.
aa(lp3446
Vthere
p3447
aVis
p3448
aVno
p3449
aVelectric
p3450
aVlight
p3451
aVin
p3452
aVsecretary
p3453
aVfalk
p3454
aV's
p3455
aVvilla
p3456
aV.
aa(lp3457
Vit
p3458
aVis
p3459
aVstill
p3460
aVthe
p3461
aVhabit
p3462
aVfor
p3463
aVladies
p3464
aVto
p3465
aVreturn
p3466
aVon
p3467
aVfoot
p3468
aVfrom
p3469
aVevening
p3470
aVparties
p3471
aV,
aVwith
p3472
aVgallant
p3473
aVswains
p3474
aVescorting
p3475
aVthem
p3476
aV.
aa(lp3477
Vthis
p3478
aV``
p3479
aVsuburbanism
p3480
aV,
aV''
p3481
aVwhich
p3482
aVso
p3483
aVdistressed
p3484
aVthe
p3485
aVlondon
p3486
aVcritics
p3487
aVof
p3488
aV1891
p3489
aV,
aVwas
p3490
aVcharacteristic
p3491
aVof
p3492
aVthe
p3493
aVchristiania
p3494
aVibsen
p3495
aVhimself
p3496
aVhad
p3497
aVknown
p3498
aVin
p3499
aVthe
p3500
aV'sixties
p3501
aV--
p3502
aVthe
p3503
aVchristiania
p3504
aVof
p3505
aV_love
p3506
aV's
p3507
aVcomedy_
p3508
aV--
p3509
aVrather
p3510
aVthan
p3511
aVof
p3512
aVthe
p3513
aVgreatly
p3514
aVextended
p3515
aVand
p3516
aVmodernised
p3517
aVcity
p3518
aVof
p3519
aVthe
p3520
aVend
p3521
aVof
p3522
aVthe
p3523
aVcentury
p3524
aV.
aa(lp3525
Vmoreover
p3526
aVlovborg
p3527
aV's
p3528
aVallusions
p3529
aVto
p3530
aVthe
p3531
aVfiord
p3532
aV,
aVand
p3533
aVthe
p3534
aVsuggested
p3535
aVpicture
p3536
aVof
p3537
aVsheriff
p3538
aVelvsted
p3539
aV,
aVhis
p3540
aVfamily
p3541
aVand
p3542
aVhis
p3543
aVavocations
p3544
aVare
p3545
aVall
p3546
aVdistinctively
p3547
aVnorwegian
p3548
aV.
aa(lp3549
Vthe
p3550
aVtruth
p3551
aVseems
p3552
aVto
p3553
aVbe
p3554
aVvery
p3555
aVsimple
p3556
aV--
p3557
aVthe
p3558
aVenvironment
p3559
aVand
p3560
aVthe
p3561
aVsubsidiary
p3562
aVpersonages
p3563
aVare
p3564
aVall
p3565
aVthoroughly
p3566
aVnational
p3567
aV,
aVbut
p3568
aVhedda
p3569
aVherself
p3570
aVis
p3571
aVan
p3572
aV''
p3573
aVinternational
p3574
aV''
p3575
aVtype
p3576
aV,
aVa
aVproduct
p3577
aVof
p3578
aVcivilisation
p3579
aVby
p3580
aVno
p3581
aVmeans
p3582
aVpeculiar
p3583
aVto
p3584
aVnorway
p3585
aV.
aa(lp3586
Vwe
p3587
aVcan
p3588
aVnot
p3589
aVpoint
p3590
aVto
p3591
aVany
p3592
aVindividual
p3593
aVmodel
p3594
aVor
p3595
aVmodels
p3596
aVwho
p3597
aV``
p3598
aVsat
p3599
aVto
p3600
aV''
p3601
aVibsen
p3602
aVfor
p3603
aVthe
p3604
aVcharacter
p3605
aVof
p3606
aVhedda
p3607
aV.
aa(lp3608
V(
aV5
aV)
aVthe
p3609
aVlate
p3610
aVgrant
p3611
aVallen
p3612
aVdeclared
p3613
aVthat
p3614
aVhedda
p3615
aVwas
p3616
aV''
p3617
aVnothing
p3618
aVmore
p3619
aVnor
p3620
aVless
p3621
aVthan
p3622
aVthe
p3623
aVgirl
p3624
aVwe
p3625
aVtake
p3626
aVdown
p3627
aVto
p3628
aVdinner
p3629
aVin
p3630
aVlondon
p3631
aVnineteen
p3632
aVtimes
p3633
aVout
p3634
aVof
p3635
aVtwenty
p3636
aV''
p3637
aV;
aVin
p3638
aVwhich
p3639
aVcase
p3640
aVibsen
p3641
aVmust
p3642
aVhave
p3643
aVsuffered
p3644
aVfrom
p3645
aVa
aVsuperfluidity
p3646
aVof
p3647
aVmodels
p3648
aV,
aVrather
p3649
aVthan
p3650
aVfrom
p3651
aVany
p3652
aVdifficulty
p3653
aVin
p3654
aVfinding
p3655
aVone
p3656
aV.
aa(lp3657
Vbut
p3658
aVthe
p3659
aVfact
p3660
aVis
p3661
aVthat
p3662
aVin
p3663
aVthis
p3664
aV,
aVas
p3665
aVin
p3666
aVall
p3667
aVother
p3668
aVinstances
p3669
aV,
aVthe
p3670
aVword
p3671
aV``
p3672
aVmodel
p3673
aV''
p3674
aVmust
p3675
aVbe
p3676
aVtaken
p3677
aVin
p3678
aVa
aVvery
p3679
aVdifferent
p3680
aVsense
p3681
aVfrom
p3682
aVthat
p3683
aVin
p3684
aVwhich
p3685
aVit
p3686
aVis
p3687
aVcommonly
p3688
aVused
p3689
aVin
p3690
aVpainting
p3691
aV.
aa(lp3692
Vibsen
p3693
aVundoubtedly
p3694
aVused
p3695
aVmodels
p3696
aVfor
p3697
aVthis
p3698
aVtrait
p3699
aVand
p3700
aVthat
p3701
aV,
aVbut
p3702
aVnever
p3703
aVfor
p3704
aVa
aVwhole
p3705
aVfigure
p3706
aV.
aa(lp3707
Vif
p3708
aVhis
p3709
aVcharacters
p3710
aVcan
p3711
aVbe
p3712
aVcalled
p3713
aVportraits
p3714
aVat
p3715
aVall
p3716
aV,
aVthey
p3717
aVare
p3718
aVcomposite
p3719
aVportraits
p3720
aV.
aa(lp3721
Veven
p3722
aVwhen
p3723
aVit
p3724
aVseems
p3725
aVpretty
p3726
aVclear
p3727
aVthat
p3728
aVthe
p3729
aVinitial
p3730
aVimpulse
p3731
aVtowards
p3732
aVthe
p3733
aVcreation
p3734
aVof
p3735
aVa
aVparticular
p3736
aVcharacter
p3737
aVcame
p3738
aVfrom
p3739
aVsome
p3740
aVindividual
p3741
aV,
aVthe
p3742
aVoriginal
p3743
aVfigure
p3744
aVis
p3745
aVentirely
p3746
aVtransmuted
p3747
aVin
p3748
aVthe
p3749
aVprocess
p3750
aVof
p3751
aVharmonisation
p3752
aVwith
p3753
aVthe
p3754
aVdramatic
p3755
aVscheme
p3756
aV.
aa(lp3757
Vwe
p3758
aVneed
p3759
aVnot
p3760
aV,
aVtherefore
p3761
aV,
aVlook
p3762
aVfor
p3763
aVa
aVdefinite
p3764
aVprototype
p3765
aVof
p3766
aVhedda
p3767
aV;
aVbut
p3768
aVdr.
p3769
aVbrandes
p3770
aVshows
p3771
aVthat
p3772
aVtwo
p3773
aVof
p3774
aVthat
p3775
aVlady
p3776
aV's
p3777
aVexploits
p3778
aVwere
p3779
aVprobably
p3780
aVsuggested
p3781
aVby
p3782
aVthe
p3783
aVanecdotic
p3784
aVhistory
p3785
aVof
p3786
aVthe
p3787
aVday
p3788
aV.
aa(lp3789
Vibsen
p3790
aVhad
p3791
aVno
p3792
aVdoubt
p3793
aVheard
p3794
aVhow
p3795
aVthe
p3796
aVwife
p3797
aVof
p3798
aVa
aVwell-known
p3799
aVnorwegian
p3800
aVcomposer
p3801
aV,
aVin
p3802
aVa
aVfit
p3803
aVof
p3804
aVraging
p3805
aVjealousy
p3806
aVexcited
p3807
aVby
p3808
aVher
p3809
aVhusband
p3810
aV's
p3811
aVprolonged
p3812
aVabsence
p3813
aVfrom
p3814
aVhome
p3815
aV,
aVburnt
p3816
aVthe
p3817
aVmanuscript
p3818
aVof
p3819
aVa
aVsymphony
p3820
aVwhich
p3821
aVhe
p3822
aVhad
p3823
aVjust
p3824
aVfinished
p3825
aV.
aa(lp3826
Vthe
p3827
aVcircumstances
p3828
aVunder
p3829
aVwhich
p3830
aVhedda
p3831
aVburns
p3832
aVlovborg
p3833
aV's
p3834
aVmanuscript
p3835
aVare
p3836
aV,
aVof
p3837
aVcourse
p3838
aV,
aVentirely
p3839
aVdifferent
p3840
aVand
p3841
aVinfinitely
p3842
aVmore
p3843
aVdramatic
p3844
aV;
aVbut
p3845
aVhere
p3846
aVwe
p3847
aVhave
p3848
aVmerely
p3849
aVanother
p3850
aVinstance
p3851
aVof
p3852
aVthe
p3853
aVdramatisation
p3854
aVor
p3855
aV''
p3856
aVpoetisation
p3857
aV''
p3858
aVof
p3859
aVthe
p3860
aVraw
p3861
aVmaterial
p3862
aVof
p3863
aVlife
p3864
aV.
aa(lp3865
Vagain
p3866
aV,
aVa
aVstill
p3867
aVmore
p3868
aVpainful
p3869
aVincident
p3870
aVprobably
p3871
aVcame
p3872
aVto
p3873
aVhis
p3874
aVknowledge
p3875
aVabout
p3876
aVthe
p3877
aVsame
p3878
aVtime
p3879
aV.
aa(lp3880
Va
aVbeautiful
p3881
aVand
p3882
aVvery
p3883
aVintellectual
p3884
aVwoman
p3885
aVwas
p3886
aVmarried
p3887
aVto
p3888
aVa
aVwell-known
p3889
aVman
p3890
aVwho
p3891
aVhad
p3892
aVbeen
p3893
aVaddicted
p3894
aVto
p3895
aVdrink
p3896
aV,
aVbut
p3897
aVhad
p3898
aVentirely
p3899
aVconquered
p3900
aVthe
p3901
aVvice
p3902
aV.
aa(lp3903
Vone
p3904
aVday
p3905
aVa
aVmad
p3906
aVwhim
p3907
aVseized
p3908
aVher
p3909
aVto
p3910
aVput
p3911
aVhis
p3912
aVself-mastery
p3913
aVand
p3914
aVher
p3915
aVpower
p3916
aVover
p3917
aVhim
p3918
aVto
p3919
aVthe
p3920
aVtest
p3921
aV.
aa(lp3922
Vas
p3923
aVit
p3924
aVhappened
p3925
aVto
p3926
aVbe
p3927
aVhis
p3928
aVbirthday
p3929
aV,
aVshe
p3930
aVrolled
p3931
aVinto
p3932
aVhis
p3933
aVstudy
p3934
aVa
aVsmall
p3935
aVkeg
p3936
aVof
p3937
aVbrandy
p3938
aV,
aVand
p3939
aVthen
p3940
aVwithdrew
p3941
aV.
aa(lp3942
Vshe
p3943
aVreturned
p3944
aVsome
p3945
aVtime
p3946
aVafter
p3947
aVwards
p3948
aVto
p3949
aVfind
p3950
aVthat
p3951
aVhe
p3952
aVhad
p3953
aVbroached
p3954
aVthe
p3955
aVkeg
p3956
aV,
aVand
p3957
aVlay
p3958
aVinsensible
p3959
aVon
p3960
aVthe
p3961
aVfloor
p3962
aV.
aa(lp3963
Vin
p3964
aVthis
p3965
aVanecdote
p3966
aVwe
p3967
aVcan
p3968
aVnot
p3969
aVbut
p3970
aVrecognise
p3971
aVthe
p3972
aVgerm
p3973
aV,
aVnot
p3974
aVonly
p3975
aVof
p3976
aVhedda
p3977
aV's
p3978
aVtemptation
p3979
aVof
p3980
aVlovborg
p3981
aV,
aVbut
p3982
aVof
p3983
aVa
aVlarge
p3984
aVpart
p3985
aVof
p3986
aVher
p3987
aVcharacter
p3988
aV.
aa(lp3989
V``
p3990
aVthus
p3991
aV,
aV''
p3992
aVsays
p3993
aVdr.
p3994
aVbrandes
p3995
aV,
aV``
p3996
aVout
p3997
aVof
p3998
aVsmall
p3999
aVand
p4000
aVscattered
p4001
aVtraits
p4002
aVof
p4003
aVreality
p4004
aVibsen
p4005
aVfashioned
p4006
aVhis
p4007
aVclose-knit
p4008
aVand
p4009
aVprofoundly
p4010
aVthought-out
p4011
aVworks
p4012
aVof
p4013
aVart
p4014
aV.
aV''
p4015
aa(lp4016
Vfor
p4017
aVthe
p4018
aVcharacter
p4019
aVof
p4020
aVeilert
p4021
aVlovborg
p4022
aV,
aVagain
p4023
aV,
aVibsen
p4024
aVseem
p4025
aVunquestionably
p4026
aVto
p4027
aVhave
p4028
aVborrowed
p4029
aVseveral
p4030
aVtraits
p4031
aVfrom
p4032
aVa
aVdefinite
p4033
aVoriginal
p4034
aV.
aa(lp4035
Va
aVyoung
p4036
aVdanish
p4037
aVman
p4038
aVof
p4039
aVletters
p4040
aV,
aVwhom
p4041
aVdr.
p4042
aVbrandes
p4043
aVcalls
p4044
aVholm
p4045
aV,
aVwas
p4046
aVan
p4047
aVenthusiastic
p4048
aVadmirer
p4049
aVof
p4050
aVibsen
p4051
aV,
aVand
p4052
aVcame
p4053
aVto
p4054
aVbe
p4055
aVon
p4056
aVvery
p4057
aVfriendly
p4058
aVterms
p4059
aVwith
p4060
aVhim
p4061
aV.
aa(lp4062
Vone
p4063
aVday
p4064
aVibsen
p4065
aVwas
p4066
aVastonished
p4067
aVto
p4068
aVreceive
p4069
aV,
aVin
p4070
aVmunich
p4071
aV,
aVa
aVparcel
p4072
aVaddressed
p4073
aVfrom
p4074
aVberlin
p4075
aVby
p4076
aVthis
p4077
aVyoung
p4078
aVman
p4079
aV,
aVcontaining
p4080
aV,
aVwithout
p4081
aVa
aVword
p4082
aVof
p4083
aVexplanation
p4084
aV,
aVa
aVpacket
p4085
aVof
p4086
aVhis
p4087
aV(
aVibsen
p4088
aV's
p4089
aV)
aVletters
p4090
aV,
aVand
p4091
aVa
aVphotograph
p4092
aVwhich
p4093
aVhe
p4094
aVhad
p4095
aVpresented
p4096
aVto
p4097
aVholm
p4098
aV.
aa(lp4099
Vibsen
p4100
aVbrooded
p4101
aVand
p4102
aVbrooded
p4103
aVover
p4104
aVthe
p4105
aVincident
p4106
aV,
aVand
p4107
aVat
p4108
aVlast
p4109
aVcame
p4110
aVto
p4111
aVthe
p4112
aVconclusion
p4113
aVthat
p4114
aVthe
p4115
aVyoung
p4116
aVman
p4117
aVhad
p4118
aVintended
p4119
aVto
p4120
aVreturn
p4121
aVher
p4122
aVletters
p4123
aVand
p4124
aVphotograph
p4125
aVto
p4126
aVa
aVyoung
p4127
aVlady
p4128
aVto
p4129
aVwhom
p4130
aVhe
p4131
aVwas
p4132
aVknown
p4133
aVto
p4134
aVbe
p4135
aVattached
p4136
aV,
aVand
p4137
aVhad
p4138
aVin
p4139
aVa
aVfit
p4140
aVof
p4141
aVaberration
p4142
aVmixed
p4143
aVup
p4144
aVthe
p4145
aVtwo
p4146
aVobjects
p4147
aVof
p4148
aVhis
p4149
aVworship
p4150
aV.
aa(lp4151
Vsome
p4152
aVtime
p4153
aVafter
p4154
aV,
aVholm
p4155
aVappeared
p4156
aVat
p4157
aVibsen
p4158
aV's
p4159
aVrooms
p4160
aV.
aa(lp4161
Vhe
p4162
aVtalked
p4163
aVquite
p4164
aVrationally
p4165
aV,
aVbut
p4166
aVprofessed
p4167
aVto
p4168
aVhave
p4169
aVno
p4170
aVknowledge
p4171
aVwhatever
p4172
aVof
p4173
aVthe
p4174
aVletter-incident
p4175
aV,
aVthough
p4176
aVhe
p4177
aVadmitted
p4178
aVthe
p4179
aVtruth
p4180
aVof
p4181
aVibsen
p4182
aV's
p4183
aVconjecture
p4184
aVthat
p4185
aVthe
p4186
aV``
p4187
aVbelle
p4188
aVdame
p4189
aVsans
p4190
aVmerci
p4191
aV''
p4192
aVhad
p4193
aVdemanded
p4194
aVthe
p4195
aVreturn
p4196
aVof
p4197
aVher
p4198
aVletters
p4199
aVand
p4200
aVportrait
p4201
aV.
aa(lp4202
Vibsen
p4203
aVwas
p4204
aVdetermined
p4205
aVto
p4206
aVget
p4207
aVat
p4208
aVthe
p4209
aVroot
p4210
aVof
p4211
aVthe
p4212
aVmystery
p4213
aV;
aVand
p4214
aVa
aVlittle
p4215
aVinquiry
p4216
aVinto
p4217
aVhis
p4218
aVyoung
p4219
aVfriend
p4220
aV's
p4221
aVhabits
p4222
aVrevealed
p4223
aVthe
p4224
aVfact
p4225
aVthat
p4226
aVhe
p4227
aVbroke
p4228
aVhis
p4229
aVfast
p4230
aVon
p4231
aVa
aVbottle
p4232
aVof
p4233
aVport
p4234
aVwine
p4235
aV,
aVconsumed
p4236
aVa
aVbottle
p4237
aVof
p4238
aVrhine
p4239
aVwine
p4240
aVat
p4241
aVlunch
p4242
aV,
aVof
p4243
aVburgundy
p4244
aVat
p4245
aVdinner
p4246
aV,
aVand
p4247
aVfinished
p4248
aVoff
p4249
aVthe
p4250
aVevening
p4251
aVwith
p4252
aVone
p4253
aVor
p4254
aVtwo
p4255
aVmore
p4256
aVbottles
p4257
aVof
p4258
aVport
p4259
aV.
aa(lp4260
Vthen
p4261
aVhe
p4262
aVheard
p4263
aV,
aVtoo
p4264
aV,
aVhow
p4265
aV,
aVin
p4266
aVthe
p4267
aVcourse
p4268
aVof
p4269
aVa
aVnight's
p4270
aVcarouse
p4271
aV,
aVholm
p4272
aVhad
p4273
aVlost
p4274
aVthe
p4275
aVmanuscript
p4276
aVof
p4277
aVa
aVbook
p4278
aV;
aVand
p4279
aVin
p4280
aVthese
p4281
aVtraits
p4282
aVhe
p4283
aVsaw
p4284
aVthe
p4285
aVoutline
p4286
aVof
p4287
aVthe
p4288
aVfigure
p4289
aVof
p4290
aVeilert
p4291
aVlovborg
p4292
aV.
aa(lp4293
Vsome
p4294
aVtime
p4295
aVelapsed
p4296
aV,
aVand
p4297
aVagain
p4298
aVibsen
p4299
aVreceived
p4300
aVa
aVpostal
p4301
aVpacket
p4302
aVfrom
p4303
aVholm
p4304
aV.
aa(lp4305
Vthis
p4306
aVone
p4307
aVcontained
p4308
aVhis
p4309
aVwill
p4310
aV,
aVin
p4311
aVwhich
p4312
aVibsen
p4313
aVfigured
p4314
aVas
p4315
aVhis
p4316
aVresiduary
p4317
aVlegatee
p4318
aV.
aa(lp4319
Vbut
p4320
aVmany
p4321
aVother
p4322
aVlegatees
p4323
aVwere
p4324
aVmentioned
p4325
aVin
p4326
aVthe
p4327
aVinstrument
p4328
aV--
p4329
aVall
p4330
aVof
p4331
aVthem
p4332
aVladies
p4333
aV,
aVsuch
p4334
aVas
p4335
aVfraulein
p4336
aValma
p4337
aVrothbart
p4338
aV,
aVof
p4339
aVbremen
p4340
aV,
aVand
p4341
aVfraulein
p4342
aVelise
p4343
aVkraushaar
p4344
aV,
aVof
p4345
aVberlin
p4346
aV.
aa(lp4347
Vthe
p4348
aVbequests
p4349
aVto
p4350
aVthese
p4351
aVmeritorious
p4352
aVspinsters
p4353
aVwere
p4354
aVso
p4355
aVgenerous
p4356
aVthat
p4357
aVtheir
p4358
aVsum
p4359
aVconsiderably
p4360
aVexceeded
p4361
aVthe
p4362
aVamount
p4363
aVof
p4364
aVthe
p4365
aVtestator
p4366
aV's
p4367
aVproperty
p4368
aV.
aa(lp4369
Vibsen
p4370
aVgently
p4371
aVbut
p4372
aVfirmly
p4373
aVdeclined
p4374
aVthe
p4375
aVproffered
p4376
aVinheritance
p4377
aV;
aVbut
p4378
aVholm
p4379
aV's
p4380
aVwill
p4381
aVno
p4382
aVdoubt
p4383
aVsuggested
p4384
aVto
p4385
aVhim
p4386
aVthe
p4387
aVfigure
p4388
aVof
p4389
aVthat
p4390
aVred-haired
p4391
aV``
p4392
aVmademoiselle
p4393
aVdiana
p4394
aV,
aV''
p4395
aVwho
p4396
aVis
p4397
aVheard
p4398
aVof
p4399
aVbut
p4400
aVnot
p4401
aVseen
p4402
aVin
p4403
aV_hedda
p4404
aVgabler_
p4405
aV,
aVand
p4406
aVenabled
p4407
aVhim
p4408
aVto
p4409
aVadd
p4410
aVsome
p4411
aVfurther
p4412
aVtraits
p4413
aVto
p4414
aVthe
p4415
aVportraiture
p4416
aVof
p4417
aVlovborg
p4418
aV.
aa(lp4419
Vwhen
p4420
aVthe
p4421
aVplay
p4422
aVappeared
p4423
aV,
aVholm
p4424
aVrecognised
p4425
aVhimself
p4426
aVwith
p4427
aVglee
p4428
aVin
p4429
aVthe
p4430
aVcharacter
p4431
aVof
p4432
aVthe
p4433
aVbibulous
p4434
aVman
p4435
aVof
p4436
aVletters
p4437
aV,
aVand
p4438
aVthereafter
p4439
aVadopted
p4440
aV``
p4441
aVeilert
p4442
aVlovborg
p4443
aV''
p4444
aVas
p4445
aVhis
p4446
aVpseudonym
p4447
aV.
aa(lp4448
Vi
aVdo
p4449
aVnot
p4450
aV,
aVtherefore
p4451
aV,
aVsee
p4452
aVwhy
p4453
aVdr.
p4454
aVbrandes
p4455
aVshould
p4456
aVsuppress
p4457
aVhis
p4458
aVreal
p4459
aVname
p4460
aV;
aVbut
p4461
aVi
aVwillingly
p4462
aVimitate
p4463
aVhim
p4464
aVin
p4465
aVerring
p4466
aVon
p4467
aVthe
p4468
aVside
p4469
aVof
p4470
aVdiscretion
p4471
aV.
aa(lp4472
Vthe
p4473
aVpoor
p4474
aVfellow
p4475
aVdied
p4476
aVseveral
p4477
aVyears
p4478
aVago
p4479
aV.
aa(lp4480
Vsome
p4481
aVcritics
p4482
aVhave
p4483
aVbeen
p4484
aVgreatly
p4485
aVtroubled
p4486
aVas
p4487
aVto
p4488
aVthe
p4489
aVprecise
p4490
aVmeaning
p4491
aVof
p4492
aVhedda
p4493
aV's
p4494
aVfantastic
p4495
aVvision
p4496
aVof
p4497
aVlovborg
p4498
aV``
p4499
aVwith
p4500
aVvine-leaves
p4501
aVin
p4502
aVhis
p4503
aVhair
p4504
aV.
aV''
p4505
aa(lp4506
Vsurely
p4507
aVthis
p4508
aVis
p4509
aVa
aVvery
p4510
aVobvious
p4511
aVimage
p4512
aVor
p4513
aVsymbol
p4514
aVof
p4515
aVthe
p4516
aVbeautiful
p4517
aV,
aVthe
p4518
aVideal
p4519
aV,
aVaspect
p4520
aVof
p4521
aVbacchic
p4522
aVelation
p4523
aVand
p4524
aVrevelry
p4525
aV.
aa(lp4526
Vantique
p4527
aVart
p4528
aV,
aVor
p4529
aVi
aVam
p4530
aVmuch
p4531
aVmistaken
p4532
aV,
aVshows
p4533
aVus
p4534
aVmany
p4535
aVfigures
p4536
aVof
p4537
aVdionysus
p4538
aVhimself
p4539
aVand
p4540
aVhis
p4541
aVfollowers
p4542
aVwith
p4543
aVvine-leaves
p4544
aVentwined
p4545
aVtheir
p4546
aVhair
p4547
aV.
aa(lp4548
Vto
p4549
aVibsen
p4550
aV's
p4551
aVmind
p4552
aV,
aVat
p4553
aVany
p4554
aVrate
p4555
aV,
aVthe
p4556
aVimage
p4557
aVhad
p4558
aVlong
p4559
aVbeen
p4560
aVfamiliar
p4561
aV.
aa(lp4562
Vin
p4563
aV_peer
p4564
aVgynt_
p4565
aV(
aVact
p4566
aViv
p4567
aV.
aa(lp4568
Vsc
p4569
aV.
aa(lp4570
V8
aV)
aV,
aVwhen
p4571
aVpeer
p4572
aV,
aVhaving
p4573
aVcarried
p4574
aVoff
p4575
aVanitra
p4576
aV,
aVfinds
p4577
aVhimself
p4578
aVin
p4579
aVa
aVparticularly
p4580
aVfestive
p4581
aVmood
p4582
aV,
aVhe
p4583
aVcries
p4584
aV:
aV``
p4585
aVwere
p4586
aVthere
p4587
aVvine-leaves
p4588
aVaround
p4589
aV,
aVi
aVwould
p4590
aVgarland
p4591
aVmy
p4592
aVbrow
p4593
aV.
aV''
p4594
aa(lp4595
Vagain
p4596
aV,
aVin
p4597
aV_emperor
p4598
aVand
p4599
aVgalilean_
p4600
aV(
aVpt
p4601
aV.
aa(lp4602
Vii
p4603
aV.
aa(lp4604
Vact
p4605
aV1
aV)
aVwhere
p4606
aVjulian
p4607
aV,
aVin
p4608
aVthe
p4609
aVprocession
p4610
aVof
p4611
aVdionysus
p4612
aV,
aVimpersonates
p4613
aVthe
p4614
aVgod
p4615
aVhimself
p4616
aV,
aVit
p4617
aVis
p4618
aVdirected
p4619
aVthat
p4620
aVhe
p4621
aVshall
p4622
aVwear
p4623
aVa
aVwreath
p4624
aVof
p4625
aVvine-leaves
p4626
aV.
aa(lp4627
Vprofessor
p4628
aVdietrichson
p4629
aVrelates
p4630
aVthat
p4631
aVamong
p4632
aVthe
p4633
aVyoung
p4634
aVartists
p4635
aVwhose
p4636
aVsociety
p4637
aVibsen
p4638
aVfrequented
p4639
aVduring
p4640
aVhis
p4641
aVfirst
p4642
aVyears
p4643
aVin
p4644
aVrome
p4645
aV,
aVit
p4646
aVwas
p4647
aVcustomary
p4648
aV,
aVat
p4649
aVtheir
p4650
aVlittle
p4651
aVfestivals
p4652
aV,
aVfor
p4653
aVthe
p4654
aVrevellers
p4655
aVto
p4656
aVdeck
p4657
aVthemselves
p4658
aVin
p4659
aVthis
p4660
aVfashion
p4661
aV.
aa(lp4662
Vbut
p4663
aVthe
p4664
aVimage
p4665
aVis
p4666
aVso
p4667
aVobvious
p4668
aVthat
p4669
aVthere
p4670
aVis
p4671
aVno
p4672
aVneed
p4673
aVto
p4674
aVtrace
p4675
aVit
p4676
aVto
p4677
aVany
p4678
aVpersonal
p4679
aVexperience
p4680
aV.
aa(lp4681
Vthe
p4682
aVattempt
p4683
aVto
p4684
aVplace
p4685
aVhedda
p4686
aV's
p4687
aVvine-leaves
p4688
aVamong
p4689
aVibsen's
p4690
aVobscurities
p4691
aVis
p4692
aVan
p4693
aVexample
p4694
aVof
p4695
aVthe
p4696
aVfirm
p4697
aVresolution
p4698
aVnot
p4699
aVto
p4700
aVunderstand
p4701
aVwhich
p4702
aVanimated
p4703
aVthe
p4704
aVcriticism
p4705
aVof
p4706
aVthe
p4707
aV'nineties
p4708
aV.
aa(lp4709
Vdr.
p4710
aVbrandes
p4711
aVhas
p4712
aVdealt
p4713
aVvery
p4714
aVseverely
p4715
aVwith
p4716
aVthe
p4717
aVcharacter
p4718
aVof
p4719
aVeilert
p4720
aVlovborg
p4721
aV,
aValleging
p4722
aVthat
p4723
aVwe
p4724
aVcan
p4725
aVnot
p4726
aVbelieve
p4727
aVin
p4728
aVthe
p4729
aVgenius
p4730
aVattributed
p4731
aVto
p4732
aVhim
p4733
aV.
aa(lp4734
Vbut
p4735
aVwhere
p4736
aVis
p4737
aVhe
p4738
aVdescribed
p4739
aVas
p4740
aVa
aVgenius
p4741
aV?
aa(lp4742
Vthe
p4743
aVpoet
p4744
aVrepresents
p4745
aVhim
p4746
aVas
p4747
aVa
aVvery
p4748
aVable
p4749
aVstudent
p4750
aVof
p4751
aVsociology
p4752
aV;
aVbut
p4753
aVthat
p4754
aVis
p4755
aVquite
p4756
aVa
aVdifferent
p4757
aVthing
p4758
aVfrom
p4759
aVattributing
p4760
aVto
p4761
aVhim
p4762
aVsuch
p4763
aVgenius
p4764
aVas
p4765
aVmust
p4766
aVnecessarily
p4767
aVshine
p4768
aVforth
p4769
aVin
p4770
aVevery
p4771
aVword
p4772
aVhe
p4773
aVutters
p4774
aV.
aa(lp4775
Vdr.
p4776
aVbrandes
p4777
aV,
aVindeed
p4778
aV,
aVdeclines
p4779
aVto
p4780
aVbelieve
p4781
aVeven
p4782
aVin
p4783
aVhis
p4784
aVability
p4785
aVas
p4786
aVa
aVsociologist
p4787
aV,
aVon
p4788
aVthe
p4789
aVground
p4790
aVthat
p4791
aVit
p4792
aVis
p4793
aVidle
p4794
aVto
p4795
aVwrite
p4796
aVabout
p4797
aVthe
p4798
aVsocial
p4799
aVdevelopment
p4800
aVof
p4801
aVthe
p4802
aVfuture
p4803
aV.
aa(lp4804
V``
p4805
aVto
p4806
aVour
p4807
aVprosaic
p4808
aVminds
p4809
aV,
aV''
p4810
aVhe
p4811
aVsays
p4812
aV,
aV''
p4813
aVit
p4814
aVmay
p4815
aVseem
p4816
aVas
p4817
aVif
p4818
aVthe
p4819
aVmost
p4820
aVsensible
p4821
aVutterance
p4822
aVon
p4823
aVthe
p4824
aVsubject
p4825
aVis
p4826
aVthat
p4827
aVof
p4828
aVthe
p4829
aVfool
p4830
aVof
p4831
aVthe
p4832
aVplay
p4833
aV:
aV'the
p4834
aVfuture
p4835
aV!
aa(lp4836
Vgood
p4837
aVheavens
p4838
aV,
aVwe
p4839
aVknow
p4840
aVnothing
p4841
aVof
p4842
aVthe
p4843
aVfuture
p4844
aV.
aV'
aV''
p4845
aa(lp4846
Vthe
p4847
aVbest
p4848
aVretort
p4849
aVto
p4850
aVthis
p4851
aVcriticism
p4852
aVis
p4853
aVthat
p4854
aVwhich
p4855
aVeilert
p4856
aVhimself
p4857
aVmakes
p4858
aV:
aV``
p4859
aVthere
p4860
aV's
p4861
aVa
aVthing
p4862
aVor
p4863
aVtwo
p4864
aVto
p4865
aVbe
p4866
aVsaid
p4867
aVabout
p4868
aVit
p4869
aVall
p4870
aVthe
p4871
aVsame
p4872
aV.
aV''
p4873
aa(lp4874
Vthe
p4875
aVintelligent
p4876
aVforecasting
p4877
aVof
p4878
aVthe
p4879
aVfuture
p4880
aV(
aVas
p4881
aVmr.
p4882
aVh.
p4883
aVg.
p4884
aVwells
p4885
aVhas
p4886
aVshown
p4887
aV)
aVis
p4888
aVnot
p4889
aVonly
p4890
aVclearly
p4891
aVdistinguishable
p4892
aVfrom
p4893
aVfantastic
p4894
aVutopianism
p4895
aV,
aVbut
p4896
aVis
p4897
aVindispensable
p4898
aVto
p4899
aVany
p4900
aVlarge
p4901
aVstatesmanship
p4902
aVor
p4903
aVenlightened
p4904
aVsocial
p4905
aVactivity
p4906
aV.
aa(lp4907
Vwith
p4908
aVvery
p4909
aVreal
p4910
aVand
p4911
aVvery
p4912
aVgreat
p4913
aVrespect
p4914
aVfor
p4915
aVdr.
p4916
aVbrandes
p4917
aV,
aVi
aVcan
p4918
aVnot
p4919
aVthink
p4920
aVthat
p4921
aVhe
p4922
aVhas
p4923
aVbeen
p4924
aVfortunate
p4925
aVin
p4926
aVhis
p4927
aVtreatment
p4928
aVof
p4929
aVlovborg
p4930
aV's
p4931
aVcharacter
p4932
aV.
aa(lp4933
Vit
p4934
aVhas
p4935
aVbeen
p4936
aVrepresented
p4937
aVas
p4938
aVan
p4939
aVabsurdity
p4940
aVthat
p4941
aVhe
p4942
aVwould
p4943
aVthink
p4944
aVof
p4945
aVreading
p4946
aVabstracts
p4947
aVfrom
p4948
aVhis
p4949
aVnew
p4950
aVbook
p4951
aVto
p4952
aVa
aVman
p4953
aVlike
p4954
aVtesman
p4955
aV,
aVwhom
p4956
aVhe
p4957
aVdespises
p4958
aV.
aa(lp4959
Vbut
p4960
aVthough
p4961
aVtesman
p4962
aVis
p4963
aVa
aVninny
p4964
aV,
aVhe
p4965
aVis
p4966
aV,
aVas
p4967
aVhedda
p4968
aVsays
p4969
aV,
aVa
aV``
p4970
aVspecialist
p4971
aV''
p4972
aV--
p4973
aVhe
p4974
aVis
p4975
aVa
aVcompetent
p4976
aV,
aVplodding
p4977
aVstudent
p4978
aVof
p4979
aVhis
p4980
aVsubject
p4981
aV.
aa(lp4982
Vlovborg
p4983
aVmay
p4984
aVquite
p4985
aVnaturally
p4986
aVwish
p4987
aVto
p4988
aVsee
p4989
aVhow
p4990
aVhis
p4991
aVnew
p4992
aVmethod
p4993
aV,
aVor
p4994
aVhis
p4995
aVexcursion
p4996
aVinto
p4997
aVa
aVnew
p4998
aVfield
p4999
aV,
aVstrikes
p5000
aVthe
p5001
aVaverage
p5002
aVscholar
p5003
aVof
p5004
aVthe
p5005
aVtesman
p5006
aVtype
p5007
aV.
aa(lp5008
Vhe
p5009
aVis
p5010
aV,
aVin
p5011
aVfact
p5012
aV,
aV``
p5013
aVtrying
p5014
aVit
p5015
aVon
p5016
aVthe
p5017
aVdog
p5018
aV''
p5019
aV--
p5020
aVneither
p5021
aVan
p5022
aVunreasonable
p5023
aVnor
p5024
aVan
p5025
aVunusual
p5026
aVproceeding
p5027
aV.
aa(lp5028
Vthere
p5029
aVis
p5030
aV,
aVno
p5031
aVdoubt
p5032
aV,
aVa
aVcertain
p5033
aVimprobability
p5034
aVin
p5035
aVthe
p5036
aVway
p5037
aVin
p5038
aVwhich
p5039
aVlovborg
p5040
aVis
p5041
aVrepresented
p5042
aVas
p5043
aVcarrying
p5044
aVhis
p5045
aVmanuscript
p5046
aVaround
p5047
aV,
aVand
p5048
aVespecially
p5049
aVin
p5050
aVmrs.
p5051
aVelvsted
p5052
aV's
p5053
aVproduction
p5054
aVof
p5055
aVhis
p5056
aVrough
p5057
aVdraft
p5058
aVfrom
p5059
aVher
p5060
aVpocket
p5061
aV;
aVbut
p5062
aVthese
p5063
aVare
p5064
aVmechanical
p5065
aVtrifles
p5066
aV,
aVon
p5067
aVwhich
p5068
aVonly
p5069
aVa
aVniggling
p5070
aVcriticism
p5071
aVwould
p5072
aVdream
p5073
aVof
p5074
aVlaying
p5075
aVstress
p5076
aV.
aa(lp5077
Vof
p5078
aVall
p5079
aVibsen
p5080
aV's
p5081
aVworks
p5082
aV,
aV_hedda
p5083
aVgabler_
p5084
aVis
p5085
aVthe
p5086
aVmost
p5087
aVdetached
p5088
aV,
aVthe
p5089
aVmost
p5090
aVobjective
p5091
aV--
p5092
aVa
aVcharacter-study
p5093
aVpure
p5094
aVand
p5095
aVsimple
p5096
aV.
aa(lp5097
Vit
p5098
aVis
p5099
aVimpossible
p5100
aV--
p5101
aVor
p5102
aVso
p5103
aVit
p5104
aVseems
p5105
aVto
p5106
aVme
p5107
aV--
p5108
aVto
p5109
aVextract
p5110
aVany
p5111
aVsort
p5112
aVof
p5113
aVgeneral
p5114
aVidea
p5115
aVfrom
p5116
aVit
p5117
aV.
aa(lp5118
Vone
p5119
aVcan
p5120
aVnot
p5121
aVeven
p5122
aVcall
p5123
aVit
p5124
aVa
aVsatire
p5125
aV,
aVunless
p5126
aVone
p5127
aVis
p5128
aVprepared
p5129
aVto
p5130
aVapply
p5131
aVthat
p5132
aVterm
p5133
aVto
p5134
aVthe
p5135
aVrecord
p5136
aVof
p5137
aVa
aV``
p5138
aVcase
p5139
aV''
p5140
aVin
p5141
aVa
aVwork
p5142
aVof
p5143
aVcriminology
p5144
aV.
aa(lp5145
Vreverting
p5146
aVto
p5147
aVdumas
p5148
aV's
p5149
aVdictum
p5150
aVthat
p5151
aVa
aVplay
p5152
aVshould
p5153
aVcontain
p5154
aV``
p5155
aVa
aVpainting
p5156
aV,
aVa
aVjudgment
p5157
aV,
aVan
p5158
aVideal
p5159
aV,
aV''
p5160
aVwe
p5161
aVmay
p5162
aVsay
p5163
aVthe
p5164
aV_hedda
p5165
aVgabler_
p5166
aVfulfils
p5167
aVonly
p5168
aVthe
p5169
aVfirst
p5170
aVof
p5171
aVthese
p5172
aVrequirements
p5173
aV.
aa(lp5174
Vthe
p5175
aVpoet
p5176
aVdoes
p5177
aVnot
p5178
aVeven
p5179
aVpass
p5180
aVjudgment
p5181
aVon
p5182
aVhis
p5183
aVheroine
p5184
aV:
aVhe
p5185
aVsimply
p5186
aVpaints
p5187
aVher
p5188
aVfull-length
p5189
aVportrait
p5190
aVwith
p5191
aVscientific
p5192
aVimpassivity
p5193
aV.
aa(lp5194
Vbut
p5195
aVwhat
p5196
aVa
aVportrait
p5197
aV!
aa(lp5198
Vhow
p5199
aVsearching
p5200
aVin
p5201
aVinsight
p5202
aV,
aVhow
p5203
aVbrilliant
p5204
aVin
p5205
aVcolouring
p5206
aV,
aVhow
p5207
aVrich
p5208
aVin
p5209
aVdetail
p5210
aV!
aa(lp5211
Vgrant
p5212
aVallen
p5213
aV's
p5214
aVremark
p5215
aV,
aVabove
p5216
aVquoted
p5217
aV,
aVwas
p5218
aV,
aVof
p5219
aVcourse
p5220
aV,
aVa
aVwhimsical
p5221
aVexaggeration
p5222
aV;
aVthe
p5223
aVhedda
p5224
aVtype
p5225
aVis
p5226
aVnot
p5227
aVso
p5228
aVcommon
p5229
aVas
p5230
aVall
p5231
aVthat
p5232
aV,
aVelse
p5233
aVthe
p5234
aVworld
p5235
aVwould
p5236
aVquickly
p5237
aVcome
p5238
aVto
p5239
aVan
p5240
aVend
p5241
aV.
aa(lp5242
Vbut
p5243
aVparticular
p5244
aVtraits
p5245
aVand
p5246
aVtendencies
p5247
aVof
p5248
aVthe
p5249
aVhedda
p5250
aVtype
p5251
aVare
p5252
aVvery
p5253
aVcommon
p5254
aVin
p5255
aVmodern
p5256
aVlife
p5257
aV,
aVand
p5258
aVnot
p5259
aVonly
p5260
aVamong
p5261
aVwomen
p5262
aV.
aa(lp5263
Vhyperaesthesia
p5264
aVlies
p5265
aVat
p5266
aVthe
p5267
aVroot
p5268
aVof
p5269
aVher
p5270
aVtragedy
p5271
aV.
aa(lp5272
Vwith
p5273
aVa
aVkeenly
p5274
aVcritical
p5275
aV,
aVrelentlessly
p5276
aVsolvent
p5277
aVintelligence
p5278
aV,
aVshe
p5279
aVcombines
p5280
aVa
aVmorbid
p5281
aVshrinking
p5282
aVfrom
p5283
aVall
p5284
aVthe
p5285
aVgross
p5286
aVand
p5287
aVprosaic
p5288
aVdetail
p5289
aVof
p5290
aVthe
p5291
aVsensual
p5292
aVlife
p5293
aV.
aa(lp5294
Vshe
p5295
aVhas
p5296
aVnothing
p5297
aVto
p5298
aVtake
p5299
aVher
p5300
aVout
p5301
aVof
p5302
aVherself
p5303
aV--
p5304
aVnot
p5305
aVa
aVsingle
p5306
aVintellectual
p5307
aVinterest
p5308
aVor
p5309
aVmoral
p5310
aVenthusiasm
p5311
aV.
aa(lp5312
Vshe
p5313
aVcherishes
p5314
aV,
aVin
p5315
aVa
aVlanguid
p5316
aVway
p5317
aV,
aVa
aVpetty
p5318
aVsocial
p5319
aVambition
p5320
aV;
aVand
p5321
aVeven
p5322
aVthat
p5323
aVshe
p5324
aVfinds
p5325
aVobstructed
p5326
aVand
p5327
aVbaffled
p5328
aV.
aa(lp5329
Vat
p5330
aVthe
p5331
aVsame
p5332
aVtime
p5333
aVshe
p5334
aVlearns
p5335
aVthat
p5336
aVanother
p5337
aVwoman
p5338
aVhas
p5339
aVhad
p5340
aVthe
p5341
aVcourage
p5342
aVto
p5343
aVlove
p5344
aVand
p5345
aVventure
p5346
aVall
p5347
aV,
aVwhere
p5348
aVshe
p5349
aV,
aVin
p5350
aVher
p5351
aVcowardice
p5352
aV,
aVonly
p5353
aVhankered
p5354
aVand
p5355
aVrefrained
p5356
aV.
aa(lp5357
Vher
p5358
aVmalign
p5359
aVegoism
p5360
aVrises
p5361
aVup
p5362
aVuncontrolled
p5363
aV,
aVand
p5364
aVcalls
p5365
aVto
p5366
aVits
p5367
aVaid
p5368
aVher
p5369
aVquick
p5370
aVand
p5371
aVsubtle
p5372
aVintellect
p5373
aV.
aa(lp5374
Vshe
p5375
aVruins
p5376
aVthe
p5377
aVother
p5378
aVwoman
p5379
aV's
p5380
aVhappiness
p5381
aV,
aVbut
p5382
aVin
p5383
aVdoing
p5384
aVso
p5385
aVincurs
p5386
aVa
aVdanger
p5387
aVfrom
p5388
aVwhich
p5389
aVher
p5390
aVsense
p5391
aVof
p5392
aVpersonal
p5393
aVdignity
p5394
aVrevolts
p5395
aV.
aa(lp5396
Vlife
p5397
aVhas
p5398
aVno
p5399
aVsuch
p5400
aVcharm
p5401
aVfor
p5402
aVher
p5403
aVthat
p5404
aVshe
p5405
aVcares
p5406
aVto
p5407
aVpurchase
p5408
aVit
p5409
aVat
p5410
aVthe
p5411
aVcost
p5412
aVof
p5413
aVsqualid
p5414
aVhumiliation
p5415
aVand
p5416
aVself-contempt
p5417
aV.
aa(lp5418
Vthe
p5419
aVgood
p5420
aVand
p5421
aVthe
p5422
aVbad
p5423
aVin
p5424
aVher
p5425
aValike
p5426
aVimpel
p5427
aVher
p5428
aVto
p5429
aVhave
p5430
aVdone
p5431
aVwith
p5432
aVit
p5433
aVall
p5434
aV;
aVand
p5435
aVa
aVpistol-shot
p5436
aVends
p5437
aVwhat
p5438
aVis
p5439
aVsurely
p5440
aVone
p5441
aVof
p5442
aVthe
p5443
aVmost
p5444
aVpoignant
p5445
aVcharacter-tragedies
p5446
aVin
p5447
aVliterature
p5448
aV.
aa(lp5449
Vibsen
p5450
aV's
p5451
aVbrain
p5452
aVnever
p5453
aVworked
p5454
aVat
p5455
aVhigher
p5456
aVpressure
p5457
aVthan
p5458
aVin
p5459
aVthe
p5460
aVconception
p5461
aVand
p5462
aVadjustment
p5463
aVof
p5464
aVthose
p5465
aV``
p5466
aVcrowded
p5467
aVhours
p5468
aV''
p5469
aVin
p5470
aVwhich
p5471
aVhedda
p5472
aV,
aVtangled
p5473
aVin
p5474
aVthe
p5475
aVweb
p5476
aVof
p5477
aVwill
p5478
aVand
p5479
aVcircumstance
p5480
aV,
aVstruggles
p5481
aVon
p5482
aVtill
p5483
aVshe
p5484
aVis
p5485
aVtoo
p5486
aVweary
p5487
aVto
p5488
aVstruggle
p5489
aVany
p5490
aVmore
p5491
aV.
aa(lp5492
Vit
p5493
aVmay
p5494
aVnot
p5495
aVbe
p5496
aVsuperfluous
p5497
aVto
p5498
aVnote
p5499
aVthat
p5500
aVthe
p5501
aV``
p5502
aVa
aV''
p5503
aVin
p5504
aV``
p5505
aVgabler
p5506
aV''
p5507
aVshould
p5508
aVbe
p5509
aVsounded
p5510
aVlong
p5511
aVand
p5512
aVfull
p5513
aV,
aVlike
p5514
aVthe
p5515
aV``
p5516
aVa
aV''
p5517
aVin
p5518
aV``
p5519
aVgarden
p5520
aV''
p5521
aV--
p5522
aVnot
p5523
aVlike
p5524
aVthe
p5525
aV``
p5526
aVa
aV''
p5527
aVin
p5528
aV''
p5529
aVgable
p5530
aV''
p5531
aVor
p5532
aVin
p5533
aV``
p5534
aVgabble
p5535
aV.
aV''
p5536
aa(lp5537
Vw.
p5538
aVa
aV.
aasb.