ccopy_reg
_reconstructor
p1
(cData.Book
Book
p2
c__builtin__
object
p3
NtRp4
(dp5
S'stored_object'
p6
S'Books/A_Good_Man_Is_Hard_to_Find/Book_object.p'
p7
sS'title'
p8
S'A Good Man Is Hard to Find'
p9
sS'main_text_path'
p10
S'Books/A_Good_Man_Is_Hard_to_Find/main_cleaned.txt'
p11
sS'metadata_path'
p12
S'Books/A_Good_Man_Is_Hard_to_Find/meta_data.csv'
p13
sS'book_path'
p14
S'Books/A_Good_Man_Is_Hard_to_Find/'
p15
sS'characters'
p16
(dp17
S'june star'
p18
(dp19
S'list'
p20
(lp21
(lp22
V[
aVCHARACTER
p23
aV]
aV-
aVan
p24
aVobnoxious
p25
aVyoung
p26
aVgirl
p27
aV.
aa(lp28
V[
aVCHARACTER
p29
aV]
aVloudly
p30
aVspeaks
p31
aVher
p32
aVmind
p33
aVand
p34
aVmakes
p35
aVcutting
p36
aVobservations
p37
aVabout
p38
aVthose
p39
aVaround
p40
aVher
p41
aV.
aasS'analysis'
p42
NssS'the misfit'
p43
(dp44
g20
(lp45
(lp46
Vthe
p47
aV[
aVCHARACTER
p48
aV]
aV-
aVa
aVwanted
p49
aVcriminal
p50
aVwho
p51
aVstumbles
p52
aVupon
p53
aVthe
p54
aVfamily
p55
aVwhen
p56
aVthey
p57
aVcrash
p58
aVtheir
p59
aVcar
p60
aVin
p61
aVthe
p62
aVwoods
p63
aV.
aa(lp64
Vthe
p65
aV[
aVCHARACTER
p66
aV]
aVlives
p67
aVby
p68
aVa
aVmoral
p69
aVcode
p70
aVthat
p71
aVinvolves
p72
aVmurder
p73
aVand
p74
aVremorselessness
p75
aV,
aVbut
p76
aVhe
p77
aValso
p78
aVspends
p79
aVtime
p80
aVwondering
p81
aVabout
p82
aVjesus
p83
aV.
aa(lp84
Vbecause
p85
aVhe
p86
aVdoes
p87
aVn't
p88
aVknow
p89
aVfor
p90
aVsure
p91
aVwhether
p92
aVjesus
p93
aVreally
p94
aVraised
p95
aVthe
p96
aVdead
p97
aV,
aVhe
p98
aVhas
p99
aVopted
p100
aVfor
p101
aV``
p102
aVmeanness
p103
aV''
p104
aVas
p105
aVa
aVway
p106
aVof
p107
aVgiving
p108
aVhis
p109
aVlife
p110
aVmeaning
p111
aV.
aa(lp112
Vhe
p113
aVdoes
p114
aVn't
p115
aVsee
p116
aVhimself
p117
aVas
p118
aVa
aVterrible
p119
aVperson
p120
aV.
aa(lp121
Vhis
p122
aVtwo
p123
aVhenchmen
p124
aVkill
p125
aVthe
p126
aVentire
p127
aVfamily
p128
aV,
aVand
p129
aVthe
p130
aV[
aVCHARACTER
p131
aV]
aVshoots
p132
aVthe
p133
aVgrandmother
p134
aVhimself
p135
aV.
aasg42
(lp136
(lp137
Vthe
p138
aV[
aVCHARACTER
p139
aV]
aVwith
p140
aVhis
p141
aVviolent
p142
aV,
aVwanton
p143
aVkilling
p144
aV,
aVthe
p145
aV[
aVCHARACTER
p146
aV]
aVseems
p147
aVan
p148
aVunlikely
p149
aVsource
p150
aVto
p151
aVlook
p152
aVto
p153
aVfor
p154
aVspiritual
p155
aVor
p156
aVmoral
p157
aVguidance
p158
aV,
aVbut
p159
aVhe
p160
aVdemonstrates
p161
aVa
aVdeep
p162
aVconviction
p163
aVthat
p164
aVthe
p165
aVother
p166
aVcharacters
p167
aVlack
p168
aV.
aa(lp169
Vunlike
p170
aVthe
p171
aVgrandmother
p172
aV,
aVwho
p173
aVsimply
p174
aVassumes
p175
aVthat
p176
aVshe
p177
aVis
p178
aVmorally
p179
aVsuperior
p180
aVto
p181
aVeveryone
p182
aVelse
p183
aV,
aVthe
p184
aV[
aVCHARACTER
p185
aV]
aVseriously
p186
aVquestions
p187
aVthe
p188
aVmeaning
p189
aVof
p190
aVlife
p191
aVand
p192
aVhis
p193
aVrole
p194
aVin
p195
aVit
p196
aV.
aa(lp197
Vhe
p198
aVhas
p199
aVcarefully
p200
aVconsidered
p201
aVhis
p202
aVactions
p203
aVin
p204
aVlife
p205
aVand
p206
aVexamined
p207
aVhis
p208
aVexperiences
p209
aVto
p210
aVfind
p211
aVlessons
p212
aVwithin
p213
aVthem
p214
aV.
aa(lp215
Vhe
p216
aVhas
p217
aVeven
p218
aVrenamed
p219
aVhimself
p220
aVbecause
p221
aVof
p222
aVone
p223
aVof
p224
aVthese
p225
aVlessons
p226
aV,
aVbelieving
p227
aVthat
p228
aVhis
p229
aVpunishment
p230
aVdid
p231
aVn't
p232
aVfit
p233
aVhis
p234
aVcrime
p235
aV.
aa(lp236
Vbecause
p237
aVthe
p238
aV[
aVCHARACTER
p239
aV]
aVhas
p240
aVquestioned
p241
aVhimself
p242
aVand
p243
aVhis
p244
aVlife
p245
aVso
p246
aVclosely
p247
aV,
aVhe
p248
aVreveals
p249
aVa
aVself-awareness
p250
aVthat
p251
aVthe
p252
aVgrandmother
p253
aVlacks
p254
aV.
aa(lp255
Vhe
p256
aVknows
p257
aVhe
p258
aVis
p259
aVn't
p260
aVa
aVgreat
p261
aVman
p262
aV,
aVbut
p263
aVhe
p264
aValso
p265
aVknows
p266
aVthat
p267
aVthere
p268
aVare
p269
aVothers
p270
aVworse
p271
aVthan
p272
aVhim
p273
aV.
aa(lp274
Vhe
p275
aVforms
p276
aVrudimentary
p277
aVphilosophies
p278
aV,
aVsuch
p279
aVas
p280
aV``
p281
aVno
p282
aVpleasure
p283
aVbut
p284
aVmeanness
p285
aV''
p286
aVand
p287
aV``
p288
aVthe
p289
aVcrime
p290
aVdo
p291
aVn't
p292
aVmatter
p293
aV.
aV''
p294
aa(lp295
Vthe
p296
aV[
aVCHARACTER
p297
aV]
aV's
p298
aVphilosophies
p299
aVmay
p300
aVbe
p301
aVdepraved
p302
aV,
aVbut
p303
aVthey
p304
aVare
p305
aVconsistent
p306
aV.
aa(lp307
Vunlike
p308
aVthe
p309
aVgrandmother
p310
aV,
aVwhose
p311
aVmoral
p312
aVcode
p313
aVfalls
p314
aVapart
p315
aVthe
p316
aVmoment
p317
aVit
p318
aV's
p319
aVchallenged
p320
aV,
aVthe
p321
aV[
aVCHARACTER
p322
aV]
aVhas
p323
aVa
aVsteady
p324
aVview
p325
aVof
p326
aVlife
p327
aVand
p328
aVacts
p329
aVaccording
p330
aVto
p331
aVwhat
p332
aVhe
p333
aVbelieves
p334
aVis
p335
aVright
p336
aV.
aa(lp337
Vhis
p338
aVbeliefs
p339
aVand
p340
aVactions
p341
aVare
p342
aVnot
p343
aVmoral
p344
aVin
p345
aVthe
p346
aVconventional
p347
aVsense
p348
aV,
aVbut
p349
aVthey
p350
aVare
p351
aVstrong
p352
aVand
p353
aVconsistent
p354
aVand
p355
aVtherefore
p356
aVgive
p357
aVhim
p358
aVa
aVstrength
p359
aVof
p360
aVconviction
p361
aVthat
p362
aVthe
p363
aVgrandmother
p364
aVlacks
p365
aV.
aa(lp366
Vtwisted
p367
aVas
p368
aVit
p369
aVmight
p370
aVbe
p371
aV,
aVhe
p372
aVcan
p373
aVrely
p374
aVon
p375
aVhis
p376
aVmoral
p377
aVcode
p378
aVto
p379
aVguide
p380
aVhis
p381
aVactions
p382
aV.
aa(lp383
Vthe
p384
aVgrandmother
p385
aVcan
p386
aVnot
p387
aV,
aVand
p388
aVin
p389
aVthe
p390
aVlast
p391
aVmoments
p392
aVof
p393
aVher
p394
aVlife
p395
aV,
aVshe
p396
aVrecognizes
p397
aVhis
p398
aVstrength
p399
aVand
p400
aVher
p401
aVweaknesses
p402
aV.
aa(lp403
Vo'connor
p404
aVcalled
p405
aVthe
p406
aV[
aVCHARACTER
p407
aV]
aVa
aV``
p408
aVprophet
p409
aVgone
p410
aVwrong
p411
aV,
aV''
p412
aVand
p413
aVindeed
p414
aV,
aVif
p415
aVhe
p416
aVhad
p417
aVapplied
p418
aVhis
p419
aVmoral
p420
aVintegrity
p421
aVto
p422
aVa
aVless
p423
aVdepraved
p424
aVlifestyle
p425
aV,
aVhe
p426
aVcould
p427
aVhave
p428
aVbeen
p429
aVconsidered
p430
aVa
aVtrue
p431
aVpreacher
p432
aV,
aVpillar
p433
aV,
aVor
p434
aVteacher
p435
aV.
aassS'hiram'
p436
(dp437
g20
(lp438
(lp439
V[
aVCHARACTER
p440
aV]
aV-
aVone
p441
aVof
p442
aVthe
p443
aVescaped
p444
aVcriminals
p445
aV.
aa(lp446
V[
aVCHARACTER
p447
aV]
aVwears
p448
aVa
aVgray
p449
aVhat
p450
aVand
p451
aVinspects
p452
aVthe
p453
aVfamily
p454
aV's
p455
aVcar
p456
aV.
aasg42
NssS'bobby lee'
p457
(dp458
g20
(lp459
(lp460
V[
aVCHARACTER
p461
aV]
aV-
aVone
p462
aVof
p463
aVthe
p464
aVescaped
p465
aVcriminals
p466
aV.
aa(lp467
V[
aVCHARACTER
p468
aV]
aVis
p469
aVfat
p470
aVand
p471
aV,
aVaccording
p472
aVto
p473
aVjune
p474
aVstar
p475
aV,
aVlooks
p476
aVlike
p477
aVa
aVpig
p478
aV.
aasg42
NssS'the grandmother'
p479
(dp480
g20
(lp481
(lp482
Vthe
p483
aV[
aVCHARACTER
p484
aV]
aV-
aVan
p485
aVirksome
p486
aVwoman
p487
aVwho
p488
aVlives
p489
aVwith
p490
aVbailey
p491
aVand
p492
aVhis
p493
aVfamily
p494
aV.
aa(lp495
Vduring
p496
aVthe
p497
aVfamily
p498
aV's
p499
aVjourney
p500
aVto
p501
aVflorida
p502
aV,
aVthe
p503
aV[
aVCHARACTER
p504
aV]
aVsuggests
p505
aVthat
p506
aVthey
p507
aVvisit
p508
aVan
p509
aVold
p510
aVhouse
p511
aVshe
p512
aVremembers
p513
aV,
aVan
p514
aVidea
p515
aVthat
p516
aVleads
p517
aVto
p518
aVa
aVcar
p519
aVaccident
p520
aVand
p521
aVthe
p522
aVmurder
p523
aVof
p524
aVeveryone
p525
aVin
p526
aVthe
p527
aVgroup
p528
aV.
aa(lp529
Vbefore
p530
aVshe
p531
aVis
p532
aVkilled
p533
aV,
aVthe
p534
aV[
aVCHARACTER
p535
aV]
aVremembers
p536
aVthat
p537
aVthe
p538
aVhouse
p539
aVis
p540
aVactually
p541
aVin
p542
aVtennessee
p543
aV,
aVnowhere
p544
aVnear
p545
aVwhere
p546
aVshe
p547
aVsaid
p548
aVit
p549
aVwas
p550
aV.
aa(lp551
Vshe
p552
aVtries
p553
aVto
p554
aVreason
p555
aVwith
p556
aVthe
p557
aVmisfit
p558
aVbut
p559
aVonly
p560
aVenrages
p561
aVhim
p562
aV.
aa(lp563
Vshe
p564
aVexperiences
p565
aVa
aVmoment
p566
aVof
p567
aVgrace
p568
aVright
p569
aVbefore
p570
aVthe
p571
aVmisfit
p572
aVshoots
p573
aVher
p574
aV.
aasg42
(lp575
(lp576
Vthe
p577
aV[
aVCHARACTER
p578
aV]
aVthe
p579
aVunnamed
p580
aV[
aVCHARACTER
p581
aV]
aVin
p582
aV``
p583
aVa
aVgood
p584
aVman
p585
aVis
p586
aVhard
p587
aVto
p588
aVfind
p589
aV''
p590
aVconsiders
p591
aVherself
p592
aVmorally
p593
aVsuperior
p594
aVto
p595
aVothers
p596
aVby
p597
aVvirtue
p598
aVof
p599
aVher
p600
aVbeing
p601
aVa
aV``
p602
aVlady
p603
aV,
aV''
p604
aVand
p605
aVshe
p606
aVfreely
p607
aVand
p608
aVfrequently
p609
aVpasses
p610
aVjudgment
p611
aVon
p612
aVothers
p613
aV.
aa(lp614
Vshe
p615
aVclaims
p616
aVthat
p617
aVher
p618
aVconscience
p619
aVis
p620
aVa
aVguiding
p621
aVforce
p622
aVin
p623
aVher
p624
aVlife
p625
aV,
aVsuch
p626
aVas
p627
aVwhen
p628
aVshe
p629
aVtells
p630
aVbailey
p631
aVthat
p632
aVher
p633
aVconscience
p634
aVwould
p635
aVn't
p636
aVallow
p637
aVher
p638
aVto
p639
aVtake
p640
aVthe
p641
aVchildren
p642
aVin
p643
aVthe
p644
aVsame
p645
aVdirection
p646
aVas
p647
aVthe
p648
aVmisfit
p649
aV.
aa(lp650
Vshe
p651
aVcriticizes
p652
aVthe
p653
aVchildren
p654
aV's
p655
aVmother
p656
aVfor
p657
aVnot
p658
aVtraveling
p659
aVto
p660
aVa
aVplace
p661
aVthat
p662
aVwould
p663
aVallow
p664
aVthe
p665
aVchildren
p666
aVto
p667
aV``
p668
aVbe
p669
aVbroad
p670
aV,
aV''
p671
aVand
p672
aVshe
p673
aVcompares
p674
aVthe
p675
aVmother
p676
aV's
p677
aVface
p678
aVto
p679
aVa
aVcabbage
p680
aV.
aa(lp681
Vshe
p682
aVchastises
p683
aVjohn
p684
aVwesley
p685
aVfor
p686
aVnot
p687
aVhaving
p688
aVmore
p689
aVrespect
p690
aVfor
p691
aVgeorgia
p692
aV,
aVhis
p693
aVhome
p694
aVstate
p695
aV.
aa(lp696
Vshe
p697
aValso
p698
aVtakes
p699
aVany
p700
aVopportunity
p701
aVto
p702
aVjudge
p703
aVthe
p704
aVlack
p705
aVof
p706
aVgoodness
p707
aVin
p708
aVpeople
p709
aVin
p710
aVthe
p711
aVworld
p712
aVtoday
p713
aV.
aa(lp714
Vduring
p715
aVall
p716
aVthis
p717
aV,
aVshe
p718
aVproudly
p719
aVwears
p720
aVher
p721
aVcarefully
p722
aVselected
p723
aVdress
p724
aVand
p725
aVhat
p726
aV,
aVcertain
p727
aVthat
p728
aVbeing
p729
aVa
aVlady
p730
aVis
p731
aVthe
p732
aVmost
p733
aVimportant
p734
aVvirtue
p735
aVof
p736
aVall
p737
aV,
aVone
p738
aVthat
p739
aVshe
p740
aValone
p741
aVharbors
p742
aV.
aa(lp743
Vthe
p744
aV[
aVCHARACTER
p745
aV]
aVnever
p746
aVturns
p747
aVher
p748
aVcritical
p749
aVeye
p750
aVon
p751
aVherself
p752
aVto
p753
aVinspect
p754
aVher
p755
aVown
p756
aVhypocrisy
p757
aV,
aVdishonesty
p758
aV,
aVand
p759
aVselfishness
p760
aV.
aa(lp761
Vfor
p762
aVexample
p763
aV,
aVthe
p764
aVconscience
p765
aVthe
p766
aV[
aVCHARACTER
p767
aV]
aVinvokes
p768
aVat
p769
aVthe
p770
aVbeginning
p771
aVof
p772
aVthe
p773
aVstory
p774
aVis
p775
aVconveniently
p776
aVsilent
p777
aVwhen
p778
aVshe
p779
aVsneaks
p780
aVpitty
p781
aVsing
p782
aVinto
p783
aVthe
p784
aVcar
p785
aV,
aVlies
p786
aVto
p787
aVthe
p788
aVchildren
p789
aVabout
p790
aVthe
p791
aVsecret
p792
aVpanel
p793
aV,
aVand
p794
aVopts
p795
aVnot
p796
aVto
p797
aVreveal
p798
aVthat
p799
aVshe
p800
aVmade
p801
aVa
aVmistake
p802
aVabout
p803
aVthe
p804
aVlocation
p805
aVof
p806
aVthe
p807
aVhouse
p808
aV.
aa(lp809
Vwhen
p810
aVthe
p811
aVmisfit
p812
aVsystematically
p813
aVmurders
p814
aVthe
p815
aVfamily
p816
aV,
aVthe
p817
aV[
aVCHARACTER
p818
aV]
aVnever
p819
aVonce
p820
aVbegs
p821
aVhim
p822
aVto
p823
aVspare
p824
aVher
p825
aVchildren
p826
aVor
p827
aVgrandchildren
p828
aV.
aa(lp829
Vshe
p830
aVdoes
p831
aV,
aVhowever
p832
aV,
aVplead
p833
aVfor
p834
aVher
p835
aVown
p836
aVlife
p837
aVbecause
p838
aVshe
p839
aVca
p840
aVn't
p841
aVimagine
p842
aVthe
p843
aVmisfit
p844
aVwanting
p845
aVto
p846
aVkill
p847
aVa
aVlady
p848
aV.
aa(lp849
Vshe
p850
aVseems
p851
aVcertain
p852
aVthat
p853
aVhe
p854
aV'll
p855
aVrecognize
p856
aVand
p857
aVrespect
p858
aVher
p859
aVmoral
p860
aVcode
p861
aV,
aVas
p862
aVthough
p863
aVit
p864
aVwill
p865
aVmean
p866
aVsomething
p867
aVto
p868
aVhim
p869
aVdespite
p870
aVhis
p871
aVcriminal
p872
aVways
p873
aV.
aa(lp874
Vshe
p875
aVtries
p876
aVto
p877
aVdraw
p878
aVhim
p879
aVinto
p880
aVher
p881
aVworld
p882
aVby
p883
aVassuring
p884
aVhim
p885
aVthat
p886
aVhe
p887
aV's
p888
aVa
aVgood
p889
aVman
p890
aV,
aVbut
p891
aVeven
p892
aVthough
p893
aVhe
p894
aVagrees
p895
aVwith
p896
aVher
p897
aVassessment
p898
aVof
p899
aVhim
p900
aV,
aVhe
p901
aVdoes
p902
aVn't
p903
aVsee
p904
aVthis
p905
aVas
p906
aVa
aVreason
p907
aVto
p908
aVspare
p909
aVher
p910
aV.
aa(lp911
Vonly
p912
aVwhen
p913
aVthe
p914
aV[
aVCHARACTER
p915
aV]
aVis
p916
aVfacing
p917
aVdeath
p918
aV,
aVin
p919
aVher
p920
aVfinal
p921
aVmoments
p922
aValone
p923
aVwith
p924
aVthe
p925
aVmisfit
p926
aV,
aVdoes
p927
aVshe
p928
aVunderstand
p929
aVwhere
p930
aVshe
p931
aVhas
p932
aVgone
p933
aVwrong
p934
aVin
p935
aVher
p936
aVlife
p937
aV.
aa(lp938
Vinstead
p939
aVof
p940
aVbeing
p941
aVsuperior
p942
aV,
aVshe
p943
aVrealizes
p944
aV,
aVshe
p945
aVis
p946
aVflawed
p947
aVlike
p948
aVeveryone
p949
aVelse
p950
aV.
aa(lp951
Vwhen
p952
aVshe
p953
aVtells
p954
aVthe
p955
aVmisfit
p956
aVthat
p957
aVhe
p958
aVis
p959
aV``
p960
aVone
p961
aVof
p962
aV[
aVher
p963
aV]
aVown
p964
aVchildren
p965
aV,
aV''
p966
aVshe
p967
aVis
p968
aVshowing
p969
aVthat
p970
aVshe
p971
aVhas
p972
aVfound
p973
aVthe
p974
aVability
p975
aVto
p976
aVsee
p977
aVothers
p978
aVwith
p979
aVcompassion
p980
aVand
p981
aVunderstanding
p982
aV.
aa(lp983
Vthis
p984
aVis
p985
aVa
aVmoment
p986
aVof
p987
aVrealization
p988
aV,
aVone
p989
aVthat
p990
aVis
p991
aVimmediately
p992
aVfollowed
p993
aVby
p994
aVher
p995
aVdeath
p996
aV.
aassS'bailey'
p997
(dp998
g20
(lp999
(lp1000
V[
aVCHARACTER
p1001
aV]
aV-
aVthe
p1002
aVfrazzled
p1003
aVhead
p1004
aVof
p1005
aVthe
p1006
aVfamily
p1007
aV.
aa(lp1008
V[
aVCHARACTER
p1009
aV]
aVseems
p1010
aVto
p1011
aVlove
p1012
aVhis
p1013
aVmother
p1014
aV,
aVbut
p1015
aVher
p1016
aVneedling
p1017
aVbehavior
p1018
aVsometimes
p1019
aVgets
p1020
aVthe
p1021
aVbest
p1022
aVof
p1023
aVhim
p1024
aV.
aa(lp1025
Vhe
p1026
aVgives
p1027
aVin
p1028
aVto
p1029
aVthe
p1030
aVgrandmother
p1031
aV's
p1032
aVrequest
p1033
aVto
p1034
aVvisit
p1035
aVthe
p1036
aVold
p1037
aVplantation
p1038
aVhouse
p1039
aVthat
p1040
aVshe
p1041
aVremembers
p1042
aVonly
p1043
aVbecause
p1044
aVthe
p1045
aVchildren
p1046
aVare
p1047
aVdriving
p1048
aVhim
p1049
aVcrazy
p1050
aV.
aa(lp1051
Vwhen
p1052
aVthe
p1053
aVgrandmother
p1054
aV's
p1055
aVcat
p1056
aVjumps
p1057
aVonto
p1058
aVhis
p1059
aVshoulder
p1060
aV,
aVhe
p1061
aVwrecks
p1062
aVthe
p1063
aVcar
p1064
aV.
aa(lp1065
Vhe
p1066
aVtries
p1067
aVto
p1068
aVquiet
p1069
aVthe
p1070
aVgrandmother
p1071
aVand
p1072
aVstop
p1073
aVher
p1074
aVfrom
p1075
aVprovoking
p1076
aVthe
p1077
aVthree
p1078
aVcriminals
p1079
aV,
aVbut
p1080
aVhe
p1081
aVis
p1082
aVineffective
p1083
aV.
aa(lp1084
Vhe
p1085
aVand
p1086
aVjohn
p1087
aVwesley
p1088
aVare
p1089
aVthe
p1090
aVfirst
p1091
aVto
p1092
aVbe
p1093
aVkilled
p1094
aVby
p1095
aVthe
p1096
aVmisfit
p1097
aV.
aasg42
NssS'the mother'
p1098
(dp1099
g20
(lp1100
(lp1101
Vthe
p1102
aV[
aVCHARACTER
p1103
aV]
aV-
aVbailey
p1104
aV's
p1105
aVwife
p1106
aVand
p1107
aVthe
p1108
aV[
aVCHARACTER
p1109
aV]
aVof
p1110
aVjohn
p1111
aVwesley
p1112
aV,
aVjune
p1113
aVstar
p1114
aV,
aVand
p1115
aVa
aVbaby
p1116
aV.
aa(lp1117
Vthe
p1118
aV[
aVCHARACTER
p1119
aV]
aVbreaks
p1120
aVher
p1121
aVshoulder
p1122
aVin
p1123
aVthe
p1124
aVcar
p1125
aVcrash
p1126
aVand
p1127
aVis
p1128
aVeventually
p1129
aVkilled
p1130
aVby
p1131
aVthe
p1132
aVmisfit
p1133
aV's
p1134
aVhenchmen
p1135
aV.
aasg42
NssS'red sammy butts'
p1136
(dp1137
g20
(lp1138
(lp1139
V[
aVCHARACTER
p1140
aV]
aV-
aVthe
p1141
aVowner
p1142
aVof
p1143
aVthe
p1144
aVtower
p1145
aVrestaurant
p1146
aV.
aa(lp1147
Vred
p1148
aVsammy
p1149
aVis
p1150
aVa
aVgood
p1151
aVman
p1152
aVaccording
p1153
aVto
p1154
aVthe
p1155
aVgrandmother
p1156
aV,
aVtrusting
p1157
aVand
p1158
aVeven
p1159
aVgullible
p1160
aVto
p1161
aVa
aVfault
p1162
aV.
aasg42
NssS'john wesley'
p1163
(dp1164
g20
(lp1165
(lp1166
V[
aVCHARACTER
p1167
aV]
aV-
aVa
aVloud
p1168
aV,
aVobnoxious
p1169
aV,
aVeight-year-old
p1170
aVboy
p1171
aV.
aa(lp1172
V[
aVCHARACTER
p1173
aV]
aVwants
p1174
aVto
p1175
aVvisit
p1176
aVthe
p1177
aVhouse
p1178
aVthe
p1179
aVgrandmother
p1180
aVtalks
p1181
aVabout
p1182
aVbecause
p1183
aVshe
p1184
aVsays
p1185
aVit
p1186
aVhas
p1187
aVa
aVsecret
p1188
aVpanel
p1189
aV.
aasg42
NsssS'mainText'
p1190
(lp1191
(lp1192
Vthe
p1193
aVgrandmother
p1194
aVdid
p1195
aVn't
p1196
aVwant
p1197
aVto
p1198
aVgo
p1199
aVto
p1200
aVflorida
p1201
aV.
aa(lp1202
Vshe
p1203
aVwanted
p1204
aVto
p1205
aVvisit
p1206
aVsome
p1207
aVof
p1208
aVher
p1209
aVconnections
p1210
aVin
p1211
aVeast
p1212
aVtennessee
p1213
aVand
p1214
aVshe
p1215
aVwas
p1216
aVseizing
p1217
aVat
p1218
aVevery
p1219
aVchance
p1220
aVto
p1221
aVchange
p1222
aVbailey
p1223
aV's
p1224
aVmind
p1225
aV.
aa(lp1226
Vbailey
p1227
aVwas
p1228
aVthe
p1229
aVson
p1230
aVshe
p1231
aVlived
p1232
aVwith
p1233
aV,
aVher
p1234
aVonly
p1235
aVboy
p1236
aV.
aa(lp1237
Vhe
p1238
aVwas
p1239
aVsitting
p1240
aVon
p1241
aVthe
p1242
aVedge
p1243
aVof
p1244
aVhis
p1245
aVchair
p1246
aVat
p1247
aVthe
p1248
aVtable
p1249
aV,
aVbent
p1250
aVover
p1251
aVthe
p1252
aVorange
p1253
aVsports
p1254
aVsection
p1255
aVof
p1256
aVthe
p1257
aVjournal
p1258
aV.
aa(lp1259
V``
p1260
aVnow
p1261
aVlook
p1262
aVhere
p1263
aV,
aVbailey
p1264
aV,
aV''
p1265
aVshe
p1266
aVsaid
p1267
aV,
aV``
p1268
aVsee
p1269
aVhere
p1270
aV,
aVread
p1271
aVthis
p1272
aV,
aV''
p1273
aVand
p1274
aVshe
p1275
aVstood
p1276
aVwith
p1277
aVone
p1278
aVhand
p1279
aVon
p1280
aVher
p1281
aVthin
p1282
aVhip
p1283
aVand
p1284
aVthe
p1285
aVother
p1286
aVrattling
p1287
aVthe
p1288
aVnewspaper
p1289
aVat
p1290
aVhis
p1291
aVbald
p1292
aVhead
p1293
aV.
aa(lp1294
V``
p1295
aVhere
p1296
aVthis
p1297
aVfellow
p1298
aVthat
p1299
aVcalls
p1300
aVhimself
p1301
aVthe
p1302
aVmisfit
p1303
aVis
p1304
aValoose
p1305
aVfrom
p1306
aVthe
p1307
aVfederal
p1308
aVpen
p1309
aVand
p1310
aVheaded
p1311
aVtoward
p1312
aVflorida
p1313
aVand
p1314
aVyou
p1315
aVread
p1316
aVhere
p1317
aVwhat
p1318
aVit
p1319
aVsays
p1320
aVhe
p1321
aVdid
p1322
aVto
p1323
aVthese
p1324
aVpeople
p1325
aV.
aa(lp1326
Vjust
p1327
aVyou
p1328
aVread
p1329
aVit
p1330
aV.
aa(lp1331
Vi
aVwould
p1332
aVn't
p1333
aVtake
p1334
aVmy
p1335
aVchildren
p1336
aVin
p1337
aVany
p1338
aVdirection
p1339
aVwith
p1340
aVa
aVcriminal
p1341
aVlike
p1342
aVthat
p1343
aValoose
p1344
aVin
p1345
aVit
p1346
aV.
aa(lp1347
Vi
aVcould
p1348
aVn't
p1349
aVanswer
p1350
aVto
p1351
aVmy
p1352
aVconscience
p1353
aVif
p1354
aVi
aVdid
p1355
aV.
aV''
p1356
aa(lp1357
Vbailey
p1358
aVdid
p1359
aVn't
p1360
aVlook
p1361
aVup
p1362
aVfrom
p1363
aVhis
p1364
aVreading
p1365
aVso
p1366
aVshe
p1367
aVwheeled
p1368
aVaround
p1369
aVthen
p1370
aVand
p1371
aVfaced
p1372
aVthe
p1373
aVchildren
p1374
aV's
p1375
aVmother
p1376
aV,
aVa
aVyoung
p1377
aVwoman
p1378
aVin
p1379
aVslacks
p1380
aV,
aVwhose
p1381
aVface
p1382
aVwas
p1383
aVas
p1384
aVbroad
p1385
aVand
p1386
aVinnocent
p1387
aVas
p1388
aVa
aVcabbage
p1389
aVand
p1390
aVwas
p1391
aVtied
p1392
aVaround
p1393
aVwith
p1394
aVa
aVgreen
p1395
aVhead-kerchief
p1396
aVthat
p1397
aVhad
p1398
aVtwo
p1399
aVpoints
p1400
aVon
p1401
aVthe
p1402
aVtop
p1403
aVlike
p1404
aVrabbit
p1405
aV's
p1406
aVears
p1407
aV.
aa(lp1408
Vshe
p1409
aVwas
p1410
aVsitting
p1411
aVon
p1412
aVthe
p1413
aVsofa
p1414
aV,
aVfeeding
p1415
aVthe
p1416
aVbaby
p1417
aVhis
p1418
aVapricots
p1419
aVout
p1420
aVof
p1421
aVa
aVjar
p1422
aV.
aa(lp1423
V``
p1424
aVthe
p1425
aVchildren
p1426
aVhave
p1427
aVbeen
p1428
aVto
p1429
aVflorida
p1430
aVbefore
p1431
aV,
aV''
p1432
aVthe
p1433
aVold
p1434
aVlady
p1435
aVsaid
p1436
aV.
aa(lp1437
V``
p1438
aVyou
p1439
aVall
p1440
aVought
p1441
aVto
p1442
aVtake
p1443
aVthem
p1444
aVsomewhere
p1445
aVelse
p1446
aVfor
p1447
aVa
aVchange
p1448
aVso
p1449
aVthey
p1450
aVwould
p1451
aVsee
p1452
aVdifferent
p1453
aVparts
p1454
aVof
p1455
aVthe
p1456
aVworld
p1457
aVand
p1458
aVbe
p1459
aVbroad
p1460
aV.
aa(lp1461
Vthey
p1462
aVnever
p1463
aVhave
p1464
aVbeen
p1465
aVto
p1466
aVeast
p1467
aVtennessee
p1468
aV.
aV''
p1469
aa(lp1470
Vthe
p1471
aVchildren
p1472
aV's
p1473
aVmother
p1474
aVdid
p1475
aVn't
p1476
aVseem
p1477
aVto
p1478
aVhear
p1479
aVher
p1480
aVbut
p1481
aVthe
p1482
aVeight-year-old
p1483
aVboy
p1484
aV,
aVjohn
p1485
aVwesley
p1486
aV,
aVa
aVstocky
p1487
aVchild
p1488
aVwith
p1489
aVglasses
p1490
aV,
aVsaid
p1491
aV,
aV``
p1492
aVif
p1493
aVyou
p1494
aVdo
p1495
aVn't
p1496
aVwant
p1497
aVto
p1498
aVgo
p1499
aVto
p1500
aVflorida
p1501
aV,
aVwhy
p1502
aVdontcha
p1503
aVstay
p1504
aVat
p1505
aVhome
p1506
aV?
aV''
p1507
aa(lp1508
Vhe
p1509
aVand
p1510
aVthe
p1511
aVlittle
p1512
aVgirl
p1513
aV,
aVjune
p1514
aVstar
p1515
aV,
aVwere
p1516
aVreading
p1517
aVthe
p1518
aVfunny
p1519
aVpapers
p1520
aVon
p1521
aVthe
p1522
aVfloor
p1523
aV.
aa(lp1524
V``
p1525
aVshe
p1526
aVwould
p1527
aVn't
p1528
aVstay
p1529
aVat
p1530
aVhome
p1531
aVto
p1532
aVbe
p1533
aVqueen
p1534
aVfor
p1535
aVa
aVday
p1536
aV,
aV''
p1537
aVjune
p1538
aVstar
p1539
aVsaid
p1540
aVwithout
p1541
aVraising
p1542
aVher
p1543
aVyellow
p1544
aVhead
p1545
aV.
aa(lp1546
V``
p1547
aVyes
p1548
aVand
p1549
aVwhat
p1550
aVwould
p1551
aVyou
p1552
aVdo
p1553
aVif
p1554
aVthis
p1555
aVfellow
p1556
aV,
aVthe
p1557
aVmisfit
p1558
aV,
aVcaught
p1559
aVyou
p1560
aV?
aV''
p1561
aa(lp1562
Vthe
p1563
aVgrandmother
p1564
aVasked
p1565
aV.
aa(lp1566
V``
p1567
aVi
aV'd
p1568
aVsmack
p1569
aVhis
p1570
aVface
p1571
aV,
aV''
p1572
aVjohn
p1573
aVwesley
p1574
aVsaid
p1575
aV.
aa(lp1576
V``
p1577
aVshe
p1578
aVwould
p1579
aVn't
p1580
aVstay
p1581
aVat
p1582
aVhome
p1583
aVfor
p1584
aVa
aVmillion
p1585
aVbucks
p1586
aV,
aV''
p1587
aVjune
p1588
aVstar
p1589
aVsaid
p1590
aV.
aa(lp1591
V``
p1592
aVafraid
p1593
aVshe
p1594
aV'd
p1595
aVmiss
p1596
aVsomething
p1597
aV.
aa(lp1598
Vshe
p1599
aVhas
p1600
aVto
p1601
aVgo
p1602
aVeverywhere
p1603
aVwe
p1604
aVgo
p1605
aV.
aV''
p1606
aa(lp1607
V138
p1608
aVa
aVgood
p1609
aVman
p1610
aVis
p1611
aVhard
p1612
aVto
p1613
aVfind
p1614
aV''
p1615
aVall
p1616
aVright
p1617
aV,
aVmiss
p1618
aV,
aV''
p1619
aVthe
p1620
aVgrandmother
p1621
aVsaid
p1622
aV.
aa(lp1623
V``
p1624
aVjust
p1625
aVremember
p1626
aVthat
p1627
aVthe
p1628
aVnext
p1629
aVtime
p1630
aVyou
p1631
aVwant
p1632
aVme
p1633
aVto
p1634
aVcurl
p1635
aVyour
p1636
aVhair
p1637
aV.
aV''
p1638
aa(lp1639
Vjune
p1640
aVstar
p1641
aVsaid
p1642
aVher
p1643
aVhair
p1644
aVwas
p1645
aVnaturally
p1646
aVcurly
p1647
aV.
aa(lp1648
Vthe
p1649
aVnext
p1650
aVmorning
p1651
aVthe
p1652
aVgrandmother
p1653
aVwas
p1654
aVthe
p1655
aVfirst
p1656
aVone
p1657
aVin
p1658
aVthe
p1659
aVcar
p1660
aV,
aVready
p1661
aVto
p1662
aVgo
p1663
aV.
aa(lp1664
Vshe
p1665
aVhad
p1666
aVher
p1667
aVbig
p1668
aVblack
p1669
aVvalise
p1670
aVthat
p1671
aVlooked
p1672
aVlike
p1673
aVthe
p1674
aVhead
p1675
aVof
p1676
aVa
aVhippopotamus
p1677
aVin
p1678
aVone
p1679
aVcorner
p1680
aV,
aVand
p1681
aVunderneath
p1682
aVit
p1683
aVshe
p1684
aVwas
p1685
aVhiding
p1686
aVa
aVbasket
p1687
aVwith
p1688
aVpitty
p1689
aVsing
p1690
aV,
aVthe
p1691
aVcat
p1692
aV,
aVin
p1693
aVit
p1694
aV.
aa(lp1695
Vshe
p1696
aVdid
p1697
aVn't
p1698
aVintend
p1699
aVfor
p1700
aVthe
p1701
aVcat
p1702
aVto
p1703
aVbe
p1704
aVleft
p1705
aValone
p1706
aVin
p1707
aVthe
p1708
aVhouse
p1709
aVfor
p1710
aVthree
p1711
aVdays
p1712
aVbecause
p1713
aVhe
p1714
aVwould
p1715
aVmiss
p1716
aVher
p1717
aVtoo
p1718
aVmuch
p1719
aVand
p1720
aVshe
p1721
aVwas
p1722
aVafraid
p1723
aVhe
p1724
aVmight
p1725
aVbrush
p1726
aVagainst
p1727
aVone
p1728
aVof
p1729
aVthe
p1730
aVgas
p1731
aVburners
p1732
aVand
p1733
aVaccidentally
p1734
aVasphyxiate
p1735
aVhimself
p1736
aV.
aa(lp1737
Vher
p1738
aVson
p1739
aV,
aVbailey
p1740
aV,
aVdid
p1741
aVn't
p1742
aVlike
p1743
aVto
p1744
aVarrive
p1745
aVat
p1746
aVa
aVmotel
p1747
aVwith
p1748
aVa
aVcat
p1749
aV.
aa(lp1750
Vshe
p1751
aVsat
p1752
aVin
p1753
aVthe
p1754
aVmiddle
p1755
aVof
p1756
aVthe
p1757
aVback
p1758
aVseat
p1759
aVwith
p1760
aVjohn
p1761
aVwesley
p1762
aVand
p1763
aVjune
p1764
aVstar
p1765
aVon
p1766
aVeither
p1767
aVside
p1768
aVof
p1769
aVher
p1770
aV.
aa(lp1771
Vbailey
p1772
aVand
p1773
aVthe
p1774
aVchildren
p1775
aV's
p1776
aVmother
p1777
aVand
p1778
aVthe
p1779
aVbaby
p1780
aVsat
p1781
aVin
p1782
aVfront
p1783
aVand
p1784
aVthey
p1785
aVleft
p1786
aVatlanta
p1787
aVat
p1788
aVeight
p1789
aVforty-five
p1790
aVwith
p1791
aVthe
p1792
aVmileage
p1793
aVon
p1794
aVthe
p1795
aVcar
p1796
aVat
p1797
aV55890.
p1798
aVthe
p1799
aVgrandmother
p1800
aVwrote
p1801
aVthis
p1802
aVdown
p1803
aVbecause
p1804
aVshe
p1805
aVthought
p1806
aVit
p1807
aVwould
p1808
aVbe
p1809
aVinteresting
p1810
aVto
p1811
aVsay
p1812
aVhow
p1813
aVmany
p1814
aVmiles
p1815
aVthey
p1816
aVhad
p1817
aVbeen
p1818
aVwhen
p1819
aVthey
p1820
aVgot
p1821
aVback
p1822
aV.
aa(lp1823
Vit
p1824
aVtook
p1825
aVthem
p1826
aVtwenty
p1827
aVminutes
p1828
aVto
p1829
aVreach
p1830
aVthe
p1831
aVoutskirts
p1832
aVof
p1833
aVthe
p1834
aVcity
p1835
aV.
aa(lp1836
Vthe
p1837
aVold
p1838
aVlady
p1839
aVsettled
p1840
aVherself
p1841
aVcomfortably
p1842
aV,
aVremoving
p1843
aVher
p1844
aVwhite
p1845
aVcotton
p1846
aVgloves
p1847
aVand
p1848
aVputting
p1849
aVthem
p1850
aVup
p1851
aVwith
p1852
aVher
p1853
aVpurse
p1854
aVon
p1855
aVthe
p1856
aVshelf
p1857
aVin
p1858
aVfront
p1859
aVof
p1860
aVthe
p1861
aVback
p1862
aVwindow
p1863
aV.
aa(lp1864
Vthe
p1865
aVchildren
p1866
aV's
p1867
aVmother
p1868
aVstill
p1869
aVhad
p1870
aVon
p1871
aVslacks
p1872
aVand
p1873
aVstill
p1874
aVhad
p1875
aVher
p1876
aVhead
p1877
aVtied
p1878
aVup
p1879
aVin
p1880
aVa
aVgreen
p1881
aVkerchief
p1882
aV,
aVbut
p1883
aVthe
p1884
aVgrandmother
p1885
aVhad
p1886
aVon
p1887
aVa
aVnavy
p1888
aVblue
p1889
aVstraw
p1890
aVsailor
p1891
aVhat
p1892
aVwith
p1893
aVa
aVbunch
p1894
aVof
p1895
aVwhite
p1896
aVviolets
p1897
aVon
p1898
aVthe
p1899
aVbrim
p1900
aVand
p1901
aVa
aVnavy
p1902
aVblue
p1903
aVdress
p1904
aVwith
p1905
aVa
aVsmall
p1906
aVwhite
p1907
aVdot
p1908
aVin
p1909
aVthe
p1910
aVprint
p1911
aV.
aa(lp1912
Vher
p1913
aVcollars
p1914
aVand
p1915
aVcuffs
p1916
aVwere
p1917
aVwhite
p1918
aVorgandy
p1919
aVtrimmed
p1920
aVwith
p1921
aVlace
p1922
aVand
p1923
aVat
p1924
aVher
p1925
aVneckline
p1926
aVshe
p1927
aVhad
p1928
aVpinned
p1929
aVa
aVpurple
p1930
aVspray
p1931
aVof
p1932
aVcloth
p1933
aVviolets
p1934
aVcontaining
p1935
aVa
aVsachet
p1936
aV.
aa(lp1937
Vin
p1938
aVcase
p1939
aVof
p1940
aVan
p1941
aVaccident
p1942
aV,
aVanyone
p1943
aVseeing
p1944
aVher
p1945
aVdead
p1946
aVon
p1947
aVthe
p1948
aVhighway
p1949
aVwould
p1950
aVknow
p1951
aVat
p1952
aVonce
p1953
aVthat
p1954
aVshe
p1955
aVwas
p1956
aVa
aVlady
p1957
aV.
aa(lp1958
Vshe
p1959
aVsaid
p1960
aVshe
p1961
aVthought
p1962
aVit
p1963
aVwas
p1964
aVgoing
p1965
aVto
p1966
aVbe
p1967
aVa
aVgood
p1968
aVday
p1969
aVfor
p1970
aVdriving
p1971
aV,
aVneither
p1972
aVtoo
p1973
aVhot
p1974
aVnor
p1975
aVtoo
p1976
aVcold
p1977
aV,
aVand
p1978
aVshe
p1979
aVcautioned
p1980
aVbailey
p1981
aVthat
p1982
aVthe
p1983
aVspeed
p1984
aVlimit
p1985
aVwas
p1986
aVfifty-five
p1987
aVmiles
p1988
aVan
p1989
aVhour
p1990
aVand
p1991
aVthat
p1992
aVthe
p1993
aVpatrolmen
p1994
aVhid
p1995
aVthemselves
p1996
aVbehind
p1997
aVbillboards
p1998
aVand
p1999
aVsmall
p2000
aVclumps
p2001
aVof
p2002
aVtrees
p2003
aVand
p2004
aVsped
p2005
aVout
p2006
aVafter
p2007
aVyou
p2008
aVbefore
p2009
aVyou
p2010
aVhad
p2011
aVa
aVchance
p2012
aVto
p2013
aVslow
p2014
aVdown
p2015
aV.
aa(lp2016
Vshe
p2017
aVpointed
p2018
aVout
p2019
aVinteresting
p2020
aVdetails
p2021
aVof
p2022
aVthe
p2023
aVscenery
p2024
aV:
aVstone
p2025
aVmountain
p2026
aV;
aVthe
p2027
aVblue
p2028
aVgranite
p2029
aVthat
p2030
aVin
p2031
aVsome
p2032
aVplaces
p2033
aVcame
p2034
aVup
p2035
aVto
p2036
aVboth
p2037
aVsides
p2038
aVof
p2039
aVthe
p2040
aVhighway
p2041
aV;
aVthe
p2042
aVbrilliant
p2043
aVred
p2044
aVclay
p2045
aVbanks
p2046
aVslightly
p2047
aVstreaked
p2048
aVwith
p2049
aVpurple
p2050
aV;
aVand
p2051
aVthe
p2052
aVvarious
p2053
aVcrops
p2054
aVa
aVgood
p2055
aVman
p2056
aVis
p2057
aVhard
p2058
aVto
p2059
aVfind
p2060
aV139
p2061
aVthat
p2062
aVmade
p2063
aVrows
p2064
aVof
p2065
aVgreen
p2066
aVlace-work
p2067
aVon
p2068
aVthe
p2069
aVground
p2070
aV.
aa(lp2071
Vthe
p2072
aVtrees
p2073
aVwere
p2074
aVfull
p2075
aVof
p2076
aVsilver-white
p2077
aVsunlight
p2078
aVand
p2079
aVthe
p2080
aVmeanest
p2081
aVof
p2082
aVthem
p2083
aVsparkled
p2084
aV.
aa(lp2085
Vthe
p2086
aVchildren
p2087
aVwere
p2088
aVreading
p2089
aVcomic
p2090
aVmagazines
p2091
aVand
p2092
aVtheir
p2093
aVmother
p2094
aVhad
p2095
aVgone
p2096
aVback
p2097
aVto
p2098
aVsleep
p2099
aV.
aa(lp2100
V``
p2101
aVlet
p2102
aV's
p2103
aVgo
p2104
aVthrough
p2105
aVgeorgia
p2106
aVfast
p2107
aVso
p2108
aVwe
p2109
aVwo
p2110
aVn't
p2111
aVhave
p2112
aVto
p2113
aVlook
p2114
aVat
p2115
aVit
p2116
aVmuch
p2117
aV,
aV''
p2118
aVjohn
p2119
aVwesley
p2120
aVsaid
p2121
aV.
aa(lp2122
V``
p2123
aVif
p2124
aVi
aVwere
p2125
aVa
aVlittle
p2126
aVboy
p2127
aV,
aV''
p2128
aVsaid
p2129
aVthe
p2130
aVgrandmother
p2131
aV,
aV``
p2132
aVi
aVwould
p2133
aVn't
p2134
aVtalk
p2135
aVabout
p2136
aVmy
p2137
aVnative
p2138
aVstate
p2139
aVthat
p2140
aVway
p2141
aV.
aa(lp2142
Vtennessee
p2143
aVhas
p2144
aVthe
p2145
aVmountains
p2146
aVand
p2147
aVgeorgia
p2148
aVhas
p2149
aVthe
p2150
aVhills
p2151
aV.
aV''
p2152
aa(lp2153
V``
p2154
aVtennessee
p2155
aVis
p2156
aVjust
p2157
aVa
aVhillbilly
p2158
aVdumping
p2159
aVground
p2160
aV,
aV''
p2161
aVjohn
p2162
aVwesley
p2163
aVsaid
p2164
aV,
aV``
p2165
aVand
p2166
aVgeorgia
p2167
aVis
p2168
aVa
aVlousy
p2169
aVstate
p2170
aVtoo
p2171
aV.
aV''
p2172
aa(lp2173
V``
p2174
aVyou
p2175
aVsaid
p2176
aVit
p2177
aV,
aV''
p2178
aVjune
p2179
aVstar
p2180
aVsaid
p2181
aV.
aa(lp2182
V``
p2183
aVin
p2184
aVmy
p2185
aVtime
p2186
aV,
aV''
p2187
aVsaid
p2188
aVthe
p2189
aVgrandmother
p2190
aV,
aVfolding
p2191
aVher
p2192
aVthin
p2193
aVveined
p2194
aVfingers
p2195
aV,
aV``
p2196
aVchildren
p2197
aVwere
p2198
aVmore
p2199
aVrespectful
p2200
aVof
p2201
aVtheir
p2202
aVnative
p2203
aVstates
p2204
aVand
p2205
aVtheir
p2206
aVparents
p2207
aVand
p2208
aVeverything
p2209
aVelse
p2210
aV.
aa(lp2211
Vpeople
p2212
aVdid
p2213
aVright
p2214
aVthen
p2215
aV.
aa(lp2216
Voh
p2217
aVlook
p2218
aVat
p2219
aVthe
p2220
aVcute
p2221
aVlittle
p2222
aVpickaninny
p2223
aV!
aV''
p2224
aa(lp2225
Vshe
p2226
aVsaid
p2227
aVand
p2228
aVpointed
p2229
aVto
p2230
aVa
aVnegro
p2231
aVchild
p2232
aVstanding
p2233
aVin
p2234
aVthe
p2235
aVdoor
p2236
aVof
p2237
aVa
aVshack
p2238
aV.
aa(lp2239
V``
p2240
aVwould
p2241
aVn't
p2242
aVthat
p2243
aVmake
p2244
aVa
aVpicture
p2245
aV,
aVnow
p2246
aV?
aV''
p2247
aa(lp2248
Vshe
p2249
aVasked
p2250
aVand
p2251
aVthey
p2252
aVall
p2253
aVturned
p2254
aVand
p2255
aVlooked
p2256
aVat
p2257
aVthe
p2258
aVlittle
p2259
aVnegro
p2260
aVout
p2261
aVof
p2262
aVthe
p2263
aVback
p2264
aVwindow
p2265
aV.
aa(lp2266
Vhe
p2267
aVwaved
p2268
aV.
aa(lp2269
V``
p2270
aVhe
p2271
aVdid
p2272
aVn't
p2273
aVhave
p2274
aVany
p2275
aVbritches
p2276
aVon
p2277
aV,
aV''
p2278
aVjune
p2279
aVstar
p2280
aVsaid
p2281
aV.
aa(lp2282
V``
p2283
aVhe
p2284
aVprobably
p2285
aVdid
p2286
aVn't
p2287
aVhave
p2288
aVany
p2289
aV,
aV''
p2290
aVthe
p2291
aVgrandmother
p2292
aVexplained
p2293
aV.
aa(lp2294
V``
p2295
aVlittle
p2296
aVniggers
p2297
aVin
p2298
aVthe
p2299
aVcountry
p2300
aVdo
p2301
aVn't
p2302
aVhave
p2303
aVthings
p2304
aVlike
p2305
aVwe
p2306
aVdo
p2307
aV.
aa(lp2308
Vif
p2309
aVi
aVcould
p2310
aVpaint
p2311
aV,
aVi
aV'd
p2312
aVpaint
p2313
aVthat
p2314
aVpicture
p2315
aV,
aV''
p2316
aVshe
p2317
aVsaid
p2318
aV.
aa(lp2319
Vthe
p2320
aVchildren
p2321
aVexchanged
p2322
aVcomic
p2323
aVbooks
p2324
aV.
aa(lp2325
Vthe
p2326
aVgrandmother
p2327
aVoffered
p2328
aVto
p2329
aVhold
p2330
aVthe
p2331
aVbaby
p2332
aVand
p2333
aVthe
p2334
aVchildren
p2335
aV's
p2336
aVmother
p2337
aVpassed
p2338
aVhim
p2339
aVover
p2340
aVthe
p2341
aVfront
p2342
aVseat
p2343
aVto
p2344
aVher
p2345
aV.
aa(lp2346
Vshe
p2347
aVset
p2348
aVhim
p2349
aVon
p2350
aVher
p2351
aVknee
p2352
aVand
p2353
aVbounced
p2354
aVhim
p2355
aVand
p2356
aVtold
p2357
aVhim
p2358
aVabout
p2359
aVthe
p2360
aVthings
p2361
aVthey
p2362
aVwere
p2363
aVpassing
p2364
aV.
aa(lp2365
Vshe
p2366
aVrolled
p2367
aVher
p2368
aVeyes
p2369
aVand
p2370
aVscrewed
p2371
aVup
p2372
aVher
p2373
aVmouth
p2374
aVand
p2375
aVstuck
p2376
aVher
p2377
aVleathery
p2378
aVthin
p2379
aVface
p2380
aVinto
p2381
aVhis
p2382
aVsmooth
p2383
aVbland
p2384
aVone
p2385
aV.
aa(lp2386
Voccasionally
p2387
aVhe
p2388
aVgave
p2389
aVher
p2390
aVa
aVfaraway
p2391
aVsmile
p2392
aV.
aa(lp2393
Vthey
p2394
aVpassed
p2395
aVa
aVlarge
p2396
aVcotton
p2397
aVfield
p2398
aVwith
p2399
aVfive
p2400
aVor
p2401
aVsix
p2402
aVgraves
p2403
aVfenced
p2404
aVin
p2405
aVthe
p2406
aVmiddle
p2407
aVof
p2408
aVit
p2409
aV,
aVlike
p2410
aVa
aVsmall
p2411
aVisland
p2412
aV.
aa(lp2413
V``
p2414
aVlook
p2415
aVat
p2416
aVthe
p2417
aVgraveyard
p2418
aV!
aV''
p2419
aa(lp2420
Vthe
p2421
aVgrandmother
p2422
aVsaid
p2423
aV,
aVpointing
p2424
aVit
p2425
aVout
p2426
aV.
aa(lp2427
V``
p2428
aVthat
p2429
aVwas
p2430
aVthe
p2431
aVold
p2432
aVfamily
p2433
aVburying
p2434
aVground
p2435
aV.
aa(lp2436
Vthat
p2437
aVbelonged
p2438
aVto
p2439
aVthe
p2440
aVplantation
p2441
aV.
aV''
p2442
aa(lp2443
V``
p2444
aVwhere
p2445
aV's
p2446
aVthe
p2447
aVplantation
p2448
aV?
aV''
p2449
aa(lp2450
Vjohn
p2451
aVwesley
p2452
aVasked
p2453
aV.
aa(lp2454
V``
p2455
aVgone
p2456
aVwith
p2457
aVthe
p2458
aVwind
p2459
aV,
aV''
p2460
aVsaid
p2461
aVthe
p2462
aVgrandmother
p2463
aV.
aa(lp2464
V``
p2465
aVha
p2466
aV.
aa(lp2467
Vha
p2468
aV.
aV''
p2469
aa(lp2470
Vwhen
p2471
aVthe
p2472
aVchildren
p2473
aVfinished
p2474
aVall
p2475
aVthe
p2476
aVcomic
p2477
aVbooks
p2478
aVthey
p2479
aVhad
p2480
aVbrought
p2481
aV,
aVthey
p2482
aVopened
p2483
aVthe
p2484
aVlunch
p2485
aVand
p2486
aVate
p2487
aVit
p2488
aV.
aa(lp2489
Vthe
p2490
aVgrandmother
p2491
aVate
p2492
aVa
aVpeanut
p2493
aVbutter
p2494
aVsandwich
p2495
aVand
p2496
aVan
p2497
aVolive
p2498
aVand
p2499
aVwould
p2500
aVnot
p2501
aVlet
p2502
aVi40
p2503
aVa
aVgood
p2504
aVman
p2505
aVis
p2506
aVhard
p2507
aVto
p2508
aVfind
p2509
aVthe
p2510
aVchildren
p2511
aVthrow
p2512
aVthe
p2513
aVbox
p2514
aVand
p2515
aVthe
p2516
aVpaper
p2517
aVnapkins
p2518
aVout
p2519
aVthe
p2520
aVwindow
p2521
aV.
aa(lp2522
Vwhen
p2523
aVthere
p2524
aVwas
p2525
aVnothing
p2526
aVelse
p2527
aVto
p2528
aVdo
p2529
aVthey
p2530
aVplayed
p2531
aVa
aVgame
p2532
aVby
p2533
aVchoosing
p2534
aVa
aVcloud
p2535
aVand
p2536
aVmaking
p2537
aVthe
p2538
aVother
p2539
aVtwo
p2540
aVguess
p2541
aVwhat
p2542
aVshape
p2543
aVit
p2544
aVsuggested
p2545
aV.
aa(lp2546
Vjohn
p2547
aVwesley
p2548
aVtook
p2549
aVone
p2550
aVthe
p2551
aVshape
p2552
aVof
p2553
aVa
aVcow
p2554
aVand
p2555
aVjune
p2556
aVstar
p2557
aVguessed
p2558
aVa
aVcow
p2559
aVand
p2560
aVjohn
p2561
aVwesley
p2562
aVsaid
p2563
aV,
aVno
p2564
aV,
aVan
p2565
aVautomobile
p2566
aV,
aVand
p2567
aVjune
p2568
aVstar
p2569
aVsaid
p2570
aVhe
p2571
aVdid
p2572
aVn't
p2573
aVplay
p2574
aVfair
p2575
aV,
aVand
p2576
aVthey
p2577
aVbegan
p2578
aVto
p2579
aVslap
p2580
aVeach
p2581
aVother
p2582
aVover
p2583
aVthe
p2584
aVgrandmother
p2585
aV.
aa(lp2586
Vthe
p2587
aVgrandmother
p2588
aVsaid
p2589
aVshe
p2590
aVwould
p2591
aVtell
p2592
aVthem
p2593
aVa
aVstory
p2594
aVif
p2595
aVthey
p2596
aVwould
p2597
aVkeep
p2598
aVquiet
p2599
aV.
aa(lp2600
Vwhen
p2601
aVshe
p2602
aVtold
p2603
aVa
aVstory
p2604
aV,
aVshe
p2605
aVrolled
p2606
aVher
p2607
aVeyes
p2608
aVand
p2609
aVwaved
p2610
aVher
p2611
aVhead
p2612
aVand
p2613
aVwas
p2614
aVvery
p2615
aVdramatic
p2616
aV.
aa(lp2617
Vshe
p2618
aVsaid
p2619
aVonce
p2620
aVwhen
p2621
aVshe
p2622
aVwas
p2623
aVa
aVmaiden
p2624
aVlady
p2625
aVshe
p2626
aVhad
p2627
aVbeen
p2628
aVcourted
p2629
aVby
p2630
aVa
aVmr.
p2631
aVedgar
p2632
aVatkins
p2633
aVteagarden
p2634
aVfrom
p2635
aVjasper
p2636
aV,
aVgeorgia
p2637
aV.
aa(lp2638
Vshe
p2639
aVsaid
p2640
aVhe
p2641
aVwas
p2642
aVa
aVvery
p2643
aVgood-looking
p2644
aVman
p2645
aVand
p2646
aVa
aVgentleman
p2647
aVand
p2648
aVthat
p2649
aVhe
p2650
aVbrought
p2651
aVher
p2652
aVa
aVwatermelon
p2653
aVevery
p2654
aVsaturday
p2655
aVafternoon
p2656
aVwith
p2657
aVhis
p2658
aVinitials
p2659
aVcut
p2660
aVin
p2661
aVit
p2662
aV,
aVe.
p2663
aVa.
p2664
aVt.
p2665
aVwell
p2666
aV,
aVone
p2667
aVsaturday
p2668
aV,
aVshe
p2669
aVsaid
p2670
aV,
aVmr.
p2671
aVteagarden
p2672
aVbrought
p2673
aVthe
p2674
aVwatermelon
p2675
aVand
p2676
aVthere
p2677
aVwas
p2678
aVnobody
p2679
aVat
p2680
aVhome
p2681
aVand
p2682
aVhe
p2683
aVleft
p2684
aVit
p2685
aVon
p2686
aVthe
p2687
aVfront
p2688
aVporch
p2689
aVand
p2690
aVreturned
p2691
aVin
p2692
aVhis
p2693
aVbuggy
p2694
aVto
p2695
aVjasper
p2696
aV,
aVbut
p2697
aVshe
p2698
aVnever
p2699
aVgot
p2700
aVthe
p2701
aVwatermelon
p2702
aV,
aVshe
p2703
aVsaid
p2704
aV,
aVbecause
p2705
aVa
aVnigger
p2706
aVboy
p2707
aVate
p2708
aVit
p2709
aVwhen
p2710
aVhe
p2711
aVsaw
p2712
aVthe
p2713
aVinitials
p2714
aV,
aVe.
p2715
aVa.
p2716
aVt.
p2717
aV!
aa(lp2718
Vthis
p2719
aVstory
p2720
aVtickled
p2721
aVjohn
p2722
aVwesley
p2723
aV's
p2724
aVfunny
p2725
aVbone
p2726
aVand
p2727
aVhe
p2728
aVgiggled
p2729
aVand
p2730
aVgiggled
p2731
aVbut
p2732
aVjune
p2733
aVstar
p2734
aVdid
p2735
aVn't
p2736
aVthink
p2737
aVit
p2738
aVwas
p2739
aVany
p2740
aVgood
p2741
aV.
aa(lp2742
Vshe
p2743
aVsaid
p2744
aVshe
p2745
aVwould
p2746
aVn't
p2747
aVmarry
p2748
aVa
aVman
p2749
aVthat
p2750
aVjust
p2751
aVbrought
p2752
aVher
p2753
aVa
aVwatermelon
p2754
aVon
p2755
aVsaturday
p2756
aV.
aa(lp2757
Vthe
p2758
aVgrandmother
p2759
aVsaid
p2760
aVshe
p2761
aVwould
p2762
aVhave
p2763
aVdone
p2764
aVwell
p2765
aVto
p2766
aVmarry
p2767
aVmr.
p2768
aVteagarden
p2769
aVbecause
p2770
aVhe
p2771
aVwas
p2772
aVa
aVgentleman
p2773
aVand
p2774
aVhad
p2775
aVbought
p2776
aVcoca-cola
p2777
aVstock
p2778
aVwhen
p2779
aVit
p2780
aVfirst
p2781
aVcame
p2782
aVout
p2783
aVand
p2784
aVthat
p2785
aVhe
p2786
aVhad
p2787
aVdied
p2788
aVonly
p2789
aVa
aVfew
p2790
aVyears
p2791
aVago
p2792
aV,
aVa
aVvery
p2793
aVwealthy
p2794
aVman
p2795
aV.
aa(lp2796
Vthey
p2797
aVstopped
p2798
aVat
p2799
aVthe
p2800
aVtower
p2801
aVfor
p2802
aVbarbecued
p2803
aVsandwiches
p2804
aV.
aa(lp2805
Vthe
p2806
aVtower
p2807
aVwas
p2808
aVa
aVpart
p2809
aVstucco
p2810
aVand
p2811
aVpart
p2812
aVwood
p2813
aVfilling
p2814
aVstation
p2815
aVand
p2816
aVdance
p2817
aVhall
p2818
aVset
p2819
aVin
p2820
aVa
aVclearing
p2821
aVoutside
p2822
aVof
p2823
aVtimothy
p2824
aV.
aa(lp2825
Va
aVfat
p2826
aVman
p2827
aVnamed
p2828
aVred
p2829
aVsammy
p2830
aVbutts
p2831
aVran
p2832
aVit
p2833
aVand
p2834
aVthere
p2835
aVwere
p2836
aVsigns
p2837
aVstuck
p2838
aVhere
p2839
aVand
p2840
aVthere
p2841
aVon
p2842
aVthe
p2843
aVbuilding
p2844
aVand
p2845
aVfor
p2846
aVmiles
p2847
aVup
p2848
aVand
p2849
aVdown
p2850
aVthe
p2851
aVhighway
p2852
aVsaying
p2853
aV,
aVtry
p2854
aVred
p2855
aVsammy
p2856
aV's
p2857
aVfamous
p2858
aVbarbecue
p2859
aV.
aa(lp2860
Vnone
p2861
aVlike
p2862
aVfamous
p2863
aVred
p2864
aVsammy
p2865
aV's
p2866
aV!
aa(lp2867
Vred
p2868
aVsam
p2869
aV!
aa(lp2870
Vthe
p2871
aVfat
p2872
aVboy
p2873
aVwith
p2874
aVthe
p2875
aVhappy
p2876
aVlaugh
p2877
aV.
aa(lp2878
Va
aVveteran
p2879
aV!
aa(lp2880
Vred
p2881
aVsammy
p2882
aV's
p2883
aVyour
p2884
aVman
p2885
aV!
aa(lp2886
Vred
p2887
aVsammy
p2888
aVwas
p2889
aVlying
p2890
aVon
p2891
aVthe
p2892
aVbare
p2893
aVground
p2894
aVoutside
p2895
aVthe
p2896
aVtower
p2897
aVwith
p2898
aVhis
p2899
aVhead
p2900
aVunder
p2901
aVa
aVtruck
p2902
aVwhile
p2903
aVa
aVgray
p2904
aVmonkey
p2905
aVabout
p2906
aVa
aVfoot
p2907
aVhigh
p2908
aV,
aVchained
p2909
aVto
p2910
aVa
aVsmall
p2911
aVchinaberry
p2912
aVtree
p2913
aV,
aVchattered
p2914
aVnearby
p2915
aV.
aa(lp2916
Vthe
p2917
aVmonkey
p2918
aVsprang
p2919
aVback
p2920
aVinto
p2921
aVthe
p2922
aVtree
p2923
aVand
p2924
aVgot
p2925
aVon
p2926
aVthe
p2927
aVa
aVgood
p2928
aVman
p2929
aVis
p2930
aVhard
p2931
aVto
p2932
aVfind
p2933
aV141
p2934
aVhighest
p2935
aVlimb
p2936
aVas
p2937
aVsoon
p2938
aVas
p2939
aVhe
p2940
aVsaw
p2941
aVthe
p2942
aVchildren
p2943
aVjump
p2944
aVout
p2945
aVof
p2946
aVthe
p2947
aVcar
p2948
aVand
p2949
aVrun
p2950
aVtoward
p2951
aVhim
p2952
aV.
aa(lp2953
Vinside
p2954
aV,
aVthe
p2955
aVtower
p2956
aVwas
p2957
aVa
aVlong
p2958
aVdark
p2959
aVroom
p2960
aVwith
p2961
aVa
aVcounter
p2962
aVat
p2963
aVone
p2964
aVend
p2965
aVand
p2966
aVtables
p2967
aVat
p2968
aVthe
p2969
aVother
p2970
aVand
p2971
aVdancing
p2972
aVspace
p2973
aVin
p2974
aVthe
p2975
aVmiddle
p2976
aV.
aa(lp2977
Vthey
p2978
aVall
p2979
aVsat
p2980
aVdown
p2981
aVat
p2982
aVa
aVboard
p2983
aVtable
p2984
aVnext
p2985
aVto
p2986
aVthe
p2987
aVnickelodeon
p2988
aVand
p2989
aVred
p2990
aVsam
p2991
aV's
p2992
aVwife
p2993
aV,
aVa
aVtall
p2994
aVburnt-brown
p2995
aVwoman
p2996
aVwith
p2997
aVhair
p2998
aVand
p2999
aVeyes
p3000
aVlighter
p3001
aVthan
p3002
aVher
p3003
aVskin
p3004
aV,
aVcame
p3005
aVand
p3006
aVtook
p3007
aVtheir
p3008
aVorder
p3009
aV.
aa(lp3010
Vthe
p3011
aVchildren
p3012
aV's
p3013
aVmother
p3014
aVput
p3015
aVa
aVdime
p3016
aVin
p3017
aVthe
p3018
aVmachine
p3019
aVand
p3020
aVplayed
p3021
aV``
p3022
aVthe
p3023
aVtennessee
p3024
aVwaltz
p3025
aV,
aV''
p3026
aVand
p3027
aVthe
p3028
aVgrandmother
p3029
aVsaid
p3030
aVthat
p3031
aVtune
p3032
aValways
p3033
aVmade
p3034
aVher
p3035
aVwant
p3036
aVto
p3037
aVdance
p3038
aV.
aa(lp3039
Vshe
p3040
aVasked
p3041
aVbailey
p3042
aVif
p3043
aVhe
p3044
aVwould
p3045
aVlike
p3046
aVto
p3047
aVdance
p3048
aVbut
p3049
aVhe
p3050
aVonly
p3051
aVglared
p3052
aVat
p3053
aVher
p3054
aV.
aa(lp3055
Vhe
p3056
aVdid
p3057
aVn't
p3058
aVhave
p3059
aVa
aVnaturally
p3060
aVsunny
p3061
aVdisposition
p3062
aVlike
p3063
aVshe
p3064
aVdid
p3065
aVand
p3066
aVtrips
p3067
aVmade
p3068
aVhim
p3069
aVnervous
p3070
aV.
aa(lp3071
Vthe
p3072
aVgrandmother
p3073
aV's
p3074
aVbrown
p3075
aVeyes
p3076
aVwere
p3077
aVvery
p3078
aVbright
p3079
aV.
aa(lp3080
Vshe
p3081
aVswayed
p3082
aVher
p3083
aVhead
p3084
aVfrom
p3085
aVside
p3086
aVto
p3087
aVside
p3088
aVand
p3089
aVpretended
p3090
aVshe
p3091
aVwas
p3092
aVdancing
p3093
aVin
p3094
aVher
p3095
aVchair
p3096
aV.
aa(lp3097
Vjune
p3098
aVstar
p3099
aVsaid
p3100
aVplay
p3101
aVsomething
p3102
aVshe
p3103
aVcould
p3104
aVtap
p3105
aVto
p3106
aVso
p3107
aVthe
p3108
aVchildren
p3109
aV's
p3110
aVmother
p3111
aVput
p3112
aVin
p3113
aVanother
p3114
aVdime
p3115
aVand
p3116
aVplayed
p3117
aVa
aVfast
p3118
aVnumber
p3119
aVand
p3120
aVjune
p3121
aVstar
p3122
aVstepped
p3123
aVout
p3124
aVonto
p3125
aVthe
p3126
aVdance
p3127
aVfloor
p3128
aVand
p3129
aVdid
p3130
aVher
p3131
aVtap
p3132
aVroutine
p3133
aV.
aa(lp3134
V``
p3135
aVai
p3136
aVn't
p3137
aVshe
p3138
aVcute
p3139
aV?
aV''
p3140
aa(lp3141
Vred
p3142
aVsam
p3143
aV's
p3144
aVwife
p3145
aVsaid
p3146
aV,
aVleaning
p3147
aVover
p3148
aVthe
p3149
aVcounter
p3150
aV.
aa(lp3151
V``
p3152
aVwould
p3153
aVyou
p3154
aVlike
p3155
aVto
p3156
aVcome
p3157
aVbe
p3158
aVmy
p3159
aVlittle
p3160
aVgirl
p3161
aV?
aV''
p3162
aa(lp3163
V``
p3164
aVno
p3165
aVi
aVcertainly
p3166
aVwould
p3167
aVn't
p3168
aV,
aV''
p3169
aVjune
p3170
aVstar
p3171
aVsaid
p3172
aV.
aa(lp3173
V``
p3174
aVi
aVwould
p3175
aVn't
p3176
aVlive
p3177
aVin
p3178
aVa
aVbroken-down
p3179
aVplace
p3180
aVlike
p3181
aVthis
p3182
aVfor
p3183
aVa
aVminion
p3184
aVbucks
p3185
aV!
aV''
p3186
aa(lp3187
Vand
p3188
aVshe
p3189
aVran
p3190
aVback
p3191
aVto
p3192
aVthe
p3193
aVtable
p3194
aV.
aa(lp3195
V``
p3196
aVai
p3197
aVn't
p3198
aVshe
p3199
aVcute
p3200
aV?
aV''
p3201
aa(lp3202
Vthe
p3203
aVwoman
p3204
aVrepeated
p3205
aV,
aVstretching
p3206
aVher
p3207
aVmouth
p3208
aVpolitely
p3209
aV.
aa(lp3210
V``
p3211
aVar
p3212
aVn't
p3213
aVyou
p3214
aVashamed
p3215
aV?
aV''
p3216
aa(lp3217
Vhissed
p3218
aVthe
p3219
aVgrandmother
p3220
aV.
aa(lp3221
Vred
p3222
aVsam
p3223
aVcame
p3224
aVin
p3225
aVand
p3226
aVtold
p3227
aVhis
p3228
aVwife
p3229
aVto
p3230
aVquit
p3231
aVlounging
p3232
aVon
p3233
aVthe
p3234
aVcounter
p3235
aVand
p3236
aVhurry
p3237
aVup
p3238
aVwith
p3239
aVthese
p3240
aVpeople
p3241
aV's
p3242
aVorder
p3243
aV.
aa(lp3244
Vhis
p3245
aVkhaki
p3246
aVtrousers
p3247
aVreached
p3248
aVjust
p3249
aVto
p3250
aVhis
p3251
aVhip
p3252
aVbones
p3253
aVand
p3254
aVhis
p3255
aVstomach
p3256
aVhung
p3257
aVover
p3258
aVthem
p3259
aVlike
p3260
aVa
aVsack
p3261
aVof
p3262
aVmeal
p3263
aVswaying
p3264
aVunder
p3265
aVhis
p3266
aVshirt
p3267
aV.
aa(lp3268
Vhe
p3269
aVcame
p3270
aVover
p3271
aVand
p3272
aVsat
p3273
aVdown
p3274
aVat
p3275
aVa
aVtable
p3276
aVnearby
p3277
aVand
p3278
aVlet
p3279
aVout
p3280
aVa
aVcombination
p3281
aVsigh
p3282
aVand
p3283
aVyodel
p3284
aV.
aa(lp3285
V``
p3286
aVyou
p3287
aVca
p3288
aVn't
p3289
aVwin
p3290
aV,
aV''
p3291
aVhe
p3292
aVsaid
p3293
aV.
aa(lp3294
V``
p3295
aVyou
p3296
aVca
p3297
aVn't
p3298
aVwin
p3299
aV,
aV''
p3300
aVand
p3301
aVhe
p3302
aVwiped
p3303
aVhis
p3304
aVsweating
p3305
aVred
p3306
aVface
p3307
aVoff
p3308
aVwith
p3309
aVa
aVgray
p3310
aVhandkerchief
p3311
aV.
aa(lp3312
V``
p3313
aVthese
p3314
aVdays
p3315
aVyou
p3316
aVdo
p3317
aVn't
p3318
aVknow
p3319
aVwho
p3320
aVto
p3321
aVtrust
p3322
aV,
aV''
p3323
aVhe
p3324
aVsaid
p3325
aV.
aa(lp3326
V``
p3327
aVai
p3328
aVn't
p3329
aVthat
p3330
aVthe
p3331
aVtruth
p3332
aV?
aV''
p3333
aa(lp3334
V``
p3335
aVpeople
p3336
aVare
p3337
aVcertainly
p3338
aVnot
p3339
aVnice
p3340
aVlike
p3341
aVthey
p3342
aVused
p3343
aVto
p3344
aVbe
p3345
aV,
aV''
p3346
aVsaid
p3347
aVthe
p3348
aVgrandmother
p3349
aV.
aa(lp3350
V``
p3351
aVtwo
p3352
aVfellers
p3353
aVcome
p3354
aVin
p3355
aVhere
p3356
aVlast
p3357
aVweek
p3358
aV,
aV''
p3359
aVred
p3360
aVsammy
p3361
aVsaid
p3362
aV,
aV``
p3363
aVdriving
p3364
aVa
aVchrysler
p3365
aV.
aa(lp3366
Vit
p3367
aVwas
p3368
aVa
aVold
p3369
aVbeat-up
p3370
aVcar
p3371
aVbut
p3372
aVit
p3373
aVwas
p3374
aVa
aVgood
p3375
aVone
p3376
aVand
p3377
aVthese
p3378
aVboys
p3379
aVlooked
p3380
aVall
p3381
aVright
p3382
aVto
p3383
aVme
p3384
aV.
aa(lp3385
Vsaid
p3386
aVthey
p3387
aVworked
p3388
aV142
p3389
aVa
aVgood
p3390
aVman
p3391
aVis
p3392
aVhard
p3393
aVto
p3394
aVfind
p3395
aVat
p3396
aVthe
p3397
aVmill
p3398
aVand
p3399
aVyou
p3400
aVknow
p3401
aVi
aVlet
p3402
aVthem
p3403
aVfellers
p3404
aVcharge
p3405
aVthe
p3406
aVgas
p3407
aVthey
p3408
aVbought
p3409
aV?
aa(lp3410
Vnow
p3411
aVwhy
p3412
aVdid
p3413
aVi
aVdo
p3414
aVthat
p3415
aV?
aV''
p3416
aa(lp3417
V``
p3418
aVbecause
p3419
aVyou
p3420
aV're
p3421
aVa
aVgood
p3422
aVman
p3423
aV!
aV''
p3424
aa(lp3425
Vthe
p3426
aVgrandmother
p3427
aVsaid
p3428
aVat
p3429
aVonce
p3430
aV.
aa(lp3431
V``
p3432
aVyes
p3433
aV'm
p3434
aV,
aVi
aVsuppose
p3435
aVso
p3436
aV,
aV''
p3437
aVred
p3438
aVsam
p3439
aVsaid
p3440
aVas
p3441
aVif
p3442
aVhe
p3443
aVwere
p3444
aVstruck
p3445
aVwith
p3446
aVthis
p3447
aVanswer
p3448
aV.
aa(lp3449
Vhis
p3450
aVwife
p3451
aVbrought
p3452
aVthe
p3453
aVorders
p3454
aV,
aVcarrying
p3455
aVthe
p3456
aVfive
p3457
aVplates
p3458
aVall
p3459
aVat
p3460
aVonce
p3461
aVwithout
p3462
aVa
aVtray
p3463
aV,
aVtwo
p3464
aVin
p3465
aVeach
p3466
aVhand
p3467
aVand
p3468
aVone
p3469
aVbalanced
p3470
aVon
p3471
aVher
p3472
aVarm
p3473
aV.
aa(lp3474
V``
p3475
aVit
p3476
aVis
p3477
aVn't
p3478
aVa
aVsoul
p3479
aVin
p3480
aVthis
p3481
aVgreen
p3482
aVworld
p3483
aVof
p3484
aVgod
p3485
aV's
p3486
aVthat
p3487
aVyou
p3488
aVcan
p3489
aVtrust
p3490
aV,
aV''
p3491
aVshe
p3492
aVsaid
p3493
aV.
aa(lp3494
V``
p3495
aVand
p3496
aVi
aVdo
p3497
aVn't
p3498
aVcount
p3499
aVnobody
p3500
aVout
p3501
aVof
p3502
aVthat
p3503
aV,
aVnot
p3504
aVnobody
p3505
aV,
aV''
p3506
aVshe
p3507
aVrepeated
p3508
aV,
aVlooking
p3509
aVat
p3510
aVred
p3511
aVsammy
p3512
aV.
aa(lp3513
V``
p3514
aVdid
p3515
aVyou
p3516
aVread
p3517
aVabout
p3518
aVthat
p3519
aVcriminal
p3520
aV,
aVthe
p3521
aVmisfit
p3522
aV,
aVthat
p3523
aV's
p3524
aVescaped
p3525
aV?
aV''
p3526
aa(lp3527
Vasked
p3528
aVthe
p3529
aVgrandmother
p3530
aV.
aa(lp3531
V``
p3532
aVi
aVwould
p3533
aVn't
p3534
aVbe
p3535
aVa
aVbit
p3536
aVsurprised
p3537
aVif
p3538
aVhe
p3539
aVdid
p3540
aVn't
p3541
aVattact
p3542
aVthis
p3543
aVplace
p3544
aVright
p3545
aVhere
p3546
aV,
aV''
p3547
aVsaid
p3548
aVthe
p3549
aVwoman
p3550
aV.
aa(lp3551
V``
p3552
aVif
p3553
aVhe
p3554
aVhears
p3555
aVabout
p3556
aVit
p3557
aVbeing
p3558
aVhere
p3559
aV,
aVi
aVwould
p3560
aVn't
p3561
aVbe
p3562
aVnone
p3563
aVsurprised
p3564
aVto
p3565
aVsee
p3566
aVhim
p3567
aV.
aa(lp3568
Vif
p3569
aVhe
p3570
aVhears
p3571
aVit
p3572
aV's
p3573
aVtwo
p3574
aVcent
p3575
aVin
p3576
aVthe
p3577
aVcash
p3578
aVregister
p3579
aV,
aVi
aVwould
p3580
aVn't
p3581
aVbe
p3582
aVa
aVtall
p3583
aVsurprised
p3584
aVif
p3585
aVhe
p3586
aV.
aa(lp3587
V.
aa(lp3588
V.
aV''
p3589
aa(lp3590
V``
p3591
aVthat
p3592
aV'll
p3593
aVdo
p3594
aV,
aV''
p3595
aVred
p3596
aVsam
p3597
aVsaid
p3598
aV.
aa(lp3599
V``
p3600
aVgo
p3601
aVbring
p3602
aVthese
p3603
aVpeople
p3604
aVtheir
p3605
aVco'-colas
p3606
aV,
aV''
p3607
aVand
p3608
aVthe
p3609
aVwoman
p3610
aVwent
p3611
aVoff
p3612
aVto
p3613
aVget
p3614
aVthe
p3615
aVrest
p3616
aVof
p3617
aVthe
p3618
aVorder
p3619
aV.
aa(lp3620
V``
p3621
aVa
aVgood
p3622
aVman
p3623
aVis
p3624
aVhard
p3625
aVto
p3626
aVfind
p3627
aV,
aV''
p3628
aVred
p3629
aVsammy
p3630
aVsaid
p3631
aV.
aa(lp3632
V``
p3633
aVevery-
p3634
aVthing
p3635
aVis
p3636
aVgetting
p3637
aVterrible
p3638
aV.
aa(lp3639
Vi
aVremember
p3640
aVthe
p3641
aVday
p3642
aVyou
p3643
aVcould
p3644
aVgo
p3645
aVoff
p3646
aVand
p3647
aVleave
p3648
aVyour
p3649
aVscreen
p3650
aVdoor
p3651
aVunlatched
p3652
aV.
aa(lp3653
Vnot
p3654
aVno
p3655
aVmore
p3656
aV.
aV''
p3657
aa(lp3658
Vhe
p3659
aVand
p3660
aVthe
p3661
aVgrandmother
p3662
aVdiscussed
p3663
aVbetter
p3664
aVtimes
p3665
aV.
aa(lp3666
Vthe
p3667
aVold
p3668
aVlady
p3669
aVsaid
p3670
aVthat
p3671
aVin
p3672
aVher
p3673
aVopinion
p3674
aVeurope
p3675
aVwas
p3676
aVentirely
p3677
aVto
p3678
aVblame
p3679
aVfor
p3680
aVthe
p3681
aVway
p3682
aVthings
p3683
aVwere
p3684
aVnow
p3685
aV.
aa(lp3686
Vshe
p3687
aVsaid
p3688
aVthe
p3689
aVway
p3690
aVeurope
p3691
aVacted
p3692
aVyou
p3693
aVwould
p3694
aVthink
p3695
aVwe
p3696
aVwere
p3697
aVmade
p3698
aVof
p3699
aVmoney
p3700
aVand
p3701
aVred
p3702
aVsam
p3703
aVsaid
p3704
aVit
p3705
aVwas
p3706
aVno
p3707
aVuse
p3708
aVtalking
p3709
aVabout
p3710
aVit
p3711
aV,
aVshe
p3712
aVwas
p3713
aVexactly
p3714
aVright
p3715
aV.
aa(lp3716
Vthe
p3717
aVchildren
p3718
aVran
p3719
aVoutside
p3720
aVinto
p3721
aVthe
p3722
aVwhite
p3723
aVsunlight
p3724
aVand
p3725
aVlooked
p3726
aVat
p3727
aVthe
p3728
aVmonkey
p3729
aVin
p3730
aVthe
p3731
aVlacy
p3732
aVchinaberry
p3733
aVtree
p3734
aV.
aa(lp3735
Vhe
p3736
aVwas
p3737
aVbusy
p3738
aVcatching
p3739
aVfleas
p3740
aVon
p3741
aVhimself
p3742
aVand
p3743
aVbiting
p3744
aVeach
p3745
aVone
p3746
aVcarefully
p3747
aVbetween
p3748
aVhis
p3749
aVteeth
p3750
aVas
p3751
aVif
p3752
aVit
p3753
aVwere
p3754
aVa
aVdelicacy
p3755
aV.
aa(lp3756
Vthey
p3757
aVdrove
p3758
aVoff
p3759
aVagain
p3760
aVinto
p3761
aVthe
p3762
aVhot
p3763
aVafternoon
p3764
aV.
aa(lp3765
Vthe
p3766
aVgrand-
p3767
aVmother
p3768
aVtook
p3769
aVcat
p3770
aVnaps
p3771
aVand
p3772
aVwoke
p3773
aVup
p3774
aVevery
p3775
aVfew
p3776
aVminutes
p3777
aVwith
p3778
aVher
p3779
aVown
p3780
aVsnoring
p3781
aV.
aa(lp3782
Voutside
p3783
aVof
p3784
aVtoombsboro
p3785
aVshe
p3786
aVwoke
p3787
aVup
p3788
aVand
p3789
aVrecalled
p3790
aVan
p3791
aVold
p3792
aVplantation
p3793
aVthat
p3794
aVshe
p3795
aVhad
p3796
aVvisited
p3797
aVin
p3798
aVthis
p3799
aVneighborhood
p3800
aVonce
p3801
aVwhen
p3802
aVshe
p3803
aVwas
p3804
aVa
aVyoung
p3805
aVlady
p3806
aV.
aa(lp3807
Vshe
p3808
aVsaid
p3809
aVthe
p3810
aVhouse
p3811
aVhad
p3812
aVsix
p3813
aVwhite
p3814
aVcolumns
p3815
aVacross
p3816
aVthe
p3817
aVfront
p3818
aVand
p3819
aVthat
p3820
aVthere
p3821
aVwas
p3822
aVan
p3823
aVavenue
p3824
aVof
p3825
aVoaks
p3826
aVleading
p3827
aVup
p3828
aVto
p3829
aVit
p3830
aVand
p3831
aVtwo
p3832
aVlittle
p3833
aVwooden
p3834
aVtrellis
p3835
aVa
aVgood
p3836
aVman
p3837
aVis
p3838
aVhard
p3839
aVto
p3840
aVfind
p3841
aV143
p3842
aVarbors
p3843
aVon
p3844
aVeither
p3845
aVside
p3846
aVin
p3847
aVfront
p3848
aVwhere
p3849
aVyou
p3850
aVsat
p3851
aVdown
p3852
aVwith
p3853
aVyour
p3854
aVsuitor
p3855
aVafter
p3856
aVa
aVstroll
p3857
aVin
p3858
aVthe
p3859
aVgarden
p3860
aV.
aa(lp3861
Vshe
p3862
aVrecalled
p3863
aVexactly
p3864
aVwhich
p3865
aVroad
p3866
aVto
p3867
aVturn
p3868
aVoff
p3869
aVto
p3870
aVget
p3871
aVto
p3872
aVit
p3873
aV.
aa(lp3874
Vshe
p3875
aVknew
p3876
aVthat
p3877
aVbailey
p3878
aVwould
p3879
aVnot
p3880
aVbe
p3881
aVwilling
p3882
aVto
p3883
aVlose
p3884
aVany
p3885
aVtime
p3886
aVlooking
p3887
aVat
p3888
aVan
p3889
aVold
p3890
aVhouse
p3891
aV,
aVbut
p3892
aVthe
p3893
aVmore
p3894
aVshe
p3895
aVtalked
p3896
aVabout
p3897
aVit
p3898
aV,
aVthe
p3899
aVmore
p3900
aVshe
p3901
aVwanted
p3902
aVto
p3903
aVsee
p3904
aVit
p3905
aVonce
p3906
aVagain
p3907
aVand
p3908
aVfind
p3909
aVout
p3910
aVif
p3911
aVthe
p3912
aVlittle
p3913
aVtwin
p3914
aVarbors
p3915
aVwere
p3916
aVstill
p3917
aVstanding
p3918
aV.
aa(lp3919
V``
p3920
aVthere
p3921
aVwas
p3922
aVa
aVsecret
p3923
aVpanel
p3924
aVin
p3925
aVthis
p3926
aVhouse
p3927
aV,
aV''
p3928
aVshe
p3929
aVsaid
p3930
aVcraftily
p3931
aV,
aVnot
p3932
aVtelling
p3933
aVthe
p3934
aVtruth
p3935
aVbut
p3936
aVwishing
p3937
aVthat
p3938
aVshe
p3939
aVwere
p3940
aV,
aV``
p3941
aVand
p3942
aVthe
p3943
aVstory
p3944
aVwent
p3945
aVthat
p3946
aVall
p3947
aVthe
p3948
aVfamily
p3949
aVsilver
p3950
aVwas
p3951
aVhidden
p3952
aVin
p3953
aVit
p3954
aVwhen
p3955
aVsherman
p3956
aVcame
p3957
aVthrough
p3958
aVbut
p3959
aVit
p3960
aVwas
p3961
aVnever
p3962
aVfound
p3963
aV.
aa(lp3964
V.
aa(lp3965
V.
aV''
p3966
aa(lp3967
V``
p3968
aVhey
p3969
aV!
aV''
p3970
aa(lp3971
Vjohn
p3972
aVwesley
p3973
aVsaid
p3974
aV.
aa(lp3975
V``
p3976
aVlet
p3977
aV's
p3978
aVgo
p3979
aVsee
p3980
aVit
p3981
aV!
aa(lp3982
Vwe
p3983
aV'll
p3984
aVfind
p3985
aVit
p3986
aV!
aa(lp3987
Vwe
p3988
aV'll
p3989
aVpoke
p3990
aVall
p3991
aVthe
p3992
aVwoodwork
p3993
aVand
p3994
aVfind
p3995
aVit
p3996
aV!
aa(lp3997
Vwho
p3998
aVlives
p3999
aVthere
p4000
aV?
aa(lp4001
Vwhere
p4002
aVdo
p4003
aVyou
p4004
aVturn
p4005
aVoff
p4006
aVat
p4007
aV?
aa(lp4008
Vhey
p4009
aVpop
p4010
aV,
aVca
p4011
aVn't
p4012
aVwe
p4013
aVturn
p4014
aVoff
p4015
aVthere
p4016
aV?
aV''
p4017
aa(lp4018
V``
p4019
aVwe
p4020
aVnever
p4021
aVhave
p4022
aVseen
p4023
aVa
aVhouse
p4024
aVwith
p4025
aVa
aVsecret
p4026
aVpanel
p4027
aV!
aV''
p4028
aa(lp4029
Vjune
p4030
aVstar
p4031
aVshrieked
p4032
aV.
aa(lp4033
V``
p4034
aVlet
p4035
aV's
p4036
aVgo
p4037
aVto
p4038
aVthe
p4039
aVhouse
p4040
aVwith
p4041
aVthe
p4042
aVsecret
p4043
aVpanel
p4044
aV!
aa(lp4045
Vhey
p4046
aVpop
p4047
aV,
aVca
p4048
aVn't
p4049
aVwe
p4050
aVgo
p4051
aVsee
p4052
aVthe
p4053
aVhouse
p4054
aVwith
p4055
aVthe
p4056
aVsecret
p4057
aVpanel
p4058
aV!
aV''
p4059
aa(lp4060
V``
p4061
aVit
p4062
aV's
p4063
aVnot
p4064
aVfar
p4065
aVfrom
p4066
aVhere
p4067
aV,
aVi
aVknow
p4068
aV,
aV''
p4069
aVthe
p4070
aVgrandmother
p4071
aVsaid
p4072
aV.
aa(lp4073
V``
p4074
aVit
p4075
aVwould
p4076
aVn't
p4077
aVtake
p4078
aVover
p4079
aVtwenty
p4080
aVminutes
p4081
aV.
aV''
p4082
aa(lp4083
Vbailey
p4084
aVwas
p4085
aVlooking
p4086
aVstraight
p4087
aVahead
p4088
aV.
aa(lp4089
Vhis
p4090
aVjaw
p4091
aVwas
p4092
aVas
p4093
aVrigid
p4094
aVas
p4095
aVa
aVhorseshoe
p4096
aV.
aa(lp4097
V``
p4098
aVno
p4099
aV,
aV''
p4100
aVhe
p4101
aVsaid
p4102
aV.
aa(lp4103
Vthe
p4104
aVchildren
p4105
aVbegan
p4106
aVto
p4107
aVyell
p4108
aVand
p4109
aVscream
p4110
aVthat
p4111
aVthey
p4112
aVwanted
p4113
aVto
p4114
aVsee
p4115
aVthe
p4116
aVhouse
p4117
aVwith
p4118
aVthe
p4119
aVsecret
p4120
aVpanel
p4121
aV.
aa(lp4122
Vjohn
p4123
aVwesley
p4124
aVkicked
p4125
aVthe
p4126
aVback
p4127
aVof
p4128
aVthe
p4129
aVfront
p4130
aVseat
p4131
aVand
p4132
aVjune
p4133
aVstar
p4134
aVhung
p4135
aVover
p4136
aVher
p4137
aVmother
p4138
aV's
p4139
aVshoulder
p4140
aVand
p4141
aVwhined
p4142
aVdesperately
p4143
aVinto
p4144
aVher
p4145
aVear
p4146
aVthat
p4147
aVthey
p4148
aVnever
p4149
aVhad
p4150
aVany
p4151
aVfun
p4152
aVeven
p4153
aVon
p4154
aVtheir
p4155
aVvacation
p4156
aV,
aVthat
p4157
aVthey
p4158
aVcould
p4159
aVnever
p4160
aVdo
p4161
aVwhat
p4162
aVthey
p4163
aVwanted
p4164
aVto
p4165
aVdo
p4166
aV.
aa(lp4167
Vthe
p4168
aVbaby
p4169
aVbegan
p4170
aVto
p4171
aVscream
p4172
aVand
p4173
aVjohn
p4174
aVwesley
p4175
aVkicked
p4176
aVthe
p4177
aVback
p4178
aVof
p4179
aVthe
p4180
aVseat
p4181
aVso
p4182
aVhard
p4183
aVthat
p4184
aVhis
p4185
aVfather
p4186
aVcould
p4187
aVfeel
p4188
aVthe
p4189
aVblows
p4190
aVin
p4191
aVhis
p4192
aVkidney
p4193
aV.
aa(lp4194
V``
p4195
aVall
p4196
aVright
p4197
aV!
aV''
p4198
aa(lp4199
Vhe
p4200
aVshouted
p4201
aVand
p4202
aVdrew
p4203
aVthe
p4204
aVcar
p4205
aVto
p4206
aVa
aVstop
p4207
aVat
p4208
aVthe
p4209
aVside
p4210
aVof
p4211
aVthe
p4212
aVroad
p4213
aV.
aa(lp4214
V``
p4215
aVwill
p4216
aVyou
p4217
aVall
p4218
aVshut
p4219
aVup
p4220
aV?
aa(lp4221
Vwill
p4222
aVyou
p4223
aVall
p4224
aVjust
p4225
aVshut
p4226
aVup
p4227
aVfor
p4228
aVone
p4229
aVsecond
p4230
aV?
aa(lp4231
Vif
p4232
aVyou
p4233
aVdo
p4234
aVn't
p4235
aVshut
p4236
aVup
p4237
aV,
aVwe
p4238
aVwo
p4239
aVn't
p4240
aVgo
p4241
aVanywhere
p4242
aV.
aa(lp4243
V``
p4244
aVit
p4245
aVwould
p4246
aVbe
p4247
aVvery
p4248
aVeducational
p4249
aVfor
p4250
aVthem
p4251
aV,
aV''
p4252
aVthe
p4253
aVgrandmother
p4254
aVmurmured
p4255
aV.
aa(lp4256
V``
p4257
aVall
p4258
aVright
p4259
aV,
aV''
p4260
aVbailey
p4261
aVsaid
p4262
aV,
aV``
p4263
aVbut
p4264
aVget
p4265
aVthis
p4266
aV:
aVthis
p4267
aVis
p4268
aVthe
p4269
aVonly
p4270
aVtime
p4271
aVwe
p4272
aV're
p4273
aVgoing
p4274
aVto
p4275
aVstop
p4276
aVfor
p4277
aVanything
p4278
aVlike
p4279
aVthis
p4280
aV.
aa(lp4281
Vthis
p4282
aVis
p4283
aVthe
p4284
aVone
p4285
aVand
p4286
aVonly
p4287
aVtime
p4288
aV.
aV''
p4289
aa(lp4290
V``
p4291
aVthe
p4292
aVdirt
p4293
aVroad
p4294
aVthat
p4295
aVyou
p4296
aVhave
p4297
aVto
p4298
aVturn
p4299
aVdown
p4300
aVis
p4301
aVabout
p4302
aVa
aVmile
p4303
aVback
p4304
aV,
aV''
p4305
aVthe
p4306
aVgrandmother
p4307
aVdirected
p4308
aV.
aa(lp4309
V``
p4310
aVi
aVmarked
p4311
aVit
p4312
aVwhen
p4313
aVwe
p4314
aVpassed
p4315
aV.
aV''
p4316
aa(lp4317
V144
p4318
aVa
aVgood
p4319
aVman
p4320
aVis
p4321
aVhard
p4322
aVto
p4323
aVfind
p4324
aV''
p4325
aVa
aVdirt
p4326
aVroad
p4327
aV,
aV''
p4328
aVbailey
p4329
aVgroaned
p4330
aV.
aa(lp4331
Vafter
p4332
aVthey
p4333
aVhad
p4334
aVturned
p4335
aVaround
p4336
aVand
p4337
aVwere
p4338
aVheaded
p4339
aVtoward
p4340
aVthe
p4341
aVdirt
p4342
aVroad
p4343
aV,
aVthe
p4344
aVgrandmother
p4345
aVrecalled
p4346
aVother
p4347
aVpoints
p4348
aVabout
p4349
aVthe
p4350
aVhouse
p4351
aV,
aVthe
p4352
aVbeautiful
p4353
aVglass
p4354
aVover
p4355
aVthe
p4356
aVfront
p4357
aVdoorway
p4358
aVand
p4359
aVthe
p4360
aVcandle-lamp
p4361
aVin
p4362
aVthe
p4363
aVhall
p4364
aV.
aa(lp4365
Vjohn
p4366
aVwesley
p4367
aVsaid
p4368
aVthat
p4369
aVthe
p4370
aVsecret
p4371
aVpanel
p4372
aVwas
p4373
aVprobably
p4374
aVin
p4375
aVthe
p4376
aVfireplace
p4377
aV.
aa(lp4378
V``
p4379
aVyou
p4380
aVca
p4381
aVn't
p4382
aVgo
p4383
aVinside
p4384
aVthis
p4385
aVhouse
p4386
aV,
aV''
p4387
aVbailey
p4388
aVsaid
p4389
aV.
aa(lp4390
V``
p4391
aVyou
p4392
aVdo
p4393
aVn't
p4394
aVknow
p4395
aVwho
p4396
aVlives
p4397
aVthere
p4398
aV.
aV''
p4399
aa(lp4400
V``
p4401
aVwhile
p4402
aVyou
p4403
aVall
p4404
aVtalk
p4405
aVto
p4406
aVthe
p4407
aVpeople
p4408
aVin
p4409
aVfront
p4410
aV,
aVi
aV'll
p4411
aVrun
p4412
aVaround
p4413
aVbehind
p4414
aVand
p4415
aVget
p4416
aVin
p4417
aVa
aVwindow
p4418
aV,
aV''
p4419
aVjohn
p4420
aVwesley
p4421
aVsuggested
p4422
aV.
aa(lp4423
V``
p4424
aVwe
p4425
aV'll
p4426
aVall
p4427
aVstay
p4428
aVin
p4429
aVthe
p4430
aVcar
p4431
aV,
aV''
p4432
aVhis
p4433
aVmother
p4434
aVsaid
p4435
aV.
aa(lp4436
Vthey
p4437
aVturned
p4438
aVonto
p4439
aVthe
p4440
aVdirt
p4441
aVroad
p4442
aVand
p4443
aVthe
p4444
aVcar
p4445
aVraced
p4446
aVroughly
p4447
aValong
p4448
aVin
p4449
aVa
aVswirl
p4450
aVof
p4451
aVpink
p4452
aVdust
p4453
aV.
aa(lp4454
Vthe
p4455
aVgrandmother
p4456
aVrecalled
p4457
aVthe
p4458
aVtimes
p4459
aVwhen
p4460
aVthere
p4461
aVwere
p4462
aVno
p4463
aVpaved
p4464
aVroads
p4465
aVand
p4466
aVthirty
p4467
aVmiles
p4468
aVwas
p4469
aVa
aVday
p4470
aV's
p4471
aVjourney
p4472
aV.
aa(lp4473
Vthe
p4474
aVdirt
p4475
aVroad
p4476
aVwas
p4477
aVhilly
p4478
aVand
p4479
aVthere
p4480
aVwere
p4481
aVsudden
p4482
aVwashes
p4483
aVin
p4484
aVit
p4485
aVand
p4486
aVsharp
p4487
aVcurves
p4488
aVon
p4489
aVdangerous
p4490
aVembankments
p4491
aV.
aa(lp4492
Vall
p4493
aVat
p4494
aVonce
p4495
aVthey
p4496
aVwould
p4497
aVbe
p4498
aVon
p4499
aVa
aVhill
p4500
aV,
aVlooking
p4501
aVdown
p4502
aVover
p4503
aVthe
p4504
aVblue
p4505
aVtops
p4506
aVof
p4507
aVtrees
p4508
aVfor
p4509
aVmiles
p4510
aVaround
p4511
aV,
aVthen
p4512
aVthe
p4513
aVnext
p4514
aVminute
p4515
aV,
aVthey
p4516
aVwould
p4517
aVbe
p4518
aVin
p4519
aVa
aVred
p4520
aVdepression
p4521
aVwith
p4522
aVthe
p4523
aVdust-coated
p4524
aVtrees
p4525
aVlooking
p4526
aVdown
p4527
aVon
p4528
aVthem
p4529
aV.
aa(lp4530
V``
p4531
aVthis
p4532
aVplace
p4533
aVhad
p4534
aVbetter
p4535
aVturn
p4536
aVup
p4537
aVin
p4538
aVa
aVminute
p4539
aV,
aV''
p4540
aVbailey
p4541
aVsaid
p4542
aV,
aV``
p4543
aVor
p4544
aVi
aV'm
p4545
aVgoing
p4546
aVto
p4547
aVturn
p4548
aVaround
p4549
aV.
aV''
p4550
aa(lp4551
Vthe
p4552
aVroad
p4553
aVlooked
p4554
aVas
p4555
aVif
p4556
aVno
p4557
aVone
p4558
aVhad
p4559
aVtraveled
p4560
aVon
p4561
aVit
p4562
aVin
p4563
aVmonths
p4564
aV.
aa(lp4565
V``
p4566
aVit
p4567
aV's
p4568
aVnot
p4569
aVmuch
p4570
aVfarther
p4571
aV,
aV''
p4572
aVthe
p4573
aVgrandmother
p4574
aVsaid
p4575
aVand
p4576
aVjust
p4577
aVas
p4578
aVshe
p4579
aVsaid
p4580
aVit
p4581
aV,
aVa
aVhorrible
p4582
aVthought
p4583
aVcame
p4584
aVto
p4585
aVher
p4586
aV.
aa(lp4587
Vthe
p4588
aVthought
p4589
aVwas
p4590
aVso
p4591
aVembarrassing
p4592
aVthat
p4593
aVshe
p4594
aVturned
p4595
aVred
p4596
aVin
p4597
aVthe
p4598
aVface
p4599
aVand
p4600
aVher
p4601
aVeyes
p4602
aVdilated
p4603
aVand
p4604
aVher
p4605
aVfeet
p4606
aVjumped
p4607
aVup
p4608
aV,
aVupsetting
p4609
aVher
p4610
aVvalise
p4611
aVin
p4612
aVthe
p4613
aVcorner
p4614
aV.
aa(lp4615
Vthe
p4616
aVinstant
p4617
aVthe
p4618
aVvalise
p4619
aVmoved
p4620
aV,
aVthe
p4621
aVnewspaper
p4622
aVtop
p4623
aVshe
p4624
aVhad
p4625
aVover
p4626
aVthe
p4627
aVbasket
p4628
aVunder
p4629
aVit
p4630
aVrose
p4631
aVwith
p4632
aVa
aVsnarl
p4633
aVand
p4634
aVpitty
p4635
aVsing
p4636
aV,
aVthe
p4637
aVcat
p4638
aV,
aVsprang
p4639
aVonto
p4640
aVbailey
p4641
aV's
p4642
aVshoulder
p4643
aV.
aa(lp4644
Vthe
p4645
aVchildren
p4646
aVwere
p4647
aVthrown
p4648
aVto
p4649
aVthe
p4650
aVfloor
p4651
aVand
p4652
aVtheir
p4653
aVmother
p4654
aV,
aVclutching
p4655
aVthe
p4656
aVbaby
p4657
aV,
aVwas
p4658
aVthrown
p4659
aVout
p4660
aVthe
p4661
aVdoor
p4662
aVonto
p4663
aVthe
p4664
aVground
p4665
aV;
aVthe
p4666
aVold
p4667
aVlady
p4668
aVwas
p4669
aVthrown
p4670
aVinto
p4671
aVthe
p4672
aVfront
p4673
aVseat
p4674
aV.
aa(lp4675
Vthe
p4676
aVcar
p4677
aVturned
p4678
aVover
p4679
aVonce
p4680
aVand
p4681
aVlanded
p4682
aVright-side-up
p4683
aVin
p4684
aVa
aVgulch
p4685
aVoff
p4686
aVthe
p4687
aVside
p4688
aVof
p4689
aVthe
p4690
aVroad
p4691
aV.
aa(lp4692
Vbailey
p4693
aVremained
p4694
aVin
p4695
aVthe
p4696
aVdriver
p4697
aV's
p4698
aVseat
p4699
aVwith
p4700
aVthe
p4701
aVcat-gray-striped
p4702
aVwith
p4703
aVa
aVbroad
p4704
aVwhite
p4705
aVface
p4706
aVand
p4707
aVan
p4708
aVorange
p4709
aVnose-clinging
p4710
aVto
p4711
aVhis
p4712
aVneck
p4713
aVlike
p4714
aVa
aVcaterpillar
p4715
aV.
aa(lp4716
Vas
p4717
aVsoon
p4718
aVas
p4719
aVthe
p4720
aVchildren
p4721
aVsaw
p4722
aVthey
p4723
aVcould
p4724
aVmove
p4725
aVtheir
p4726
aVarms
p4727
aVand
p4728
aVlegs
p4729
aV,
aVthey
p4730
aVscrambled
p4731
aVout
p4732
aVof
p4733
aVthe
p4734
aVcar
p4735
aV,
aVshouting
p4736
aV,
aV``
p4737
aVwe
p4738
aV've
p4739
aVhad
p4740
aVan
p4741
aVaccident
p4742
aV!
aV''
p4743
aa(lp4744
Vthe
p4745
aVgrandmother
p4746
aVwas
p4747
aVcurled
p4748
aVup
p4749
aVunder
p4750
aVthe
p4751
aVa
aVgood
p4752
aVman
p4753
aVis
p4754
aVhard
p4755
aVto
p4756
aVfind
p4757
aV145
p4758
aVdashboard
p4759
aV,
aVhoping
p4760
aVshe
p4761
aVwas
p4762
aVinjured
p4763
aVso
p4764
aVthat
p4765
aVbailey
p4766
aV's
p4767
aVwrath
p4768
aVwould
p4769
aVnot
p4770
aVcome
p4771
aVdown
p4772
aVon
p4773
aVher
p4774
aVall
p4775
aVat
p4776
aVonce
p4777
aV.
aa(lp4778
Vthe
p4779
aVhorrible
p4780
aVthought
p4781
aVshe
p4782
aVhad
p4783
aVhad
p4784
aVbefore
p4785
aVthe
p4786
aVaccident
p4787
aVwas
p4788
aVthat
p4789
aVthe
p4790
aVhouse
p4791
aVshe
p4792
aVhad
p4793
aVremembered
p4794
aVso
p4795
aVvividly
p4796
aVwas
p4797
aVnot
p4798
aVin
p4799
aVgeorgia
p4800
aVbut
p4801
aVin
p4802
aVtennessee
p4803
aV.
aa(lp4804
Vbailey
p4805
aVremoved
p4806
aVthe
p4807
aVcat
p4808
aVfrom
p4809
aVhis
p4810
aVneck
p4811
aVwith
p4812
aVboth
p4813
aVhands
p4814
aVand
p4815
aVflung
p4816
aVit
p4817
aVout
p4818
aVthe
p4819
aVwindow
p4820
aVagainst
p4821
aVthe
p4822
aVside
p4823
aVof
p4824
aVa
aVpine
p4825
aVtree
p4826
aV.
aa(lp4827
Vthen
p4828
aVhe
p4829
aVgot
p4830
aVout
p4831
aVof
p4832
aVthe
p4833
aVcar
p4834
aVand
p4835
aVstarted
p4836
aVlooking
p4837
aVfor
p4838
aVthe
p4839
aVchildren
p4840
aV's
p4841
aVmother
p4842
aV.
aa(lp4843
Vshe
p4844
aVwas
p4845
aVsitting
p4846
aVagainst
p4847
aVthe
p4848
aVside
p4849
aVof
p4850
aVthe
p4851
aVred
p4852
aVgutted
p4853
aVditch
p4854
aV,
aVholding
p4855
aVthe
p4856
aVscreaming
p4857
aVbaby
p4858
aV,
aVbut
p4859
aVshe
p4860
aVonly
p4861
aVhad
p4862
aVa
aVcut
p4863
aVdown
p4864
aVher
p4865
aVface
p4866
aVand
p4867
aVa
aVbroken
p4868
aVshoulder
p4869
aV.
aa(lp4870
V``
p4871
aVwe
p4872
aV've
p4873
aVhad
p4874
aVan
p4875
aVaccident
p4876
aV!
aV''
p4877
aa(lp4878
Vthe
p4879
aVchildren
p4880
aVscreamed
p4881
aVin
p4882
aVa
aVfrenzy
p4883
aVof
p4884
aVdelight
p4885
aV.
aa(lp4886
V``
p4887
aVbut
p4888
aVnobody
p4889
aV's
p4890
aVkilled
p4891
aV,
aV''
p4892
aVjune
p4893
aVstar
p4894
aVsaid
p4895
aVwith
p4896
aVdisappointment
p4897
aVas
p4898
aVthe
p4899
aVgrandmother
p4900
aVlimped
p4901
aVout
p4902
aVof
p4903
aVthe
p4904
aVcar
p4905
aV,
aVher
p4906
aVhat
p4907
aVstill
p4908
aVpinned
p4909
aVto
p4910
aVher
p4911
aVhead
p4912
aVbut
p4913
aVthe
p4914
aVbroken
p4915
aVfront
p4916
aVbrim
p4917
aVstanding
p4918
aVup
p4919
aVat
p4920
aVa
aVjaunty
p4921
aVangle
p4922
aVand
p4923
aVthe
p4924
aVviolet
p4925
aVspray
p4926
aVhanging
p4927
aVoff
p4928
aVthe
p4929
aVside
p4930
aV.
aa(lp4931
Vthey
p4932
aVall
p4933
aVsat
p4934
aVdown
p4935
aVin
p4936
aVthe
p4937
aVditch
p4938
aV,
aVexcept
p4939
aVthe
p4940
aVchildren
p4941
aV,
aVto
p4942
aVrecover
p4943
aVfrom
p4944
aVthe
p4945
aVshock
p4946
aV.
aa(lp4947
Vthey
p4948
aVwere
p4949
aVall
p4950
aVshaking
p4951
aV.
aa(lp4952
V``
p4953
aVmaybe
p4954
aVa
aVcar
p4955
aVwill
p4956
aVcome
p4957
aValong
p4958
aV,
aV''
p4959
aVsaid
p4960
aVthe
p4961
aVchildren
p4962
aV's
p4963
aVmother
p4964
aVhoarsely
p4965
aV.
aa(lp4966
V``
p4967
aVi
aVbelieve
p4968
aVi
aVhave
p4969
aVinjured
p4970
aVan
p4971
aVorgan
p4972
aV,
aV''
p4973
aVsaid
p4974
aVthe
p4975
aVgrandmother
p4976
aV,
aVpressing
p4977
aVher
p4978
aVside
p4979
aV,
aVbut
p4980
aVno
p4981
aVone
p4982
aVanswered
p4983
aVher
p4984
aV.
aa(lp4985
Vbailey
p4986
aV's
p4987
aVteeth
p4988
aVwere
p4989
aVclattering
p4990
aV.
aa(lp4991
Vhe
p4992
aVhad
p4993
aVon
p4994
aVa
aVyellow
p4995
aVsport
p4996
aVshirt
p4997
aVwith
p4998
aVbright
p4999
aVblue
p5000
aVparrots
p5001
aVdesigned
p5002
aVin
p5003
aVit
p5004
aVand
p5005
aVhis
p5006
aVface
p5007
aVwas
p5008
aVas
p5009
aVyellow
p5010
aVas
p5011
aVthe
p5012
aVl
aVshirt
p5013
aV.
aa(lp5014
Vthe
p5015
aVgrandmother
p5016
aVdecided
p5017
aVthat
p5018
aVshe
p5019
aVwould
p5020
aVnot
p5021
aVmention
p5022
aVthat
p5023
aVthe
p5024
aVhouse
p5025
aVwas
p5026
aVin
p5027
aVtennessee
p5028
aV.
aa(lp5029
Vthe
p5030
aVroad
p5031
aVwas
p5032
aVabout
p5033
aVten
p5034
aVfeet
p5035
aVabove
p5036
aVand
p5037
aVthey
p5038
aVcould
p5039
aVsee
p5040
aVonly
p5041
aVthe
p5042
aVtops
p5043
aVof
p5044
aVthe
p5045
aVtrees
p5046
aVon
p5047
aVthe
p5048
aVother
p5049
aVside
p5050
aVof
p5051
aVit
p5052
aV.
aa(lp5053
Vbehind
p5054
aVthe
p5055
aVditch
p5056
aVthey
p5057
aVwere
p5058
aVsitting
p5059
aVin
p5060
aVthere
p5061
aVwere
p5062
aVmore
p5063
aVwoods
p5064
aV,
aVtall
p5065
aVand
p5066
aVdark
p5067
aVand
p5068
aVdeep
p5069
aV.
aa(lp5070
Vin
p5071
aVa
aVfew
p5072
aVminutes
p5073
aVthey
p5074
aVsaw
p5075
aVa
aVcar
p5076
aVsome
p5077
aVdistance
p5078
aVaway
p5079
aVon
p5080
aVtop
p5081
aVof
p5082
aVa
aVhill
p5083
aV,
aVcoming
p5084
aVslowly
p5085
aVas
p5086
aVif
p5087
aVthe
p5088
aVoccupants
p5089
aVwere
p5090
aVwatching
p5091
aVthem
p5092
aV.
aa(lp5093
Vthe
p5094
aVgrandmother
p5095
aVstood
p5096
aVup
p5097
aVand
p5098
aVwaved
p5099
aVboth
p5100
aVarms
p5101
aVdramatically
p5102
aVto
p5103
aVattract
p5104
aVtheir
p5105
aVattention
p5106
aV.
aa(lp5107
Vthe
p5108
aVcar
p5109
aVcontinued
p5110
aVto
p5111
aVcome
p5112
aVon
p5113
aVslowly
p5114
aV,
aVdisappeared
p5115
aVaround
p5116
aVa
aVbend
p5117
aVand
p5118
aVappeared
p5119
aVagain
p5120
aV,
aVmoving
p5121
aVeven
p5122
aVslower
p5123
aV,
aVon
p5124
aVtop
p5125
aVof
p5126
aVthe
p5127
aVhill
p5128
aVthey
p5129
aVhad
p5130
aVgone
p5131
aVover
p5132
aV.
aa(lp5133
Vit
p5134
aVwas
p5135
aVa
aVbig
p5136
aVblack
p5137
aVbattered
p5138
aVhearse-like
p5139
aVautomobile
p5140
aV.
aa(lp5141
Vthere
p5142
aVwere
p5143
aVthree
p5144
aVmen
p5145
aVin
p5146
aVit
p5147
aV.
aa(lp5148
Vit
p5149
aVcame
p5150
aVto
p5151
aVa
aVstop
p5152
aVjust
p5153
aVover
p5154
aVthem
p5155
aVand
p5156
aVfor
p5157
aVsome
p5158
aVminutes
p5159
aV,
aVthe
p5160
aVdriver
p5161
aVlooked
p5162
aVdown
p5163
aVwith
p5164
aVa
aVsteady
p5165
aVexpressionless
p5166
aVgaze
p5167
aVto
p5168
aVwhere
p5169
aVthey
p5170
aVwere
p5171
aVsitting
p5172
aV,
aVand
p5173
aVdid
p5174
aVn't
p5175
aVspeak
p5176
aV.
aa(lp5177
Vthen
p5178
aVhe
p5179
aVturned
p5180
aVhis
p5181
aV146
p5182
aVa
aVgood
p5183
aVman
p5184
aVis
p5185
aVhard
p5186
aVto
p5187
aVfind
p5188
aVhead
p5189
aVand
p5190
aVmuttered
p5191
aVsomething
p5192
aVto
p5193
aVthe
p5194
aVother
p5195
aVtwo
p5196
aVand
p5197
aVthey
p5198
aVgot
p5199
aVout
p5200
aV.
aa(lp5201
Vone
p5202
aVwas
p5203
aVa
aVfat
p5204
aVboy
p5205
aVin
p5206
aVblack
p5207
aVtrousers
p5208
aVand
p5209
aVa
aVred
p5210
aVsweat
p5211
aVshirt
p5212
aVwith
p5213
aVa
aVsilver
p5214
aVstallion
p5215
aVembossed
p5216
aVon
p5217
aVthe
p5218
aVfront
p5219
aVof
p5220
aVit
p5221
aV.
aa(lp5222
Vhe
p5223
aVmoved
p5224
aVaround
p5225
aVon
p5226
aVthe
p5227
aVright
p5228
aVside
p5229
aVof
p5230
aVthem
p5231
aVand
p5232
aVstood
p5233
aVstaring
p5234
aV,
aVhis
p5235
aVmouth
p5236
aVpartly
p5237
aVopen
p5238
aVin
p5239
aVa
aVkind
p5240
aVof
p5241
aVloose
p5242
aVgrin
p5243
aV.
aa(lp5244
Vthe
p5245
aVother
p5246
aVhad
p5247
aVon
p5248
aVkhaki
p5249
aVpants
p5250
aVand
p5251
aVa
aVblue
p5252
aVstriped
p5253
aVcoat
p5254
aVand
p5255
aVa
aVgray
p5256
aVhat
p5257
aVpulled
p5258
aVdown
p5259
aVvery
p5260
aVlow
p5261
aV,
aVhiding
p5262
aVmost
p5263
aVof
p5264
aVhis
p5265
aVface
p5266
aV.
aa(lp5267
Vhe
p5268
aVcame
p5269
aVaround
p5270
aVslowly
p5271
aVon
p5272
aVthe
p5273
aVleft
p5274
aVside
p5275
aV.
aa(lp5276
Vneither
p5277
aVspoke
p5278
aV.
aa(lp5279
Vthe
p5280
aVdriver
p5281
aVgot
p5282
aVout
p5283
aVof
p5284
aVthe
p5285
aVcar
p5286
aVand
p5287
aVstood
p5288
aVby
p5289
aVthe
p5290
aVside
p5291
aVof
p5292
aVit
p5293
aV,
aVlooking
p5294
aVdown
p5295
aVat
p5296
aVthem
p5297
aV.
aa(lp5298
Vhe
p5299
aVwas
p5300
aVan
p5301
aVolder
p5302
aVman
p5303
aVthan
p5304
aVthe
p5305
aVother
p5306
aVtwo
p5307
aV.
aa(lp5308
Vhis
p5309
aVhair
p5310
aVwas
p5311
aVjust
p5312
aVbeginning
p5313
aVto
p5314
aVgray
p5315
aVand
p5316
aVhe
p5317
aVwore
p5318
aVsilver-
p5319
aVrimmed
p5320
aVspectacles
p5321
aVthat
p5322
aVgave
p5323
aVhim
p5324
aVa
aVscholarly
p5325
aVlook
p5326
aV.
aa(lp5327
Vhe
p5328
aVhad
p5329
aVa
aVlong
p5330
aVcreased
p5331
aVface
p5332
aVand
p5333
aVdid
p5334
aVn't
p5335
aVhave
p5336
aVon
p5337
aVany
p5338
aVshirt
p5339
aVor
p5340
aVundershirt
p5341
aV.
aa(lp5342
Vhe
p5343
aVhad
p5344
aVon
p5345
aVblue
p5346
aVjeans
p5347
aVthat
p5348
aVwere
p5349
aVtoo
p5350
aVtight
p5351
aVfor
p5352
aVhim
p5353
aVand
p5354
aVwas
p5355
aVholding
p5356
aVa
aVblack
p5357
aVhat
p5358
aVand
p5359
aVa
aVgun
p5360
aV.
aa(lp5361
Vthe
p5362
aVtwo
p5363
aVboys
p5364
aValso
p5365
aVhad
p5366
aVguns
p5367
aV.
aa(lp5368
V``
p5369
aVwe
p5370
aV've
p5371
aVhad
p5372
aVan
p5373
aVaccident
p5374
aV!
aV''
p5375
aa(lp5376
Vthe
p5377
aVchildren
p5378
aVscreamed
p5379
aV.
aa(lp5380
Vthe
p5381
aVgrandmother
p5382
aVhad
p5383
aVthe
p5384
aVpeculiar
p5385
aVfeeling
p5386
aVthat
p5387
aVthe
p5388
aVbespectacled
p5389
aVman
p5390
aVwas
p5391
aVsomeone
p5392
aVshe
p5393
aVknew
p5394
aV.
aa(lp5395
Vhis
p5396
aVface
p5397
aVwas
p5398
aVas
p5399
aVfamiliar
p5400
aVto
p5401
aVher
p5402
aVas
p5403
aVif
p5404
aVshe
p5405
aVhad
p5406
aVknown
p5407
aVhim
p5408
aVau
p5409
aVher
p5410
aVlife
p5411
aVbut
p5412
aVshe
p5413
aVcould
p5414
aVnot
p5415
aVrecall
p5416
aVwho
p5417
aVhe
p5418
aVwas
p5419
aV.
aa(lp5420
Vhe
p5421
aVmoved
p5422
aVaway
p5423
aVfrom
p5424
aVthe
p5425
aVcar
p5426
aVand
p5427
aVbegan
p5428
aVto
p5429
aVcome
p5430
aVdown
p5431
aVthe
p5432
aVembankment
p5433
aV,
aVplacing
p5434
aVhis
p5435
aVfeet
p5436
aVcarefully
p5437
aVso
p5438
aVthat
p5439
aVhe
p5440
aVwould
p5441
aVn't
p5442
aVslip
p5443
aV.
aa(lp5444
Vhe
p5445
aVhad
p5446
aVon
p5447
aVtan
p5448
aVand
p5449
aVwhite
p5450
aVshoes
p5451
aVand
p5452
aVno
p5453
aVsocks
p5454
aV,
aVand
p5455
aVhis
p5456
aVankles
p5457
aVwere
p5458
aVred
p5459
aVand
p5460
aVthin
p5461
aV.
aa(lp5462
V``
p5463
aVgood
p5464
aVafternoon
p5465
aV,
aV''
p5466
aVhe
p5467
aVsaid
p5468
aV.
aa(lp5469
V``
p5470
aVi
aVsee
p5471
aVyou
p5472
aVall
p5473
aVhad
p5474
aVyou
p5475
aVa
aVlittle
p5476
aVspill
p5477
aV.
aV''
p5478
aa(lp5479
V``
p5480
aVwe
p5481
aVturned
p5482
aVover
p5483
aVtwice
p5484
aV!
aV''
p5485
aa(lp5486
Vsaid
p5487
aVthe
p5488
aVgrandmother
p5489
aV.
aa(lp5490
V``
p5491
aVonce
p5492
aV''
p5493
aV,
aV''
p5494
aVhe
p5495
aVcorrected
p5496
aV.
aa(lp5497
V``
p5498
aVwe
p5499
aVseen
p5500
aVit
p5501
aVhappen
p5502
aV.
aa(lp5503
Vtry
p5504
aVtheir
p5505
aVcar
p5506
aVand
p5507
aVsee
p5508
aVwill
p5509
aVit
p5510
aVrun
p5511
aV,
aVhiram
p5512
aV,
aV''
p5513
aVhe
p5514
aVsaid
p5515
aVquietly
p5516
aVto
p5517
aVthe
p5518
aVboy
p5519
aVwith
p5520
aVthe
p5521
aVgray
p5522
aVhat
p5523
aV.
aa(lp5524
V``
p5525
aVwhat
p5526
aVyou
p5527
aVgot
p5528
aVthat
p5529
aVgun
p5530
aVfor
p5531
aV?
aV''
p5532
aa(lp5533
Vjohn
p5534
aVwesley
p5535
aVasked
p5536
aV.
aa(lp5537
V``
p5538
aVwhatcha
p5539
aVgon
p5540
aVna
p5541
aVdo
p5542
aVwith
p5543
aVthat
p5544
aVgun
p5545
aV?
aV''
p5546
aa(lp5547
V``
p5548
aVlady
p5549
aV,
aV''
p5550
aVthe
p5551
aVman
p5552
aVsaid
p5553
aVto
p5554
aVthe
p5555
aVchildren
p5556
aV's
p5557
aVmother
p5558
aV,
aV``
p5559
aVwould
p5560
aVyou
p5561
aVmind
p5562
aVcalling
p5563
aVthem
p5564
aVchildren
p5565
aVto
p5566
aVsit
p5567
aVdown
p5568
aVby
p5569
aVyou
p5570
aV?
aa(lp5571
Vchildren
p5572
aVmake
p5573
aVme
p5574
aVnervous
p5575
aV.
aa(lp5576
Vi
aVwant
p5577
aVall
p5578
aVyou
p5579
aVall
p5580
aVto
p5581
aVsit
p5582
aVdown
p5583
aVright
p5584
aVtogether
p5585
aVthere
p5586
aVwhere
p5587
aVyou
p5588
aV're
p5589
aVat
p5590
aV.
aV''
p5591
aa(lp5592
V``
p5593
aVwhat
p5594
aVare
p5595
aVyou
p5596
aVtelling
p5597
aVus
p5598
aVwhat
p5599
aVto
p5600
aVdo
p5601
aVfor
p5602
aV?
aV''
p5603
aa(lp5604
Vjune
p5605
aVstar
p5606
aVasked
p5607
aV.
aa(lp5608
Vbehind
p5609
aVthem
p5610
aVthe
p5611
aVline
p5612
aVof
p5613
aVwoods
p5614
aVgaped
p5615
aVlike
p5616
aVa
aVdark
p5617
aVopen
p5618
aVmouth
p5619
aV.
aa(lp5620
V``
p5621
aVcome
p5622
aVhere
p5623
aV,
aV''
p5624
aVsaid
p5625
aVtheir
p5626
aVmother
p5627
aV.
aa(lp5628
V``
p5629
aVlook
p5630
aVhere
p5631
aVnow
p5632
aV,
aV''
p5633
aVbailey
p5634
aVbegan
p5635
aVsuddenly
p5636
aV,
aV``
p5637
aVwe
p5638
aV're
p5639
aVin
p5640
aVa
aVpredicament
p5641
aV!
aa(lp5642
Vwe
p5643
aV're
p5644
aVin
p5645
aV.
aa(lp5646
V.
aa(lp5647
V.
aV''
p5648
aa(lp5649
Va
aVgood
p5650
aVman
p5651
aVis
p5652
aVhard
p5653
aVto
p5654
aVfind
p5655
aV147
p5656
aVthe
p5657
aVgrandmother
p5658
aVshrieked
p5659
aV.
aa(lp5660
Vshe
p5661
aVscrambled
p5662
aVto
p5663
aVher
p5664
aVfeet
p5665
aVand
p5666
aVstood
p5667
aVstaring
p5668
aV.
aa(lp5669
V``
p5670
aVyou
p5671
aV're
p5672
aVthe
p5673
aVmisfit
p5674
aV!
aV''
p5675
aa(lp5676
Vshe
p5677
aVsaid
p5678
aV.
aa(lp5679
V``
p5680
aVi
aVrecognized
p5681
aVyou
p5682
aVat
p5683
aVonce
p5684
aV!
aV''
p5685
aa(lp5686
V``
p5687
aVyes
p5688
aV'm
p5689
aV,
aV''
p5690
aVthe
p5691
aVman
p5692
aVsaid
p5693
aV,
aVsmiling
p5694
aVslightly
p5695
aVas
p5696
aVif
p5697
aVhe
p5698
aVwere
p5699
aVpleased
p5700
aVin
p5701
aVspite
p5702
aVof
p5703
aVhimself
p5704
aVto
p5705
aVbe
p5706
aVknown
p5707
aV,
aV``
p5708
aVbut
p5709
aVit
p5710
aVwould
p5711
aVhave
p5712
aVbeen
p5713
aVbetter
p5714
aVfor
p5715
aVall
p5716
aVof
p5717
aVyou
p5718
aV,
aVlady
p5719
aV,
aVif
p5720
aVyou
p5721
aVhad
p5722
aVn't
p5723
aVof
p5724
aVreckernized
p5725
aVme
p5726
aV.
aV''
p5727
aa(lp5728
Vbailey
p5729
aVturned
p5730
aVhis
p5731
aVhead
p5732
aVsharply
p5733
aVand
p5734
aVsaid
p5735
aVsomething
p5736
aVto
p5737
aVhis
p5738
aVmother
p5739
aVthat
p5740
aVshocked
p5741
aVeven
p5742
aVthe
p5743
aVchildren
p5744
aV.
aa(lp5745
Vthe
p5746
aVold
p5747
aVlady
p5748
aVbegan
p5749
aVto
p5750
aVcry
p5751
aVand
p5752
aVthe
p5753
aVmisfit
p5754
aVreddened
p5755
aV.
aa(lp5756
V``
p5757
aVlady
p5758
aV,
aV''
p5759
aVhe
p5760
aVsaid
p5761
aV,
aV``
p5762
aVdo
p5763
aVn't
p5764
aVyou
p5765
aVget
p5766
aVupset
p5767
aV.
aa(lp5768
Vsometimes
p5769
aVa
aVman
p5770
aVsays
p5771
aVthings
p5772
aVhe
p5773
aVdo
p5774
aVn't
p5775
aVmean
p5776
aV.
aa(lp5777
Vi
aVdo
p5778
aVn't
p5779
aVreckon
p5780
aVhe
p5781
aVmeant
p5782
aVto
p5783
aVtalk
p5784
aVto
p5785
aVyou
p5786
aVthataway
p5787
aV.
aV''
p5788
aa(lp5789
V``
p5790
aVyou
p5791
aVwould
p5792
aVn't
p5793
aVshoot
p5794
aVa
aVlady
p5795
aV,
aVwould
p5796
aVyou
p5797
aV?
aV''
p5798
aa(lp5799
Vthe
p5800
aVgrandmother
p5801
aVsaid
p5802
aVand
p5803
aVremoved
p5804
aVa
aVclean
p5805
aVhandkerchief
p5806
aVfrom
p5807
aVher
p5808
aVcuff
p5809
aVand
p5810
aVbegan
p5811
aVto
p5812
aVslap
p5813
aVat
p5814
aVher
p5815
aVeyes
p5816
aVwith
p5817
aVit
p5818
aV.
aa(lp5819
Vthe
p5820
aVmisfit
p5821
aVpointed
p5822
aVthe
p5823
aVtoe
p5824
aVof
p5825
aVhis
p5826
aVshoe
p5827
aVinto
p5828
aVthe
p5829
aVground
p5830
aVand
p5831
aVmade
p5832
aVa
aVlittle
p5833
aVhole
p5834
aVand
p5835
aVthen
p5836
aVcovered
p5837
aVit
p5838
aVup
p5839
aVagain
p5840
aV.
aa(lp5841
V``
p5842
aVi
aVwould
p5843
aVhate
p5844
aVto
p5845
aVhave
p5846
aVto
p5847
aV,
aV''
p5848
aVhe
p5849
aVsaid
p5850
aV.
aa(lp5851
V``
p5852
aVlisten
p5853
aV,
aV''
p5854
aVthe
p5855
aVgrandmother
p5856
aValmost
p5857
aVscreamed
p5858
aV,
aV``
p5859
aVi
aVknow
p5860
aVyou
p5861
aV're
p5862
aVa
aVgood
p5863
aVman
p5864
aV.
aa(lp5865
Vyou
p5866
aVdo
p5867
aVn't
p5868
aVlook
p5869
aVa
aVbit
p5870
aVlike
p5871
aVyou
p5872
aVhave
p5873
aVcom-
p5874
aVmon
p5875
aVblood
p5876
aV.
aa(lp5877
Vi
aVknow
p5878
aVyou
p5879
aVmust
p5880
aVcome
p5881
aVfrom
p5882
aVnice
p5883
aVpeople
p5884
aV!
aV''
p5885
aa(lp5886
V``
p5887
aVyes
p5888
aVmam
p5889
aV,
aV''
p5890
aVhe
p5891
aVsaid
p5892
aV,
aV``
p5893
aVfinest
p5894
aVpeople
p5895
aVin
p5896
aVthe
p5897
aVworld
p5898
aV.
aV''
p5899
aa(lp5900
Vwhen
p5901
aVhe
p5902
aVsmiled
p5903
aVhe
p5904
aVshowed
p5905
aVa
aVrow
p5906
aVof
p5907
aVstrong
p5908
aVwhite
p5909
aVteeth
p5910
aV.
aa(lp5911
V``
p5912
aVgod
p5913
aVnever
p5914
aVmade
p5915
aVa
aVfiner
p5916
aVwoman
p5917
aVthan
p5918
aVmy
p5919
aVmother
p5920
aVand
p5921
aVmy
p5922
aVdaddy
p5923
aV's
p5924
aVheart
p5925
aVwas
p5926
aVpure
p5927
aVgold
p5928
aV,
aV''
p5929
aVhe
p5930
aVsaid
p5931
aV.
aa(lp5932
Vthe
p5933
aVboy
p5934
aVwith
p5935
aVthe
p5936
aVred
p5937
aVsweat
p5938
aVshirt
p5939
aVhad
p5940
aVcome
p5941
aVaround
p5942
aVbehind
p5943
aVthem
p5944
aVand
p5945
aVwas
p5946
aVstanding
p5947
aVwith
p5948
aVhis
p5949
aVgun
p5950
aVat
p5951
aVhis
p5952
aVhip
p5953
aV.
aa(lp5954
Vthe
p5955
aVmisfit
p5956
aVsquatted
p5957
aVdown
p5958
aVon
p5959
aVthe
p5960
aVground
p5961
aV.
aa(lp5962
V``
p5963
aVwatch
p5964
aVthem
p5965
aVchildren
p5966
aV,
aVbobby
p5967
aVlee
p5968
aV,
aV''
p5969
aVhe
p5970
aVsaid
p5971
aV.
aa(lp5972
V``
p5973
aVyou
p5974
aVknow
p5975
aVthey
p5976
aVmake
p5977
aVme
p5978
aVnervous
p5979
aV.
aV''
p5980
aa(lp5981
Vhe
p5982
aVlooked
p5983
aVat
p5984
aVthe
p5985
aVsix
p5986
aVof
p5987
aVthem
p5988
aVhuddled
p5989
aVtogether
p5990
aVin
p5991
aVfront
p5992
aVof
p5993
aVhim
p5994
aVand
p5995
aVhe
p5996
aVseemed
p5997
aVto
p5998
aVbe
p5999
aVembarrassed
p6000
aVas
p6001
aVif
p6002
aVhe
p6003
aVcould
p6004
aVn't
p6005
aVthink
p6006
aVof
p6007
aVanything
p6008
aVto
p6009
aVsay
p6010
aV.
aa(lp6011
V``
p6012
aVai
p6013
aVn't
p6014
aVa
aVcloud
p6015
aVin
p6016
aVthe
p6017
aVsky
p6018
aV,
aV''
p6019
aVhe
p6020
aVremarked
p6021
aV,
aVlooking
p6022
aVup
p6023
aVat
p6024
aVit
p6025
aV.
aa(lp6026
V``
p6027
aVdo
p6028
aVn't
p6029
aVsee
p6030
aVno
p6031
aVsun
p6032
aVbut
p6033
aVdo
p6034
aVn't
p6035
aVsee
p6036
aVno
p6037
aVcloud
p6038
aVneither
p6039
aV.
aV''
p6040
aa(lp6041
V``
p6042
aVyes
p6043
aV,
aVit
p6044
aV's
p6045
aVa
aVbeautiful
p6046
aVday
p6047
aV,
aV''
p6048
aVsaid
p6049
aVthe
p6050
aVgrandmother
p6051
aV.
aa(lp6052
V``
p6053
aVlisten
p6054
aV,
aV''
p6055
aVshe
p6056
aVsaid
p6057
aV,
aV``
p6058
aVyou
p6059
aVshould
p6060
aVn't
p6061
aVcall
p6062
aVyourself
p6063
aVthe
p6064
aVmisfit
p6065
aVbecause
p6066
aVi
aVknow
p6067
aVyou
p6068
aV're
p6069
aVa
aVgood
p6070
aVman
p6071
aVat
p6072
aVheart
p6073
aV.
aa(lp6074
Vi
aVcan
p6075
aVjust
p6076
aVlook
p6077
aVat
p6078
aVyou
p6079
aVand
p6080
aVtell
p6081
aV``
p6082
aV''
p6083
aVhush
p6084
aV!
aV''
p6085
aa(lp6086
Vbailey
p6087
aVyelled
p6088
aV.
aa(lp6089
V``
p6090
aVhush
p6091
aV!
aa(lp6092
Veverybody
p6093
aVshut
p6094
aVup
p6095
aVand
p6096
aVlet
p6097
aVme
p6098
aVhandle
p6099
aVthis
p6100
aV!
aV''
p6101
aa(lp6102
Vhe
p6103
aVwas
p6104
aVsquatting
p6105
aVin
p6106
aVthe
p6107
aVposition
p6108
aVof
p6109
aVa
aVrunner
p6110
aVabout
p6111
aVto
p6112
aVsprint
p6113
aVforward
p6114
aVbut
p6115
aVhe
p6116
aVdid
p6117
aVn't
p6118
aVmove
p6119
aV.
aa(lp6120
V148
p6121
aVa
aVgood
p6122
aVman
p6123
aVis
p6124
aVhard
p6125
aVto
p6126
aVfind
p6127
aV''
p6128
aVi
aVprechate
p6129
aVthat
p6130
aV,
aVlady
p6131
aV,
aV''
p6132
aVthe
p6133
aVmisfit
p6134
aVsaid
p6135
aVand
p6136
aVdrew
p6137
aVa
aVlittle
p6138
aVcircle
p6139
aVin
p6140
aVthe
p6141
aVground
p6142
aVwith
p6143
aVthe
p6144
aVbutt
p6145
aVof
p6146
aVhis
p6147
aVgun
p6148
aV.
aa(lp6149
V``
p6150
aVit
p6151
aV'll
p6152
aVtake
p6153
aVa
aVhalf
p6154
aVa
aVhour
p6155
aVto
p6156
aVfix
p6157
aVthis
p6158
aVhere
p6159
aVcar
p6160
aV,
aV''
p6161
aVhiram
p6162
aVcalled
p6163
aV,
aVlooking
p6164
aVover
p6165
aVthe
p6166
aVraised
p6167
aVhood
p6168
aVof
p6169
aVit
p6170
aV.
aa(lp6171
V``
p6172
aVwell
p6173
aV,
aVfirst
p6174
aVyou
p6175
aVand
p6176
aVbobby
p6177
aVlee
p6178
aVget
p6179
aVhim
p6180
aVand
p6181
aVthat
p6182
aVlittle
p6183
aVboy
p6184
aVto
p6185
aVstep
p6186
aVover
p6187
aVyonder
p6188
aVwith
p6189
aVyou
p6190
aV,
aV''
p6191
aVthe
p6192
aVmisfit
p6193
aVsaid
p6194
aV,
aVpointing
p6195
aVto
p6196
aVbailey
p6197
aVand
p6198
aVjohn
p6199
aVwesley
p6200
aV.
aa(lp6201
V``
p6202
aVthe
p6203
aVboys
p6204
aVwant
p6205
aVto
p6206
aVast
p6207
aVyou
p6208
aVsome-
p6209
aVthing
p6210
aV,
aV''
p6211
aVhe
p6212
aVsaid
p6213
aVto
p6214
aVbailey
p6215
aV.
aa(lp6216
V``
p6217
aVwould
p6218
aVyou
p6219
aVmind
p6220
aVstepping
p6221
aVback
p6222
aVin
p6223
aVthem
p6224
aVwoods
p6225
aVthere
p6226
aVwith
p6227
aVthem
p6228
aV?
aV''
p6229
aa(lp6230
V``
p6231
aVlisten
p6232
aV,
aV''
p6233
aVbailey
p6234
aVbegan
p6235
aV,
aV``
p6236
aVwe
p6237
aV're
p6238
aVin
p6239
aVa
aVterrible
p6240
aVpredicament
p6241
aV!
aa(lp6242
Vnobody
p6243
aVrealizes
p6244
aVwhat
p6245
aVthis
p6246
aVis
p6247
aV,
aV''
p6248
aVand
p6249
aVhis
p6250
aVvoice
p6251
aVcracked
p6252
aV.
aa(lp6253
Vhis
p6254
aVeyes
p6255
aVwere
p6256
aVas
p6257
aVblue
p6258
aVand
p6259
aVintense
p6260
aVas
p6261
aVthe
p6262
aVparrots
p6263
aVin
p6264
aVhis
p6265
aVshirt
p6266
aVand
p6267
aVhe
p6268
aVremained
p6269
aVperfectly
p6270
aVstill
p6271
aV.
aa(lp6272
Vthe
p6273
aVgrandmother
p6274
aVreached
p6275
aVup
p6276
aVto
p6277
aVadjust
p6278
aVher
p6279
aVhat
p6280
aVbrim
p6281
aVas
p6282
aVif
p6283
aVshe
p6284
aVwere
p6285
aVgoing
p6286
aVto
p6287
aVthe
p6288
aVwoods
p6289
aVwith
p6290
aVhim
p6291
aVbut
p6292
aVit
p6293
aVcame
p6294
aVoff
p6295
aVin
p6296
aVher
p6297
aVhand
p6298
aV.
aa(lp6299
Vshe
p6300
aVstood
p6301
aVstaring
p6302
aVat
p6303
aVit
p6304
aVand
p6305
aVafter
p6306
aVa
aVsecond
p6307
aVshe
p6308
aVlet
p6309
aVit
p6310
aVfall
p6311
aVon
p6312
aVthe
p6313
aVground
p6314
aV.
aa(lp6315
Vhiram
p6316
aVpulled
p6317
aVbailey
p6318
aVup
p6319
aVby
p6320
aVthe
p6321
aVarm
p6322
aVas
p6323
aVif
p6324
aVhe
p6325
aVwere
p6326
aVassisting
p6327
aVan
p6328
aVold
p6329
aVman
p6330
aV.
aa(lp6331
Vjohn
p6332
aVwesley
p6333
aVcaught
p6334
aVhold
p6335
aVof
p6336
aVhis
p6337
aVfather
p6338
aV's
p6339
aVhand
p6340
aVand
p6341
aVbobby
p6342
aVlee
p6343
aVfollowed
p6344
aV.
aa(lp6345
Vthey
p6346
aVwent
p6347
aVoff
p6348
aVtoward
p6349
aVthe
p6350
aVwoods
p6351
aVand
p6352
aVjust
p6353
aVas
p6354
aVthey
p6355
aVreached
p6356
aVthe
p6357
aVdark
p6358
aVedge
p6359
aV,
aVbailey
p6360
aVturned
p6361
aVand
p6362
aVsupporting
p6363
aVhimself
p6364
aVagainst
p6365
aVa
aVgray
p6366
aVnaked
p6367
aVpine
p6368
aVtrunk
p6369
aV,
aVhe
p6370
aVshouted
p6371
aV,
aV``
p6372
aVi
aV'll
p6373
aVbe
p6374
aVback
p6375
aVin
p6376
aVa
aVminute
p6377
aV,
aVmamma
p6378
aV,
aVwait
p6379
aVon
p6380
aVme
p6381
aV!
aV''
p6382
aa(lp6383
V``
p6384
aVcome
p6385
aVback
p6386
aVthis
p6387
aVinstant
p6388
aV!
aV''
p6389
aa(lp6390
Vhis
p6391
aVmother
p6392
aVshrilled
p6393
aVbut
p6394
aVthey
p6395
aVall
p6396
aVdisappeared
p6397
aVinto
p6398
aVthe
p6399
aVwoods
p6400
aV.
aa(lp6401
V``
p6402
aVbailey
p6403
aVboy
p6404
aV!
aV''
p6405
aa(lp6406
Vthe
p6407
aVgrandmother
p6408
aVcalled
p6409
aVin
p6410
aVa
aVtragic
p6411
aVvoice
p6412
aVbut
p6413
aVshe
p6414
aVfound
p6415
aVshe
p6416
aVwas
p6417
aVlooking
p6418
aVat
p6419
aVthe
p6420
aVmisfit
p6421
aVsquatting
p6422
aVon
p6423
aVthe
p6424
aVground
p6425
aVin
p6426
aVfront
p6427
aVof
p6428
aVher
p6429
aV.
aa(lp6430
V``
p6431
aVi
aVjust
p6432
aVknow
p6433
aVyou
p6434
aV're
p6435
aVa
aVgood
p6436
aVman
p6437
aV,
aV''
p6438
aVshe
p6439
aVsaid
p6440
aVdesperately
p6441
aV.
aa(lp6442
V``
p6443
aVyou
p6444
aV're
p6445
aVnot
p6446
aVa
aVbit
p6447
aVcommon
p6448
aV!
aV''
p6449
aa(lp6450
V``
p6451
aVnome
p6452
aV,
aVi
aVai
p6453
aVn't
p6454
aVa
aVgood
p6455
aVman
p6456
aV,
aV''
p6457
aVthe
p6458
aVmisfit
p6459
aVsaid
p6460
aVafter
p6461
aVa
aVsecond
p6462
aVas
p6463
aVif
p6464
aVhe
p6465
aVhad
p6466
aVconsidered
p6467
aVher
p6468
aVstatement
p6469
aVcarefully
p6470
aV,
aV``
p6471
aVbut
p6472
aVi
aVai
p6473
aVn't
p6474
aVthe
p6475
aVworst
p6476
aVin
p6477
aVthe
p6478
aVworld
p6479
aVneither
p6480
aV.
aa(lp6481
Vmy
p6482
aVdaddy
p6483
aVsaid
p6484
aVi
aVwas
p6485
aVa
aVdifferent
p6486
aVbreed
p6487
aVof
p6488
aVdog
p6489
aVfrom
p6490
aVmy
p6491
aVbrothers
p6492
aVand
p6493
aVsisters
p6494
aV.
aa(lp6495
V'you
p6496
aVknow
p6497
aV,
aV'
aVdaddy
p6498
aVsaid
p6499
aV,
aV'it
p6500
aV's
p6501
aVsome
p6502
aVthat
p6503
aVcan
p6504
aVlive
p6505
aVtheir
p6506
aVwhole
p6507
aVlife
p6508
aVout
p6509
aVwithout
p6510
aVasking
p6511
aVabout
p6512
aVit
p6513
aVand
p6514
aVit
p6515
aV's
p6516
aVothers
p6517
aVhas
p6518
aVto
p6519
aVknow
p6520
aVwhy
p6521
aVit
p6522
aVis
p6523
aV,
aVand
p6524
aVthis
p6525
aVboy
p6526
aVis
p6527
aVone
p6528
aVof
p6529
aVthe
p6530
aVlatters
p6531
aV.
aa(lp6532
Vhe
p6533
aV's
p6534
aVgoing
p6535
aVto
p6536
aVbe
p6537
aVinto
p6538
aVevery-
p6539
aVthing
p6540
aV!
aV'
aV''
p6541
aa(lp6542
Vhe
p6543
aVput
p6544
aVon
p6545
aVhis
p6546
aVblack
p6547
aVhat
p6548
aVand
p6549
aVlooked
p6550
aVup
p6551
aVsuddenly
p6552
aVand
p6553
aVthen
p6554
aVaway
p6555
aVdeep
p6556
aVinto
p6557
aVthe
p6558
aVwoods
p6559
aVas
p6560
aVif
p6561
aVhe
p6562
aVwere
p6563
aVembarrassed
p6564
aVagain
p6565
aV.
aa(lp6566
V``
p6567
aVi
aV'm
p6568
aVsorry
p6569
aVi
aVdo
p6570
aVn't
p6571
aVhave
p6572
aVon
p6573
aVa
aVshirt
p6574
aVbefore
p6575
aVyou
p6576
aVladies
p6577
aV,
aV''
p6578
aVhe
p6579
aVsaid
p6580
aV,
aVhunching
p6581
aVhis
p6582
aVshoulders
p6583
aVslightly
p6584
aV.
aa(lp6585
V``
p6586
aVwe
p6587
aVburied
p6588
aVour
p6589
aVclothes
p6590
aVthat
p6591
aVwe
p6592
aVhad
p6593
aVon
p6594
aVwhen
p6595
aVwe
p6596
aVescaped
p6597
aVand
p6598
aVwe
p6599
aV're
p6600
aVjust
p6601
aVa
aVgood
p6602
aVman
p6603
aVis
p6604
aVhard
p6605
aVto
p6606
aVfind
p6607
aVi49
p6608
aVmaking
p6609
aVdo
p6610
aVuntil
p6611
aVwe
p6612
aVcan
p6613
aVget
p6614
aVbetter
p6615
aV.
aa(lp6616
Vwe
p6617
aVborrowed
p6618
aVthese
p6619
aVfrom
p6620
aVsome
p6621
aVfolks
p6622
aVwe
p6623
aVmet
p6624
aV,
aV''
p6625
aVhe
p6626
aVexplained
p6627
aV.
aa(lp6628
V``
p6629
aVthat
p6630
aV's
p6631
aVperfectly
p6632
aVall
p6633
aVright
p6634
aV,
aV''
p6635
aVthe
p6636
aVgrandmother
p6637
aVsaid
p6638
aV.
aa(lp6639
V``
p6640
aVmaybe
p6641
aVbailey
p6642
aVhas
p6643
aVan
p6644
aVextra
p6645
aVshirt
p6646
aVin
p6647
aVhis
p6648
aVsuitcase
p6649
aV.
aV''
p6650
aa(lp6651
V``
p6652
aVi
aV'll
p6653
aVlook
p6654
aVand
p6655
aVsee
p6656
aVterrectly
p6657
aV,
aV''
p6658
aVthe
p6659
aVmisfit
p6660
aVsaid
p6661
aV.
aa(lp6662
V``
p6663
aVwhere
p6664
aVare
p6665
aVthey
p6666
aVtaking
p6667
aVhim
p6668
aV?
aV''
p6669
aa(lp6670
Vthe
p6671
aVchildren
p6672
aV's
p6673
aVmother
p6674
aVscreamed
p6675
aV.
aa(lp6676
V``
p6677
aVdaddy
p6678
aVwas
p6679
aVa
aVcard
p6680
aVhimself
p6681
aV,
aV''
p6682
aVthe
p6683
aVmisfit
p6684
aVsaid
p6685
aV.
aa(lp6686
V``
p6687
aVyou
p6688
aVcould
p6689
aVn't
p6690
aVput
p6691
aVanything
p6692
aVover
p6693
aVon
p6694
aVhim
p6695
aV.
aa(lp6696
Vhe
p6697
aVnever
p6698
aVgot
p6699
aVin
p6700
aVtrouble
p6701
aVwith
p6702
aVthe
p6703
aVauthorities
p6704
aVthough
p6705
aV.
aa(lp6706
Vjust
p6707
aVhad
p6708
aVthe
p6709
aVknack
p6710
aVof
p6711
aVhandling
p6712
aVthem
p6713
aV.
aV''
p6714
aa(lp6715
V``
p6716
aVyou
p6717
aVcould
p6718
aVbe
p6719
aVhonest
p6720
aVtoo
p6721
aVif
p6722
aVyou
p6723
aV'd
p6724
aVonly
p6725
aVtry
p6726
aV,
aV''
p6727
aVsaid
p6728
aVthe
p6729
aVgrandmother
p6730
aV.
aa(lp6731
V``
p6732
aVthink
p6733
aVhow
p6734
aVwonderful
p6735
aVit
p6736
aVwould
p6737
aVbe
p6738
aVto
p6739
aVsettle
p6740
aVdown
p6741
aVand
p6742
aVlive
p6743
aVa
aVcomfortable
p6744
aVlife
p6745
aVand
p6746
aVnot
p6747
aVhave
p6748
aVto
p6749
aVthink
p6750
aVabout
p6751
aVsome-
p6752
aVbody
p6753
aVchasing
p6754
aVyou
p6755
aVall
p6756
aVthe
p6757
aVtime
p6758
aV.
aV''
p6759
aa(lp6760
Vthe
p6761
aVmisfit
p6762
aVkept
p6763
aVscratching
p6764
aVin
p6765
aVthe
p6766
aVground
p6767
aVwith
p6768
aVthe
p6769
aVbutt
p6770
aVof
p6771
aVhis
p6772
aVgun
p6773
aVas
p6774
aVif
p6775
aVhe
p6776
aVwere
p6777
aVthinking
p6778
aVabout
p6779
aVit
p6780
aV.
aa(lp6781
V``
p6782
aVyes
p6783
aV'm
p6784
aV,
aVsomebody
p6785
aVis
p6786
aValways
p6787
aVafter
p6788
aVyou
p6789
aV,
aV''
p6790
aVhe
p6791
aVmurmured
p6792
aV.
aa(lp6793
Vthe
p6794
aVgrandmother
p6795
aVnoticed
p6796
aVhow
p6797
aVthin
p6798
aVhis
p6799
aVshoulder
p6800
aVblades
p6801
aVwere
p6802
aVjust
p6803
aVbehind-his
p6804
aVhat
p6805
aVbecause
p6806
aVshe
p6807
aVwas
p6808
aVstanding
p6809
aVup
p6810
aVlooking
p6811
aVdown
p6812
aVon
p6813
aVhim
p6814
aV.
aa(lp6815
V``
p6816
aVdo
p6817
aVyou
p6818
aVever
p6819
aVpray
p6820
aV?
aV''
p6821
aa(lp6822
Vshe
p6823
aVasked
p6824
aV.
aa(lp6825
Vhe
p6826
aVshook
p6827
aVhis
p6828
aVhead
p6829
aV.
aa(lp6830
Vall
p6831
aVshe
p6832
aVsaw
p6833
aVwas
p6834
aVthe
p6835
aVblack
p6836
aVhat
p6837
aVwiggle
p6838
aVbetween
p6839
aVhis
p6840
aVshoulder
p6841
aVblades
p6842
aV.
aa(lp6843
V``
p6844
aVnome
p6845
aV,
aV''
p6846
aVhe
p6847
aVsaid
p6848
aV.
aa(lp6849
Vthere
p6850
aVwas
p6851
aVa
aVpistol
p6852
aVshot
p6853
aVfrom
p6854
aVthe
p6855
aVwoods
p6856
aV,
aVfollowed
p6857
aVclosely
p6858
aVby
p6859
aVanother
p6860
aV.
aa(lp6861
Vthen
p6862
aVsilence
p6863
aV.
aa(lp6864
Vthe
p6865
aVold
p6866
aVlady
p6867
aV's
p6868
aVhead
p6869
aVjerked
p6870
aVaround
p6871
aV.
aa(lp6872
Vshe
p6873
aVcould
p6874
aVhear
p6875
aVthe
p6876
aVwind
p6877
aVmove
p6878
aVthrough
p6879
aVthe
p6880
aVtree
p6881
aVtops
p6882
aVlike
p6883
aVa
aVlong
p6884
aVsatisfied
p6885
aVinsuck
p6886
aVof
p6887
aVbreath
p6888
aV.
aa(lp6889
V``
p6890
aVbailey
p6891
aVboy
p6892
aV!
aV''
p6893
aa(lp6894
Vshe
p6895
aVcalled
p6896
aV.
aa(lp6897
V``
p6898
aVi
aVwas
p6899
aVa
aVgospel
p6900
aVsinger
p6901
aVfor
p6902
aVa
aVwhile
p6903
aV,
aV''
p6904
aVthe
p6905
aVmisfit
p6906
aVsaid
p6907
aV.
aa(lp6908
V``
p6909
aVi
aVbeen
p6910
aVmost
p6911
aVeverything
p6912
aV.
aa(lp6913
Vbeen
p6914
aVin
p6915
aVthe
p6916
aVarm
p6917
aVservice
p6918
aV,
aVboth
p6919
aVland
p6920
aVand
p6921
aVsea
p6922
aV,
aVat
p6923
aVhome
p6924
aVand
p6925
aVabroad
p6926
aV,
aVbeen
p6927
aVtwict
p6928
aVmarried
p6929
aV,
aVbeen
p6930
aVan
p6931
aVundertaker
p6932
aV,
aVbeen
p6933
aVwith
p6934
aVthe
p6935
aVrailroads
p6936
aV,
aVplowed
p6937
aVmother
p6938
aVearth
p6939
aV,
aVbeen
p6940
aVin
p6941
aVa
aVtornado
p6942
aV,
aVseen
p6943
aVa
aVman
p6944
aVburnt
p6945
aValive
p6946
aVoncet
p6947
aV,
aV''
p6948
aVand
p6949
aVhe
p6950
aVlooked
p6951
aVup
p6952
aVat
p6953
aVthe
p6954
aVchildren
p6955
aV's
p6956
aVmother
p6957
aVand
p6958
aVthe
p6959
aVlittle
p6960
aVgirl
p6961
aVwho
p6962
aVwere
p6963
aVsitting
p6964
aVclose
p6965
aVtogether
p6966
aV,
aVtheir
p6967
aVfaces
p6968
aVwhite
p6969
aVand
p6970
aVtheir
p6971
aVeyes
p6972
aVglassy
p6973
aV;
aV``
p6974
aVi
aVeven
p6975
aVseen
p6976
aVa
aVwoman
p6977
aVflogged
p6978
aV,
aV''
p6979
aVhe
p6980
aVsaid
p6981
aV.
aa(lp6982
V``
p6983
aVpray
p6984
aV,
aVpray
p6985
aV,
aV''
p6986
aVthe
p6987
aVgrandmother
p6988
aVbegan
p6989
aV,
aV``
p6990
aVpray
p6991
aV,
aVpray
p6992
aV.
aa(lp6993
V.
aa(lp6994
V.
aV''
p6995
aa(lp6996
V``
p6997
aVi
aVnever
p6998
aVwas
p6999
aVa
aVbad
p7000
aVboy
p7001
aVthat
p7002
aVi
aVremember
p7003
aVof
p7004
aV,
aV''
p7005
aVthe
p7006
aVmisfit
p7007
aVsaid
p7008
aVin
p7009
aVan
p7010
aValmost
p7011
aVdreamy
p7012
aVvoice
p7013
aV,
aV``
p7014
aVbut
p7015
aVsomewheres
p7016
aValong
p7017
aVthe
p7018
aVline
p7019
aVi
aVdone
p7020
aVsomething
p7021
aVwrong
p7022
aVand
p7023
aVgot
p7024
aVsent
p7025
aVto
p7026
aVthe
p7027
aVpenitentiary
p7028
aV.
aa(lp7029
Vi
aVwas
p7030
aVburied
p7031
aValive
p7032
aV,
aV''
p7033
aVand
p7034
aVhe
p7035
aVlooked
p7036
aVup
p7037
aVand
p7038
aVheld
p7039
aVher
p7040
aVattention
p7041
aVto
p7042
aVhim
p7043
aVby
p7044
aVa
aVsteady
p7045
aVstare
p7046
aV.
aa(lp7047
V150
p7048
aVa
aVgood
p7049
aVman
p7050
aVis
p7051
aVhard
p7052
aVto
p7053
aVfind
p7054
aV''
p7055
aVthat
p7056
aV's
p7057
aVwhen
p7058
aVyou
p7059
aVshould
p7060
aVhave
p7061
aVstarted
p7062
aVto
p7063
aVpray
p7064
aV,
aV''
p7065
aVshe
p7066
aVsaid
p7067
aV``
p7068
aVwhat
p7069
aVdid
p7070
aVyou
p7071
aVdo
p7072
aVto
p7073
aVget
p7074
aVsent
p7075
aVto
p7076
aVthe
p7077
aVpenitentiary
p7078
aVthat
p7079
aVfirst
p7080
aVtime
p7081
aV?
aV''
p7082
aa(lp7083
V``
p7084
aVturn
p7085
aVto
p7086
aVthe
p7087
aVright
p7088
aV,
aVit
p7089
aVwas
p7090
aVa
aVwall
p7091
aV,
aV''
p7092
aVthe
p7093
aVmisfit
p7094
aVsaid
p7095
aV,
aVlooking
p7096
aVup
p7097
aVagain
p7098
aVat
p7099
aVthe
p7100
aVcloudless
p7101
aVsky
p7102
aV.
aa(lp7103
V``
p7104
aVturn
p7105
aVto
p7106
aVthe
p7107
aVleft
p7108
aV,
aVit
p7109
aVwas
p7110
aVa
aVwall
p7111
aV.
aa(lp7112
Vlook
p7113
aVup
p7114
aVit
p7115
aVwas
p7116
aVa
aVceiling
p7117
aV,
aVlook
p7118
aVdown
p7119
aVit
p7120
aVwas
p7121
aVa
aVfloor
p7122
aV.
aa(lp7123
Vi
aVforget
p7124
aVwhat
p7125
aVi
aVdone
p7126
aV,
aVlady
p7127
aV.
aa(lp7128
Vi
aVset
p7129
aVthere
p7130
aVand
p7131
aVset
p7132
aVthere
p7133
aV,
aVtrying
p7134
aVto
p7135
aVremember
p7136
aVwhat
p7137
aVit
p7138
aVwas
p7139
aVi
aVdone
p7140
aVand
p7141
aVi
aVai
p7142
aVn't
p7143
aVrecalled
p7144
aVit
p7145
aVto
p7146
aVthis
p7147
aVday
p7148
aV.
aa(lp7149
Voncet
p7150
aVin
p7151
aVa
aVwhile
p7152
aV,
aVi
aVwould
p7153
aVthink
p7154
aVit
p7155
aVwas
p7156
aVcoming
p7157
aVto
p7158
aVme
p7159
aV,
aVbut
p7160
aVit
p7161
aVnever
p7162
aVcome
p7163
aV.
aV''
p7164
aa(lp7165
V``
p7166
aVmaybe
p7167
aVthey
p7168
aVput
p7169
aVyou
p7170
aVin
p7171
aVby
p7172
aVmistake
p7173
aV,
aV''
p7174
aVthe
p7175
aVold
p7176
aVlady
p7177
aVsaid
p7178
aVvaguely
p7179
aV.
aa(lp7180
V``
p7181
aVnome
p7182
aV,
aV''
p7183
aVhe
p7184
aVsaid
p7185
aV.
aa(lp7186
V``
p7187
aVit
p7188
aVwas
p7189
aVn't
p7190
aVno
p7191
aVmistake
p7192
aV.
aa(lp7193
Vthey
p7194
aVhad
p7195
aVthe
p7196
aVpapers
p7197
aVon
p7198
aVme
p7199
aV.
aV''
p7200
aa(lp7201
V``
p7202
aVyou
p7203
aVmust
p7204
aVhave
p7205
aVstolen
p7206
aVsomething
p7207
aV,
aV''
p7208
aVshe
p7209
aVsaid
p7210
aV.
aa(lp7211
Vthe
p7212
aVmisfit
p7213
aVsneered
p7214
aVslightly
p7215
aV.
aa(lp7216
V``
p7217
aVnobody
p7218
aVhad
p7219
aVnothing
p7220
aVi
aVwanted
p7221
aV,
aV''
p7222
aVhe
p7223
aVsaid
p7224
aV.
aa(lp7225
V``
p7226
aVit
p7227
aVwas
p7228
aVa
aVhead-doctor
p7229
aVat
p7230
aVthe
p7231
aVpenitentiary
p7232
aVsaid
p7233
aVwhat
p7234
aVi
aVhad
p7235
aVdone
p7236
aVwas
p7237
aVkill
p7238
aVmy
p7239
aVdaddy
p7240
aVbut
p7241
aVi
aVknown
p7242
aVthat
p7243
aVfor
p7244
aVa
aVlie
p7245
aV.
aa(lp7246
Vmy
p7247
aVdaddy
p7248
aVdied
p7249
aVin
p7250
aVnineteen
p7251
aVought
p7252
aVnineteen
p7253
aVof
p7254
aVthe
p7255
aVepidemic
p7256
aVflu
p7257
aVand
p7258
aVi
aVnever
p7259
aVhad
p7260
aVa
aVthing
p7261
aVto
p7262
aVdo
p7263
aVwith
p7264
aVit
p7265
aV.
aa(lp7266
Vhe
p7267
aVwas
p7268
aVburied
p7269
aVin
p7270
aVthe
p7271
aVmount
p7272
aVhopewell
p7273
aVbaptist
p7274
aVchurchyard
p7275
aVand
p7276
aVyou
p7277
aVcan
p7278
aVgo
p7279
aVthere
p7280
aVand
p7281
aVsee
p7282
aVfor
p7283
aVyourself
p7284
aV.
aV''
p7285
aa(lp7286
V``
p7287
aVif
p7288
aVyou
p7289
aVwould
p7290
aVpray
p7291
aV,
aV''
p7292
aVthe
p7293
aVold
p7294
aVlady
p7295
aVsaid
p7296
aV,
aV``
p7297
aVjesus
p7298
aVwould
p7299
aVhelp
p7300
aVyou
p7301
aV.
aV''
p7302
aa(lp7303
V``
p7304
aVthat
p7305
aV's
p7306
aVright
p7307
aV,
aV''
p7308
aVthe
p7309
aVmisfit
p7310
aVsaid
p7311
aV.
aa(lp7312
V``
p7313
aVwell
p7314
aVthen
p7315
aV,
aVwhy
p7316
aVdo
p7317
aVn't
p7318
aVyou
p7319
aVpray
p7320
aV?
aV''
p7321
aa(lp7322
Vshe
p7323
aVasked
p7324
aVtrembling
p7325
aVwith
p7326
aVdelight
p7327
aVsuddenly
p7328
aV.
aa(lp7329
V``
p7330
aVi
aVdo
p7331
aVn't
p7332
aVwant
p7333
aVno
p7334
aVhep
p7335
aV,
aV''
p7336
aVhe
p7337
aVsaid
p7338
aV.
aa(lp7339
V``
p7340
aVi
aV'm
p7341
aVdoing
p7342
aVall
p7343
aVright
p7344
aVby
p7345
aVmyself
p7346
aV.
aV''
p7347
aa(lp7348
Vbobby
p7349
aVlee
p7350
aVand
p7351
aVhiram
p7352
aVcame
p7353
aVambling
p7354
aVback
p7355
aVfrom
p7356
aVthe
p7357
aVwoods
p7358
aV.
aa(lp7359
Vbobby
p7360
aVlee
p7361
aVwas
p7362
aVdragging
p7363
aVa
aVyellow
p7364
aVshirt
p7365
aVwith
p7366
aVbright
p7367
aVblue
p7368
aVparrots
p7369
aVin
p7370
aVit
p7371
aV.
aa(lp7372
V``
p7373
aVthow
p7374
aVme
p7375
aVthat
p7376
aVshirt
p7377
aV,
aVbobby
p7378
aVlee
p7379
aV,
aV''
p7380
aVthe
p7381
aVmisfit
p7382
aVsaid
p7383
aV.
aa(lp7384
Vthe
p7385
aVshirt
p7386
aVcame
p7387
aVflying
p7388
aVat
p7389
aVhim
p7390
aVand
p7391
aVlanded
p7392
aVon
p7393
aVhis
p7394
aVshoulder
p7395
aVand
p7396
aVhe
p7397
aVput
p7398
aVit
p7399
aVon
p7400
aV.
aa(lp7401
Vthe
p7402
aVgrandmother
p7403
aVcould
p7404
aVn't
p7405
aVname
p7406
aVwhat
p7407
aVthe
p7408
aVshirt
p7409
aVreminded
p7410
aVher
p7411
aVof
p7412
aV.
aa(lp7413
V``
p7414
aVno
p7415
aV,
aVlady
p7416
aV,
aV''
p7417
aVthe
p7418
aVmisfit
p7419
aVsaid
p7420
aVwhile
p7421
aVhe
p7422
aVwas
p7423
aVbuttoning
p7424
aVit
p7425
aVup
p7426
aV,
aV``
p7427
aVi
aVfound
p7428
aVout
p7429
aVthe
p7430
aVcrime
p7431
aVdo
p7432
aVn't
p7433
aVmatter
p7434
aV.
aa(lp7435
Vyou
p7436
aVcan
p7437
aVdo
p7438
aVone
p7439
aVthing
p7440
aVor
p7441
aVyou
p7442
aVcan
p7443
aVdo
p7444
aVanother
p7445
aV,
aVkill
p7446
aVa
aVman
p7447
aVor
p7448
aVtake
p7449
aVa
aVtire
p7450
aVoff
p7451
aVhis
p7452
aVcar
p7453
aV,
aVbecause
p7454
aVsooner
p7455
aVor
p7456
aVlater
p7457
aVyou
p7458
aV're
p7459
aVgoing
p7460
aVto
p7461
aVforget
p7462
aVwhat
p7463
aVit
p7464
aVwas
p7465
aVyou
p7466
aVdone
p7467
aVand
p7468
aVjust
p7469
aVbe
p7470
aVpunished
p7471
aVfor
p7472
aVit
p7473
aV.
aV''
p7474
aa(lp7475
Va
aVgood
p7476
aVman
p7477
aVis
p7478
aVhard
p7479
aVto
p7480
aVfind
p7481
aV151
p7482
aVthe
p7483
aVchildren
p7484
aV's
p7485
aVmother
p7486
aVhad
p7487
aVbegun
p7488
aVto
p7489
aVmake
p7490
aVheaving
p7491
aVnoises
p7492
aVas
p7493
aVif
p7494
aVshe
p7495
aVcould
p7496
aVn't
p7497
aVget
p7498
aVher
p7499
aVbreath
p7500
aV.
aa(lp7501
V``
p7502
aVlady
p7503
aV,
aV''
p7504
aVhe
p7505
aVasked
p7506
aV,
aV``
p7507
aVwould
p7508
aVyou
p7509
aVand
p7510
aVthat
p7511
aVlittle
p7512
aVgirl
p7513
aVlike
p7514
aVto
p7515
aVstep
p7516
aVoff
p7517
aVyonder
p7518
aVwith
p7519
aVbobby
p7520
aVlee
p7521
aVand
p7522
aVhiram
p7523
aVand
p7524
aVjoin
p7525
aVyour
p7526
aVhusband
p7527
aV?
aV''
p7528
aa(lp7529
V``
p7530
aVyes
p7531
aV,
aVthank
p7532
aVyou
p7533
aV,
aV''
p7534
aVthe
p7535
aVmother
p7536
aVsaid
p7537
aVfaintly
p7538
aV.
aa(lp7539
Vher
p7540
aVleft
p7541
aVarm
p7542
aVdangled
p7543
aVhelplessly
p7544
aVand
p7545
aVshe
p7546
aVwas
p7547
aVholding
p7548
aVthe
p7549
aVbaby
p7550
aV,
aVwho
p7551
aVhad
p7552
aVgone
p7553
aVto
p7554
aVsleep
p7555
aV,
aVin
p7556
aVthe
p7557
aVother
p7558
aV.
aa(lp7559
V``
p7560
aVhep
p7561
aVthat
p7562
aVlady
p7563
aVup
p7564
aV,
aVhiram
p7565
aV,
aV''
p7566
aVthe
p7567
aVmisfit
p7568
aVsaid
p7569
aVas
p7570
aVshe
p7571
aVstruggled
p7572
aVto
p7573
aVclimb
p7574
aVout
p7575
aVof
p7576
aVthe
p7577
aVditch
p7578
aV,
aV``
p7579
aVand
p7580
aVbobby
p7581
aVlee
p7582
aV,
aVyou
p7583
aVhold
p7584
aVonto
p7585
aVthat
p7586
aVlittle
p7587
aVgirl
p7588
aV's
p7589
aVhand
p7590
aV.
aV''
p7591
aa(lp7592
V``
p7593
aVi
aVdo
p7594
aVn't
p7595
aVwant
p7596
aVto
p7597
aVhold
p7598
aVhands
p7599
aVwith
p7600
aVhim
p7601
aV,
aV''
p7602
aVjune
p7603
aVstar
p7604
aVsaid
p7605
aV.
aa(lp7606
V``
p7607
aVhe
p7608
aVreminds
p7609
aVme
p7610
aVof
p7611
aVa
aVpig
p7612
aV.
aV''
p7613
aa(lp7614
Vthe
p7615
aVfat
p7616
aVboy
p7617
aVblushed
p7618
aVand
p7619
aVlaughed
p7620
aVand
p7621
aVcaught
p7622
aVher
p7623
aVby
p7624
aVthe
p7625
aVarm
p7626
aVand
p7627
aVpulled
p7628
aVher
p7629
aVoff
p7630
aVinto
p7631
aVthe
p7632
aVwoods
p7633
aVafter
p7634
aVhiram
p7635
aVand
p7636
aVher
p7637
aVmother
p7638
aV.
aa(lp7639
Valone
p7640
aVwith
p7641
aVthe
p7642
aVmisfit
p7643
aV,
aVthe
p7644
aVgrandmother
p7645
aVfound
p7646
aVthat
p7647
aVshe
p7648
aVhad
p7649
aVlost
p7650
aVher
p7651
aVvoice
p7652
aV.
aa(lp7653
Vthere
p7654
aVwas
p7655
aVnot
p7656
aVa
aVcloud
p7657
aVin
p7658
aVthe
p7659
aVsky
p7660
aVnor
p7661
aVany
p7662
aVsun
p7663
aV.
aa(lp7664
Vthere
p7665
aVwas
p7666
aVnothing
p7667
aVaround
p7668
aVher
p7669
aVbut
p7670
aVwoods
p7671
aV.
aa(lp7672
Vshe
p7673
aVwanted
p7674
aVto
p7675
aVtell
p7676
aVhim
p7677
aVthat
p7678
aVhe
p7679
aVmust
p7680
aVpray
p7681
aV.
aa(lp7682
Vshe
p7683
aVopened
p7684
aVand
p7685
aVclosed
p7686
aVher
p7687
aVmouth
p7688
aVseveral
p7689
aVtimes
p7690
aVbefore
p7691
aVanything
p7692
aVcame
p7693
aVout
p7694
aV.
aa(lp7695
Vfinally
p7696
aVshe
p7697
aVfound
p7698
aVherself
p7699
aVsaying
p7700
aV,
aV``
p7701
aVjesus
p7702
aV.
aa(lp7703
Vjesus
p7704
aV,
aV''
p7705
aVmeaning
p7706
aV,
aVjesus
p7707
aVwill
p7708
aVhelp
p7709
aVyou
p7710
aV,
aVbut
p7711
aVthe
p7712
aVway
p7713
aVshe
p7714
aVwas
p7715
aVsaying
p7716
aVit
p7717
aV,
aVit
p7718
aVsounded
p7719
aVas
p7720
aVif
p7721
aVshe
p7722
aVmight
p7723
aVbe
p7724
aVcursing
p7725
aV.
aa(lp7726
V``
p7727
aVyes
p7728
aV'm
p7729
aV,
aV''
p7730
aVthe
p7731
aVmisfit
p7732
aVsaid
p7733
aVas
p7734
aVif
p7735
aVhe
p7736
aVagreed
p7737
aV.
aa(lp7738
V``
p7739
aVjesus
p7740
aVshown
p7741
aVeverything
p7742
aVoff
p7743
aVbalance
p7744
aV.
aa(lp7745
Vit
p7746
aVwas
p7747
aVthe
p7748
aVsame
p7749
aVcase
p7750
aVwith
p7751
aVhim
p7752
aVas
p7753
aVwith
p7754
aVme
p7755
aVexcept
p7756
aVhe
p7757
aVhad
p7758
aVn't
p7759
aVcommitted
p7760
aVany
p7761
aVcrime
p7762
aVand
p7763
aVthey
p7764
aVcould
p7765
aVprove
p7766
aVi
aVhad
p7767
aVcommitted
p7768
aVone
p7769
aVbecause
p7770
aVthey
p7771
aVhad
p7772
aVthe
p7773
aVpapers
p7774
aVon
p7775
aVme
p7776
aV.
aa(lp7777
Vof
p7778
aVcourse
p7779
aV,
aV''
p7780
aVhe
p7781
aVsaid
p7782
aV,
aV``
p7783
aVthey
p7784
aVnever
p7785
aVshown
p7786
aVme
p7787
aVmy
p7788
aVpapers
p7789
aV.
aa(lp7790
Vthat
p7791
aV's
p7792
aVwhy
p7793
aVi
aVsign
p7794
aVmyself
p7795
aVnow
p7796
aV.
aa(lp7797
Vi
aVsaid
p7798
aVlong
p7799
aVago
p7800
aV,
aVyou
p7801
aVget
p7802
aVyou
p7803
aVa
aVsignature
p7804
aVand
p7805
aVsign
p7806
aVeverything
p7807
aVyou
p7808
aVdo
p7809
aVand
p7810
aVkeep
p7811
aVa
aVcopy
p7812
aVof
p7813
aVit
p7814
aV.
aa(lp7815
Vthen
p7816
aVyou
p7817
aV'll
p7818
aVknow
p7819
aVwhat
p7820
aVyou
p7821
aVdone
p7822
aVand
p7823
aVyou
p7824
aVcan
p7825
aVhold
p7826
aVup
p7827
aVthe
p7828
aVcrime
p7829
aVto
p7830
aVthe
p7831
aVpunishment
p7832
aVand
p7833
aVsee
p7834
aVdo
p7835
aVthey
p7836
aVmatch
p7837
aVand
p7838
aVin
p7839
aVthe
p7840
aVend
p7841
aVyou
p7842
aV'll
p7843
aVhave
p7844
aVsomething
p7845
aVto
p7846
aVprove
p7847
aVyou
p7848
aVai
p7849
aVn't
p7850
aVbeen
p7851
aVtreated
p7852
aVright
p7853
aV.
aa(lp7854
Vi
aVcall
p7855
aVmyself
p7856
aVthe
p7857
aVmisfit
p7858
aV,
aV''
p7859
aVhe
p7860
aVsaid
p7861
aV,
aV``
p7862
aVbecause
p7863
aVi
aVca
p7864
aVn't
p7865
aVmake
p7866
aVwhat
p7867
aVall
p7868
aVi
aVdone
p7869
aVwrong
p7870
aVfit
p7871
aVwhat
p7872
aVall
p7873
aVi
aVgone
p7874
aVthrough
p7875
aVin
p7876
aVpunishment
p7877
aV.
aV''
p7878
aa(lp7879
Vthere
p7880
aVwas
p7881
aVa
aVpiercing
p7882
aVscream
p7883
aVfrom
p7884
aVthe
p7885
aVwoods
p7886
aV,
aVfollowed
p7887
aVclosely
p7888
aVby
p7889
aVa
aVpistol
p7890
aVreport
p7891
aV.
aa(lp7892
V``
p7893
aVdoes
p7894
aVit
p7895
aVseem
p7896
aVright
p7897
aVto
p7898
aVyou
p7899
aV,
aVlady
p7900
aV,
aVthat
p7901
aVone
p7902
aVis
p7903
aVpunished
p7904
aVa
aVheap
p7905
aVand
p7906
aVanother
p7907
aVai
p7908
aVn't
p7909
aVpunished
p7910
aVat
p7911
aVall
p7912
aV?
aV''
p7913
aa(lp7914
V``
p7915
aVjesus
p7916
aV!
aV''
p7917
aa(lp7918
Vthe
p7919
aVold
p7920
aVlady
p7921
aVcried
p7922
aV.
aa(lp7923
V``
p7924
aVyou
p7925
aV've
p7926
aVgot
p7927
aVgood
p7928
aVblood
p7929
aV!
aa(lp7930
Vi
aVknow
p7931
aVyou
p7932
aVwould
p7933
aVn't
p7934
aVshoot
p7935
aVa
aVlady
p7936
aV!
aa(lp7937
Vi
aVknow
p7938
aVyou
p7939
aVcome
p7940
aVfrom
p7941
aVnice
p7942
aV152
p7943
aVa
aVgood
p7944
aVman
p7945
aVis
p7946
aVhard
p7947
aVto
p7948
aVfind
p7949
aVpeople
p7950
aV!
aa(lp7951
Vpray
p7952
aV!
aa(lp7953
Vjesus
p7954
aV,
aVyou
p7955
aVought
p7956
aVnot
p7957
aVto
p7958
aVshoot
p7959
aVa
aVlady
p7960
aV.
aa(lp7961
Vi
aV'll
p7962
aVgive
p7963
aVyou
p7964
aVall
p7965
aVthe
p7966
aVmoney
p7967
aVi
aV've
p7968
aVgot
p7969
aV!
aV''
p7970
aa(lp7971
V``
p7972
aVlady
p7973
aV,
aV''
p7974
aVthe
p7975
aVmisfit
p7976
aVsaid
p7977
aV,
aVlooking
p7978
aVbeyond
p7979
aVher
p7980
aVfar
p7981
aVinto
p7982
aVthe
p7983
aVwoods
p7984
aV,
aV``
p7985
aVthere
p7986
aVnever
p7987
aVwas
p7988
aVa
aVbody
p7989
aVthat
p7990
aVgive
p7991
aVthe
p7992
aVundertaker
p7993
aVa
aVtip
p7994
aV.
aV''
p7995
aa(lp7996
Vthere
p7997
aVwere
p7998
aVtwo
p7999
aVmore
p8000
aVpistol
p8001
aVreports
p8002
aVand
p8003
aVthe
p8004
aVgrandmother
p8005
aVraised
p8006
aVher
p8007
aVhead
p8008
aVlike
p8009
aVa
aVparched
p8010
aVold
p8011
aVturkey
p8012
aVhen
p8013
aVcrying
p8014
aVfor
p8015
aVwater
p8016
aVand
p8017
aVcalled
p8018
aV,
aV``
p8019
aVbailey
p8020
aVboy
p8021
aV,
aVbailey
p8022
aVboy
p8023
aV!
aV''
p8024
aa(lp8025
Vas
p8026
aVif
p8027
aVher
p8028
aVheart
p8029
aVwould
p8030
aVbreak
p8031
aV.
aa(lp8032
V``
p8033
aVjesus
p8034
aVwas
p8035
aVthe
p8036
aVonly
p8037
aVone
p8038
aVthat
p8039
aVever
p8040
aVraised
p8041
aVthe
p8042
aVdead
p8043
aV,
aV''
p8044
aVthe
p8045
aVmisfit
p8046
aVcontinued
p8047
aV,
aV``
p8048
aVand
p8049
aVhe
p8050
aVshould
p8051
aVn't
p8052
aVhave
p8053
aVdone
p8054
aVit
p8055
aV.
aa(lp8056
Vhe
p8057
aVshown
p8058
aVeverything
p8059
aVoff
p8060
aVbalance
p8061
aV.
aa(lp8062
Vif
p8063
aVhe
p8064
aVdid
p8065
aVwhat
p8066
aVhe
p8067
aVsaid
p8068
aV,
aVthen
p8069
aVit
p8070
aV's
p8071
aVnothing
p8072
aVfor
p8073
aVyou
p8074
aVto
p8075
aVdo
p8076
aVbut
p8077
aVthow
p8078
aVaway
p8079
aVeverything
p8080
aVand
p8081
aVfollow
p8082
aVhim
p8083
aV,
aVand
p8084
aVif
p8085
aVhe
p8086
aVdid
p8087
aVn't
p8088
aV,
aVthen
p8089
aVit
p8090
aV's
p8091
aVnothing
p8092
aVfor
p8093
aVyou
p8094
aVto
p8095
aVdo
p8096
aVbut
p8097
aVenjoy
p8098
aVthe
p8099
aVfew
p8100
aVminutes
p8101
aVyou
p8102
aVgot
p8103
aVleft
p8104
aVthe
p8105
aVbest
p8106
aVway
p8107
aVyou
p8108
aVcan-by
p8109
aVkilling
p8110
aVsomebody
p8111
aVor
p8112
aVburning
p8113
aVdown
p8114
aVhis
p8115
aVhouse
p8116
aVor
p8117
aVdoing
p8118
aVsome
p8119
aVother
p8120
aVmeanness
p8121
aVto
p8122
aVhim
p8123
aV.
aa(lp8124
Vno
p8125
aVpleasure
p8126
aVbut
p8127
aVmeanness
p8128
aV,
aV''
p8129
aVhe
p8130
aVsaid
p8131
aVand
p8132
aVhis
p8133
aVvoice
p8134
aVhad
p8135
aVbecome
p8136
aValmost
p8137
aVa
aVsnarl
p8138
aV.
aa(lp8139
V``
p8140
aVmaybe
p8141
aVhe
p8142
aVdid
p8143
aVn't
p8144
aVraise
p8145
aVthe
p8146
aVdead
p8147
aV,
aV''
p8148
aVthe
p8149
aVold
p8150
aVlady
p8151
aVmumbled
p8152
aV,
aVnot
p8153
aVknowing
p8154
aVwhat
p8155
aVshe
p8156
aVwas
p8157
aVsaying
p8158
aVand
p8159
aVfeeling
p8160
aVso
p8161
aVdizzy
p8162
aVthat
p8163
aVshe
p8164
aVsank
p8165
aVdown
p8166
aVin
p8167
aVthe
p8168
aVditch
p8169
aVwith
p8170
aVher
p8171
aVlegs
p8172
aVtwisted
p8173
aVunder
p8174
aVher
p8175
aV.
aa(lp8176
V``
p8177
aVi
aVwas
p8178
aVn't
p8179
aVthere
p8180
aVso
p8181
aVi
aVca
p8182
aVn't
p8183
aVsay
p8184
aVhe
p8185
aVdid
p8186
aVn't
p8187
aV,
aV''
p8188
aVthe
p8189
aVmisfit
p8190
aVsaid
p8191
aV.
aa(lp8192
V``
p8193
aVi
aVwisht
p8194
aVi
aVhad
p8195
aVof
p8196
aVbeen
p8197
aVthere
p8198
aV,
aV''
p8199
aVhe
p8200
aVsaid
p8201
aV,
aVhitting
p8202
aVthe
p8203
aVground
p8204
aVwith
p8205
aVhis
p8206
aVfist
p8207
aV.
aa(lp8208
V``
p8209
aVit
p8210
aVai
p8211
aVn't
p8212
aVright
p8213
aVi
aVwas
p8214
aVn't
p8215
aVthere
p8216
aVbecause
p8217
aVif
p8218
aVi
aVhad
p8219
aVof
p8220
aVbeen
p8221
aVthere
p8222
aVi
aVwould
p8223
aVof
p8224
aVknown
p8225
aV.
aa(lp8226
Vlisten
p8227
aVlady
p8228
aV,
aV''
p8229
aVhe
p8230
aVsaid
p8231
aVin
p8232
aVa
aVhigh
p8233
aVvoice
p8234
aV,
aV``
p8235
aVif
p8236
aVi
aVhad
p8237
aVof
p8238
aVbeen
p8239
aVthere
p8240
aVi
aVwould
p8241
aVof
p8242
aVknown
p8243
aVand
p8244
aVi
aVwould
p8245
aVn't
p8246
aVbe
p8247
aVlike
p8248
aVi
aVam
p8249
aVnow
p8250
aV.
aV''
p8251
aa(lp8252
Vhis
p8253
aVvoice
p8254
aVseemed
p8255
aVabout
p8256
aVto
p8257
aVcrack
p8258
aVand
p8259
aVthe
p8260
aVgrandmother
p8261
aV's
p8262
aVhead
p8263
aVcleared
p8264
aVfor
p8265
aVan
p8266
aVinstant
p8267
aV.
aa(lp8268
Vshe
p8269
aVsaw
p8270
aVthe
p8271
aVman
p8272
aV's
p8273
aVface
p8274
aVtwisted
p8275
aVclose
p8276
aVto
p8277
aVher
p8278
aVown
p8279
aVas
p8280
aVif
p8281
aVhe
p8282
aVwere
p8283
aVgoing
p8284
aVto
p8285
aVcry
p8286
aVand
p8287
aVshe
p8288
aVmurmured
p8289
aV,
aV``
p8290
aVwhy
p8291
aVyou
p8292
aV're
p8293
aVone
p8294
aVof
p8295
aVmy
p8296
aVbabies
p8297
aV.
aa(lp8298
Vyou
p8299
aV're
p8300
aVone
p8301
aVof
p8302
aVmy
p8303
aVown
p8304
aVchildren
p8305
aV!
aV''
p8306
aa(lp8307
Vshe
p8308
aVreached
p8309
aVout
p8310
aVand
p8311
aVtouched
p8312
aVhim
p8313
aVon
p8314
aVthe
p8315
aVshoulder
p8316
aV.
aa(lp8317
Vthe
p8318
aVmisfit
p8319
aVsprang
p8320
aVback
p8321
aVas
p8322
aVif
p8323
aVa
aVsnake
p8324
aVhad
p8325
aVbitten
p8326
aVhim
p8327
aVand
p8328
aVshot
p8329
aVher
p8330
aVthree
p8331
aVtimes
p8332
aVthrough
p8333
aVthe
p8334
aVchest
p8335
aV.
aa(lp8336
Vthen
p8337
aVhe
p8338
aVput
p8339
aVhis
p8340
aVgun
p8341
aVdown
p8342
aVon
p8343
aVthe
p8344
aVground
p8345
aVand
p8346
aVtook
p8347
aVoff
p8348
aVhis
p8349
aVglasses
p8350
aVand
p8351
aVbegan
p8352
aVto
p8353
aVclean
p8354
aVthem
p8355
aV.
aa(lp8356
Vhiram
p8357
aVand
p8358
aVbobby
p8359
aVlee
p8360
aVreturned
p8361
aVfrom
p8362
aVthe
p8363
aVwoods
p8364
aVand
p8365
aVstood
p8366
aVover
p8367
aVthe
p8368
aVditch
p8369
aV,
aVlooking
p8370
aVdown
p8371
aVat
p8372
aVthe
p8373
aVgrandmother
p8374
aVwho
p8375
aVhalf
p8376
aVsat
p8377
aVand
p8378
aVhalf
p8379
aVlay
p8380
aVin
p8381
aVa
aVpuddle
p8382
aVof
p8383
aVblood
p8384
aVwith
p8385
aVher
p8386
aVlegs
p8387
aVcrossed
p8388
aVunder
p8389
aVher
p8390
aVlike
p8391
aVa
aVchild
p8392
aV's
p8393
aVand
p8394
aVher
p8395
aVface
p8396
aVsmiling
p8397
aVup
p8398
aVat
p8399
aVthe
p8400
aVcloudless
p8401
aVsky
p8402
aV.
aa(lp8403
Va
aVgood
p8404
aVman
p8405
aVis
p8406
aVhard
p8407
aVto
p8408
aVfind
p8409
aV153
p8410
aVwithout
p8411
aVhis
p8412
aVglasses
p8413
aV,
aVthe
p8414
aVmisfit
p8415
aV's
p8416
aVeyes
p8417
aVwere
p8418
aVred-rimmed
p8419
aVand
p8420
aVpale
p8421
aVand
p8422
aVdefenseless-looking
p8423
aV.
aa(lp8424
V``
p8425
aVtake
p8426
aVher
p8427
aVoff
p8428
aVand
p8429
aVthow
p8430
aVher
p8431
aVwhere
p8432
aVyou
p8433
aVshown
p8434
aVthe
p8435
aVothers
p8436
aV,
aV''
p8437
aVhe
p8438
aVsaid
p8439
aV,
aVpicking
p8440
aVup
p8441
aVthe
p8442
aVcat
p8443
aVthat
p8444
aVwas
p8445
aVrubbing
p8446
aVitself
p8447
aVagainst
p8448
aVhis
p8449
aVleg
p8450
aV.
aa(lp8451
V``
p8452
aVshe
p8453
aVwas
p8454
aVa
aVtalker
p8455
aV,
aVwas
p8456
aVn't
p8457
aVshe
p8458
aV?
aV''
p8459
aa(lp8460
Vbobby
p8461
aVlee
p8462
aVsaid
p8463
aV,
aVsliding
p8464
aVdown
p8465
aVthe
p8466
aVditch
p8467
aVwith
p8468
aVa
aVyodel
p8469
aV.
aa(lp8470
V``
p8471
aVshe
p8472
aVwould
p8473
aVof
p8474
aVbeen
p8475
aVa
aVgood
p8476
aVwoman
p8477
aV,
aV''
p8478
aVthe
p8479
aVmisfit
p8480
aVsaid
p8481
aV,
aV``
p8482
aVif
p8483
aVit
p8484
aVhad
p8485
aVbeen
p8486
aVsomebody
p8487
aVthere
p8488
aVto
p8489
aVshoot
p8490
aVher
p8491
aVevery
p8492
aVminute
p8493
aVof
p8494
aVher
p8495
aVlife
p8496
aV.
aV''
p8497
aa(lp8498
V``
p8499
aVsome
p8500
aVfun
p8501
aV!
aV''
p8502
aa(lp8503
Vbobby
p8504
aVlee
p8505
aVsaid
p8506
aV.
aa(lp8507
V``
p8508
aVshut
p8509
aVup
p8510
aV,
aVbobby
p8511
aVlee
p8512
aV''
p8513
aVthe
p8514
aVmisfit
p8515
aVsaid
p8516
aV.
aa(lp8517
V``
p8518
aVit
p8519
aV's
p8520
aVno
p8521
aVreal
p8522
aVpleasure
p8523
aVin
p8524
aVlife
p8525
aV.
aV''
p8526
aasb.