ccopy_reg
_reconstructor
p1
(cData.Book
Book
p2
c__builtin__
object
p3
NtRp4
(dp5
S'stored_object'
p6
S'Books/Why_I_Live_at_the_P.O./Book_object.p'
p7
sS'title'
p8
S'Why I Live at the P.O.'
p9
sS'main_text_path'
p10
S'Books/Why_I_Live_at_the_P.O./main_cleaned.txt'
p11
sS'metadata_path'
p12
S'Books/Why_I_Live_at_the_P.O./meta_data.csv'
p13
sS'book_path'
p14
S'Books/Why_I_Live_at_the_P.O./'
p15
sS'characters'
p16
(dp17
S'sister'
p18
(dp19
S'list'
p20
(lp21
(lp22
V[
aVCHARACTER
p23
aV]
aV-
aVthe
p24
aVnarrator
p25
aVand
p26
aVtown
p27
aV's
p28
aVpostmistress
p29
aV.
aa(lp30
V[
aVCHARACTER
p31
aV]
aVis
p32
aVexactly
p33
aVone
p34
aVyear
p35
aVolder
p36
aVthan
p37
aVstella-rondo
p38
aVand
p39
aVwas
p40
aVinvolved
p41
aVwith
p42
aVmr.
p43
aVwhitaker
p44
aVbefore
p45
aVstella-rondo
p46
aVbecame
p47
aVengaged
p48
aVto
p49
aVhim
p50
aV.
aa(lp51
V[
aVCHARACTER
p52
aV]
aVis
p53
aVfrank
p54
aVand
p55
aVoutspoken
p56
aV,
aVbut
p57
aVher
p58
aVpettiness
p59
aVand
p60
aVjealousy
p61
aVoften
p62
aVget
p63
aVthe
p64
aVbest
p65
aVof
p66
aVher
p67
aV,
aVclouding
p68
aVher
p69
aVview
p70
aVof
p71
aVthe
p72
aVworld
p73
aV.
aa(lp74
V[
aVCHARACTER
p75
aV]
aV's
p76
aVtelling
p77
aVof
p78
aVthe
p79
aVstory
p80
aVis
p81
aVfull
p82
aVof
p83
aVcomedy
p84
aV,
aVand
p85
aVher
p86
aVhumor
p87
aVhelps
p88
aVher
p89
aVcope
p90
aVwith
p91
aVstress
p92
aVand
p93
aVthe
p94
aVhurt
p95
aVthat
p96
aVher
p97
aVfamily
p98
aVmembers
p99
aVsometimes
p100
aVinflict
p101
aV.
aasS'analysis'
p102
(lp103
(lp104
V[
aVCHARACTER
p105
aV]
aV[
aVCHARACTER
p106
aV]
aV,
aVthe
p107
aVcynical
p108
aV,
aVoutraged
p109
aVnarrator
p110
aVof
p111
aV``
p112
aVwhy
p113
aVi
aVlive
p114
aVat
p115
aVthe
p116
aVp.o.
p117
aV,
aV''
p118
aVis
p119
aVa
aVcomplex
p120
aVmixture
p121
aVof
p122
aVsorely
p123
aVused
p124
aVscapegoat
p125
aVand
p126
aVself-deluded
p127
aV,
aVunreliable
p128
aVnarrator
p129
aV.
aa(lp130
Vshe
p131
aVstands
p132
aVin
p133
aVthe
p134
aVshadow
p135
aVof
p136
aVher
p137
aVyounger
p138
aV[
aVCHARACTER
p139
aV]
aV,
aVstella-rondo
p140
aV,
aVwhose
p141
aVreturn
p142
aVto
p143
aVthe
p144
aVfamily
p145
aVhome
p146
aVwith
p147
aVher
p148
aVdaughter
p149
aV,
aVshirley-t.
p150
aV,
aVdredges
p151
aVup
p152
aV[
aVCHARACTER
p153
aV]
aV's
p154
aVlong-simmering
p155
aVjealousy
p156
aVand
p157
aVresentment
p158
aV.
aa(lp159
Vher
p160
aVfamily
p161
aVseems
p162
aVunwilling
p163
aVto
p164
aVbelieve
p165
aVher
p166
aVword
p167
aVagainst
p168
aVstella-rondo
p169
aV's
p170
aV,
aVand
p171
aV[
aVCHARACTER
p172
aV]
aVis
p173
aVfrequently
p174
aVaccused
p175
aVof
p176
aVsaying
p177
aVthings
p178
aVshe
p179
aVdid
p180
aVnot
p181
aVsay
p182
aVand
p183
aVdoing
p184
aVthings
p185
aVshe
p186
aVdid
p187
aVnot
p188
aVdo
p189
aV.
aa(lp190
Vwhen
p191
aVuncle
p192
aVrondo
p193
aVgets
p194
aVangry
p195
aVwith
p196
aVher
p197
aVfor
p198
aVmaking
p199
aVfun
p200
aVof
p201
aVhis
p202
aVkimono
p203
aV,
aVhe
p204
aVtosses
p205
aVa
aVpack
p206
aVof
p207
aVfirecrackers
p208
aVinto
p209
aVher
p210
aVbedroom
p211
aV.
aa(lp212
V[
aVCHARACTER
p213
aV]
aV's
p214
aVposition
p215
aVas
p216
aVthe
p217
aVmuch-abused
p218
aVdaughter
p219
aVseems
p220
aVclear
p221
aV.
aa(lp222
Vhowever
p223
aV,
aVher
p224
aVunrelentingly
p225
aVdramatic
p226
aVcommentary
p227
aVand
p228
aVinsistence
p229
aVon
p230
aVoperating
p231
aVat
p232
aVa
aVconstant
p233
aVfever
p234
aVpitch
p235
aVundermine
p236
aVher
p237
aVjustified
p238
aVfrustration
p239
aV.
aa(lp240
Vbecause
p241
aV[
aVCHARACTER
p242
aV]
aVis
p243
aVthe
p244
aVnarrator
p245
aV,
aVevery
p246
aVevent
p247
aVin
p248
aVthe
p249
aVstory
p250
aVis
p251
aVtinged
p252
aVwith
p253
aVher
p254
aVoutraged
p255
aVdisbelief
p256
aV,
aVand
p257
aVshe
p258
aVoffers
p259
aVno
p260
aVreal
p261
aVwindow
p262
aVinto
p263
aVhow
p264
aVshe
p265
aVactually
p266
aVfeels
p267
aV.
aa(lp268
Vthe
p269
aVextremity
p270
aVof
p271
aV[
aVCHARACTER
p272
aV]
aV's
p273
aVnarration
p274
aVdamages
p275
aVher
p276
aVcredibility
p277
aV.
aa(lp278
Valthough
p279
aVno
p280
aVone
p281
aVin
p282
aVthe
p283
aVfamily
p284
aVseems
p285
aVfully
p286
aVsane
p287
aV,
aV[
aVCHARACTER
p288
aV]
aVfrequently
p289
aVseems
p290
aVas
p291
aVstrange
p292
aVas
p293
aVthe
p294
aVrest
p295
aVand
p296
aVparticipates
p297
aVin
p298
aVthe
p299
aVcriticism
p300
aVand
p301
aValienation
p302
aVas
p303
aVmuch
p304
aVas
p305
aVanyone
p306
aVelse
p307
aV.
aa(lp308
Vthe
p309
aVjealousy
p310
aVthat
p311
aVcharacterizes
p312
aVher
p313
aVrelationship
p314
aVwith
p315
aVstella-rondo
p316
aV,
aVespecially
p317
aVover
p318
aVthe
p319
aVaffections
p320
aVof
p321
aVmr.
p322
aVwhitaker
p323
aV,
aVbrings
p324
aVout
p325
aVher
p326
aVown
p327
aVcruel
p328
aVstreak
p329
aV.
aa(lp330
Vthe
p331
aVfact
p332
aVthat
p333
aVstella-rondo
p334
aV's
p335
aVmarriage
p336
aVhas
p337
aVfailed
p338
aVpractically
p339
aVdelights
p340
aV[
aVCHARACTER
p341
aV]
aV,
aVand
p342
aVshe
p343
aVeven
p344
aVtaunts
p345
aVstella-rondo
p346
aVabout
p347
aVmr.
p348
aVwhitaker
p349
aV's
p350
aVabandonment
p351
aV,
aVsaying
p352
aV,
aV``
p353
aVi
aVknew
p354
aVfrom
p355
aVthe
p356
aVbeginning
p357
aVhe
p358
aV'd
p359
aVup
p360
aVand
p361
aVleave
p362
aVher
p363
aV.
aV''
p364
aa(lp365
Vshe
p366
aVeven
p367
aVgoes
p368
aVso
p369
aVfar
p370
aVas
p371
aVto
p372
aVmimic
p373
aVshirley-t.
p374
aVand
p375
aVsuggest
p376
aVthat
p377
aVher
p378
aVyoung
p379
aVniece
p380
aVhas
p381
aVa
aVdevelopmental
p382
aVdisability
p383
aV.
aa(lp384
V[
aVCHARACTER
p385
aV]
aVseems
p386
aVdetermined
p387
aVto
p388
aVprove
p389
aVthat
p390
aVstella-rondo
p391
aVhas
p392
aVlied
p393
aVabout
p394
aVthe
p395
aVparentage
p396
aVof
p397
aVshirley-t.
p398
aV,
aVnot
p399
aVletting
p400
aVthe
p401
aVmatter
p402
aVgo
p403
aVeven
p404
aVwhen
p405
aVit
p406
aVis
p407
aVclear
p408
aVthat
p409
aVstella-rondo
p410
aVwill
p411
aVnever
p412
aVadmit
p413
aVthat
p414
aVshe
p415
aV's
p416
aVright
p417
aV.
aa(lp418
Valthough
p419
aVfrom
p420
aV[
aVCHARACTER
p421
aV]
aV's
p422
aVperspective
p423
aVit
p424
aVappears
p425
aVshe
p426
aVwas
p427
aVdriven
p428
aVout
p429
aVof
p430
aVher
p431
aVhome
p432
aVto
p433
aVthe
p434
aVpost
p435
aVoffice
p436
aV,
aVthe
p437
aVrecord
p438
aVof
p439
aVher
p440
aVown
p441
aVtransgressions
p442
aVsuggests
p443
aVshe
p444
aVhad
p445
aVa
aVhand
p446
aVin
p447
aVcreating
p448
aVher
p449
aVfate
p450
aV.
aassS'mr. whitaker'
p451
(dp452
g20
(lp453
(lp454
Vmr.
p455
aV[
aVCHARACTER
p456
aV]
aV-
aVstella-rondo
p457
aV's
p458
aVestranged
p459
aVhusband
p460
aVand
p461
aVsister
p462
aV's
p463
aVformer
p464
aVboyfriend
p465
aV.
aa(lp466
Vrumored
p467
aVto
p468
aVhave
p469
aVa
aVdrinking
p470
aVproblem
p471
aV,
aVmr.
p472
aV[
aVCHARACTER
p473
aV]
aVis
p474
aVa
aVphotographer
p475
aVwho
p476
aVbriefly
p477
aVopened
p478
aVa
aVshop
p479
aVin
p480
aVchina
p481
aVgrove
p482
aV.
aa(lp483
Valthough
p484
aVhe
p485
aVnever
p486
aVappears
p487
aVphysically
p488
aVin
p489
aVthe
p490
aVstory
p491
aV,
aVhe
p492
aVis
p493
aVthe
p494
aVsource
p495
aVof
p496
aVthe
p497
aVrivalry
p498
aVand
p499
aVhurt
p500
aVfeelings
p501
aVbetween
p502
aVsister
p503
aVand
p504
aVstella-rondo
p505
aV.
aasg102
NssS'shirley-t.'
p506
(dp507
g20
(lp508
(lp509
V[
aVCHARACTER
p510
aV]
aV-
aVstella-rondo
p511
aV's
p512
aVsupposedly
p513
aVadopted
p514
aVtwo-year-old
p515
aVdaughter
p516
aV.
aa(lp517
V[
aVCHARACTER
p518
aV]
aVis
p519
aVmute
p520
aVthroughout
p521
aVthe
p522
aVstory
p523
aVexcept
p524
aVfor
p525
aVa
aVbrief
p526
aVmoment
p527
aVwhen
p528
aVshe
p529
aVloudly
p530
aVbelts
p531
aVout
p532
aVthe
p533
aVtheme
p534
aVsong
p535
aVto
p536
aVpopeye
p537
aVthe
p538
aVsailor
p539
aVman
p540
aVand
p541
aVrefers
p542
aVto
p543
aVuncle
p544
aVrondo
p545
aVas
p546
aVpapa
p547
aV.
aasg102
NssS'mama'
p548
(dp549
g20
(lp550
(lp551
V[
aVCHARACTER
p552
aV]
aV-
aVthe
p553
aVfamily
p554
aVmatriarch
p555
aV,
aVwho
p556
aVweighs
p557
aV200
p558
aVpounds
p559
aV.
aa(lp560
Vgullible
p561
aVand
p562
aVself-deluded
p563
aV,
aV[
aVCHARACTER
p564
aV]
aVseems
p565
aVto
p566
aVbelieve
p567
aVwhatever
p568
aVshe
p569
aVis
p570
aVtold
p571
aV,
aVas
p572
aVlong
p573
aVas
p574
aVit
p575
aVis
p576
aVcoming
p577
aVfrom
p578
aVstella-rondo
p579
aV.
aa(lp580
Valthough
p581
aVshe
p582
aVfeels
p583
aVthat
p584
aVshe
p585
aVis
p586
aVa
aVfair
p587
aVand
p588
aVsupportive
p589
aVparent
p590
aV,
aVher
p591
aVregard
p592
aVfor
p593
aVstella-rondo
p594
aV,
aVas
p595
aVopposed
p596
aVto
p597
aVsister
p598
aV,
aVseems
p599
aVabundantly
p600
aVclear
p601
aV.
aa(lp602
Vhowever
p603
aV,
aVshe
p604
aVreassures
p605
aVsister
p606
aVthat
p607
aVshe
p608
aVwould
p609
aVbe
p610
aVtreated
p611
aVthe
p612
aVsame
p613
aVway
p614
aVif
p615
aVshe
p616
aVwere
p617
aVto
p618
aVleave
p619
aVhome
p620
aVand
p621
aVthen
p622
aVreturn
p623
aVafter
p624
aVa
aVseparation
p625
aV.
aasg102
(lp626
(lp627
V[
aVCHARACTER
p628
aV]
aV[
aVCHARACTER
p629
aV]
aVseems
p630
aVto
p631
aVset
p632
aVthe
p633
aVprecedent
p634
aVfor
p635
aVthe
p636
aVfamily
p637
aV's
p638
aVmiscommunication
p639
aV,
aVrivalry
p640
aV,
aVand
p641
aVdisagreement
p642
aV.
aa(lp643
Vthe
p644
aVhostility
p645
aVbetween
p646
aVsister
p647
aVand
p648
aVstella-rondo
p649
aVhas
p650
aVits
p651
aVroots
p652
aVin
p653
aV[
aVCHARACTER
p654
aV]
aV's
p655
aVown
p656
aVtroubled
p657
aVrelationships
p658
aV.
aa(lp659
Vwhen
p660
aVstella-rondo
p661
aVforbids
p662
aVsister
p663
aVto
p664
aVspeak
p665
aVshirley-t.
p666
aV's
p667
aVname
p668
aV,
aVit
p669
aVechoes
p670
aV[
aVCHARACTER
p671
aV]
aV's
p672
aVforbidding
p673
aVof
p674
aVanyone
p675
aVto
p676
aVspeak
p677
aVof
p678
aVher
p679
aVcousin
p680
aV.
aa(lp681
Vfurthermore
p682
aV,
aV[
aVCHARACTER
p683
aV]
aVeasily
p684
aVperpetuates
p685
aVlies
p686
aVamong
p687
aVthe
p688
aVfamily
p689
aVmembers
p690
aV,
aVeven
p691
aVthough
p692
aV,
aVat
p693
aVtimes
p694
aV,
aVshe
p695
aVsuspects
p696
aVor
p697
aVeven
p698
aVknows
p699
aVthe
p700
aVtruth
p701
aV.
aa(lp702
Vfor
p703
aVexample
p704
aV,
aVshe
p705
aVreprimands
p706
aVsister
p707
aVfor
p708
aVsuggesting
p709
aVthat
p710
aVshirley-t.
p711
aVis
p712
aVstella-rondo
p713
aV's
p714
aVbiological
p715
aVdaughter
p716
aV,
aVbut
p717
aVshe
p718
aVherself
p719
aVwonders
p720
aVhow
p721
aVstella-rondo
p722
aVcould
p723
aVpossibly
p724
aVprove
p725
aVthat
p726
aVshirley-t.
p727
aVis
p728
aVadopted
p729
aV.
aa(lp730
Vlater
p731
aV,
aVshe
p732
aVlinks
p733
aVshirley-t.
p734
aV's
p735
aVsilence
p736
aVand
p737
aVstrange
p738
aVbehavior
p739
aVto
p740
aVmr.
p741
aVwhitaker
p742
aV's
p743
aVconsumption
p744
aVof
p745
aVchemicals
p746
aV,
aVsuggesting
p747
aVthat
p748
aVshe
p749
aVknows
p750
aVthat
p751
aVmr.
p752
aVwhitaker
p753
aVis
p754
aV,
aVin
p755
aVfact
p756
aV,
aVshirley-t.
p757
aV's
p758
aVbiological
p759
aVfather
p760
aV.
aa(lp761
Vrather
p762
aVthan
p763
aVnot
p764
aVunderstanding
p765
aVthe
p766
aVsplit
p767
aVbetween
p768
aVreality
p769
aVand
p770
aVfiction
p771
aV,
aV[
aVCHARACTER
p772
aV]
aVmerely
p773
aVprefers
p774
aVone
p775
aVversion
p776
aVover
p777
aVthe
p778
aVother
p779
aV.
aa(lp780
Vshe
p781
aVwould
p782
aVrather
p783
aVbelieve
p784
aVthat
p785
aVstella-rondo
p786
aVis
p787
aVvirtuous
p788
aVthan
p789
aVbelieve
p790
aVshe
p791
aVis
p792
aVa
aVgirl
p793
aVwho
p794
aVhas
p795
aVhad
p796
aVpremarital
p797
aVsex
p798
aV.
aa(lp799
V[
aVCHARACTER
p800
aV]
aV's
p801
aVdesire
p802
aVto
p803
aVdeny
p804
aVthe
p805
aVtruth
p806
aVultimately
p807
aVproves
p808
aVmore
p809
aVdamaging
p810
aVto
p811
aVthe
p812
aVfamily
p813
aV's
p814
aVrelationships
p815
aVthan
p816
aVthe
p817
aVtruth
p818
aVitself
p819
aVwould
p820
aVhave
p821
aVbeen
p822
aV.
aassS'stella-rondo'
p823
(dp824
g20
(lp825
(lp826
V[
aVCHARACTER
p827
aV]
aV-
aVsister
p828
aV's
p829
aVrival
p830
aV,
aVwho
p831
aVreturns
p832
aVto
p833
aVthe
p834
aVfamily
p835
aVhome
p836
aVafter
p837
aVseparating
p838
aVfrom
p839
aVmr.
p840
aVwhitaker
p841
aV.
aa(lp842
V[
aVCHARACTER
p843
aV]
aVrelentlessly
p844
aVsupports
p845
aVher
p846
aVown
p847
aVversion
p848
aVof
p849
aVevents
p850
aV,
aVincluding
p851
aVher
p852
aVclaim
p853
aVthat
p854
aVshirley-t.
p855
aVis
p856
aVher
p857
aVadopted
p858
aV,
aVnot
p859
aVbiological
p860
aV,
aVdaughter
p861
aV.
aa(lp862
Vhot-tempered
p863
aV,
aVdramatic
p864
aV,
aVand
p865
aVmanipulative
p866
aV,
aVshe
p867
aVinstigates
p868
aVfamily
p869
aVdiscord
p870
aVto
p871
aVget
p872
aVher
p873
aVfamily
p874
aVmembers
p875
aVto
p876
aVgive
p877
aVher
p878
aVattention
p879
aVand
p880
aVemotional
p881
aVsupport
p882
aV.
aasg102
(lp883
(lp884
V[
aVCHARACTER
p885
aV]
aVwhen
p886
aV[
aVCHARACTER
p887
aV]
aVreturns
p888
aVto
p889
aVthe
p890
aVfamily
p891
aVfold
p892
aVfor
p893
aVattention
p894
aVand
p895
aVsupport
p896
aVafter
p897
aVthe
p898
aVbreakup
p899
aVof
p900
aVher
p901
aVmarriage
p902
aV,
aVshe
p903
aVeasily
p904
aVreclaims
p905
aVher
p906
aVposition
p907
aVas
p908
aVthe
p909
aVpampered
p910
aVfavorite
p911
aV.
aa(lp912
Vthough
p913
aVsister
p914
aVlobbies
p915
aVwildly
p916
aVfor
p917
aVrecognition
p918
aVand
p919
aVrespect
p920
aV,
aV[
aVCHARACTER
p921
aV]
aVis
p922
aVmore
p923
aVskilled
p924
aVat
p925
aVgarnering
p926
aVsympathy
p927
aV,
aVand
p928
aVshe
p929
aVeasily
p930
aVbrushes
p931
aVsister
p932
aVaside
p933
aVto
p934
aVwin
p935
aVthe
p936
aVspotlight
p937
aV.
aa(lp938
Vshe
p939
aVis
p940
aVused
p941
aVto
p942
aVhaving
p943
aVher
p944
aVown
p945
aVversion
p946
aVof
p947
aVthe
p948
aVtruth
p949
aVaccepted
p950
aVwithout
p951
aVquestion
p952
aV,
aVand
p953
aVwith
p954
aVthe
p955
aVexception
p956
aVof
p957
aVsister
p958
aV,
aVthe
p959
aVentire
p960
aVfamily
p961
aVswallows
p962
aVher
p963
aVclaim
p964
aVthat
p965
aVshirley-t.
p966
aVis
p967
aVadopted
p968
aV.
aa(lp969
V[
aVCHARACTER
p970
aV]
aV's
p971
aVinsistence
p972
aVon
p973
aVher
p974
aVsuperiority
p975
aVis
p976
aVremarkable
p977
aVin
p978
aVlight
p979
aVof
p980
aVthe
p981
aVcircumstances
p982
aVthat
p983
aVbrought
p984
aVher
p985
aVhome
p986
aV.
aa(lp987
Vshe
p988
aVclaims
p989
aVthat
p990
aVshe
p991
aVleft
p992
aVmr.
p993
aVwhitaker
p994
aV,
aVbut
p995
aVsister
p996
aVis
p997
aVconvinced
p998
aVthe
p999
aVopposite
p1000
aVis
p1001
aVtrue
p1002
aV:
aV``
p1003
aVhe
p1004
aVleft
p1005
aVher
p1006
aV--
p1007
aVyou
p1008
aVmark
p1009
aVmy
p1010
aVwords
p1011
aV,
aV''
p1012
aVsister
p1013
aVsays
p1014
aV.
aa(lp1015
Vyet
p1016
aVthe
p1017
aVtruth
p1018
aVis
p1019
aVcertainly
p1020
aVsomething
p1021
aV[
aVCHARACTER
p1022
aV]
aVwill
p1023
aVdo
p1024
aVher
p1025
aVbest
p1026
aVto
p1027
aVconceal
p1028
aV.
aa(lp1029
V[
aVCHARACTER
p1030
aV]
aV's
p1031
aVposition
p1032
aVas
p1033
aVthe
p1034
aVobject
p1035
aVof
p1036
aVpraise
p1037
aVand
p1038
aVapproval
p1039
aVhas
p1040
aVhampered
p1041
aVher
p1042
aVmaturity
p1043
aVand
p1044
aVpersonal
p1045
aVdevelopment
p1046
aV.
aa(lp1047
Vher
p1048
aVlife
p1049
aVhas
p1050
aVbeen
p1051
aVmarked
p1052
aVby
p1053
aVimpetuousness
p1054
aV,
aVimpatience
p1055
aV,
aVand
p1056
aVa
aVlack
p1057
aVof
p1058
aVcommitment
p1059
aV.
aa(lp1060
Vsister
p1061
aVremembers
p1062
aV[
aVCHARACTER
p1063
aV]
aV's
p1064
aVinability
p1065
aVto
p1066
aVfollow
p1067
aVthrough
p1068
aVon
p1069
aVcollecting
p1070
aVpearls
p1071
aVfor
p1072
aVher
p1073
aVadd-a-pearl
p1074
aVnecklace
p1075
aVwhen
p1076
aVthey
p1077
aVwere
p1078
aVchildren
p1079
aV.
aa(lp1080
V``
p1081
aVshe
p1082
aV's
p1083
aValways
p1084
aVhad
p1085
aVanything
p1086
aVin
p1087
aVthe
p1088
aVworld
p1089
aVshe
p1090
aVwanted
p1091
aVand
p1092
aVthen
p1093
aVshe
p1094
aV'd
p1095
aVthrow
p1096
aVit
p1097
aVaway
p1098
aV,
aV''
p1099
aVsister
p1100
aVsays
p1101
aV.
aa(lp1102
V[
aVCHARACTER
p1103
aV]
aV's
p1104
aVcurrent
p1105
aVsituation
p1106
aVwith
p1107
aVmr.
p1108
aVwhitaker
p1109
aVseems
p1110
aVto
p1111
aVfollow
p1112
aVthat
p1113
aVpattern
p1114
aV,
aValthough
p1115
aVit
p1116
aVis
p1117
aVunclear
p1118
aVwho
p1119
aV``
p1120
aVthrew
p1121
aVaway
p1122
aV''
p1123
aVwhom
p1124
aV.
aa(lp1125
V[
aVCHARACTER
p1126
aV]
aV's
p1127
aVspoiled
p1128
aVposition
p1129
aVin
p1130
aVthe
p1131
aVfamily
p1132
aVand
p1133
aVinsistence
p1134
aVon
p1135
aVappearing
p1136
aVperfect
p1137
aVlead
p1138
aVher
p1139
aVto
p1140
aVignore
p1141
aVdifficult
p1142
aVproblems
p1143
aVand
p1144
aVdeflect
p1145
aVtroubling
p1146
aVquestions
p1147
aV.
aa(lp1148
Vif
p1149
aVshirley-t.
p1150
aVis
p1151
aVnot
p1152
aVadopted
p1153
aV,
aVis
p1154
aVmr.
p1155
aVwhitaker
p1156
aVthe
p1157
aVfather
p1158
aV?
aa(lp1159
Vwere
p1160
aVhe
p1161
aVand
p1162
aV[
aVCHARACTER
p1163
aV]
aVintimate
p1164
aVwhile
p1165
aVhe
p1166
aVwas
p1167
aVdating
p1168
aVsister
p1169
aV?
aa(lp1170
Vwhy
p1171
aVdid
p1172
aVthe
p1173
aVfamily
p1174
aVsuddenly
p1175
aVmove
p1176
aVto
p1177
aVillinois
p1178
aV?
aa(lp1179
Vno
p1180
aVone
p1181
aVposes
p1182
aVthese
p1183
aVquestions
p1184
aV,
aValthough
p1185
aVsister
p1186
aVsurely
p1187
aVconsiders
p1188
aVthem
p1189
aV,
aVand
p1190
aV[
aVCHARACTER
p1191
aV]
aV's
p1192
aVstubborn
p1193
aVavoidance
p1194
aVis
p1195
aVpart
p1196
aVof
p1197
aVwhat
p1198
aVdrives
p1199
aVsister
p1200
aVto
p1201
aVleave
p1202
aVhome
p1203
aV.
aassS'papa-daddy'
p1204
(dp1205
g20
(lp1206
(lp1207
V[
aVCHARACTER
p1208
aV]
aV-
aVsister
p1209
aV's
p1210
aVgrandfather
p1211
aV.
aa(lp1212
Vwith
p1213
aVhis
p1214
aVlong
p1215
aV,
aVshaggy
p1216
aVbeard
p1217
aV,
aV[
aVCHARACTER
p1218
aV]
aVis
p1219
aVthe
p1220
aVclassic
p1221
aVcrotchety
p1222
aVold
p1223
aVman
p1224
aV,
aVwhose
p1225
aVdeafness
p1226
aVand
p1227
aVsalty
p1228
aVattitude
p1229
aVcut
p1230
aVhim
p1231
aVoff
p1232
aVfrom
p1233
aVactive
p1234
aVparticipation
p1235
aVin
p1236
aVfamily
p1237
aVlife
p1238
aV.
aa(lp1239
Vhe
p1240
aVis
p1241
aVproud
p1242
aVof
p1243
aVhis
p1244
aVconnections
p1245
aVand
p1246
aVthe
p1247
aVfact
p1248
aVthat
p1249
aVhe
p1250
aVwas
p1251
aVable
p1252
aVto
p1253
aVget
p1254
aVsister
p1255
aVher
p1256
aVposition
p1257
aVat
p1258
aVthe
p1259
aVpost
p1260
aVoffice
p1261
aV,
aVwhich
p1262
aVhe
p1263
aVoften
p1264
aVlords
p1265
aVover
p1266
aVsister
p1267
aVduring
p1268
aVarguments
p1269
aV.
aasg102
NssS'uncle rondo'
p1270
(dp1271
g20
(lp1272
(lp1273
V[
aVCHARACTER
p1274
aV]
aV-
aVa
aVmentally
p1275
aVand
p1276
aVemotionally
p1277
aVscarred
p1278
aVworld
p1279
aVwar
p1280
aVi
aVveteran
p1281
aV.
aa(lp1282
V[
aVCHARACTER
p1283
aV]
aVwears
p1284
aVstella-rondo
p1285
aV's
p1286
aVflesh-colored
p1287
aVkimono
p1288
aVand
p1289
aV,
aVas
p1290
aVis
p1291
aVhis
p1292
aVhabit
p1293
aVevery
p1294
aVfourth
p1295
aVof
p1296
aVjuly
p1297
aV,
aVconsumes
p1298
aVan
p1299
aVentire
p1300
aVbottle
p1301
aVof
p1302
aVa
aVliquid
p1303
aVprescription
p1304
aVmedicine
p1305
aVand
p1306
aVall
p1307
aVbut
p1308
aVloses
p1309
aVconsciousness
p1310
aVfor
p1311
aVhours
p1312
aV.
aa(lp1313
Vtemperamental
p1314
aVand
p1315
aVeasily
p1316
aVprovoked
p1317
aV,
aVhe
p1318
aVlashes
p1319
aVout
p1320
aVin
p1321
aVcruel
p1322
aVways
p1323
aVwhen
p1324
aVhe
p1325
aVfeels
p1326
aVhe
p1327
aVis
p1328
aVbeing
p1329
aVthreatened
p1330
aV.
aasg102
NsssS'mainText'
p1331
(lp1332
(lp1333
Vwhy
p1334
aVi
aVlive
p1335
aVat
p1336
aVthe
p1337
aVp.o
p1338
aV.
aa(lp1339
Vi
aVwas
p1340
aVgetting
p1341
aValong
p1342
aVfine
p1343
aVwith
p1344
aVmama
p1345
aV,
aVpapa-daddy
p1346
aVand
p1347
aVuncle
p1348
aVrondo
p1349
aVuntil
p1350
aVmy
p1351
aVsister
p1352
aVstella-rondo
p1353
aVjust
p1354
aVseparated
p1355
aVfrom
p1356
aVher
p1357
aVhusband
p1358
aVand
p1359
aVcame
p1360
aVback
p1361
aVhome
p1362
aVagain
p1363
aV.
aa(lp1364
Vmr.
p1365
aVwhitaker
p1366
aV!
aa(lp1367
Vof
p1368
aVcourse
p1369
aVi
aVwent
p1370
aVwith
p1371
aVmr.
p1372
aVwhitaker
p1373
aVfirst
p1374
aV,
aVwhen
p1375
aVhe
p1376
aVfirst
p1377
aVappeared
p1378
aVhere
p1379
aVin
p1380
aVchina
p1381
aVgrove
p1382
aV,
aVtaking
p1383
aV``
p1384
aVpose
p1385
aVyourself
p1386
aV''
p1387
aVphotos
p1388
aV,
aVand
p1389
aVstella-rondo
p1390
aVbroke
p1391
aVus
p1392
aVup
p1393
aV.
aa(lp1394
Vtold
p1395
aVhim
p1396
aVi
aVwas
p1397
aVone-sided
p1398
aV.
aa(lp1399
Vbigger
p1400
aVon
p1401
aVone
p1402
aVside
p1403
aVthan
p1404
aVthe
p1405
aVother
p1406
aV,
aVwhich
p1407
aVis
p1408
aVa
aVdeliberate
p1409
aV,
aVcalculated
p1410
aVfalsehood
p1411
aV:
aVi
aV'm
p1412
aVthe
p1413
aVsame
p1414
aV.
aa(lp1415
Vstella-rondo
p1416
aVis
p1417
aVexactly
p1418
aVtwelve
p1419
aVmonths
p1420
aVto
p1421
aVthe
p1422
aVday
p1423
aVyounger
p1424
aVthan
p1425
aVi
aVam
p1426
aVand
p1427
aVfor
p1428
aVthat
p1429
aVreason
p1430
aVshe
p1431
aV's
p1432
aVspoiled
p1433
aV.
aa(lp1434
Vshe
p1435
aV's
p1436
aValways
p1437
aVhad
p1438
aVanything
p1439
aVin
p1440
aVthe
p1441
aVworld
p1442
aVshe
p1443
aVwanted
p1444
aVand
p1445
aVthen
p1446
aVshe
p1447
aV'd
p1448
aVthrow
p1449
aVit
p1450
aVaway
p1451
aV.
aa(lp1452
Vpapa-daddy
p1453
aVgave
p1454
aVher
p1455
aVthis
p1456
aVgorgeous
p1457
aVadd-a-pearl
p1458
aVnecklace
p1459
aVwhen
p1460
aVshe
p1461
aVwas
p1462
aVeight
p1463
aVyears
p1464
aVold
p1465
aVand
p1466
aVshe
p1467
aVthrew
p1468
aVit
p1469
aVaway
p1470
aVplaying
p1471
aVbaseball
p1472
aVwhen
p1473
aVshe
p1474
aVwas
p1475
aVnine
p1476
aV,
aVwith
p1477
aVonly
p1478
aVtwo
p1479
aVpearls
p1480
aV.
aa(lp1481
Vso
p1482
aVas
p1483
aVsoon
p1484
aVas
p1485
aVshe
p1486
aVgot
p1487
aVmarried
p1488
aVand
p1489
aVmoved
p1490
aVaway
p1491
aVfrom
p1492
aVhome
p1493
aVthe
p1494
aVfirst
p1495
aVthing
p1496
aVshe
p1497
aVdid
p1498
aVwas
p1499
aVseparate
p1500
aV!
aa(lp1501
Vfrom
p1502
aVmr.
p1503
aVwhitaker
p1504
aV!
aa(lp1505
Vthis
p1506
aVphotographer
p1507
aVwith
p1508
aVthe
p1509
aVpopeyes
p1510
aVshe
p1511
aVsaid
p1512
aVshe
p1513
aVtrusted
p1514
aV.
aa(lp1515
Vcame
p1516
aVhome
p1517
aVfrom
p1518
aVone
p1519
aVof
p1520
aVthose
p1521
aVtowns
p1522
aVup
p1523
aVin
p1524
aVillinois
p1525
aVand
p1526
aVto
p1527
aVour
p1528
aVcomplete
p1529
aVsurprise
p1530
aVbrought
p1531
aVthis
p1532
aVchild
p1533
aVof
p1534
aVtwo
p1535
aV.
aa(lp1536
Vmama
p1537
aVsaid
p1538
aVshe
p1539
aVlike
p1540
aVto
p1541
aVmade
p1542
aVher
p1543
aVdrop
p1544
aVdead
p1545
aVfor
p1546
aVa
aVsecond
p1547
aV.
aa(lp1548
V``
p1549
aVhere
p1550
aVyou
p1551
aVhad
p1552
aVthis
p1553
aVmarvelous
p1554
aVblonde
p1555
aVchild
p1556
aVand
p1557
aVnever
p1558
aVso
p1559
aVmuch
p1560
aVas
p1561
aVwrote
p1562
aVyour
p1563
aVmother
p1564
aVa
aVword
p1565
aVabout
p1566
aVit
p1567
aV,
aV''
p1568
aVsays
p1569
aVmama
p1570
aV.
aa(lp1571
V``
p1572
aVi
aV'm
p1573
aVthoroughly
p1574
aVashamed
p1575
aVof
p1576
aVyou
p1577
aV.
aV''
p1578
aa(lp1579
Vbut
p1580
aVof
p1581
aVcourse
p1582
aVshe
p1583
aVwas
p1584
aVn't
p1585
aV.
aa(lp1586
Vstella-rondo
p1587
aVjust
p1588
aVcalmly
p1589
aVtakes
p1590
aVoff
p1591
aVthis
p1592
aVhat
p1593
aV,
aVi
aVwish
p1594
aVyou
p1595
aVcould
p1596
aVsee
p1597
aVit
p1598
aV.
aa(lp1599
Vshe
p1600
aVsays
p1601
aV,
aV``
p1602
aVwhy
p1603
aV,
aVmama
p1604
aV,
aVshirley-t.
p1605
aV's
p1606
aVadopted
p1607
aV,
aVi
aVcan
p1608
aVprove
p1609
aVit
p1610
aV.
aV''
p1611
aa(lp1612
V``
p1613
aVhow
p1614
aV?
aV''
p1615
aa(lp1616
Vsays
p1617
aVmama
p1618
aV,
aVbut
p1619
aVall
p1620
aVi
aVsays
p1621
aVwas
p1622
aV,
aV``
p1623
aVh
aV'm
p1624
aV!
aV''
p1625
aa(lp1626
Vthere
p1627
aVi
aVwas
p1628
aVover
p1629
aVthe
p1630
aVhot
p1631
aVstove
p1632
aV,
aVtrying
p1633
aVto
p1634
aVstretch
p1635
aVtwo
p1636
aVchickens
p1637
aVover
p1638
aVfive
p1639
aVpeople
p1640
aVand
p1641
aVa
aVcompletely
p1642
aVunexpected
p1643
aVchild
p1644
aVinto
p1645
aVthe
p1646
aVbargain
p1647
aV,
aVwithout
p1648
aVone
p1649
aVmoment
p1650
aV's
p1651
aVnotice
p1652
aV.
aa(lp1653
V``
p1654
aVwhat
p1655
aVdo
p1656
aVyou
p1657
aVmean
p1658
aV-
aV'h
p1659
aV'm
p1660
aV!
aV'
aV?
aV''
p1661
aa(lp1662
Vsays
p1663
aVstella-rondo
p1664
aV,
aVand
p1665
aVmama
p1666
aVsays
p1667
aV,
aV``
p1668
aVi
aVheard
p1669
aVthat
p1670
aV,
aVsister
p1671
aV.
aV''
p1672
aa(lp1673
Vi
aVsaid
p1674
aVthat
p1675
aVoh
p1676
aV,
aVi
aVdid
p1677
aVn't
p1678
aVmean
p1679
aVa
aVthing
p1680
aV,
aVonly
p1681
aVthat
p1682
aVwhoever
p1683
aVshirley-t.
p1684
aVwas
p1685
aV,
aVshe
p1686
aVwas
p1687
aVthe
p1688
aVspit-image
p1689
aVof
p1690
aVpapa-daddy
p1691
aVif
p1692
aVhe
p1693
aV'd
p1694
aVcut
p1695
aVoff
p1696
aVhis
p1697
aVbeard
p1698
aV,
aVwhich
p1699
aVof
p1700
aVcourse
p1701
aVhe
p1702
aV'd
p1703
aVnever
p1704
aVdo
p1705
aVin
p1706
aVthe
p1707
aVworld
p1708
aV.
aa(lp1709
Vpapa-daddy
p1710
aV's
p1711
aVmama
p1712
aV's
p1713
aVpapa
p1714
aVand
p1715
aVsulks
p1716
aV.
aa(lp1717
Vstella-rondo
p1718
aVgot
p1719
aVfurious
p1720
aV!
aa(lp1721
Vshe
p1722
aVsaid
p1723
aV,
aV``
p1724
aVsister
p1725
aV,
aVi
aVdo
p1726
aVn't
p1727
aVneed
p1728
aVto
p1729
aVtell
p1730
aVyou
p1731
aVyou
p1732
aVgot
p1733
aVa
aVlot
p1734
aVof
p1735
aVnerve
p1736
aVand
p1737
aValways
p1738
aVdid
p1739
aVhave
p1740
aVand
p1741
aVi
aV'll
p1742
aVthank
p1743
aVyou
p1744
aVto
p1745
aVmake
p1746
aVno
p1747
aVfuture
p1748
aVreference
p1749
aVto
p1750
aVmy
p1751
aVadopted
p1752
aVchild
p1753
aVwhatsoever
p1754
aV.
aV''
p1755
aa(lp1756
V``
p1757
aVvery
p1758
aVwell
p1759
aV,
aV''
p1760
aVi
aVsaid
p1761
aV.
aa(lp1762
V``
p1763
aVvery
p1764
aVwell
p1765
aV,
aVvery
p1766
aVwell
p1767
aV.
aa(lp1768
Vof
p1769
aVcourse
p1770
aVi
aVnoticed
p1771
aVat
p1772
aVonce
p1773
aVshe
p1774
aVlooks
p1775
aVlike
p1776
aVmr.
p1777
aVwhitaker
p1778
aV's
p1779
aVside
p1780
aVtoo
p1781
aV.
aa(lp1782
Vthat
p1783
aVfrown
p1784
aV.
aa(lp1785
Vshe
p1786
aVlooks
p1787
aVlike
p1788
aVa
aVcross
p1789
aVbetween
p1790
aVmr.
p1791
aVwhitaker
p1792
aVand
p1793
aVpapa-daddy
p1794
aV.
aV''
p1795
aa(lp1796
V``
p1797
aVwell
p1798
aV,
aVall
p1799
aVi
aVcan
p1800
aVsay
p1801
aVis
p1802
aVshe
p1803
aVis
p1804
aVn't
p1805
aV.
aV''
p1806
aa(lp1807
V``
p1808
aVshe
p1809
aVlooks
p1810
aVexactly
p1811
aVlike
p1812
aVshirley
p1813
aVtemple
p1814
aVto
p1815
aVme
p1816
aV,
aV''
p1817
aVsays
p1818
aVmama
p1819
aV,
aVbut
p1820
aVshirley-t.
p1821
aVjust
p1822
aVran
p1823
aVaway
p1824
aVfrom
p1825
aVher
p1826
aV.
aa(lp1827
Vso
p1828
aVthe
p1829
aVfirst
p1830
aVthing
p1831
aVstella-rondo
p1832
aVdid
p1833
aVat
p1834
aVthe
p1835
aVtable
p1836
aVwas
p1837
aVturn
p1838
aVpapa-daddy
p1839
aVagainst
p1840
aVme
p1841
aV.
aa(lp1842
V``
p1843
aVpapa-daddy
p1844
aV,
aV''
p1845
aVshe
p1846
aVsays
p1847
aV.
aa(lp1848
Vhe
p1849
aVwas
p1850
aVtrying
p1851
aVto
p1852
aVcut
p1853
aVup
p1854
aVhis
p1855
aVmeat
p1856
aV.
aa(lp1857
V``
p1858
aVpapa-daddy
p1859
aV!
aV''
p1860
aa(lp1861
Vi
aVwas
p1862
aVtaken
p1863
aVcompletely
p1864
aVby
p1865
aVsurprise
p1866
aV.
aa(lp1867
Vpapa-daddy
p1868
aVis
p1869
aVabout
p1870
aVa
aVmillion
p1871
aVyears
p1872
aVold
p1873
aVand
p1874
aV's
p1875
aVgot
p1876
aVthis
p1877
aVlong-long
p1878
aVbeard
p1879
aV.
aa(lp1880
V``
p1881
aVpapa-daddy
p1882
aV,
aVsister
p1883
aVsays
p1884
aVshe
p1885
aVfails
p1886
aVto
p1887
aVunderstand
p1888
aVwhy
p1889
aVyou
p1890
aVdo
p1891
aVn't
p1892
aVcut
p1893
aVoff
p1894
aVyour
p1895
aVbeard
p1896
aV.
aV''
p1897
aa(lp1898
Vso
p1899
aVpapa-daddy
p1900
aVl-a-y-s
p1901
aVdown
p1902
aVhis
p1903
aVknife
p1904
aVand
p1905
aVfork
p1906
aV!
aa(lp1907
Vhe
p1908
aV's
p1909
aVreal
p1910
aVrich
p1911
aV.
aa(lp1912
Vmama
p1913
aVsays
p1914
aVhe
p1915
aVis
p1916
aV,
aVhe
p1917
aVsays
p1918
aVhe
p1919
aVis
p1920
aVn't
p1921
aV.
aa(lp1922
Vso
p1923
aVhe
p1924
aVsays
p1925
aV,
aV``
p1926
aVhave
p1927
aVi
aVheard
p1928
aVcorrectly
p1929
aV?
aa(lp1930
Vyou
p1931
aVdo
p1932
aVn't
p1933
aVunderstand
p1934
aVwhy
p1935
aVi
aVdo
p1936
aVn't
p1937
aVcut
p1938
aVoff
p1939
aVmy
p1940
aVbeard
p1941
aV?
aV''
p1942
aa(lp1943
V``
p1944
aVwhy
p1945
aV,
aV''
p1946
aVi
aVsays
p1947
aV,
aV``
p1948
aVpapa-daddy
p1949
aV,
aVof
p1950
aVcourse
p1951
aVi
aVunderstand
p1952
aV,
aVi
aVdid
p1953
aVnot
p1954
aVsay
p1955
aVany
p1956
aVsuch
p1957
aVof
p1958
aVa
aVthing
p1959
aV,
aVthe
p1960
aVidea
p1961
aV!
aV''
p1962
aa(lp1963
Vhe
p1964
aVsays
p1965
aV,
aV``
p1966
aVhussy
p1967
aV!
aV''
p1968
aa(lp1969
Vi
aVsays
p1970
aV,
aV``
p1971
aVpapa-daddy
p1972
aV,
aVyou
p1973
aVknow
p1974
aVi
aVwould
p1975
aVn't
p1976
aVany
p1977
aVmore
p1978
aVwant
p1979
aVyou
p1980
aVto
p1981
aVcut
p1982
aVoff
p1983
aVyour
p1984
aVbeard
p1985
aVthan
p1986
aVthe
p1987
aVman
p1988
aVin
p1989
aVthe
p1990
aVmoon
p1991
aV.
aa(lp1992
Vit
p1993
aVwas
p1994
aVthe
p1995
aVfarthest
p1996
aVthing
p1997
aVfrom
p1998
aVmy
p1999
aVmind
p2000
aV!
aa(lp2001
Vstella-rondo
p2002
aVsat
p2003
aVthere
p2004
aVand
p2005
aVmade
p2006
aVthat
p2007
aVup
p2008
aVwhile
p2009
aVshe
p2010
aVwas
p2011
aVeating
p2012
aVbreast
p2013
aVof
p2014
aVchicken
p2015
aV.
aV''
p2016
aa(lp2017
Vbut
p2018
aVhe
p2019
aVsays
p2020
aV,
aV``
p2021
aVso
p2022
aVthe
p2023
aVpostmistress
p2024
aVfails
p2025
aVto
p2026
aVunderstand
p2027
aVwhy
p2028
aVi
aVdo
p2029
aVn't
p2030
aVcut
p2031
aVoff
p2032
aVmy
p2033
aVbeard
p2034
aV.
aa(lp2035
Vwhich
p2036
aVjob
p2037
aVi
aVgot
p2038
aVyou
p2039
aVthrough
p2040
aVmy
p2041
aVinfluence
p2042
aVwith
p2043
aVthe
p2044
aVgovernment
p2045
aV.
aa(lp2046
V'bird
p2047
aV's
p2048
aVnest
p2049
aV'
aV-
aVis
p2050
aVthat
p2051
aVwhat
p2052
aVyou
p2053
aVcall
p2054
aVit
p2055
aV?
aV''
p2056
aa(lp2057
Vnot
p2058
aVthat
p2059
aVit
p2060
aVis
p2061
aVn't
p2062
aVthe
p2063
aVnext
p2064
aVto
p2065
aVsmallest
p2066
aVp.o
p2067
aV.
aa(lp2068
Vin
p2069
aVthe
p2070
aVentire
p2071
aVstate
p2072
aVof
p2073
aVmississippi
p2074
aV.
aa(lp2075
Vi
aVsays
p2076
aV,
aV``
p2077
aVoh
p2078
aV,
aVpapa-daddy
p2079
aV,
aV''
p2080
aVi
aVsays
p2081
aV,
aV``
p2082
aVi
aVdid
p2083
aVn't
p2084
aVsay
p2085
aVany
p2086
aVsuch
p2087
aVof
p2088
aVa
aVthing
p2089
aV,
aVi
aVnever
p2090
aVdreamed
p2091
aVit
p2092
aVwas
p2093
aVa
aVbird
p2094
aV's
p2095
aVnest
p2096
aV,
aVi
aVhave
p2097
aValways
p2098
aVbeen
p2099
aVgrateful
p2100
aVthough
p2101
aVthis
p2102
aVis
p2103
aVthe
p2104
aVnext
p2105
aVto
p2106
aVsmallest
p2107
aVp.o
p2108
aV.
aa(lp2109
Vin
p2110
aVthe
p2111
aVstate
p2112
aVof
p2113
aVmississippi
p2114
aV,
aVand
p2115
aVi
aVdo
p2116
aVnot
p2117
aVenjoy
p2118
aVbeing
p2119
aVreferred
p2120
aVto
p2121
aVas
p2122
aVa
aVhussy
p2123
aVby
p2124
aVmy
p2125
aVown
p2126
aVgrandfather
p2127
aV.
aV''
p2128
aa(lp2129
Vbut
p2130
aVstella-rondo
p2131
aVsays
p2132
aV,
aV``
p2133
aVyes
p2134
aV,
aVyou
p2135
aVdid
p2136
aVsay
p2137
aVit
p2138
aVtoo
p2139
aV.
aa(lp2140
Vanybody
p2141
aVin
p2142
aVthe
p2143
aVworld
p2144
aVcould
p2145
aVof
p2146
aVheard
p2147
aVyou
p2148
aV,
aVthat
p2149
aVhad
p2150
aVears
p2151
aV.
aV''
p2152
aa(lp2153
V``
p2154
aVstop
p2155
aVright
p2156
aVthere
p2157
aV,
aV''
p2158
aVsays
p2159
aVmama
p2160
aV,
aVlooking
p2161
aVat
p2162
aVme
p2163
aV.
aa(lp2164
Vso
p2165
aVi
aVpulled
p2166
aVmy
p2167
aVnapkin
p2168
aVstraight
p2169
aVback
p2170
aVthrough
p2171
aVthe
p2172
aVnapkin
p2173
aVring
p2174
aVand
p2175
aVleft
p2176
aVthe
p2177
aVtable
p2178
aV.
aa(lp2179
Vas
p2180
aVsoon
p2181
aVas
p2182
aVi
aVwas
p2183
aVout
p2184
aVof
p2185
aVthe
p2186
aVroom
p2187
aVmama
p2188
aVsays
p2189
aV,
aV``
p2190
aVcall
p2191
aVher
p2192
aVback
p2193
aV,
aVor
p2194
aVshe
p2195
aV'll
p2196
aVstarve
p2197
aVto
p2198
aVdeath
p2199
aV,
aV''
p2200
aVbut
p2201
aVpapa-daddy
p2202
aVsays
p2203
aV,
aV``
p2204
aVthis
p2205
aVis
p2206
aVthe
p2207
aVbeard
p2208
aVi
aVstarted
p2209
aVgrowing
p2210
aVon
p2211
aVthe
p2212
aVcoast
p2213
aVwhen
p2214
aVi
aVwas
p2215
aVfifteen
p2216
aVyears
p2217
aVold
p2218
aV.
aV''
p2219
aa(lp2220
Vhe
p2221
aVwould
p2222
aVof
p2223
aVgone
p2224
aVon
p2225
aVtill
p2226
aVnightfall
p2227
aVif
p2228
aVshirley-t.
p2229
aVhad
p2230
aVn't
p2231
aVlost
p2232
aVthe
p2233
aVmilky
p2234
aVway
p2235
aVshe
p2236
aVate
p2237
aVin
p2238
aVcairo
p2239
aV.
aa(lp2240
Vso
p2241
aVpapa-daddy
p2242
aVsays
p2243
aV,
aV``
p2244
aVi
aVam
p2245
aVgoing
p2246
aVout
p2247
aVand
p2248
aVlie
p2249
aVin
p2250
aVthe
p2251
aVhammock
p2252
aV,
aVand
p2253
aVyou
p2254
aVcan
p2255
aVall
p2256
aVsit
p2257
aVhere
p2258
aVand
p2259
aVremember
p2260
aVmy
p2261
aVwords
p2262
aV:
aVi
aV'll
p2263
aVnever
p2264
aVcut
p2265
aVoff
p2266
aVmy
p2267
aVbeard
p2268
aVas
p2269
aVlong
p2270
aVas
p2271
aVi
aVlive
p2272
aV,
aVeven
p2273
aVone
p2274
aVinch
p2275
aV,
aVand
p2276
aVi
aVdo
p2277
aVn't
p2278
aVappreciate
p2279
aVit
p2280
aVin
p2281
aVyou
p2282
aVat
p2283
aVall
p2284
aV.
aV''
p2285
aa(lp2286
Vpassed
p2287
aVright
p2288
aVby
p2289
aVme
p2290
aVin
p2291
aVthe
p2292
aVhall
p2293
aVand
p2294
aVwent
p2295
aVstraight
p2296
aVout
p2297
aVand
p2298
aVgot
p2299
aVin
p2300
aVthe
p2301
aVhammock
p2302
aV.
aa(lp2303
Vit
p2304
aVwould
p2305
aVbe
p2306
aVa
aVholiday
p2307
aV.
aa(lp2308
Vit
p2309
aVwas
p2310
aVn't
p2311
aVfive
p2312
aVminutes
p2313
aVbefore
p2314
aVuncle
p2315
aVrondo
p2316
aVsuddenly
p2317
aVappeared
p2318
aVin
p2319
aVthe
p2320
aVhall
p2321
aVin
p2322
aVone
p2323
aVof
p2324
aVstella-rondo
p2325
aV's
p2326
aVflesh-colored
p2327
aVkimonos
p2328
aV,
aVall
p2329
aVcut
p2330
aVon
p2331
aVthe
p2332
aVbias
p2333
aV,
aVlike
p2334
aVsomething
p2335
aVmr.
p2336
aVwhitaker
p2337
aVprobably
p2338
aVthought
p2339
aVwas
p2340
aVgorgeous
p2341
aV.
aa(lp2342
V``
p2343
aVuncle
p2344
aVrondo
p2345
aV!
aV''
p2346
aa(lp2347
Vi
aVsays
p2348
aV.
aa(lp2349
V``
p2350
aVi
aVdid
p2351
aVn't
p2352
aVknow
p2353
aVwho
p2354
aVthat
p2355
aVwas
p2356
aV!
aa(lp2357
Vwhere
p2358
aVare
p2359
aVyou
p2360
aVgoing
p2361
aV?
aV''
p2362
aa(lp2363
V``
p2364
aVsister
p2365
aV,
aV''
p2366
aVhe
p2367
aVsays
p2368
aV,
aV``
p2369
aVget
p2370
aVout
p2371
aVof
p2372
aVmy
p2373
aVway
p2374
aV,
aVi
aV'm
p2375
aVpoisoned
p2376
aV.
aV''
p2377
aa(lp2378
V``
p2379
aVif
p2380
aVyou
p2381
aV're
p2382
aVpoisoned
p2383
aVstay
p2384
aVaway
p2385
aVfrom
p2386
aVpapa-daddy
p2387
aV,
aV''
p2388
aVi
aVsays
p2389
aV.
aa(lp2390
V``
p2391
aVkeep
p2392
aVout
p2393
aVof
p2394
aVthe
p2395
aVhammock
p2396
aV.
aa(lp2397
Vpapa-daddy
p2398
aVwill
p2399
aVcertainly
p2400
aVbeat
p2401
aVyou
p2402
aVon
p2403
aVthe
p2404
aVhead
p2405
aVif
p2406
aVyou
p2407
aVcome
p2408
aVwithin
p2409
aVforty
p2410
aVmiles
p2411
aVof
p2412
aVhim
p2413
aV.
aa(lp2414
Vhe
p2415
aVthinks
p2416
aVi
aVdeliberately
p2417
aVsaid
p2418
aVhe
p2419
aVought
p2420
aVto
p2421
aVcut
p2422
aVoff
p2423
aVhis
p2424
aVbeard
p2425
aVafter
p2426
aVhe
p2427
aVgot
p2428
aVme
p2429
aVthe
p2430
aVp.o.
p2431
aV,
aVand
p2432
aVi
aV've
p2433
aVtold
p2434
aVhim
p2435
aVand
p2436
aVtold
p2437
aVhim
p2438
aVand
p2439
aVtold
p2440
aVhim
p2441
aV,
aVand
p2442
aVhe
p2443
aVacts
p2444
aVlike
p2445
aVhe
p2446
aVjust
p2447
aVdo
p2448
aVn't
p2449
aVhear
p2450
aVme
p2451
aV.
aa(lp2452
Vpapa-daddy
p2453
aVmust
p2454
aVof
p2455
aVgone
p2456
aVstone
p2457
aVdeaf
p2458
aV.
aV'
aa(lp2459
V``
p2460
aVhe
p2461
aVpicked
p2462
aVa
aVfine
p2463
aVday
p2464
aVto
p2465
aVdo
p2466
aVit
p2467
aVthen
p2468
aV,
aV''
p2469
aVsays
p2470
aVuncle
p2471
aVrondo
p2472
aV,
aVand
p2473
aVbefore
p2474
aVyou
p2475
aVcould
p2476
aVsay
p2477
aV``
p2478
aVjack
p2479
aVrobinson
p2480
aV''
p2481
aVflew
p2482
aVout
p2483
aVin
p2484
aVthe
p2485
aVyard
p2486
aV.
aa(lp2487
Vwhat
p2488
aVhe
p2489
aV'd
p2490
aVreally
p2491
aVdone
p2492
aV,
aVhe
p2493
aV'd
p2494
aVdrunk
p2495
aVanother
p2496
aVbottle
p2497
aVof
p2498
aVthat
p2499
aVprescription
p2500
aV.
aa(lp2501
Vhe
p2502
aVdoes
p2503
aVit
p2504
aVevery
p2505
aVsingle
p2506
aVfourth
p2507
aVof
p2508
aVjuly
p2509
aVas
p2510
aVsure
p2511
aVas
p2512
aVshooting
p2513
aV,
aVand
p2514
aVit
p2515
aV's
p2516
aVhorribly
p2517
aVexpensive
p2518
aV.
aa(lp2519
Vthen
p2520
aVhe
p2521
aVfalls
p2522
aVover
p2523
aVin
p2524
aVthe
p2525
aVhammock
p2526
aVand
p2527
aVsnores
p2528
aV.
aa(lp2529
Vso
p2530
aVhe
p2531
aVinsisted
p2532
aVon
p2533
aVzigzagging
p2534
aVright
p2535
aVon
p2536
aVout
p2537
aVto
p2538
aVthe
p2539
aVhammock
p2540
aV,
aVlooking
p2541
aVlike
p2542
aVa
aVhalf-wit
p2543
aV.
aa(lp2544
Vpapa-daddy
p2545
aVwoke
p2546
aVup
p2547
aVwith
p2548
aVthis
p2549
aVhorrible
p2550
aVyell
p2551
aVand
p2552
aVright
p2553
aVthere
p2554
aVwithout
p2555
aVmoving
p2556
aVan
p2557
aVinch
p2558
aVhe
p2559
aVtried
p2560
aVto
p2561
aVturn
p2562
aVuncle
p2563
aVrondo
p2564
aVagainst
p2565
aVme
p2566
aV.
aa(lp2567
Vi
aVheard
p2568
aVevery
p2569
aVword
p2570
aVhe
p2571
aVsaid
p2572
aV.
aa(lp2573
Voh
p2574
aV,
aVhe
p2575
aVtold
p2576
aVuncle
p2577
aVrondo
p2578
aVi
aVdid
p2579
aVn't
p2580
aVlearn
p2581
aVto
p2582
aVread
p2583
aVtill
p2584
aVi
aVwas
p2585
aVeight
p2586
aVyears
p2587
aVold
p2588
aVand
p2589
aVhe
p2590
aVdid
p2591
aVn't
p2592
aVsee
p2593
aVhow
p2594
aVin
p2595
aVthe
p2596
aVworld
p2597
aVi
aVever
p2598
aVgot
p2599
aVthe
p2600
aVmail
p2601
aVput
p2602
aVup
p2603
aVat
p2604
aVthe
p2605
aVp.o.
p2606
aV,
aVmuch
p2607
aVless
p2608
aVread
p2609
aVit
p2610
aVall
p2611
aV,
aVand
p2612
aVhe
p2613
aVsaid
p2614
aVif
p2615
aVuncle
p2616
aVrondo
p2617
aVcould
p2618
aVonly
p2619
aVfathom
p2620
aVthe
p2621
aVlengths
p2622
aVhe
p2623
aVhad
p2624
aVgone
p2625
aVto
p2626
aVto
p2627
aVget
p2628
aVme
p2629
aVthat
p2630
aVjob
p2631
aV!
aa(lp2632
Vand
p2633
aVhe
p2634
aVsaid
p2635
aVon
p2636
aVthe
p2637
aVother
p2638
aVhand
p2639
aVhe
p2640
aVthought
p2641
aVstella-rondo
p2642
aVhad
p2643
aVa
aVbrilliant
p2644
aVmind
p2645
aVand
p2646
aVdeserved
p2647
aVcredit
p2648
aVfor
p2649
aVgetting
p2650
aVout
p2651
aVof
p2652
aVtown
p2653
aV.
aa(lp2654
Vall
p2655
aVthe
p2656
aVtime
p2657
aVhe
p2658
aVwas
p2659
aVjust
p2660
aVlying
p2661
aVthere
p2662
aVswinging
p2663
aVas
p2664
aVpretty
p2665
aVas
p2666
aVyou
p2667
aVplease
p2668
aVand
p2669
aVlooping
p2670
aVout
p2671
aVhis
p2672
aVbeard
p2673
aV,
aVand
p2674
aVpoor
p2675
aVuncle
p2676
aVrondo
p2677
aVwas
p2678
aVpleading
p2679
aVwith
p2680
aVhim
p2681
aVto
p2682
aVslow
p2683
aVdown
p2684
aVthe
p2685
aVhammock
p2686
aV,
aVit
p2687
aVwas
p2688
aVmaking
p2689
aVhim
p2690
aVas
p2691
aVdizzy
p2692
aVas
p2693
aVa
aVwitch
p2694
aVto
p2695
aVwatch
p2696
aVit
p2697
aV.
aa(lp2698
Vbut
p2699
aVthat
p2700
aV's
p2701
aVwhat
p2702
aVpapa-daddy
p2703
aVlikes
p2704
aVabout
p2705
aVa
aVhammock
p2706
aV.
aa(lp2707
Vso
p2708
aVuncle
p2709
aVrondo
p2710
aVwas
p2711
aVtoo
p2712
aVdizzy
p2713
aVto
p2714
aVget
p2715
aVturned
p2716
aVagainst
p2717
aVme
p2718
aVfor
p2719
aVthe
p2720
aVtime
p2721
aVbeing
p2722
aV.
aa(lp2723
Vhe
p2724
aV's
p2725
aVmama
p2726
aV's
p2727
aVonly
p2728
aVbrother
p2729
aVand
p2730
aVis
p2731
aVa
aVgood
p2732
aVcase
p2733
aVof
p2734
aVa
aVone-track
p2735
aVmind
p2736
aV.
aa(lp2737
Vask
p2738
aVanybody
p2739
aV.
aa(lp2740
Va
aVcertified
p2741
aVpharmacist
p2742
aV.
aa(lp2743
Vjust
p2744
aVthen
p2745
aVi
aVheard
p2746
aVstella-rondo
p2747
aVraising
p2748
aVthe
p2749
aVupstairs
p2750
aVwindow
p2751
aV.
aa(lp2752
Vwhile
p2753
aVshe
p2754
aVwas
p2755
aVmarried
p2756
aVshe
p2757
aVgot
p2758
aVthis
p2759
aVpeculiar
p2760
aVidea
p2761
aVthat
p2762
aVit
p2763
aV's
p2764
aVcooler
p2765
aVwith
p2766
aVthe
p2767
aVwindows
p2768
aVshut
p2769
aVand
p2770
aVlocked
p2771
aV.
aa(lp2772
Vso
p2773
aVshe
p2774
aVhas
p2775
aVto
p2776
aVraise
p2777
aVthe
p2778
aVwindow
p2779
aVbefore
p2780
aVshe
p2781
aVcan
p2782
aVmake
p2783
aVa
aVsoul
p2784
aVhear
p2785
aVher
p2786
aVoutdoors
p2787
aV.
aa(lp2788
Vso
p2789
aVshe
p2790
aVraises
p2791
aVthe
p2792
aVwindow
p2793
aVand
p2794
aVsays
p2795
aV,
aV``
p2796
aVoh
p2797
aV!
aV''
p2798
aa(lp2799
Vyou
p2800
aVwould
p2801
aVhave
p2802
aVthought
p2803
aVshe
p2804
aVwas
p2805
aVmortally
p2806
aVwounded
p2807
aV.
aa(lp2808
Vuncle
p2809
aVrondo
p2810
aVand
p2811
aVpapa-daddy
p2812
aVdid
p2813
aVn't
p2814
aVeven
p2815
aVlook
p2816
aVup
p2817
aV,
aVbut
p2818
aVkept
p2819
aVright
p2820
aVon
p2821
aVwith
p2822
aVwhat
p2823
aVthey
p2824
aVwere
p2825
aVdoing
p2826
aV.
aa(lp2827
Vi
aVhad
p2828
aVto
p2829
aVlaugh
p2830
aV.
aa(lp2831
Vi
aVflew
p2832
aVup
p2833
aVthe
p2834
aVstairs
p2835
aVand
p2836
aVthrew
p2837
aVthe
p2838
aVdoor
p2839
aVopen
p2840
aV!
aa(lp2841
Vi
aVsays
p2842
aV,
aV``
p2843
aVwhat
p2844
aVin
p2845
aVthe
p2846
aVwide
p2847
aVworld
p2848
aV's
p2849
aVthe
p2850
aVmatter
p2851
aV,
aVstella-rondo
p2852
aV?
aa(lp2853
Vyou
p2854
aVmortally
p2855
aVwounded
p2856
aV?
aV''
p2857
aa(lp2858
V``
p2859
aVno
p2860
aV,
aV''
p2861
aVshe
p2862
aVsays
p2863
aV,
aV``
p2864
aVi
aVam
p2865
aVnot
p2866
aVmortally
p2867
aVwounded
p2868
aVbut
p2869
aVi
aVwish
p2870
aVyou
p2871
aVwould
p2872
aVdo
p2873
aVme
p2874
aVthe
p2875
aVfavor
p2876
aVof
p2877
aVlooking
p2878
aVout
p2879
aVthat
p2880
aVwindow
p2881
aVthere
p2882
aVand
p2883
aVtelling
p2884
aVme
p2885
aVwhat
p2886
aVyou
p2887
aVsee
p2888
aV.
aV''
p2889
aa(lp2890
Vso
p2891
aVi
aVshade
p2892
aVmy
p2893
aVeyes
p2894
aVand
p2895
aVlook
p2896
aVout
p2897
aVthe
p2898
aVwindow
p2899
aV.
aa(lp2900
V``
p2901
aVi
aVsee
p2902
aVthe
p2903
aVfront
p2904
aVyard
p2905
aV,
aV''
p2906
aVi
aVsays
p2907
aV.
aa(lp2908
V``
p2909
aVdo
p2910
aVn't
p2911
aVyou
p2912
aVsee
p2913
aVany
p2914
aVhuman
p2915
aVbeings
p2916
aV?
aV''
p2917
aa(lp2918
Vshe
p2919
aVsays
p2920
aV.
aa(lp2921
V``
p2922
aVi
aVsee
p2923
aVuncle
p2924
aVrondo
p2925
aVtrying
p2926
aVto
p2927
aVrun
p2928
aVpapa-daddy
p2929
aVout
p2930
aVof
p2931
aVthe
p2932
aVhammock
p2933
aV,
aV''
p2934
aVi
aVsays
p2935
aV.
aa(lp2936
V``
p2937
aVnothing
p2938
aVmore
p2939
aV.
aa(lp2940
Vnaturally
p2941
aV,
aVit
p2942
aV's
p2943
aVso
p2944
aVsuffocating-hot
p2945
aVin
p2946
aVthe
p2947
aVhouse
p2948
aV,
aVwith
p2949
aVall
p2950
aVthe
p2951
aVwindows
p2952
aVshut
p2953
aVand
p2954
aVlocked
p2955
aV,
aVeverybody
p2956
aVwho
p2957
aVcares
p2958
aVto
p2959
aVstay
p2960
aVin
p2961
aVtheir
p2962
aVright
p2963
aVmind
p2964
aVwill
p2965
aVhave
p2966
aVto
p2967
aVgo
p2968
aVout
p2969
aVand
p2970
aVget
p2971
aVin
p2972
aVthe
p2973
aVhammock
p2974
aVbefore
p2975
aVthe
p2976
aVfourth
p2977
aVof
p2978
aVjuly
p2979
aVis
p2980
aVover
p2981
aV.
aV''
p2982
aa(lp2983
V``
p2984
aVdo
p2985
aVn't
p2986
aVyou
p2987
aVnotice
p2988
aVanything
p2989
aVdifferent
p2990
aVabout
p2991
aVuncle
p2992
aVrondo
p2993
aV?
aV''
p2994
aa(lp2995
Vasks
p2996
aVstella-rondo
p2997
aV.
aa(lp2998
V``
p2999
aVwhy
p3000
aV,
aVno
p3001
aV,
aVexcept
p3002
aVhe
p3003
aV's
p3004
aVgot
p3005
aVon
p3006
aVsome
p3007
aVterrible-looking
p3008
aVflesh-colored
p3009
aVcontraption
p3010
aVi
aVwould
p3011
aVn't
p3012
aVbe
p3013
aVfound
p3014
aVdead
p3015
aVin
p3016
aV,
aVis
p3017
aVall
p3018
aVi
aVcan
p3019
aVsee
p3020
aV,
aV''
p3021
aVi
aVsays
p3022
aV.
aa(lp3023
V``
p3024
aVnever
p3025
aVmind
p3026
aV,
aVyou
p3027
aVwo
p3028
aVn't
p3029
aVbe
p3030
aVfound
p3031
aVdead
p3032
aVin
p3033
aVit
p3034
aV,
aVbecause
p3035
aVit
p3036
aVhappens
p3037
aVto
p3038
aVbe
p3039
aVpart
p3040
aVof
p3041
aVmy
p3042
aVtrousseau
p3043
aV,
aVand
p3044
aVmr.
p3045
aVwhitaker
p3046
aVtook
p3047
aVseveral
p3048
aVdozen
p3049
aVphotographs
p3050
aVof
p3051
aVme
p3052
aVin
p3053
aVit
p3054
aV,
aV''
p3055
aVsays
p3056
aVstella-rondo
p3057
aV.
aa(lp3058
V``
p3059
aVwhat
p3060
aVon
p3061
aVearth
p3062
aVcould
p3063
aVuncle
p3064
aVrondo
p3065
aVmean
p3066
aVby
p3067
aVwearing
p3068
aVpart
p3069
aVof
p3070
aVmy
p3071
aVtrousseau
p3072
aVout
p3073
aVin
p3074
aVthe
p3075
aVbroad
p3076
aVopen
p3077
aVdaylight
p3078
aVwithout
p3079
aVsaying
p3080
aVso
p3081
aVmuch
p3082
aVas
p3083
aV'kiss
p3084
aVmy
p3085
aVfoot
p3086
aV,
aV'
aVknowing
p3087
aVi
aVonly
p3088
aVgot
p3089
aVhome
p3090
aVthis
p3091
aVmorning
p3092
aVafter
p3093
aVmy
p3094
aVseparation
p3095
aVand
p3096
aVhung
p3097
aVmy
p3098
aVnegligee
p3099
aVup
p3100
aVon
p3101
aVthe
p3102
aVbathroom
p3103
aVdoor
p3104
aV,
aVjust
p3105
aVas
p3106
aVnervous
p3107
aVas
p3108
aVi
aVcould
p3109
aVbe
p3110
aV?
aV''
p3111
aa(lp3112
V``
p3113
aVi
aV'm
p3114
aVsure
p3115
aVi
aVdo
p3116
aVn't
p3117
aVknow
p3118
aV,
aVand
p3119
aVwhat
p3120
aVdo
p3121
aVyou
p3122
aVexpect
p3123
aVme
p3124
aVto
p3125
aVdo
p3126
aVabout
p3127
aVit
p3128
aV?
aV''
p3129
aa(lp3130
Vi
aVsays
p3131
aV.
aa(lp3132
V``
p3133
aVjump
p3134
aVout
p3135
aVthe
p3136
aVwindow
p3137
aV?
aV''
p3138
aa(lp3139
V``
p3140
aVno
p3141
aV,
aVi
aVexpect
p3142
aVnothing
p3143
aVof
p3144
aVthe
p3145
aVkind
p3146
aV.
aa(lp3147
Vi
aVsimply
p3148
aVdeclare
p3149
aVthat
p3150
aVuncle
p3151
aVrondo
p3152
aVlooks
p3153
aVlike
p3154
aVa
aVfool
p3155
aVin
p3156
aVit
p3157
aV,
aVthat
p3158
aV's
p3159
aVall
p3160
aV,
aV''
p3161
aVshe
p3162
aVsays
p3163
aV.
aa(lp3164
V``
p3165
aVit
p3166
aVmakes
p3167
aVme
p3168
aVsick
p3169
aVto
p3170
aVmy
p3171
aVstomach
p3172
aV.
aV''
p3173
aa(lp3174
V``
p3175
aVwell
p3176
aV,
aVhe
p3177
aVlooks
p3178
aVas
p3179
aVgood
p3180
aVas
p3181
aVhe
p3182
aVcan
p3183
aV,
aV''
p3184
aVi
aVsays
p3185
aV.
aa(lp3186
V``
p3187
aVas
p3188
aVgood
p3189
aVas
p3190
aVanybody
p3191
aVin
p3192
aVreason
p3193
aVcould
p3194
aV.
aV''
p3195
aa(lp3196
Vi
aVstood
p3197
aVup
p3198
aVfor
p3199
aVuncle
p3200
aVrondo
p3201
aV,
aVplease
p3202
aVremember
p3203
aV.
aa(lp3204
Vand
p3205
aVi
aVsaid
p3206
aVto
p3207
aVstella-rondo
p3208
aV,
aV``
p3209
aVi
aVthink
p3210
aVi
aVwould
p3211
aVdo
p3212
aVwell
p3213
aVnot
p3214
aVto
p3215
aVcriticize
p3216
aVso
p3217
aVfreely
p3218
aVif
p3219
aVi
aVwere
p3220
aVyou
p3221
aVand
p3222
aVcame
p3223
aVhome
p3224
aVwith
p3225
aVa
aVtwo-year-old
p3226
aVchild
p3227
aVi
aVhad
p3228
aVnever
p3229
aVsaid
p3230
aVa
aVword
p3231
aVabout
p3232
aV,
aVand
p3233
aVno
p3234
aVexplanation
p3235
aVwhatever
p3236
aVabout
p3237
aVmy
p3238
aVseparation
p3239
aV.
aV''
p3240
aa(lp3241
V``
p3242
aVi
aVasked
p3243
aVyou
p3244
aVthe
p3245
aVinstant
p3246
aVi
aVentered
p3247
aVthis
p3248
aVhouse
p3249
aVnot
p3250
aVto
p3251
aVrefer
p3252
aVone
p3253
aVmore
p3254
aVtime
p3255
aVto
p3256
aVmy
p3257
aVadopted
p3258
aVchild
p3259
aV,
aVand
p3260
aVyou
p3261
aVgave
p3262
aVme
p3263
aVyour
p3264
aVword
p3265
aVof
p3266
aVhonor
p3267
aVyou
p3268
aVwould
p3269
aVnot
p3270
aV,
aV''
p3271
aVwas
p3272
aVall
p3273
aVstella-rondo
p3274
aVwould
p3275
aVsay
p3276
aV,
aVand
p3277
aVstarted
p3278
aVpulling
p3279
aVout
p3280
aVevery
p3281
aVone
p3282
aVof
p3283
aVher
p3284
aVeyebrows
p3285
aVwith
p3286
aVsome
p3287
aVcheap
p3288
aVkress
p3289
aVtweezers
p3290
aV.
aa(lp3291
Vso
p3292
aVi
aVmerely
p3293
aVslammed
p3294
aVthe
p3295
aVdoor
p3296
aVbehind
p3297
aVme
p3298
aVand
p3299
aVwent
p3300
aVdown
p3301
aVand
p3302
aVmade
p3303
aVsome
p3304
aVgreen-tomato
p3305
aVpickle
p3306
aV.
aa(lp3307
Vsomebody
p3308
aVhad
p3309
aVto
p3310
aVdo
p3311
aVit
p3312
aV.
aa(lp3313
Vof
p3314
aVcourse
p3315
aVmama
p3316
aVhad
p3317
aVturned
p3318
aVboth
p3319
aVthe
p3320
aVnegroes
p3321
aVloose
p3322
aV;
aVshe
p3323
aValways
p3324
aVsaid
p3325
aVno
p3326
aVearthly
p3327
aVpower
p3328
aVcould
p3329
aVhold
p3330
aVone
p3331
aVanyway
p3332
aVon
p3333
aVthe
p3334
aVfourth
p3335
aVof
p3336
aVjuly
p3337
aV,
aVso
p3338
aVshe
p3339
aVwould
p3340
aVn't
p3341
aVeven
p3342
aVtry
p3343
aV.
aa(lp3344
Vit
p3345
aVturned
p3346
aVout
p3347
aVthat
p3348
aVjaypan
p3349
aVfell
p3350
aVin
p3351
aVthe
p3352
aVlake
p3353
aVand
p3354
aVcame
p3355
aVwithin
p3356
aVa
aVvery
p3357
aVnarrow
p3358
aVlimit
p3359
aVof
p3360
aVdrowning
p3361
aV.
aa(lp3362
Vso
p3363
aVmama
p3364
aVtrots
p3365
aVin
p3366
aV.
aa(lp3367
Vlifts
p3368
aVup
p3369
aVthe
p3370
aVlid
p3371
aVand
p3372
aVsays
p3373
aV,
aV``
p3374
aVh
aV'm
p3375
aV!
aa(lp3376
Vnot
p3377
aVvery
p3378
aVgood
p3379
aVfor
p3380
aVyour
p3381
aVuncle
p3382
aVrondo
p3383
aVin
p3384
aVhis
p3385
aVprecarious
p3386
aVcondition
p3387
aV,
aVi
aVmust
p3388
aVsay
p3389
aV.
aa(lp3390
Vor
p3391
aVpoor
p3392
aVlittle
p3393
aVadopted
p3394
aVshirley-t.
p3395
aVshame
p3396
aVon
p3397
aVyou
p3398
aV!
aV''
p3399
aa(lp3400
Vthat
p3401
aVmade
p3402
aVme
p3403
aVtired
p3404
aV.
aa(lp3405
Vi
aVsays
p3406
aV,
aV``
p3407
aVwell
p3408
aV,
aVstella-rondo
p3409
aVhad
p3410
aVbetter
p3411
aVthank
p3412
aVher
p3413
aVlucky
p3414
aVstars
p3415
aVit
p3416
aVwas
p3417
aVher
p3418
aVinstead
p3419
aVof
p3420
aVme
p3421
aVcame
p3422
aVtrotting
p3423
aVin
p3424
aVwith
p3425
aVthat
p3426
aVvery
p3427
aVpeculiar-looking
p3428
aVchild
p3429
aV.
aa(lp3430
Vnow
p3431
aVif
p3432
aVit
p3433
aVhad
p3434
aVbeen
p3435
aVme
p3436
aVthat
p3437
aVtrotted
p3438
aVin
p3439
aVfrom
p3440
aVillinois
p3441
aVand
p3442
aVbrought
p3443
aVa
aVpeculiar-looking
p3444
aVchild
p3445
aVof
p3446
aVtwo
p3447
aV,
aVi
aVshudder
p3448
aVto
p3449
aVthink
p3450
aVof
p3451
aVthe
p3452
aVreception
p3453
aVi
aV'd
p3454
aVof
p3455
aVgot
p3456
aV,
aVmuch
p3457
aVless
p3458
aVcontrolled
p3459
aVthe
p3460
aVdiet
p3461
aVof
p3462
aVan
p3463
aVentire
p3464
aVfamily
p3465
aV.
aV''
p3466
aa(lp3467
V``
p3468
aVbut
p3469
aVyou
p3470
aVmust
p3471
aVremember
p3472
aV,
aVsister
p3473
aV,
aVthat
p3474
aVyou
p3475
aVwere
p3476
aVnever
p3477
aVmarried
p3478
aVto
p3479
aVmr.
p3480
aVwhitaker
p3481
aVin
p3482
aVthe
p3483
aVfirst
p3484
aVplace
p3485
aVand
p3486
aVdid
p3487
aVn't
p3488
aVgo
p3489
aVup
p3490
aVto
p3491
aVillinois
p3492
aVto
p3493
aVlive
p3494
aV,
aV''
p3495
aVsays
p3496
aVmama
p3497
aV,
aVshaking
p3498
aVa
aVspoon
p3499
aVin
p3500
aVmy
p3501
aVface
p3502
aV.
aa(lp3503
V``
p3504
aVif
p3505
aVyou
p3506
aVhad
p3507
aVi
aVwould
p3508
aVof
p3509
aVbeen
p3510
aVjust
p3511
aVas
p3512
aVoverjoyed
p3513
aVto
p3514
aVsee
p3515
aVyou
p3516
aVand
p3517
aVyour
p3518
aVlittle
p3519
aVadopted
p3520
aVgirl
p3521
aVas
p3522
aVi
aVwas
p3523
aVto
p3524
aVsee
p3525
aVstella-rondo
p3526
aV,
aVwhen
p3527
aVyou
p3528
aVwound
p3529
aVup
p3530
aVwith
p3531
aVyour
p3532
aVseparation
p3533
aVand
p3534
aVcame
p3535
aVon
p3536
aVback
p3537
aVhome
p3538
aV.
aV''
p3539
aa(lp3540
V''you
p3541
aVwould
p3542
aVnot
p3543
aV,
aV''
p3544
aVi
aVsays
p3545
aV.
aa(lp3546
V``
p3547
aVdo
p3548
aVn't
p3549
aVcontradict
p3550
aVme
p3551
aV,
aVi
aVwould
p3552
aV,
aV''
p3553
aVsays
p3554
aVmama
p3555
aV.
aa(lp3556
Vbut
p3557
aVi
aVsaid
p3558
aVshe
p3559
aVcould
p3560
aVn't
p3561
aVconvince
p3562
aVme
p3563
aVthough
p3564
aVshe
p3565
aVtalked
p3566
aVtill
p3567
aVshe
p3568
aVwas
p3569
aVblue
p3570
aVin
p3571
aVthe
p3572
aVface
p3573
aV.
aa(lp3574
Vthen
p3575
aVi
aVsaid
p3576
aV,
aV``
p3577
aVbesides
p3578
aV,
aVyou
p3579
aVknow
p3580
aVas
p3581
aVwell
p3582
aVas
p3583
aVi
aVdo
p3584
aVthat
p3585
aVthat
p3586
aVchild
p3587
aVis
p3588
aVnot
p3589
aVadopted
p3590
aV.
aV''
p3591
aa(lp3592
V``
p3593
aVshe
p3594
aVmost
p3595
aVcertainly
p3596
aVis
p3597
aVadopted
p3598
aV,
aV''
p3599
aVsays
p3600
aVmama
p3601
aV,
aVstiff
p3602
aVas
p3603
aVa
aVpoker
p3604
aV.
aa(lp3605
Vi
aVsays
p3606
aV,
aV``
p3607
aVwhy
p3608
aV,
aVmama
p3609
aV,
aVstella-rondo
p3610
aVhad
p3611
aVher
p3612
aVjust
p3613
aVas
p3614
aVsure
p3615
aVas
p3616
aVanything
p3617
aVin
p3618
aVthis
p3619
aVworld
p3620
aV,
aVand
p3621
aVjust
p3622
aVtoo
p3623
aVstuck
p3624
aVup
p3625
aVto
p3626
aVadmit
p3627
aVit
p3628
aV.
aV''
p3629
aa(lp3630
V``
p3631
aVwhy
p3632
aV,
aVsister
p3633
aV,
aV''
p3634
aVsaid
p3635
aVmama
p3636
aV.
aa(lp3637
V``
p3638
aVhere
p3639
aVi
aVthought
p3640
aVwe
p3641
aVwere
p3642
aVgoing
p3643
aVto
p3644
aVhave
p3645
aVa
aVpleasant
p3646
aVfourth
p3647
aVof
p3648
aVjuly
p3649
aV,
aVand
p3650
aVyou
p3651
aVstart
p3652
aVright
p3653
aVout
p3654
aVnot
p3655
aVbelieving
p3656
aVa
aVword
p3657
aVyour
p3658
aVown
p3659
aVbaby
p3660
aVsister
p3661
aVtells
p3662
aVyou
p3663
aV!
aV''
p3664
aa(lp3665
V``
p3666
aVjust
p3667
aVlike
p3668
aVcousin
p3669
aVannie
p3670
aVflo
p3671
aV.
aa(lp3672
Vwent
p3673
aVto
p3674
aVher
p3675
aVgrave
p3676
aVdenying
p3677
aVthe
p3678
aVfacts
p3679
aVof
p3680
aVlife
p3681
aV,
aV''
p3682
aVi
aVremind
p3683
aVmama
p3684
aV.
aa(lp3685
V``
p3686
aVi
aVtold
p3687
aVyou
p3688
aVif
p3689
aVyou
p3690
aVever
p3691
aVmentioned
p3692
aVannie
p3693
aVflo
p3694
aV's
p3695
aVname
p3696
aVi
aV'd
p3697
aVslap
p3698
aVyour
p3699
aVface
p3700
aV,
aV''
p3701
aVsays
p3702
aVmama
p3703
aV,
aVand
p3704
aVslaps
p3705
aVmy
p3706
aVface
p3707
aV.
aa(lp3708
V``
p3709
aVall
p3710
aVright
p3711
aV,
aVyou
p3712
aVwait
p3713
aVand
p3714
aVsee
p3715
aV,
aV''
p3716
aVi
aVsays
p3717
aV.
aa(lp3718
V``
p3719
aVi
aV,
aV''
p3720
aVsays
p3721
aVmama
p3722
aV,
aV``
p3723
aVi
aVprefer
p3724
aVto
p3725
aVtake
p3726
aVmy
p3727
aVchildren
p3728
aV's
p3729
aVword
p3730
aVfor
p3731
aVanything
p3732
aVwhen
p3733
aVit
p3734
aV's
p3735
aVhumanly
p3736
aVpossible
p3737
aV.
aV''
p3738
aa(lp3739
Vyou
p3740
aVought
p3741
aVto
p3742
aVsee
p3743
aVmama
p3744
aV,
aVshe
p3745
aVweighs
p3746
aVtwo
p3747
aVhundred
p3748
aVpounds
p3749
aVand
p3750
aVhas
p3751
aVreal
p3752
aVtiny
p3753
aVfeet
p3754
aV.
aa(lp3755
Vjust
p3756
aVthen
p3757
aVsomething
p3758
aVperfectly
p3759
aVhorrible
p3760
aVoccurred
p3761
aVto
p3762
aVme
p3763
aV.
aa(lp3764
V``
p3765
aVmama
p3766
aV,
aV''
p3767
aVi
aVsays
p3768
aV,
aV``
p3769
aVcan
p3770
aVthat
p3771
aVchild
p3772
aVtalk
p3773
aV?
aV''
p3774
aa(lp3775
Vi
aVsimply
p3776
aVhad
p3777
aVto
p3778
aVwhisper
p3779
aV!
aa(lp3780
V``
p3781
aVmama
p3782
aV,
aVi
aVwonder
p3783
aVif
p3784
aVthat
p3785
aVchild
p3786
aVcan
p3787
aVbe
p3788
aV-
aVyou
p3789
aVknow
p3790
aV-
aVin
p3791
aVany
p3792
aVway
p3793
aV?
aa(lp3794
Vdo
p3795
aVyou
p3796
aVrealize
p3797
aV,
aV''
p3798
aVi
aVsays
p3799
aV,
aV``
p3800
aVthat
p3801
aVshe
p3802
aVhas
p3803
aVn't
p3804
aVspoken
p3805
aVone
p3806
aVsingle
p3807
aV,
aVsolitary
p3808
aVword
p3809
aVto
p3810
aVa
aVhuman
p3811
aVbeing
p3812
aVup
p3813
aVto
p3814
aVthis
p3815
aVminute
p3816
aV?
aa(lp3817
Vthis
p3818
aVis
p3819
aVthe
p3820
aVway
p3821
aVshe
p3822
aVlooks
p3823
aV,
aV''
p3824
aVi
aVsays
p3825
aV,
aVand
p3826
aVi
aVlooked
p3827
aVlike
p3828
aVthis
p3829
aV.
aa(lp3830
Vwell
p3831
aV,
aVmama
p3832
aVand
p3833
aVi
aVjust
p3834
aVstood
p3835
aVthere
p3836
aVand
p3837
aVstared
p3838
aVat
p3839
aVeach
p3840
aVother
p3841
aV.
aa(lp3842
Vit
p3843
aVwas
p3844
aVhorrible
p3845
aV!
aa(lp3846
V``
p3847
aVi
aVremember
p3848
aVwell
p3849
aVthat
p3850
aVjoe
p3851
aVwhitaker
p3852
aVfrequently
p3853
aVdrank
p3854
aVlike
p3855
aVa
aVfish
p3856
aV,
aV''
p3857
aVsays
p3858
aVmama
p3859
aV.
aa(lp3860
V``
p3861
aVi
aVbelieved
p3862
aVto
p3863
aVmy
p3864
aVsoul
p3865
aVhe
p3866
aVdrank
p3867
aVchemicals
p3868
aV.
aV''
p3869
aa(lp3870
Vand
p3871
aVwithout
p3872
aVanother
p3873
aVword
p3874
aVshe
p3875
aVmarches
p3876
aVto
p3877
aVthe
p3878
aVfoot
p3879
aVof
p3880
aVthe
p3881
aVstairs
p3882
aVand
p3883
aVcalls
p3884
aVstella-rondo
p3885
aV.
aa(lp3886
V``
p3887
aVstella-rondo
p3888
aV?
aa(lp3889
Vo-o-o-o-o
p3890
aV!
aa(lp3891
Vstella-rondo
p3892
aV!
aV''
p3893
aa(lp3894
V``
p3895
aVwhat
p3896
aV?
aV''
p3897
aa(lp3898
Vsays
p3899
aVstella-rondo
p3900
aVfrom
p3901
aVupstairs
p3902
aV.
aa(lp3903
Vnot
p3904
aVeven
p3905
aVthe
p3906
aVgrace
p3907
aVto
p3908
aVget
p3909
aVup
p3910
aVoff
p3911
aVthe
p3912
aVbed
p3913
aV.
aa(lp3914
V``
p3915
aVcan
p3916
aVthat
p3917
aVchild
p3918
aVof
p3919
aVyours
p3920
aVtalk
p3921
aV?
aV''
p3922
aa(lp3923
Vasks
p3924
aVmama
p3925
aV.
aa(lp3926
Vstella-rondo
p3927
aVsays
p3928
aV,
aV``
p3929
aVcan
p3930
aVshe
p3931
aVwhat
p3932
aV?
aV''
p3933
aa(lp3934
V``
p3935
aVtalk
p3936
aV!
aa(lp3937
Vtalk
p3938
aV!
aV''
p3939
aa(lp3940
Vsays
p3941
aVmama
p3942
aV.
aa(lp3943
V``
p3944
aVburdyburdyburdyburdy
p3945
aV!
aV''
p3946
aa(lp3947
Vso
p3948
aVstella-rondo
p3949
aVyells
p3950
aVback
p3951
aV,
aV``
p3952
aVwho
p3953
aVsays
p3954
aVshe
p3955
aVca
p3956
aVn't
p3957
aVtalk
p3958
aV?
aV''
p3959
aa(lp3960
V``
p3961
aVsister
p3962
aVsays
p3963
aVso
p3964
aV,
aV''
p3965
aVsays
p3966
aVmama
p3967
aV.
aa(lp3968
V``
p3969
aVyou
p3970
aVdid
p3971
aVn't
p3972
aVhave
p3973
aVto
p3974
aVtell
p3975
aVme
p3976
aV,
aVi
aVknow
p3977
aVwhose
p3978
aVword
p3979
aVof
p3980
aVhonor
p3981
aVdo
p3982
aVn't
p3983
aVmean
p3984
aVa
aVthing
p3985
aVin
p3986
aVthis
p3987
aVhouse
p3988
aV,
aV''
p3989
aVsays
p3990
aVstella-rondo
p3991
aV.
aa(lp3992
Vand
p3993
aVin
p3994
aVa
aVminute
p3995
aVthe
p3996
aVloudest
p3997
aVyankee
p3998
aVvoice
p3999
aVi
aVever
p4000
aVheard
p4001
aVin
p4002
aVmy
p4003
aVlife
p4004
aVyells
p4005
aVout
p4006
aV,
aV``
p4007
aVoe
p4008
aV'm
p4009
aVpop-oe
p4010
aVthe
p4011
aVsailor-r-r-r
p4012
aVma-a-an
p4013
aV!
aV''
p4014
aa(lp4015
Vand
p4016
aVthen
p4017
aVsomebody
p4018
aVjumps
p4019
aVup
p4020
aVand
p4021
aVdown
p4022
aVin
p4023
aVthe
p4024
aVupstairs
p4025
aVhall
p4026
aV.
aa(lp4027
Vin
p4028
aVanother
p4029
aVsecond
p4030
aVthe
p4031
aVhouse
p4032
aVwould
p4033
aVof
p4034
aVfallen
p4035
aVdown
p4036
aV.
aa(lp4037
V``
p4038
aVnot
p4039
aVonly
p4040
aVtalks
p4041
aV,
aVshe
p4042
aVcan
p4043
aVtap-dance
p4044
aV!
aV''
p4045
aa(lp4046
Vcalls
p4047
aVstella-rondo
p4048
aV.
aa(lp4049
V``
p4050
aVwhich
p4051
aVis
p4052
aVmore
p4053
aVthan
p4054
aVsome
p4055
aVpeople
p4056
aVi
aVwo
p4057
aVn't
p4058
aVname
p4059
aVcan
p4060
aVdo
p4061
aV.
aV''
p4062
aa(lp4063
V``
p4064
aVwhy
p4065
aV,
aVthe
p4066
aVlittle
p4067
aVprecious
p4068
aVdarling
p4069
aVthing
p4070
aV!
aV''
p4071
aa(lp4072
Vmama
p4073
aVsays
p4074
aV,
aVso
p4075
aVsurprised
p4076
aV.
aa(lp4077
V``
p4078
aVjust
p4079
aVas
p4080
aVsmart
p4081
aVas
p4082
aVshe
p4083
aVcan
p4084
aVbe
p4085
aV!
aV''
p4086
aa(lp4087
Vstarts
p4088
aVtalking
p4089
aVbaby
p4090
aVtalk
p4091
aVright
p4092
aVthere
p4093
aV.
aa(lp4094
Vthen
p4095
aVshe
p4096
aVturns
p4097
aVon
p4098
aVme
p4099
aV.
aa(lp4100
V``
p4101
aVsister
p4102
aV,
aVyou
p4103
aVought
p4104
aVto
p4105
aVbe
p4106
aVthoroughly
p4107
aVashamed
p4108
aV!
aa(lp4109
Vrun
p4110
aVupstairs
p4111
aVthis
p4112
aVinstant
p4113
aVand
p4114
aVapologize
p4115
aVto
p4116
aVstella-rondo
p4117
aVand
p4118
aVshirley-t.
p4119
aV''
p4120
aV``
p4121
aVapologize
p4122
aVfor
p4123
aVwhat
p4124
aV?
aV''
p4125
aa(lp4126
Vi
aVsays
p4127
aV.
aa(lp4128
V``
p4129
aVi
aVmerely
p4130
aVwondered
p4131
aVif
p4132
aVthe
p4133
aVchild
p4134
aVwas
p4135
aVnormal
p4136
aV,
aVthat
p4137
aV's
p4138
aVall
p4139
aV.
aa(lp4140
Vnow
p4141
aVthat
p4142
aVshe
p4143
aV's
p4144
aVproved
p4145
aVshe
p4146
aVis
p4147
aV,
aVwhy
p4148
aV,
aVi
aVhave
p4149
aVnothing
p4150
aVfurther
p4151
aVto
p4152
aVsay
p4153
aV.
aV''
p4154
aa(lp4155
Vbut
p4156
aVmama
p4157
aVjust
p4158
aVturned
p4159
aVon
p4160
aVher
p4161
aVheel
p4162
aVand
p4163
aVflew
p4164
aVout
p4165
aV,
aVfurious
p4166
aV.
aa(lp4167
Vshe
p4168
aVran
p4169
aVright
p4170
aVupstairs
p4171
aVand
p4172
aVhugged
p4173
aVthe
p4174
aVbaby
p4175
aV.
aa(lp4176
Vshe
p4177
aVbelieved
p4178
aVit
p4179
aVwas
p4180
aVadopted
p4181
aV.
aa(lp4182
Vstella-rondo
p4183
aVhad
p4184
aVn't
p4185
aVdone
p4186
aVa
aVthing
p4187
aVbut
p4188
aVturn
p4189
aVher
p4190
aVagainst
p4191
aVme
p4192
aVfrom
p4193
aVupstairs
p4194
aVwhile
p4195
aVi
aVstood
p4196
aVthere
p4197
aVhelpless
p4198
aVover
p4199
aVthe
p4200
aVhot
p4201
aVstove
p4202
aV.
aa(lp4203
Vso
p4204
aVthat
p4205
aVmade
p4206
aVmama
p4207
aV,
aVpapa-daddy
p4208
aVand
p4209
aVthe
p4210
aVbaby
p4211
aVall
p4212
aVon
p4213
aVstella-rondo
p4214
aV's
p4215
aVside
p4216
aV.
aa(lp4217
Vnext
p4218
aV,
aVuncle
p4219
aVrondo
p4220
aV.
aa(lp4221
Vi
aVmust
p4222
aVsay
p4223
aVthat
p4224
aVuncle
p4225
aVrondo
p4226
aVhas
p4227
aVbeen
p4228
aVmarvelous
p4229
aVto
p4230
aVme
p4231
aVat
p4232
aVvarious
p4233
aVtimes
p4234
aVin
p4235
aVthe
p4236
aVpast
p4237
aVand
p4238
aVi
aVwas
p4239
aVcompletely
p4240
aVunprepared
p4241
aVto
p4242
aVbe
p4243
aVmade
p4244
aVto
p4245
aVjump
p4246
aVout
p4247
aVof
p4248
aVmy
p4249
aVskin
p4250
aV,
aVthe
p4251
aVway
p4252
aVit
p4253
aVturned
p4254
aVout
p4255
aV.
aa(lp4256
Vonce
p4257
aVstella-rondo
p4258
aVdid
p4259
aVsomething
p4260
aVperfectly
p4261
aVhorrible
p4262
aVto
p4263
aVhim
p4264
aV-
aVbroke
p4265
aVa
aVchain
p4266
aVletter
p4267
aVfrom
p4268
aVflanders
p4269
aVfield
p4270
aV-
aVand
p4271
aVhe
p4272
aVtook
p4273
aVthe
p4274
aVradio
p4275
aVback
p4276
aVhe
p4277
aVhad
p4278
aVgiven
p4279
aVher
p4280
aVand
p4281
aVgave
p4282
aVit
p4283
aVto
p4284
aVme
p4285
aV.
aa(lp4286
Vstella-rondo
p4287
aVwas
p4288
aVfurious
p4289
aV!
aa(lp4290
Vfor
p4291
aVsix
p4292
aVmonths
p4293
aVwe
p4294
aVall
p4295
aVhad
p4296
aVto
p4297
aVcall
p4298
aVher
p4299
aVstella
p4300
aVinstead
p4301
aVof
p4302
aVstella-rondo
p4303
aV,
aVor
p4304
aVshe
p4305
aVwould
p4306
aVn't
p4307
aVanswer
p4308
aV.
aa(lp4309
Vi
aValways
p4310
aVthought
p4311
aVuncle
p4312
aVrondo
p4313
aVhad
p4314
aVall
p4315
aVthe
p4316
aVbrains
p4317
aVof
p4318
aVthe
p4319
aVentire
p4320
aVfamily
p4321
aV.
aa(lp4322
Vanother
p4323
aVtime
p4324
aVhe
p4325
aVsent
p4326
aVme
p4327
aVto
p4328
aVmammoth
p4329
aVcave
p4330
aV,
aVwith
p4331
aVall
p4332
aVexpenses
p4333
aVpaid
p4334
aV.
aa(lp4335
Vbut
p4336
aVthis
p4337
aVwould
p4338
aVbe
p4339
aVthe
p4340
aVday
p4341
aVhe
p4342
aVwas
p4343
aVdrinking
p4344
aVthat
p4345
aVprescription
p4346
aV,
aVthe
p4347
aVfourth
p4348
aVof
p4349
aVjuly
p4350
aV.
aa(lp4351
Vso
p4352
aVat
p4353
aVsupper
p4354
aVstella-rondo
p4355
aVspeaks
p4356
aVup
p4357
aVand
p4358
aVsays
p4359
aVshe
p4360
aVthinks
p4361
aVuncle
p4362
aVrondo
p4363
aVought
p4364
aVto
p4365
aVtry
p4366
aVto
p4367
aVeat
p4368
aVa
aVlittle
p4369
aVsomething
p4370
aV.
aa(lp4371
Vso
p4372
aVfinally
p4373
aVuncle
p4374
aVrondo
p4375
aVsaid
p4376
aVhe
p4377
aVwould
p4378
aVtry
p4379
aVa
aVlittle
p4380
aVcold
p4381
aVbiscuits
p4382
aVand
p4383
aVketchup
p4384
aV,
aVbut
p4385
aVthat
p4386
aVwas
p4387
aVall
p4388
aV.
aa(lp4389
Vso
p4390
aVshe
p4391
aVbrought
p4392
aVit
p4393
aVto
p4394
aVhim
p4395
aV.
aa(lp4396
V``
p4397
aVdo
p4398
aVyou
p4399
aVthink
p4400
aVit
p4401
aVwise
p4402
aVto
p4403
aVdisport
p4404
aVwith
p4405
aVketchup
p4406
aVin
p4407
aVstella-rondo
p4408
aV's
p4409
aVflesh-colored
p4410
aVkimono
p4411
aV?
aV''
p4412
aa(lp4413
Vi
aVsays
p4414
aV.
aa(lp4415
Vtrying
p4416
aVto
p4417
aVbe
p4418
aVconsiderate
p4419
aV!
aa(lp4420
Vif
p4421
aVstella-rondo
p4422
aVcould
p4423
aVn't
p4424
aVwatch
p4425
aVout
p4426
aVfor
p4427
aVher
p4428
aVtrousseau
p4429
aV,
aVsomebody
p4430
aVhad
p4431
aVto
p4432
aV.
aa(lp4433
V``
p4434
aVany
p4435
aVobjections
p4436
aV?
aV''
p4437
aa(lp4438
Vasks
p4439
aVuncle
p4440
aVrondo
p4441
aV,
aVjust
p4442
aVabout
p4443
aVto
p4444
aVpour
p4445
aVout
p4446
aVall
p4447
aVthe
p4448
aVketchup
p4449
aV.
aa(lp4450
V``
p4451
aVdo
p4452
aVn't
p4453
aVmind
p4454
aVwhat
p4455
aVshe
p4456
aVsays
p4457
aV,
aVuncle
p4458
aVrondo
p4459
aV,
aV''
p4460
aVsays
p4461
aVstella-rondo
p4462
aV.
aa(lp4463
V``
p4464
aVsister
p4465
aVhas
p4466
aVbeen
p4467
aVdevoting
p4468
aVthis
p4469
aVsolid
p4470
aVafternoon
p4471
aVto
p4472
aVsneering
p4473
aVout
p4474
aVmy
p4475
aVbedroom
p4476
aVwindow
p4477
aVat
p4478
aVthe
p4479
aVway
p4480
aVyou
p4481
aVlook
p4482
aV.
aV''
p4483
aa(lp4484
V``
p4485
aVwhat
p4486
aV's
p4487
aVthat
p4488
aV?
aV''
p4489
aa(lp4490
Vsays
p4491
aVunde
p4492
aVrondo
p4493
aV.
aa(lp4494
Vuncle
p4495
aVrondo
p4496
aVhas
p4497
aVgot
p4498
aVthe
p4499
aVmost
p4500
aVterrible
p4501
aVtemper
p4502
aVin
p4503
aVthe
p4504
aVworld
p4505
aV.
aa(lp4506
Vanything
p4507
aVis
p4508
aVliable
p4509
aVto
p4510
aVmake
p4511
aVhim
p4512
aVtear
p4513
aVthe
p4514
aVhouse
p4515
aVdown
p4516
aVif
p4517
aVit
p4518
aVcomes
p4519
aVat
p4520
aVthe
p4521
aVwrong
p4522
aVtime
p4523
aV.
aa(lp4524
Vso
p4525
aVstella-rondo
p4526
aVsays
p4527
aV,
aV``
p4528
aVsister
p4529
aVsays
p4530
aV,
aV'uncle
p4531
aVrondo
p4532
aVcertainly
p4533
aVdoes
p4534
aVlook
p4535
aVlike
p4536
aVa
aVfool
p4537
aVin
p4538
aVthat
p4539
aVpink
p4540
aVkimono
p4541
aV!
aV'
aa(lp4542
V``
p4543
aVdo
p4544
aVyou
p4545
aVremember
p4546
aVwho
p4547
aVit
p4548
aVwas
p4549
aVreally
p4550
aVsaid
p4551
aVthat
p4552
aV?
aa(lp4553
Vunde
p4554
aVrondo
p4555
aVspills
p4556
aVout
p4557
aVall
p4558
aVthe
p4559
aVketchup
p4560
aVand
p4561
aVjumps
p4562
aVout
p4563
aVof
p4564
aVhis
p4565
aVchair
p4566
aVand
p4567
aVtears
p4568
aVoff
p4569
aVthe
p4570
aVkimono
p4571
aVand
p4572
aVthrows
p4573
aVit
p4574
aVdown
p4575
aVon
p4576
aVthe
p4577
aVdirty
p4578
aVfloor
p4579
aVand
p4580
aVputs
p4581
aVhis
p4582
aVfoot
p4583
aVon
p4584
aVit
p4585
aV.
aa(lp4586
Vit
p4587
aVhad
p4588
aVto
p4589
aVbe
p4590
aVsent
p4591
aVall
p4592
aVthe
p4593
aVway
p4594
aVto
p4595
aVjackson
p4596
aVto
p4597
aVthe
p4598
aVcleaners
p4599
aVand
p4600
aVre-pleated
p4601
aV.
aa(lp4602
V``
p4603
aVso
p4604
aVthat
p4605
aV's
p4606
aVyour
p4607
aVopinion
p4608
aVof
p4609
aVyour
p4610
aVuncle
p4611
aVrondo
p4612
aV,
aVis
p4613
aVit
p4614
aV?
aV''
p4615
aa(lp4616
Vhe
p4617
aVsays
p4618
aV.
aa(lp4619
V``
p4620
aVi
aVlook
p4621
aVlike
p4622
aVa
aVfool
p4623
aV,
aVdo
p4624
aVi
aV?
aa(lp4625
Vwell
p4626
aV,
aVthat
p4627
aV's
p4628
aVthe
p4629
aVlast
p4630
aVstraw
p4631
aV.
aa(lp4632
Va
aVwhole
p4633
aVday
p4634
aVin
p4635
aVthis
p4636
aVhouse
p4637
aVwith
p4638
aVnothing
p4639
aVto
p4640
aVdo
p4641
aV,
aVand
p4642
aVthen
p4643
aVto
p4644
aVhear
p4645
aVyou
p4646
aVcome
p4647
aVout
p4648
aVwith
p4649
aVa
aVremark
p4650
aVlike
p4651
aVthat
p4652
aVbehind
p4653
aVmy
p4654
aVback
p4655
aV!
aV''
p4656
aa(lp4657
V``
p4658
aVi
aVdid
p4659
aVn't
p4660
aVsay
p4661
aVany
p4662
aVsuch
p4663
aVof
p4664
aVa
aVthing
p4665
aV,
aVuncle
p4666
aVrondo
p4667
aV,
aV''
p4668
aVi
aVsays
p4669
aV,
aV``
p4670
aVand
p4671
aVi
aV'm
p4672
aVnot
p4673
aVsaying
p4674
aVwho
p4675
aVdid
p4676
aV,
aVeither
p4677
aV.
aa(lp4678
Vwhy
p4679
aV,
aVi
aVthink
p4680
aVyou
p4681
aVlook
p4682
aVall
p4683
aVright
p4684
aV.
aa(lp4685
Vjust
p4686
aVtry
p4687
aVto
p4688
aVtake
p4689
aVcare
p4690
aVof
p4691
aVyourself
p4692
aVand
p4693
aVnot
p4694
aVtalk
p4695
aVand
p4696
aVeat
p4697
aVat
p4698
aVthe
p4699
aVsame
p4700
aVtime
p4701
aV,
aV''
p4702
aVi
aVsays
p4703
aV.
aa(lp4704
V``
p4705
aVi
aVthink
p4706
aVyou
p4707
aVbetter
p4708
aVgo
p4709
aVlie
p4710
aVdown
p4711
aV.
aV''
p4712
aa(lp4713
V``
p4714
aVlie
p4715
aVdown
p4716
aVmy
p4717
aVfoot
p4718
aV,
aV''
p4719
aVsays
p4720
aVuncle
p4721
aVrondo
p4722
aV.
aa(lp4723
Vi
aVought
p4724
aVto
p4725
aVof
p4726
aVknown
p4727
aVby
p4728
aVthat
p4729
aVhe
p4730
aVwas
p4731
aVfixing
p4732
aVto
p4733
aVdo
p4734
aVsomething
p4735
aVperfectly
p4736
aVhorrible
p4737
aV.
aa(lp4738
Vso
p4739
aVhe
p4740
aVdid
p4741
aVn't
p4742
aVdo
p4743
aVanything
p4744
aVthat
p4745
aVnight
p4746
aVin
p4747
aVthe
p4748
aVprecarious
p4749
aVstate
p4750
aVhe
p4751
aVwas
p4752
aVin
p4753
aV-
aVjust
p4754
aVplayed
p4755
aVcasino
p4756
aVwith
p4757
aVmama
p4758
aVand
p4759
aVstella-rondo
p4760
aVand
p4761
aVshirley-t.
p4762
aVand
p4763
aVgave
p4764
aVshirley-t.
p4765
aVa
aVnickel
p4766
aVwith
p4767
aVa
aVhead
p4768
aVon
p4769
aVboth
p4770
aVsides
p4771
aV.
aa(lp4772
Vit
p4773
aVtickled
p4774
aVher
p4775
aVnearly
p4776
aVto
p4777
aVdeath
p4778
aV,
aVand
p4779
aVshe
p4780
aVcalled
p4781
aVhim
p4782
aV``
p4783
aVpapa
p4784
aV.
aV''
p4785
aa(lp4786
Vbut
p4787
aVat
p4788
aV6:30
p4789
aVa.m.
p4790
aVthe
p4791
aVnext
p4792
aVmorning
p4793
aV,
aVhe
p4794
aVthrew
p4795
aVa
aVwhole
p4796
aVfive-cent
p4797
aVpackage
p4798
aVof
p4799
aVsome
p4800
aVunsold
p4801
aVone-inch
p4802
aVfirecrackers
p4803
aVfrom
p4804
aVthe
p4805
aVstore
p4806
aVas
p4807
aVhard
p4808
aVas
p4809
aVhe
p4810
aVcould
p4811
aVinto
p4812
aVmy
p4813
aVbedroom
p4814
aVand
p4815
aVthey
p4816
aVevery
p4817
aVone
p4818
aVwent
p4819
aVoff
p4820
aV.
aa(lp4821
Vnot
p4822
aVone
p4823
aVbad
p4824
aVone
p4825
aVin
p4826
aVthe
p4827
aVstring
p4828
aV.
aa(lp4829
Vanybody
p4830
aVelse
p4831
aV,
aVthere
p4832
aV'd
p4833
aVbe
p4834
aVone
p4835
aVthat
p4836
aVwould
p4837
aVn't
p4838
aVgo
p4839
aVoff
p4840
aV.
aa(lp4841
Vwell
p4842
aV,
aVi
aV'm
p4843
aVjust
p4844
aVterribly
p4845
aVsusceptible
p4846
aVto
p4847
aVnoise
p4848
aVof
p4849
aVany
p4850
aVkind
p4851
aV,
aVthe
p4852
aVdoctor
p4853
aVhas
p4854
aValways
p4855
aVtold
p4856
aVme
p4857
aVi
aVwas
p4858
aVthe
p4859
aVmost
p4860
aVsensitive
p4861
aVperson
p4862
aVhe
p4863
aVhad
p4864
aVever
p4865
aVseen
p4866
aVin
p4867
aVhis
p4868
aVwhole
p4869
aVlife
p4870
aV,
aVand
p4871
aVi
aVwas
p4872
aVsimply
p4873
aVprostrated
p4874
aV.
aa(lp4875
Vi
aVcould
p4876
aVn't
p4877
aVeat
p4878
aV!
aa(lp4879
Vpeople
p4880
aVtell
p4881
aVme
p4882
aVthey
p4883
aVheard
p4884
aVit
p4885
aVas
p4886
aVfar
p4887
aVas
p4888
aVthe
p4889
aVcemetery
p4890
aV,
aVand
p4891
aVold
p4892
aVaunt
p4893
aVjep
p4894
aVpatterson
p4895
aV,
aVthat
p4896
aVhad
p4897
aVbeen
p4898
aVholding
p4899
aVher
p4900
aVown
p4901
aVso
p4902
aVgood
p4903
aV,
aVthought
p4904
aVit
p4905
aVwas
p4906
aVjudgment
p4907
aVday
p4908
aVand
p4909
aVshe
p4910
aVwas
p4911
aVgoing
p4912
aVto
p4913
aVmeet
p4914
aVher
p4915
aVwhole
p4916
aVfamily
p4917
aV.
aa(lp4918
Vit
p4919
aV's
p4920
aVusually
p4921
aVso
p4922
aVquiet
p4923
aVhere
p4924
aV.
aa(lp4925
Vand
p4926
aVi
aV'll
p4927
aVtell
p4928
aVyou
p4929
aVit
p4930
aVdid
p4931
aVn't
p4932
aVtake
p4933
aVme
p4934
aVany
p4935
aVlonger
p4936
aVthan
p4937
aVa
aVminute
p4938
aVto
p4939
aVmake
p4940
aVup
p4941
aVmy
p4942
aVmind
p4943
aVwhat
p4944
aVto
p4945
aVdo
p4946
aV.
aa(lp4947
Vthere
p4948
aVi
aVwas
p4949
aVwith
p4950
aVthe
p4951
aVwhole
p4952
aVentire
p4953
aVhouse
p4954
aVon
p4955
aVstella-rondo
p4956
aV's
p4957
aVside
p4958
aVand
p4959
aVturned
p4960
aVagainst
p4961
aVme
p4962
aV.
aa(lp4963
Vif
p4964
aVi
aVhave
p4965
aVanything
p4966
aVat
p4967
aVall
p4968
aVi
aVhave
p4969
aVpride
p4970
aV.
aa(lp4971
Vso
p4972
aVi
aVjust
p4973
aVdecided
p4974
aVi
aV'd
p4975
aVgo
p4976
aVstraight
p4977
aVdown
p4978
aVto
p4979
aVthe
p4980
aVp.o
p4981
aV.
aa(lp4982
Vthere
p4983
aV's
p4984
aVplenty
p4985
aVof
p4986
aVroom
p4987
aVthere
p4988
aVin
p4989
aVthe
p4990
aVback
p4991
aV,
aVi
aVsays
p4992
aVto
p4993
aVmyself
p4994
aV.
aa(lp4995
Vwell
p4996
aV!
aa(lp4997
Vi
aVmade
p4998
aVno
p4999
aVbones
p5000
aVabout
p5001
aVletting
p5002
aVthe
p5003
aVfamily
p5004
aVcatch
p5005
aVon
p5006
aVto
p5007
aVwhat
p5008
aVi
aVwas
p5009
aVup
p5010
aVto
p5011
aV.
aa(lp5012
Vi
aVdid
p5013
aVn't
p5014
aVtry
p5015
aVto
p5016
aVconceal
p5017
aVit
p5018
aV.
aa(lp5019
Vthe
p5020
aVfirst
p5021
aVthing
p5022
aVthey
p5023
aVknew
p5024
aV,
aVi
aVmarched
p5025
aVin
p5026
aVwhere
p5027
aVthey
p5028
aVwere
p5029
aVall
p5030
aVplaying
p5031
aVold
p5032
aVmaid
p5033
aVand
p5034
aVpulled
p5035
aVthe
p5036
aVelectric
p5037
aVoscillating
p5038
aVfan
p5039
aVout
p5040
aVby
p5041
aVthe
p5042
aVplug
p5043
aV,
aVand
p5044
aVeverything
p5045
aVgot
p5046
aVreal
p5047
aVhot
p5048
aV.
aa(lp5049
Vnext
p5050
aVi
aVsnatched
p5051
aVthe
p5052
aVpillow
p5053
aVi
aV'd
p5054
aVdone
p5055
aVthe
p5056
aVneedlepoint
p5057
aVon
p5058
aVright
p5059
aVoff
p5060
aVthe
p5061
aVdavenport
p5062
aVfrom
p5063
aVbehind
p5064
aVpapa-daddy
p5065
aV.
aa(lp5066
Vhe
p5067
aVwent
p5068
aV''ugh
p5069
aV!
aV''
p5070
aa(lp5071
Vi
aVbeat
p5072
aVstella-rondo
p5073
aVup
p5074
aVthe
p5075
aVstairs
p5076
aVand
p5077
aVfinally
p5078
aVfound
p5079
aVmy
p5080
aVcharm
p5081
aVbracelet
p5082
aVin
p5083
aVher
p5084
aVbureau
p5085
aVdrawer
p5086
aVunder
p5087
aVa
aVpicture
p5088
aVof
p5089
aVnelson
p5090
aVeddy
p5091
aV.
aa(lp5092
V``
p5093
aVso
p5094
aVthat
p5095
aV's
p5096
aVthe
p5097
aVway
p5098
aVthe
p5099
aVland
p5100
aVlies
p5101
aV,
aV''
p5102
aVsays
p5103
aVuncle
p5104
aVrondo
p5105
aV.
aa(lp5106
Vthere
p5107
aVhe
p5108
aVwas
p5109
aV,
aVpiecing
p5110
aVon
p5111
aVthe
p5112
aVham
p5113
aV.
aa(lp5114
V``
p5115
aVwell
p5116
aV,
aVsister
p5117
aV,
aVi
aV'll
p5118
aVbe
p5119
aVglad
p5120
aVto
p5121
aVdonate
p5122
aVmy
p5123
aVarmy
p5124
aVcot
p5125
aVif
p5126
aVyou
p5127
aVgot
p5128
aVany
p5129
aVplace
p5130
aVto
p5131
aVset
p5132
aVit
p5133
aVup
p5134
aV,
aVproviding
p5135
aVyou
p5136
aV'll
p5137
aVleave
p5138
aVright
p5139
aVthis
p5140
aVminute
p5141
aVand
p5142
aVlet
p5143
aVme
p5144
aVget
p5145
aVsome
p5146
aVpeace
p5147
aV.
aV''
p5148
aa(lp5149
Vuncle
p5150
aVrondo
p5151
aVwas
p5152
aVin
p5153
aVfrance
p5154
aV.
aa(lp5155
V``
p5156
aVthank
p5157
aVyou
p5158
aVkindly
p5159
aVfor
p5160
aVthe
p5161
aVcot
p5162
aVand
p5163
aV'peace
p5164
aV'
aVis
p5165
aVhardly
p5166
aVthe
p5167
aVword
p5168
aVi
aVwould
p5169
aVselect
p5170
aVif
p5171
aVi
aVhad
p5172
aVto
p5173
aVresort
p5174
aVto
p5175
aVfirecrackers
p5176
aVat
p5177
aV6:30
p5178
aVa.m.
p5179
aVin
p5180
aVa
aVyoung
p5181
aVgirl
p5182
aV's
p5183
aVbedroom
p5184
aV,
aV''
p5185
aVi
aVsays
p5186
aVback
p5187
aVto
p5188
aVhim
p5189
aV.
aa(lp5190
V``
p5191
aVand
p5192
aVas
p5193
aVto
p5194
aVwhere
p5195
aVi
aVintend
p5196
aVto
p5197
aVgo
p5198
aV,
aVyou
p5199
aVseem
p5200
aVto
p5201
aVforget
p5202
aVmy
p5203
aVposition
p5204
aVas
p5205
aVpostmistress
p5206
aVof
p5207
aVchina
p5208
aVgrove
p5209
aV,
aVmississippi
p5210
aV,
aV''
p5211
aVi
aVsays
p5212
aV.
aa(lp5213
V``
p5214
aVi
aV've
p5215
aValways
p5216
aVgot
p5217
aVthe
p5218
aVp.o
p5219
aV.
aV''
p5220
aa(lp5221
Vwell
p5222
aV,
aVthat
p5223
aVmade
p5224
aVthem
p5225
aVall
p5226
aVsit
p5227
aVup
p5228
aVand
p5229
aVtake
p5230
aVnotice
p5231
aV.
aa(lp5232
Vi
aVwent
p5233
aVout
p5234
aVfront
p5235
aVand
p5236
aVstarted
p5237
aVdigging
p5238
aVup
p5239
aVsome
p5240
aVfour-o'clocks
p5241
aVto
p5242
aVplant
p5243
aVaround
p5244
aVthe
p5245
aVp.o
p5246
aV.
aa(lp5247
V``
p5248
aVah-ah-ah
p5249
aV!
aV''
p5250
aa(lp5251
Vsays
p5252
aVmama
p5253
aV,
aVraising
p5254
aVthe
p5255
aVwindow
p5256
aV.
aa(lp5257
V``
p5258
aVthose
p5259
aVhappen
p5260
aVto
p5261
aVbe
p5262
aVmy
p5263
aVfour-o'clocks
p5264
aV.
aa(lp5265
Veverything
p5266
aVplanted
p5267
aVin
p5268
aVthat
p5269
aVstar
p5270
aVis
p5271
aVmine
p5272
aV.
aa(lp5273
Vi
aV've
p5274
aVnever
p5275
aVknown
p5276
aVyou
p5277
aVto
p5278
aVmake
p5279
aVanything
p5280
aVgrow
p5281
aVin
p5282
aVyour
p5283
aVlife
p5284
aV.
aV''
p5285
aa(lp5286
V``
p5287
aVvery
p5288
aVwell
p5289
aV,
aV''
p5290
aVi
aVsays
p5291
aV.
aa(lp5292
V``
p5293
aVbut
p5294
aVi
aVtake
p5295
aVthe
p5296
aVfern
p5297
aV.
aa(lp5298
Veven
p5299
aVyou
p5300
aV,
aVmama
p5301
aV,
aVca
p5302
aVn't
p5303
aVstand
p5304
aVthere
p5305
aVand
p5306
aVdeny
p5307
aVthat
p5308
aVi
aV'm
p5309
aVthe
p5310
aVone
p5311
aVwatered
p5312
aVthat
p5313
aVfern
p5314
aV.
aa(lp5315
Vand
p5316
aVi
aVhappen
p5317
aVto
p5318
aVknow
p5319
aVwhere
p5320
aVi
aVcan
p5321
aVsend
p5322
aVin
p5323
aVa
aVbox
p5324
aVtop
p5325
aVand
p5326
aVget
p5327
aVa
aVpacket
p5328
aVof
p5329
aVone
p5330
aVthousand
p5331
aVmixed
p5332
aVseeds
p5333
aV,
aVno
p5334
aVtwo
p5335
aVthe
p5336
aVsame
p5337
aVkind
p5338
aV,
aVfree
p5339
aV.
aV''
p5340
aa(lp5341
V``
p5342
aVoh
p5343
aV,
aVwhere
p5344
aV?
aV''
p5345
aa(lp5346
Vmama
p5347
aVwants
p5348
aVto
p5349
aVknow
p5350
aV.
aa(lp5351
Vbut
p5352
aVi
aVsays
p5353
aV,
aV``
p5354
aVtoo
p5355
aVlate
p5356
aV.
aa(lp5357
Vyou
p5358
aV'tend
p5359
aVto
p5360
aVyour
p5361
aVhouse
p5362
aV,
aVand
p5363
aVi
aV'll
p5364
aV'tend
p5365
aVto
p5366
aVmine
p5367
aV.
aa(lp5368
Vyou
p5369
aVhear
p5370
aVthings
p5371
aVlike
p5372
aVthat
p5373
aVall
p5374
aVthe
p5375
aVtime
p5376
aVif
p5377
aVyou
p5378
aVknow
p5379
aVhow
p5380
aVto
p5381
aVlisten
p5382
aVto
p5383
aVthe
p5384
aVradio
p5385
aV.
aa(lp5386
Vperfectly
p5387
aVmarvelous
p5388
aVoffers
p5389
aV.
aa(lp5390
Vget
p5391
aVanything
p5392
aVyou
p5393
aVwant
p5394
aVfree
p5395
aV.
aV''
p5396
aa(lp5397
Vso
p5398
aVi
aVhope
p5399
aVto
p5400
aVtell
p5401
aVyou
p5402
aVi
aVmarched
p5403
aVin
p5404
aVand
p5405
aVgot
p5406
aVthat
p5407
aVradio
p5408
aV,
aVand
p5409
aVthey
p5410
aVcould
p5411
aVof
p5412
aVall
p5413
aVbit
p5414
aVa
aVnail
p5415
aVin
p5416
aVtwo
p5417
aV,
aVespecially
p5418
aVstella-rondo
p5419
aV,
aVthat
p5420
aVit
p5421
aVused
p5422
aVto
p5423
aVbelong
p5424
aVto
p5425
aV,
aVand
p5426
aVshe
p5427
aVwell
p5428
aVknew
p5429
aVshe
p5430
aVcould
p5431
aVn't
p5432
aVget
p5433
aVit
p5434
aVback
p5435
aV,
aVi
aV'd
p5436
aVsue
p5437
aVfor
p5438
aVit
p5439
aVlike
p5440
aVa
aVshot
p5441
aV.
aa(lp5442
Vand
p5443
aVi
aVvery
p5444
aVpolitely
p5445
aVtook
p5446
aVthe
p5447
aVsewing-machine
p5448
aVmotor
p5449
aVi
aVhelped
p5450
aVpay
p5451
aVthe
p5452
aVmost
p5453
aVon
p5454
aVto
p5455
aVgive
p5456
aVmama
p5457
aVfor
p5458
aVchristmas
p5459
aVback
p5460
aVin
p5461
aV1929
p5462
aV,
aVand
p5463
aVa
aVgood
p5464
aVbig
p5465
aVcalendar
p5466
aV,
aVwith
p5467
aVthe
p5468
aVfirst-aid
p5469
aVremedies
p5470
aVon
p5471
aVit
p5472
aV.
aa(lp5473
Vthe
p5474
aVthermometer
p5475
aVand
p5476
aVthe
p5477
aVhawaiian
p5478
aVukulele
p5479
aVcertainly
p5480
aVwere
p5481
aVrightfully
p5482
aVmine
p5483
aV,
aVand
p5484
aVi
aVstood
p5485
aVon
p5486
aVthe
p5487
aVstep-ladder
p5488
aVand
p5489
aVgot
p5490
aVall
p5491
aVmy
p5492
aVwatermelon-rind
p5493
aVpreserves
p5494
aVand
p5495
aVevery
p5496
aVfruit
p5497
aVand
p5498
aVvegetable
p5499
aVi
aV'd
p5500
aVput
p5501
aVup
p5502
aV,
aVevery
p5503
aVjar
p5504
aV.
aa(lp5505
Vthen
p5506
aVi
aVbegan
p5507
aVto
p5508
aVpull
p5509
aVthe
p5510
aVtacks
p5511
aVout
p5512
aVof
p5513
aVthe
p5514
aVbluebird
p5515
aVwall
p5516
aVvases
p5517
aVon
p5518
aVthe
p5519
aVarchway
p5520
aVto
p5521
aVthe
p5522
aVdining
p5523
aVroom
p5524
aV.
aa(lp5525
V``
p5526
aVwho
p5527
aVtold
p5528
aVyou
p5529
aVyou
p5530
aVcould
p5531
aVhave
p5532
aVthose
p5533
aV,
aVmiss
p5534
aVpriss
p5535
aV?
aV''
p5536
aa(lp5537
Vsays
p5538
aVmama
p5539
aV,
aVfanning
p5540
aVas
p5541
aVhard
p5542
aVas
p5543
aVshe
p5544
aVcould
p5545
aV.
aa(lp5546
V``
p5547
aVi
aVbought
p5548
aV'em
p5549
aVand
p5550
aVi
aV'll
p5551
aVkeep
p5552
aVtrack
p5553
aVof
p5554
aV'em
p5555
aV,
aV''
p5556
aVi
aVsays
p5557
aV.
aa(lp5558
V``
p5559
aVi
aV'll
p5560
aVtack
p5561
aV'em
p5562
aVup
p5563
aVone
p5564
aVon
p5565
aVeach
p5566
aVside
p5567
aVthe
p5568
aVpost-office
p5569
aVwindow
p5570
aV,
aVand
p5571
aVyou
p5572
aVcan
p5573
aVsee
p5574
aV'em
p5575
aVwhen
p5576
aVyou
p5577
aVcome
p5578
aVto
p5579
aVask
p5580
aVme
p5581
aVfor
p5582
aVyour
p5583
aVmail
p5584
aV,
aVif
p5585
aVyou
p5586
aV're
p5587
aVso
p5588
aVdead
p5589
aVto
p5590
aVsee
p5591
aV'em
p5592
aV.
aV''
p5593
aa(lp5594
V``
p5595
aVnot
p5596
aVi
aV!
aa(lp5597
Vi
aV'll
p5598
aVnever
p5599
aVdarken
p5600
aVthe
p5601
aVdoor
p5602
aVto
p5603
aVthat
p5604
aVpost
p5605
aVoffice
p5606
aVagain
p5607
aVif
p5608
aVi
aVlive
p5609
aVto
p5610
aVbe
p5611
aVa
aVhundred
p5612
aV,
aV''
p5613
aVmama
p5614
aVsays
p5615
aV.
aa(lp5616
V``
p5617
aVungrateful
p5618
aVchild
p5619
aV!
aa(lp5620
Vafter
p5621
aVall
p5622
aVthe
p5623
aVmoney
p5624
aVwe
p5625
aVspent
p5626
aVon
p5627
aVyou
p5628
aVat
p5629
aVthe
p5630
aVnormal
p5631
aV.
aV''
p5632
aa(lp5633
V``
p5634
aVme
p5635
aVeither
p5636
aV,
aV''
p5637
aVsays
p5638
aVstella-rondo
p5639
aV.
aa(lp5640
V``
p5641
aVyou
p5642
aVcan
p5643
aVjust
p5644
aVlet
p5645
aVmy
p5646
aVmail
p5647
aVlie
p5648
aVthere
p5649
aVand
p5650
aVrot
p5651
aV,
aVfor
p5652
aVall
p5653
aVi
aVcare
p5654
aV.
aa(lp5655
Vi
aV'll
p5656
aVnever
p5657
aVcome
p5658
aVand
p5659
aVrelieve
p5660
aVyou
p5661
aVof
p5662
aVa
aVsingle
p5663
aV,
aVsolitary
p5664
aVpiece
p5665
aV.
aV''
p5666
aa(lp5667
V``
p5668
aVi
aVshould
p5669
aVworry
p5670
aV,
aV''
p5671
aVi
aVsays
p5672
aV.
aa(lp5673
V``
p5674
aVand
p5675
aVwho
p5676
aVyou
p5677
aVthink
p5678
aV's
p5679
aVgoing
p5680
aVto
p5681
aVsit
p5682
aVdown
p5683
aVand
p5684
aVwrite
p5685
aVyou
p5686
aVall
p5687
aVthose
p5688
aVbig
p5689
aVfat
p5690
aVletters
p5691
aVand
p5692
aVpostcards
p5693
aV,
aVby
p5694
aVthe
p5695
aVway
p5696
aV?
aa(lp5697
Vmr.
p5698
aVwhitaker
p5699
aV?
aa(lp5700
Vjust
p5701
aVbecause
p5702
aVhe
p5703
aVwas
p5704
aVthe
p5705
aVonly
p5706
aVman
p5707
aVever
p5708
aVdropped
p5709
aVdown
p5710
aVin
p5711
aVchina
p5712
aVgrove
p5713
aVand
p5714
aVyou
p5715
aVgot
p5716
aVhim
p5717
aV-
aVunfairly
p5718
aV-
aVis
p5719
aVhe
p5720
aVgoing
p5721
aVto
p5722
aVsit
p5723
aVdown
p5724
aVand
p5725
aVwrite
p5726
aVyou
p5727
aVa
aVlengthy
p5728
aVcorrespondence
p5729
aVafter
p5730
aVyou
p5731
aVcome
p5732
aVhome
p5733
aVgiving
p5734
aVno
p5735
aVrhyme
p5736
aVnor
p5737
aVreason
p5738
aVwhatsoever
p5739
aVfor
p5740
aVyour
p5741
aVseparation
p5742
aVand
p5743
aVno
p5744
aVexplanation
p5745
aVfor
p5746
aVthe
p5747
aVpresence
p5748
aVof
p5749
aVthat
p5750
aVchild
p5751
aV?
aa(lp5752
Vi
aVmay
p5753
aVnot
p5754
aVhave
p5755
aVyour
p5756
aVbrilliant
p5757
aVmind
p5758
aV,
aVbut
p5759
aVi
aVfail
p5760
aVto
p5761
aVsee
p5762
aVit
p5763
aV.
aV''
p5764
aa(lp5765
Vso
p5766
aVmama
p5767
aVsays
p5768
aV,
aV``
p5769
aVsister
p5770
aV,
aVi
aV've
p5771
aVtold
p5772
aVyou
p5773
aVa
aVthousand
p5774
aVtimes
p5775
aVthat
p5776
aVstella-rondo
p5777
aVsimply
p5778
aVgot
p5779
aVhomesick
p5780
aV,
aVand
p5781
aVthis
p5782
aVchild
p5783
aVis
p5784
aVfar
p5785
aVtoo
p5786
aVbig
p5787
aVto
p5788
aVbe
p5789
aVhers
p5790
aV,
aV''
p5791
aVand
p5792
aVshe
p5793
aVsays
p5794
aV,
aV``
p5795
aVnow
p5796
aV,
aVwhy
p5797
aVdo
p5798
aVn't
p5799
aVyou
p5800
aVall
p5801
aVjust
p5802
aVsit
p5803
aVdown
p5804
aVand
p5805
aVplay
p5806
aVcasino
p5807
aV?
aV''
p5808
aa(lp5809
Vthen
p5810
aVshirley-t.
p5811
aVsticks
p5812
aVout
p5813
aVher
p5814
aVtongue
p5815
aVat
p5816
aVme
p5817
aVin
p5818
aVthis
p5819
aVperfectly
p5820
aVhorrible
p5821
aVway
p5822
aV.
aa(lp5823
Vshe
p5824
aVhas
p5825
aVno
p5826
aVmore
p5827
aVmanners
p5828
aVthan
p5829
aVthe
p5830
aVman
p5831
aVin
p5832
aVthe
p5833
aVmoon
p5834
aV.
aa(lp5835
Vi
aVtold
p5836
aVher
p5837
aVshe
p5838
aVwas
p5839
aVgoing
p5840
aVto
p5841
aVcross
p5842
aVher
p5843
aVeyes
p5844
aVlike
p5845
aVthat
p5846
aVsome
p5847
aVday
p5848
aVand
p5849
aVthey
p5850
aV'd
p5851
aVstick
p5852
aV.
aa(lp5853
V``
p5854
aVit
p5855
aV's
p5856
aVtoo
p5857
aVlate
p5858
aVto
p5859
aVstop
p5860
aVme
p5861
aVnow
p5862
aV,
aV''
p5863
aVi
aVsays
p5864
aV.
aa(lp5865
V``
p5866
aVyou
p5867
aVshould
p5868
aVhave
p5869
aVtried
p5870
aVthat
p5871
aVyesterday
p5872
aV.
aa(lp5873
Vi
aV'm
p5874
aVgoing
p5875
aVto
p5876
aVthe
p5877
aVp.o
p5878
aV.
aa(lp5879
Vand
p5880
aVthe
p5881
aVonly
p5882
aVway
p5883
aVyou
p5884
aVcan
p5885
aVpossibly
p5886
aVsee
p5887
aVme
p5888
aVis
p5889
aVto
p5890
aVvisit
p5891
aVme
p5892
aVthere
p5893
aV.
aV''
p5894
aa(lp5895
Vso
p5896
aVpapa-daddy
p5897
aVsays
p5898
aV,
aV``
p5899
aVyou
p5900
aV'll
p5901
aVnever
p5902
aVcatch
p5903
aVme
p5904
aVsetting
p5905
aVfoot
p5906
aVin
p5907
aVthat
p5908
aVpost
p5909
aVoffice
p5910
aV,
aVeven
p5911
aVif
p5912
aVi
aVshould
p5913
aVtake
p5914
aVa
aVnotion
p5915
aVinto
p5916
aVmy
p5917
aVhead
p5918
aVto
p5919
aVwrite
p5920
aVa
aVletter
p5921
aVsome
p5922
aVplace
p5923
aV.
aV''
p5924
aa(lp5925
Vhe
p5926
aVsays
p5927
aV,
aV``
p5928
aVi
aVwo
p5929
aVn't
p5930
aVhave
p5931
aVyou
p5932
aVreachin
p5933
aV'
aVout
p5934
aVof
p5935
aVthat
p5936
aVlittle
p5937
aVold
p5938
aVwindow
p5939
aVwith
p5940
aVa
aVpair
p5941
aVof
p5942
aVshears
p5943
aVand
p5944
aVcuttin
p5945
aV'
aVoff
p5946
aVany
p5947
aVbeard
p5948
aVof
p5949
aVmine
p5950
aV.
aa(lp5951
Vi
aV'm
p5952
aVtoo
p5953
aVsmart
p5954
aVfor
p5955
aVyou
p5956
aV!
aV''
p5957
aa(lp5958
V``
p5959
aVwe
p5960
aVall
p5961
aVare
p5962
aV,
aV''
p5963
aVsays
p5964
aVstella-rondo
p5965
aV.
aa(lp5966
Vbut
p5967
aVi
aVsaid
p5968
aV,
aV``
p5969
aVif
p5970
aVyou
p5971
aV're
p5972
aVso
p5973
aVsmart
p5974
aV,
aVwhere
p5975
aV's
p5976
aVmr
p5977
aV.
aa(lp5978
Vwhitaker
p5979
aV?
aV''
p5980
aa(lp5981
Vso
p5982
aVthen
p5983
aVuncle
p5984
aVrondo
p5985
aVsays
p5986
aV,
aV``
p5987
aVi
aV'll
p5988
aVthank
p5989
aVyou
p5990
aVfrom
p5991
aVnow
p5992
aVon
p5993
aVto
p5994
aVstop
p5995
aVreading
p5996
aVall
p5997
aVthe
p5998
aVorders
p5999
aVi
aVget
p6000
aVon
p6001
aVpostcards
p6002
aVand
p6003
aVtelling
p6004
aVeverybody
p6005
aVin
p6006
aVchina
p6007
aVgrove
p6008
aVwhat
p6009
aVyou
p6010
aVthink
p6011
aVis
p6012
aVthe
p6013
aVmatter
p6014
aVwith
p6015
aVthem
p6016
aV,
aV''
p6017
aVbut
p6018
aVi
aVsays
p6019
aV,
aV``
p6020
aVi
aVdraw
p6021
aVmy
p6022
aVown
p6023
aVconclusions
p6024
aVand
p6025
aVwill
p6026
aVcontinue
p6027
aVin
p6028
aVthe
p6029
aVfuture
p6030
aVto
p6031
aVdraw
p6032
aVthem
p6033
aV.
aV''
p6034
aa(lp6035
Vi
aVsays
p6036
aV,
aV``
p6037
aVif
p6038
aVpeople
p6039
aVwant
p6040
aVto
p6041
aVwrite
p6042
aVtheir
p6043
aVinmost
p6044
aVsecrets
p6045
aVon
p6046
aVpenny
p6047
aVpostcards
p6048
aV,
aVthere
p6049
aV's
p6050
aVnothing
p6051
aVin
p6052
aVthe
p6053
aVwide
p6054
aVworld
p6055
aVyou
p6056
aVcan
p6057
aVdo
p6058
aVabout
p6059
aVit
p6060
aV,
aVuncle
p6061
aVrondo
p6062
aV.
aV''
p6063
aa(lp6064
V``
p6065
aVand
p6066
aVif
p6067
aVyou
p6068
aVthink
p6069
aVwe
p6070
aV'll
p6071
aVever
p6072
aVwrite
p6073
aVanother
p6074
aVpostcard
p6075
aVyou
p6076
aV're
p6077
aVsadly
p6078
aVmistaken
p6079
aV,
aV''
p6080
aVsays
p6081
aVmama
p6082
aV.
aa(lp6083
V``
p6084
aVcutting
p6085
aVoff
p6086
aVyour
p6087
aVnose
p6088
aVto
p6089
aVspite
p6090
aVyour
p6091
aVface
p6092
aVthen
p6093
aV,
aV''
p6094
aVi
aVsays
p6095
aV.
aa(lp6096
V``
p6097
aVbut
p6098
aVif
p6099
aVyou
p6100
aV're
p6101
aVall
p6102
aVdetermined
p6103
aVto
p6104
aVhave
p6105
aVno
p6106
aVmore
p6107
aVto
p6108
aVdo
p6109
aVwith
p6110
aVthe
p6111
aVu.s.
p6112
aVmail
p6113
aV,
aVthink
p6114
aVof
p6115
aVthis
p6116
aV:
aVwhat
p6117
aVwill
p6118
aVstella-rondo
p6119
aVdo
p6120
aVnow
p6121
aV,
aVif
p6122
aVshe
p6123
aVwants
p6124
aVto
p6125
aVtell
p6126
aVmr.
p6127
aVwhitaker
p6128
aVto
p6129
aVcome
p6130
aVafter
p6131
aVher
p6132
aV?
aV''
p6133
aa(lp6134
V``
p6135
aVwah
p6136
aV!
aV''
p6137
aa(lp6138
Vsays
p6139
aVstella-rondo
p6140
aV.
aa(lp6141
Vi
aVknew
p6142
aVshe
p6143
aV'd
p6144
aVcry
p6145
aV.
aa(lp6146
Vshe
p6147
aVhad
p6148
aVa
aVconniption
p6149
aVfit
p6150
aVright
p6151
aVthere
p6152
aVin
p6153
aVthe
p6154
aVkitchen
p6155
aV.
aa(lp6156
V``
p6157
aVit
p6158
aVwill
p6159
aVbe
p6160
aVinteresting
p6161
aVto
p6162
aVsee
p6163
aVhow
p6164
aVlong
p6165
aVshe
p6166
aVholds
p6167
aVout
p6168
aV,
aV''
p6169
aVi
aVsays
p6170
aV.
aa(lp6171
V``
p6172
aVand
p6173
aVnow
p6174
aV-
aVi
aVam
p6175
aVleaving
p6176
aV.
aV''
p6177
aa(lp6178
V``
p6179
aVgood-bye
p6180
aV,
aV''
p6181
aVsays
p6182
aVuncle
p6183
aVrondo
p6184
aV.
aa(lp6185
V``
p6186
aVoh
p6187
aV,
aVi
aVdeclare
p6188
aV,
aV''
p6189
aVsays
p6190
aVmama
p6191
aV,
aV``
p6192
aVto
p6193
aVthink
p6194
aVthat
p6195
aVa
aVfamily
p6196
aVof
p6197
aVmine
p6198
aVshould
p6199
aVquarrel
p6200
aVon
p6201
aVthe
p6202
aVfourth
p6203
aVof
p6204
aVjuly
p6205
aV,
aVor
p6206
aVthe
p6207
aVday
p6208
aVafter
p6209
aV,
aVover
p6210
aVstella-rondo
p6211
aVleaving
p6212
aVold
p6213
aVmr.
p6214
aVwhitaker
p6215
aVand
p6216
aVhaving
p6217
aVthe
p6218
aVsweetest
p6219
aVlittle
p6220
aVadopted
p6221
aVchild
p6222
aV!
aa(lp6223
Vit
p6224
aVlooks
p6225
aVlike
p6226
aVwe
p6227
aV'd
p6228
aVall
p6229
aVbe
p6230
aVglad
p6231
aV!
aV''
p6232
aa(lp6233
V``
p6234
aVwah
p6235
aV!
aV''
p6236
aa(lp6237
Vsays
p6238
aVstella-rondo
p6239
aV,
aVand
p6240
aVhas
p6241
aVa
aVfresh
p6242
aVconniption
p6243
aVfit
p6244
aV.
aa(lp6245
V``
p6246
aVhe
p6247
aVleft
p6248
aVher
p6249
aV-
aVyou
p6250
aVmark
p6251
aVmy
p6252
aVwords
p6253
aV,
aV''
p6254
aVi
aVsays
p6255
aV.
aa(lp6256
V``
p6257
aVthat
p6258
aV's
p6259
aVmr.
p6260
aVwhitaker
p6261
aV.
aa(lp6262
Vi
aVknow
p6263
aVmr.
p6264
aVwhitaker
p6265
aV.
aa(lp6266
Vafter
p6267
aVall
p6268
aV,
aVi
aVknew
p6269
aVhim
p6270
aVfirst
p6271
aV.
aa(lp6272
Vi
aVsaid
p6273
aVfrom
p6274
aVthe
p6275
aVbeginning
p6276
aVhe
p6277
aV'd
p6278
aVup
p6279
aVand
p6280
aVleave
p6281
aVher
p6282
aV.
aa(lp6283
Vi
aVforetold
p6284
aVevery
p6285
aVsingle
p6286
aVthing
p6287
aVthat
p6288
aV's
p6289
aVhappened
p6290
aV.
aV''
p6291
aa(lp6292
V``
p6293
aVwhere
p6294
aVdid
p6295
aVhe
p6296
aVgo
p6297
aV?
aV''
p6298
aa(lp6299
Vasks
p6300
aVmama
p6301
aV.
aa(lp6302
V``
p6303
aVprobably
p6304
aVto
p6305
aVthe
p6306
aVnorth
p6307
aVpole
p6308
aV,
aVif
p6309
aVhe
p6310
aVknows
p6311
aVwhat
p6312
aV's
p6313
aVgood
p6314
aVfor
p6315
aVhim
p6316
aV,
aV''
p6317
aVi
aVsays
p6318
aV.
aa(lp6319
Vbut
p6320
aVstella-rondo
p6321
aVjust
p6322
aVbawled
p6323
aVand
p6324
aVwould
p6325
aVn't
p6326
aVsay
p6327
aVanother
p6328
aVword
p6329
aV.
aa(lp6330
Vshe
p6331
aVflew
p6332
aVto
p6333
aVher
p6334
aVroom
p6335
aVand
p6336
aVslammed
p6337
aVthe
p6338
aVdoor
p6339
aV.
aa(lp6340
V``
p6341
aVnow
p6342
aVlook
p6343
aVwhat
p6344
aVyou
p6345
aV've
p6346
aVgone
p6347
aVand
p6348
aVdone
p6349
aV,
aVsister
p6350
aV,
aV''
p6351
aVsays
p6352
aVmama
p6353
aV.
aa(lp6354
V``
p6355
aVyou
p6356
aVgo
p6357
aVapologize
p6358
aV.
aV''
p6359
aa(lp6360
V``
p6361
aVi
aVhave
p6362
aVn't
p6363
aVgot
p6364
aVtime
p6365
aV,
aVi
aV'm
p6366
aVleaving
p6367
aV,
aV''
p6368
aVi
aVsays
p6369
aV.
aa(lp6370
V``
p6371
aVwell
p6372
aV,
aVwhat
p6373
aVare
p6374
aVyou
p6375
aVwaiting
p6376
aVaround
p6377
aVfor
p6378
aV?
aV''
p6379
aa(lp6380
Vasks
p6381
aVuncle
p6382
aVrondo
p6383
aV.
aa(lp6384
Vso
p6385
aVi
aVjust
p6386
aVpicked
p6387
aVup
p6388
aVthe
p6389
aVkitchen
p6390
aVclock
p6391
aVand
p6392
aVmarched
p6393
aVoff
p6394
aV,
aVwithout
p6395
aVsaying
p6396
aV``
p6397
aVkiss
p6398
aVmy
p6399
aVfoot
p6400
aV''
p6401
aVor
p6402
aVanything
p6403
aV,
aVand
p6404
aVnever
p6405
aVdid
p6406
aVtell
p6407
aVstella-rondo
p6408
aVgood-bye
p6409
aV.
aa(lp6410
Vthere
p6411
aVwas
p6412
aVa
aVgirl
p6413
aVgoing
p6414
aValong
p6415
aVon
p6416
aVa
aVlittle
p6417
aVwagon
p6418
aVright
p6419
aVin
p6420
aVfront
p6421
aV.
aa(lp6422
V``
p6423
aVgirl
p6424
aV,
aV''
p6425
aVi
aVsays
p6426
aV,
aV``
p6427
aVcome
p6428
aVhelp
p6429
aVme
p6430
aVhaul
p6431
aVthese
p6432
aVthings
p6433
aVdown
p6434
aVthe
p6435
aVhill
p6436
aV,
aVi
aV'm
p6437
aVgoing
p6438
aVto
p6439
aVlive
p6440
aVin
p6441
aVthe
p6442
aVpost
p6443
aVoffice
p6444
aV.
aV''
p6445
aa(lp6446
Vtook
p6447
aVher
p6448
aVnine
p6449
aVtrips
p6450
aVin
p6451
aVher
p6452
aVexpress
p6453
aVwagon
p6454
aV.
aa(lp6455
Vuncle
p6456
aVrondo
p6457
aVcame
p6458
aVout
p6459
aVon
p6460
aVthe
p6461
aVporch
p6462
aVand
p6463
aVthrew
p6464
aVher
p6465
aVa
aVnickel
p6466
aV.
aa(lp6467
Vand
p6468
aVthat
p6469
aV's
p6470
aVthe
p6471
aVlast
p6472
aVi
aV've
p6473
aVlaid
p6474
aVeyes
p6475
aVon
p6476
aVany
p6477
aVof
p6478
aVmy
p6479
aVfamily
p6480
aVor
p6481
aVmy
p6482
aVfamily
p6483
aVlaid
p6484
aVeyes
p6485
aVon
p6486
aVme
p6487
aVfor
p6488
aVfive
p6489
aVsolid
p6490
aVdays
p6491
aVand
p6492
aVnights
p6493
aV.
aa(lp6494
Vstella-rondo
p6495
aVmay
p6496
aVbe
p6497
aVtelling
p6498
aVthe
p6499
aVmost
p6500
aVhorrible
p6501
aVtales
p6502
aVin
p6503
aVthe
p6504
aVworld
p6505
aVabout
p6506
aVmr.
p6507
aVwhitaker
p6508
aV,
aVbut
p6509
aVi
aVhave
p6510
aVn't
p6511
aVheard
p6512
aVthem
p6513
aV.
aa(lp6514
Vas
p6515
aVi
aVtell
p6516
aVeverybody
p6517
aV,
aVi
aVdraw
p6518
aVmy
p6519
aVown
p6520
aVconclusions
p6521
aV.
aa(lp6522
Vbut
p6523
aVoh
p6524
aV,
aVi
aVlike
p6525
aVit
p6526
aVhere
p6527
aV.
aa(lp6528
Vit
p6529
aV's
p6530
aVideal
p6531
aV,
aVas
p6532
aVi
aV've
p6533
aVbeen
p6534
aVsaying
p6535
aV.
aa(lp6536
Vyou
p6537
aVsee
p6538
aV,
aVi
aV've
p6539
aVgot
p6540
aVeverything
p6541
aVcater-cornered
p6542
aV,
aVthe
p6543
aVway
p6544
aVi
aVlike
p6545
aVit
p6546
aV.
aa(lp6547
Vhear
p6548
aVthe
p6549
aVradio
p6550
aV?
aa(lp6551
Vall
p6552
aVthe
p6553
aVwar
p6554
aVnews
p6555
aV.
aa(lp6556
Vradio
p6557
aV,
aVsewing
p6558
aVmachine
p6559
aV,
aVbook
p6560
aVends
p6561
aV,
aVironing
p6562
aVboard
p6563
aVand
p6564
aVthat
p6565
aVgreat
p6566
aVbig
p6567
aVpiano
p6568
aVlamp
p6569
aV-
aVpeace
p6570
aV,
aVthat
p6571
aV's
p6572
aVwhat
p6573
aVi
aVlike
p6574
aV.
aa(lp6575
Vbutter-bean
p6576
aVvines
p6577
aVplanted
p6578
aVall
p6579
aValong
p6580
aVthe
p6581
aVfront
p6582
aVwhere
p6583
aVthe
p6584
aVstrings
p6585
aVare
p6586
aV.
aa(lp6587
Vof
p6588
aVcourse
p6589
aV,
aVthere
p6590
aV's
p6591
aVnot
p6592
aVmuch
p6593
aVmail
p6594
aV.
aa(lp6595
Vmy
p6596
aVfamily
p6597
aVare
p6598
aVnaturally
p6599
aVthe
p6600
aVmain
p6601
aVpeople
p6602
aVin
p6603
aVchina
p6604
aVgrove
p6605
aV,
aVand
p6606
aVif
p6607
aVthey
p6608
aVprefer
p6609
aVto
p6610
aVvanish
p6611
aVfrom
p6612
aVthe
p6613
aVface
p6614
aVof
p6615
aVthe
p6616
aVearth
p6617
aV,
aVfor
p6618
aVall
p6619
aVthe
p6620
aVmail
p6621
aVthey
p6622
aVget
p6623
aVor
p6624
aVthe
p6625
aVmail
p6626
aVthey
p6627
aVwrite
p6628
aV,
aVwhy
p6629
aV,
aVi
aV'm
p6630
aVnot
p6631
aVgoing
p6632
aVto
p6633
aVopen
p6634
aVmy
p6635
aVmouth
p6636
aV.
aa(lp6637
Vsome
p6638
aVof
p6639
aVthe
p6640
aVfolks
p6641
aVhere
p6642
aVin
p6643
aVtown
p6644
aVare
p6645
aVtaking
p6646
aVup
p6647
aVfor
p6648
aVme
p6649
aVand
p6650
aVsome
p6651
aVturned
p6652
aVagainst
p6653
aVme
p6654
aV.
aa(lp6655
Vi
aVknow
p6656
aVwhich
p6657
aVis
p6658
aVwhich
p6659
aV.
aa(lp6660
Vthere
p6661
aVare
p6662
aValways
p6663
aVpeople
p6664
aVwho
p6665
aVwill
p6666
aVquit
p6667
aVbuying
p6668
aVstamps
p6669
aVjust
p6670
aVto
p6671
aVget
p6672
aVon
p6673
aVthe
p6674
aVright
p6675
aVside
p6676
aVof
p6677
aVpapa-daddy
p6678
aV.
aa(lp6679
Vbut
p6680
aVhere
p6681
aVi
aVam
p6682
aV,
aVand
p6683
aVhere
p6684
aVi
aV'll
p6685
aVstay
p6686
aV.
aa(lp6687
Vi
aVwant
p6688
aVthe
p6689
aVworld
p6690
aVto
p6691
aVknow
p6692
aVi
aV'm
p6693
aVhappy
p6694
aV.
aa(lp6695
Vand
p6696
aVif
p6697
aVstella-rondo
p6698
aVshould
p6699
aVcome
p6700
aVto
p6701
aVme
p6702
aVthis
p6703
aVminute
p6704
aV,
aVon
p6705
aVbended
p6706
aVknees
p6707
aV,
aVand
p6708
aVattempt
p6709
aVto
p6710
aVexplain
p6711
aVthe
p6712
aVincidents
p6713
aVof
p6714
aVher
p6715
aVlife
p6716
aVwith
p6717
aVmr.
p6718
aVwhitaker
p6719
aV,
aVi
aV'd
p6720
aVsimply
p6721
aVput
p6722
aVmy
p6723
aVfingers
p6724
aVin
p6725
aVboth
p6726
aVmy
p6727
aVears
p6728
aVand
p6729
aVrefuse
p6730
aVto
p6731
aVlisten
p6732
aV.
aasb.