ccopy_reg
_reconstructor
p1
(cData.Book
Book
p2
c__builtin__
object
p3
NtRp4
(dp5
S'stored_object'
p6
S'Books/The_Story_of_an_Hour/Book_object.p'
p7
sS'title'
p8
S'The Story of an Hour'
p9
sS'main_text_path'
p10
S'Books/The_Story_of_an_Hour/main_cleaned.txt'
p11
sS'metadata_path'
p12
S'Books/The_Story_of_an_Hour/meta_data.csv'
p13
sS'book_path'
p14
S'Books/The_Story_of_an_Hour/'
p15
sS'characters'
p16
(dp17
S'brently mallard'
p18
(dp19
S'list'
p20
(lp21
(lp22
V[
aVCHARACTER
p23
aV]
aV-
aVlouise
p24
aV's
p25
aVhusband
p26
aV,
aVsupposedly
p27
aVkilled
p28
aVin
p29
aVa
aVtrain
p30
aVaccident
p31
aV.
aa(lp32
Valthough
p33
aVlouise
p34
aVremembers
p35
aVbrently
p36
aVas
p37
aVa
aVkind
p38
aVand
p39
aVloving
p40
aVman
p41
aV,
aVmerely
p42
aVbeing
p43
aVmarried
p44
aVto
p45
aVhim
p46
aValso
p47
aVmade
p48
aVhim
p49
aVan
p50
aVoppressive
p51
aVfactor
p52
aVin
p53
aVher
p54
aVlife
p55
aV.
aa(lp56
Vbrently
p57
aVarrives
p58
aVhome
p59
aVunaware
p60
aVthat
p61
aVthere
p62
aVhad
p63
aVbeen
p64
aVa
aVtrain
p65
aVaccident
p66
aV.
aasS'analysis'
p67
NssS'josephine'
p68
(dp69
g20
(lp70
(lp71
V[
aVCHARACTER
p72
aV]
aV-
aVlouise
p73
aV's
p74
aVsister
p75
aV.
aa(lp76
V[
aVCHARACTER
p77
aV]
aVinforms
p78
aVlouise
p79
aVabout
p80
aVbrently
p81
aV's
p82
aVdeath
p83
aV.
aasg67
NssS'louise mallard'
p84
(dp85
g20
(lp86
(lp87
V[
aVCHARACTER
p88
aV]
aV-
aVa
aVwoman
p89
aVwhose
p90
aVhusband
p91
aVis
p92
aVreportedly
p93
aVkilled
p94
aVin
p95
aVa
aVtrain
p96
aVaccident
p97
aV.
aa(lp98
Vwhen
p99
aVlouise
p100
aVhears
p101
aVthe
p102
aVnews
p103
aV,
aVshe
p104
aVis
p105
aVsecretly
p106
aVhappy
p107
aVbecause
p108
aVshe
p109
aVis
p110
aVnow
p111
aVfree
p112
aV.
aa(lp113
Vshe
p114
aVis
p115
aVfilled
p116
aVwith
p117
aVa
aVnew
p118
aVlust
p119
aVfor
p120
aVlife
p121
aV,
aVand
p122
aValthough
p123
aVshe
p124
aVusually
p125
aVloved
p126
aVher
p127
aVhusband
p128
aV,
aVshe
p129
aVcherishes
p130
aVher
p131
aVnewfound
p132
aVindependence
p133
aVeven
p134
aVmore
p135
aV.
aa(lp136
Vshe
p137
aVhas
p138
aVa
aVheart
p139
aVattack
p140
aVwhen
p141
aVher
p142
aVhusband
p143
aV,
aValive
p144
aVafter
p145
aVall
p146
aV,
aVcomes
p147
aVhome
p148
aV.
aasg67
(lp149
(lp150
V[
aVCHARACTER
p151
aV]
aVan
p152
aVintelligent
p153
aV,
aVindependent
p154
aVwoman
p155
aV,
aV[
aVCHARACTER
p156
aV]
aVunderstands
p157
aVthe
p158
aV``
p159
aVright
p160
aV''
p161
aVway
p162
aVfor
p163
aVwomen
p164
aVto
p165
aVbehave
p166
aV,
aVbut
p167
aVher
p168
aVinternal
p169
aVthoughts
p170
aVand
p171
aVfeelings
p172
aVare
p173
aVanything
p174
aVbut
p175
aVcorrect
p176
aV.
aa(lp177
Vwhen
p178
aVher
p179
aVsister
p180
aVannounces
p181
aVthat
p182
aVbrently
p183
aVhas
p184
aVdied
p185
aV,
aVlouise
p186
aVcries
p187
aVdramatically
p188
aVrather
p189
aVthan
p190
aVfeeling
p191
aVnumb
p192
aV,
aVas
p193
aVshe
p194
aVknows
p195
aVmany
p196
aVother
p197
aVwomen
p198
aVwould
p199
aV.
aa(lp200
Vher
p201
aVviolent
p202
aVreaction
p203
aVimmediately
p204
aVshows
p205
aVthat
p206
aVshe
p207
aVis
p208
aVan
p209
aVemotional
p210
aV,
aVdemonstrative
p211
aVwoman
p212
aV.
aa(lp213
Vshe
p214
aVknows
p215
aVthat
p216
aVshe
p217
aVshould
p218
aVgrieve
p219
aVfor
p220
aVbrently
p221
aVand
p222
aVfear
p223
aVfor
p224
aVher
p225
aVown
p226
aVfuture
p227
aV,
aVbut
p228
aVinstead
p229
aVshe
p230
aVfeels
p231
aVelation
p232
aVat
p233
aVher
p234
aVnewfound
p235
aVindependence
p236
aV.
aa(lp237
Vlouise
p238
aVis
p239
aVnot
p240
aVcruel
p241
aVand
p242
aVknows
p243
aVthat
p244
aVshe
p245
aV'll
p246
aVcry
p247
aVover
p248
aVbrently
p249
aV's
p250
aVdead
p251
aVbody
p252
aVwhen
p253
aVthe
p254
aVtime
p255
aVcomes
p256
aV.
aa(lp257
Vbut
p258
aVwhen
p259
aVshe
p260
aVis
p261
aVout
p262
aVof
p263
aVothers
p264
aV'
aVsight
p265
aV,
aVher
p266
aVprivate
p267
aVthoughts
p268
aVare
p269
aVof
p270
aVher
p271
aVown
p272
aVlife
p273
aVand
p274
aVthe
p275
aVopportunities
p276
aVthat
p277
aVawait
p278
aVher
p279
aV,
aVwhich
p280
aVshe
p281
aVfeels
p282
aVhave
p283
aVjust
p284
aVbrightened
p285
aVconsiderably
p286
aV.
aa(lp287
Vlouise
p288
aVsuffers
p289
aVfrom
p290
aVa
aVheart
p291
aVproblem
p292
aV,
aVwhich
p293
aVindicates
p294
aVthe
p295
aVextent
p296
aVto
p297
aVwhich
p298
aVshe
p299
aVfeels
p300
aVthat
p301
aVmarriage
p302
aVhas
p303
aVoppressed
p304
aVher
p305
aV.
aa(lp306
Vthe
p307
aVvague
p308
aVlabel
p309
aVchopin
p310
aVgives
p311
aVto
p312
aVlouise
p313
aV's
p314
aVproblem
p315
aV--
p316
aV''
p317
aVheart
p318
aVtrouble
p319
aV''
p320
aV--
p321
aVsuggests
p322
aVthat
p323
aVthis
p324
aVtrouble
p325
aVis
p326
aVboth
p327
aVphysical
p328
aVand
p329
aVemotional
p330
aV,
aVa
aVproblem
p331
aVboth
p332
aVwithin
p333
aVher
p334
aVbody
p335
aVand
p336
aVwith
p337
aVher
p338
aVrelationship
p339
aVto
p340
aVbrently
p341
aV.
aa(lp342
Vin
p343
aVthe
p344
aVhour
p345
aVduring
p346
aVwhich
p347
aVlouise
p348
aVbelieves
p349
aVbrently
p350
aVis
p351
aVdead
p352
aV,
aVher
p353
aVheart
p354
aVbeats
p355
aVstrongly
p356
aV--
p357
aVindeed
p358
aV,
aVlouise
p359
aVfeels
p360
aVher
p361
aVnew
p362
aVindependence
p363
aVphysically
p364
aV.
aa(lp365
Valone
p366
aVin
p367
aVher
p368
aVroom
p369
aV,
aVher
p370
aVheart
p371
aVraces
p372
aV,
aVand
p373
aVher
p374
aVwhole
p375
aVbody
p376
aVfeels
p377
aVwarm
p378
aV.
aa(lp379
Vshe
p380
aVspreads
p381
aVher
p382
aVarms
p383
aVopen
p384
aV,
aVsymbolically
p385
aVwelcoming
p386
aVher
p387
aVnew
p388
aVlife
p389
aV.
aa(lp390
V``
p391
aVbody
p392
aVand
p393
aVsoul
p394
aVfree
p395
aV!
aV''
p396
aa(lp397
Vshe
p398
aVrepeats
p399
aVto
p400
aVherself
p401
aV,
aVa
aVstatement
p402
aVthat
p403
aVshows
p404
aVhow
p405
aVtotal
p406
aVher
p407
aVnew
p408
aVindependence
p409
aVreally
p410
aVis
p411
aVfor
p412
aVher
p413
aV.
aa(lp414
Vonly
p415
aVwhen
p416
aVbrently
p417
aVwalks
p418
aVin
p419
aVdoes
p420
aVher
p421
aV``
p422
aVheart
p423
aVtrouble
p424
aV''
p425
aVreappear
p426
aV,
aVand
p427
aVthis
p428
aVtrouble
p429
aVis
p430
aVso
p431
aVacute
p432
aVthat
p433
aVit
p434
aVkills
p435
aVher
p436
aV.
aa(lp437
Vthe
p438
aVirony
p439
aVof
p440
aVthe
p441
aVending
p442
aVis
p443
aVthat
p444
aVlouise
p445
aVdoes
p446
aVn't
p447
aVdie
p448
aVof
p449
aVjoy
p450
aVas
p451
aVthe
p452
aVdoctors
p453
aVclaim
p454
aVbut
p455
aVactually
p456
aVfrom
p457
aVthe
p458
aVloss
p459
aVof
p460
aVjoy
p461
aV.
aa(lp462
Vbrently
p463
aV's
p464
aVdeath
p465
aVgave
p466
aVher
p467
aVa
aVglimpse
p468
aVof
p469
aVa
aVnew
p470
aVlife
p471
aV,
aVand
p472
aVwhen
p473
aVthat
p474
aVnew
p475
aVlife
p476
aVis
p477
aVswiftly
p478
aVtaken
p479
aVaway
p480
aV,
aVthe
p481
aVshock
p482
aVand
p483
aVdisappointment
p484
aVkill
p485
aVher
p486
aV.
aassS'richards'
p487
(dp488
g20
(lp489
(lp490
V[
aVCHARACTER
p491
aV]
aV-
aVbrently
p492
aV's
p493
aVfriend
p494
aV.
aa(lp495
V[
aVCHARACTER
p496
aV]
aVlearns
p497
aVabout
p498
aVthe
p499
aVtrain
p500
aVaccident
p501
aVand
p502
aVbrently
p503
aV's
p504
aVdeath
p505
aVat
p506
aVthe
p507
aVnewspaper
p508
aVoffice
p509
aV,
aVand
p510
aVhe
p511
aVis
p512
aVthere
p513
aVwhen
p514
aVjosephine
p515
aVtells
p516
aVthe
p517
aVnews
p518
aVto
p519
aVlouise
p520
aV.
aasg67
NsssS'mainText'
p521
(lp522
(lp523
Vthe
p524
aVstory
p525
aVof
p526
aVan
p527
aVhour
p528
aVby
p529
aVkate
p530
aVchopin
p531
aV(
aV1894
p532
aV)
aVknowing
p533
aVthat
p534
aVmrs.
p535
aVmallard
p536
aVwas
p537
aVafflicted
p538
aVwith
p539
aVa
aVheart
p540
aVtrouble
p541
aV,
aVgreat
p542
aVcare
p543
aVwas
p544
aVtaken
p545
aVto
p546
aVbreak
p547
aVto
p548
aVher
p549
aVas
p550
aVgently
p551
aVas
p552
aVpossible
p553
aVthe
p554
aVnews
p555
aVof
p556
aVher
p557
aVhusband
p558
aV's
p559
aVdeath
p560
aV.
aa(lp561
Vit
p562
aVwas
p563
aVher
p564
aVsister
p565
aVjosephine
p566
aVwho
p567
aVtold
p568
aVher
p569
aV,
aVin
p570
aVbroken
p571
aVsentences
p572
aV;
aVveiled
p573
aVhints
p574
aVthat
p575
aVrevealed
p576
aVin
p577
aVhalf
p578
aVconcealing
p579
aV.
aa(lp580
Vher
p581
aVhusband
p582
aV's
p583
aVfriend
p584
aVrichards
p585
aVwas
p586
aVthere
p587
aV,
aVtoo
p588
aV,
aVnear
p589
aVher
p590
aV.
aa(lp591
Vit
p592
aVwas
p593
aVhe
p594
aVwho
p595
aVhad
p596
aVbeen
p597
aVin
p598
aVthe
p599
aVnewspaper
p600
aVoffice
p601
aVwhen
p602
aVintelligence
p603
aVof
p604
aVthe
p605
aVrailroad
p606
aVdisaster
p607
aVwas
p608
aVreceived
p609
aV,
aVwith
p610
aVbrently
p611
aVmallard
p612
aV's
p613
aVname
p614
aVleading
p615
aVthe
p616
aVlist
p617
aVof
p618
aV''
p619
aVkilled
p620
aV.
aV''
p621
aa(lp622
Vhe
p623
aVhad
p624
aVonly
p625
aVtaken
p626
aVthe
p627
aVtime
p628
aVto
p629
aVassure
p630
aVhimself
p631
aVof
p632
aVits
p633
aVtruth
p634
aVby
p635
aVa
aVsecond
p636
aVtelegram
p637
aV,
aVand
p638
aVhad
p639
aVhastened
p640
aVto
p641
aVforestall
p642
aVany
p643
aVless
p644
aVcareful
p645
aV,
aVless
p646
aVtender
p647
aVfriend
p648
aVin
p649
aVbearing
p650
aVthe
p651
aVsad
p652
aVmessage
p653
aV.
aa(lp654
Vshe
p655
aVdid
p656
aVnot
p657
aVhear
p658
aVthe
p659
aVstory
p660
aVas
p661
aVmany
p662
aVwomen
p663
aVhave
p664
aVheard
p665
aVthe
p666
aVsame
p667
aV,
aVwith
p668
aVa
aVparalyzed
p669
aVinability
p670
aVto
p671
aVaccept
p672
aVits
p673
aVsignificance
p674
aV.
aa(lp675
Vshe
p676
aVwept
p677
aVat
p678
aVonce
p679
aV,
aVwith
p680
aVsudden
p681
aV,
aVwild
p682
aVabandonment
p683
aV,
aVin
p684
aVher
p685
aVsister
p686
aV's
p687
aVarms
p688
aV.
aa(lp689
Vwhen
p690
aVthe
p691
aVstorm
p692
aVof
p693
aVgrief
p694
aVhad
p695
aVspent
p696
aVitself
p697
aVshe
p698
aVwent
p699
aVaway
p700
aVto
p701
aVher
p702
aVroom
p703
aValone
p704
aV.
aa(lp705
Vshe
p706
aVwould
p707
aVhave
p708
aVno
p709
aVone
p710
aVfollow
p711
aVher
p712
aV.
aa(lp713
Vthere
p714
aVstood
p715
aV,
aVfacing
p716
aVthe
p717
aVopen
p718
aVwindow
p719
aV,
aVa
aVcomfortable
p720
aV,
aVroomy
p721
aVarmchair
p722
aV.
aa(lp723
Vinto
p724
aVthis
p725
aVshe
p726
aVsank
p727
aV,
aVpressed
p728
aVdown
p729
aVby
p730
aVa
aVphysical
p731
aVexhaustion
p732
aVthat
p733
aVhaunted
p734
aVher
p735
aVbody
p736
aVand
p737
aVseemed
p738
aVto
p739
aVreach
p740
aVinto
p741
aVher
p742
aVsoul
p743
aV.
aa(lp744
Vshe
p745
aVcould
p746
aVsee
p747
aVin
p748
aVthe
p749
aVopen
p750
aVsquare
p751
aVbefore
p752
aVher
p753
aVhouse
p754
aVthe
p755
aVtops
p756
aVof
p757
aVtrees
p758
aVthat
p759
aVwere
p760
aVall
p761
aVaquiver
p762
aVwith
p763
aVthe
p764
aVnew
p765
aVspring
p766
aVlife
p767
aV.
aa(lp768
Vthe
p769
aVdelicious
p770
aVbreath
p771
aVof
p772
aVrain
p773
aVwas
p774
aVin
p775
aVthe
p776
aVair
p777
aV.
aa(lp778
Vin
p779
aVthe
p780
aVstreet
p781
aVbelow
p782
aVa
aVpeddler
p783
aVwas
p784
aVcrying
p785
aVhis
p786
aVwares
p787
aV.
aa(lp788
Vthe
p789
aVnotes
p790
aVof
p791
aVa
aVdistant
p792
aVsong
p793
aVwhich
p794
aVsome
p795
aVone
p796
aVwas
p797
aVsinging
p798
aVreached
p799
aVher
p800
aVfaintly
p801
aV,
aVand
p802
aVcountless
p803
aVsparrows
p804
aVwere
p805
aVtwittering
p806
aVin
p807
aVthe
p808
aVeaves
p809
aV.
aa(lp810
Vthere
p811
aVwere
p812
aVpatches
p813
aVof
p814
aVblue
p815
aVsky
p816
aVshowing
p817
aVhere
p818
aVand
p819
aVthere
p820
aVthrough
p821
aVthe
p822
aVclouds
p823
aVthat
p824
aVhad
p825
aVmet
p826
aVand
p827
aVpiled
p828
aVone
p829
aVabove
p830
aVthe
p831
aVother
p832
aVin
p833
aVthe
p834
aVwest
p835
aVfacing
p836
aVher
p837
aVwindow
p838
aV.
aa(lp839
Vshe
p840
aVsat
p841
aVwith
p842
aVher
p843
aVhead
p844
aVthrown
p845
aVback
p846
aVupon
p847
aVthe
p848
aVcushion
p849
aVof
p850
aVthe
p851
aVchair
p852
aV,
aVquite
p853
aVmotionless
p854
aV,
aVexcept
p855
aVwhen
p856
aVa
aVsob
p857
aVcame
p858
aVup
p859
aVinto
p860
aVher
p861
aVthroat
p862
aVand
p863
aVshook
p864
aVher
p865
aV,
aVas
p866
aVa
aVchild
p867
aVwho
p868
aVhas
p869
aVcried
p870
aVitself
p871
aVto
p872
aVsleep
p873
aVcontinues
p874
aVto
p875
aVsob
p876
aVin
p877
aVits
p878
aVdreams
p879
aV.
aa(lp880
Vshe
p881
aVwas
p882
aVyoung
p883
aV,
aVwith
p884
aVa
aVfair
p885
aV,
aVcalm
p886
aVface
p887
aV,
aVwhose
p888
aVlines
p889
aVbespoke
p890
aVrepression
p891
aVand
p892
aVeven
p893
aVa
aVcertain
p894
aVstrength
p895
aV.
aa(lp896
Vbut
p897
aVnow
p898
aVthere
p899
aVwas
p900
aVa
aVdull
p901
aVstare
p902
aVin
p903
aVher
p904
aVeyes
p905
aV,
aVwhose
p906
aVgaze
p907
aVwas
p908
aVfixed
p909
aVaway
p910
aVoff
p911
aVyonder
p912
aVon
p913
aVone
p914
aVof
p915
aVthose
p916
aVpatches
p917
aVof
p918
aVblue
p919
aVsky
p920
aV.
aa(lp921
Vit
p922
aVwas
p923
aVnot
p924
aVa
aVglance
p925
aVof
p926
aVreflection
p927
aV,
aVbut
p928
aVrather
p929
aVindicated
p930
aVa
aVsuspension
p931
aVof
p932
aVintelligent
p933
aVthought
p934
aV.
aa(lp935
Vthere
p936
aVwas
p937
aVsomething
p938
aVcoming
p939
aVto
p940
aVher
p941
aVand
p942
aVshe
p943
aVwas
p944
aVwaiting
p945
aVfor
p946
aVit
p947
aV,
aVfearfully
p948
aV.
aa(lp949
Vwhat
p950
aVwas
p951
aVit
p952
aV?
aa(lp953
Vshe
p954
aVdid
p955
aVnot
p956
aVknow
p957
aV;
aVit
p958
aVwas
p959
aVtoo
p960
aVsubtle
p961
aVand
p962
aVelusive
p963
aVto
p964
aVname
p965
aV.
aa(lp966
Vbut
p967
aVshe
p968
aVfelt
p969
aVit
p970
aV,
aVcreeping
p971
aVout
p972
aVof
p973
aVthe
p974
aVsky
p975
aV,
aVreaching
p976
aVtoward
p977
aVher
p978
aVthrough
p979
aVthe
p980
aVsounds
p981
aV,
aVthe
p982
aVscents
p983
aV,
aVthe
p984
aVcolor
p985
aVthat
p986
aVfilled
p987
aVthe
p988
aVair
p989
aV.
aa(lp990
Vnow
p991
aVher
p992
aVbosom
p993
aVrose
p994
aVand
p995
aVfell
p996
aVtumultuously
p997
aV.
aa(lp998
Vshe
p999
aVwas
p1000
aVbeginning
p1001
aVto
p1002
aVrecognize
p1003
aVthis
p1004
aVthing
p1005
aVthat
p1006
aVwas
p1007
aVapproaching
p1008
aVto
p1009
aVpossess
p1010
aVher
p1011
aV,
aVand
p1012
aVshe
p1013
aVwas
p1014
aVstriving
p1015
aVto
p1016
aVbeat
p1017
aVit
p1018
aVback
p1019
aVwith
p1020
aVher
p1021
aVwill
p1022
aV--
p1023
aVas
p1024
aVpowerless
p1025
aVas
p1026
aVher
p1027
aVtwo
p1028
aVwhite
p1029
aVslender
p1030
aVhands
p1031
aVwould
p1032
aVhave
p1033
aVbeen
p1034
aV.
aa(lp1035
Vwhen
p1036
aVshe
p1037
aVabandoned
p1038
aVherself
p1039
aVa
aVlittle
p1040
aVwhispered
p1041
aVword
p1042
aVescaped
p1043
aVher
p1044
aVslightly
p1045
aVparted
p1046
aVlips
p1047
aV.
aa(lp1048
Vshe
p1049
aVsaid
p1050
aVit
p1051
aVover
p1052
aVand
p1053
aVover
p1054
aVunder
p1055
aVthe
p1056
aVbreath
p1057
aV:
aV``
p1058
aVfree
p1059
aV,
aVfree
p1060
aV,
aVfree
p1061
aV!
aV''
p1062
aa(lp1063
Vthe
p1064
aVvacant
p1065
aVstare
p1066
aVand
p1067
aVthe
p1068
aVlook
p1069
aVof
p1070
aVterror
p1071
aVthat
p1072
aVhad
p1073
aVfollowed
p1074
aVit
p1075
aVwent
p1076
aVfrom
p1077
aVher
p1078
aVeyes
p1079
aV.
aa(lp1080
Vthey
p1081
aVstayed
p1082
aVkeen
p1083
aVand
p1084
aVbright
p1085
aV.
aa(lp1086
Vher
p1087
aVpulses
p1088
aVbeat
p1089
aVfast
p1090
aV,
aVand
p1091
aVthe
p1092
aVcoursing
p1093
aVblood
p1094
aVwarmed
p1095
aVand
p1096
aVrelaxed
p1097
aVevery
p1098
aVinch
p1099
aVof
p1100
aVher
p1101
aVbody
p1102
aV.
aa(lp1103
Vshe
p1104
aVdid
p1105
aVnot
p1106
aVstop
p1107
aVto
p1108
aVask
p1109
aVif
p1110
aVit
p1111
aVwere
p1112
aVor
p1113
aVwere
p1114
aVnot
p1115
aVa
aVmonstrous
p1116
aVjoy
p1117
aVthat
p1118
aVheld
p1119
aVher
p1120
aV.
aa(lp1121
Va
aVclear
p1122
aVand
p1123
aVexalted
p1124
aVperception
p1125
aVenabled
p1126
aVher
p1127
aVto
p1128
aVdismiss
p1129
aVthe
p1130
aVsuggestion
p1131
aVas
p1132
aVtrivial
p1133
aV.
aa(lp1134
Vshe
p1135
aVknew
p1136
aVthat
p1137
aVshe
p1138
aVwould
p1139
aVweep
p1140
aVagain
p1141
aVwhen
p1142
aVshe
p1143
aVsaw
p1144
aVthe
p1145
aVkind
p1146
aV,
aVtender
p1147
aVhands
p1148
aVfolded
p1149
aVin
p1150
aVdeath
p1151
aV;
aVthe
p1152
aVface
p1153
aVthat
p1154
aVhad
p1155
aVnever
p1156
aVlooked
p1157
aVsave
p1158
aVwith
p1159
aVlove
p1160
aVupon
p1161
aVher
p1162
aV,
aVfixed
p1163
aVand
p1164
aVgray
p1165
aVand
p1166
aVdead
p1167
aV.
aa(lp1168
Vbut
p1169
aVshe
p1170
aVsaw
p1171
aVbeyond
p1172
aVthat
p1173
aVbitter
p1174
aVmoment
p1175
aVa
aVlong
p1176
aVprocession
p1177
aVof
p1178
aVyears
p1179
aVto
p1180
aVcome
p1181
aVthat
p1182
aVwould
p1183
aVbelong
p1184
aVto
p1185
aVher
p1186
aVabsolutely
p1187
aV.
aa(lp1188
Vand
p1189
aVshe
p1190
aVopened
p1191
aVand
p1192
aVspread
p1193
aVher
p1194
aVarms
p1195
aVout
p1196
aVto
p1197
aVthem
p1198
aVin
p1199
aVwelcome
p1200
aV.
aa(lp1201
Vthere
p1202
aVwould
p1203
aVbe
p1204
aVno
p1205
aVone
p1206
aVto
p1207
aVlive
p1208
aVfor
p1209
aVduring
p1210
aVthose
p1211
aVcoming
p1212
aVyears
p1213
aV;
aVshe
p1214
aVwould
p1215
aVlive
p1216
aVfor
p1217
aVherself
p1218
aV.
aa(lp1219
Vthere
p1220
aVwould
p1221
aVbe
p1222
aVno
p1223
aVpowerful
p1224
aVwill
p1225
aVbending
p1226
aVhers
p1227
aVin
p1228
aVthat
p1229
aVblind
p1230
aVpersistence
p1231
aVwith
p1232
aVwhich
p1233
aVmen
p1234
aVand
p1235
aVwomen
p1236
aVbelieve
p1237
aVthey
p1238
aVhave
p1239
aVa
aVright
p1240
aVto
p1241
aVimpose
p1242
aVa
aVprivate
p1243
aVwill
p1244
aVupon
p1245
aVa
aVfellow-creature
p1246
aV.
aa(lp1247
Va
aVkind
p1248
aVintention
p1249
aVor
p1250
aVa
aVcruel
p1251
aVintention
p1252
aVmade
p1253
aVthe
p1254
aVact
p1255
aVseem
p1256
aVno
p1257
aVless
p1258
aVa
aVcrime
p1259
aVas
p1260
aVshe
p1261
aVlooked
p1262
aVupon
p1263
aVit
p1264
aVin
p1265
aVthat
p1266
aVbrief
p1267
aVmoment
p1268
aVof
p1269
aVillumination
p1270
aV.
aa(lp1271
Vand
p1272
aVyet
p1273
aVshe
p1274
aVhad
p1275
aVloved
p1276
aVhim
p1277
aV--
p1278
aVsometimes
p1279
aV.
aa(lp1280
Voften
p1281
aVshe
p1282
aVhad
p1283
aVnot
p1284
aV.
aa(lp1285
Vwhat
p1286
aVdid
p1287
aVit
p1288
aVmatter
p1289
aV!
aa(lp1290
Vwhat
p1291
aVcould
p1292
aVlove
p1293
aV,
aVthe
p1294
aVunsolved
p1295
aVmystery
p1296
aV,
aVcount
p1297
aVfor
p1298
aVin
p1299
aVthe
p1300
aVface
p1301
aVof
p1302
aVthis
p1303
aVpossession
p1304
aVof
p1305
aVself-assertion
p1306
aVwhich
p1307
aVshe
p1308
aVsuddenly
p1309
aVrecognized
p1310
aVas
p1311
aVthe
p1312
aVstrongest
p1313
aVimpulse
p1314
aVof
p1315
aVher
p1316
aVbeing
p1317
aV!
aa(lp1318
V``
p1319
aVfree
p1320
aV!
aa(lp1321
Vbody
p1322
aVand
p1323
aVsoul
p1324
aVfree
p1325
aV!
aV''
p1326
aa(lp1327
Vshe
p1328
aVkept
p1329
aVwhispering
p1330
aV.
aa(lp1331
Vjosephine
p1332
aVwas
p1333
aVkneeling
p1334
aVbefore
p1335
aVthe
p1336
aVclosed
p1337
aVdoor
p1338
aVwith
p1339
aVher
p1340
aVlips
p1341
aVto
p1342
aVthe
p1343
aVkeyhole
p1344
aV,
aVimploring
p1345
aVfor
p1346
aVadmission
p1347
aV.
aa(lp1348
V``
p1349
aVlouise
p1350
aV,
aVopen
p1351
aVthe
p1352
aVdoor
p1353
aV!
aa(lp1354
Vi
aVbeg
p1355
aV;
aVopen
p1356
aVthe
p1357
aVdoor
p1358
aV--
p1359
aVyou
p1360
aVwill
p1361
aVmake
p1362
aVyourself
p1363
aVill.
p1364
aVwhat
p1365
aVare
p1366
aVyou
p1367
aVdoing
p1368
aV,
aVlouise
p1369
aV?
aa(lp1370
Vfor
p1371
aVheaven
p1372
aV's
p1373
aVsake
p1374
aVopen
p1375
aVthe
p1376
aVdoor
p1377
aV.
aV''
p1378
aa(lp1379
V``
p1380
aVgo
p1381
aVaway
p1382
aV.
aa(lp1383
Vi
aVam
p1384
aVnot
p1385
aVmaking
p1386
aVmyself
p1387
aVill.
p1388
aV''
p1389
aVno
p1390
aV;
aVshe
p1391
aVwas
p1392
aVdrinking
p1393
aVin
p1394
aVa
aVvery
p1395
aVelixir
p1396
aVof
p1397
aVlife
p1398
aVthrough
p1399
aVthat
p1400
aVopen
p1401
aVwindow
p1402
aV.
aa(lp1403
Vher
p1404
aVfancy
p1405
aVwas
p1406
aVrunning
p1407
aVriot
p1408
aValong
p1409
aVthose
p1410
aVdays
p1411
aVahead
p1412
aVof
p1413
aVher
p1414
aV.
aa(lp1415
Vspring
p1416
aVdays
p1417
aV,
aVand
p1418
aVsummer
p1419
aVdays
p1420
aV,
aVand
p1421
aVall
p1422
aVsorts
p1423
aVof
p1424
aVdays
p1425
aVthat
p1426
aVwould
p1427
aVbe
p1428
aVher
p1429
aVown
p1430
aV.
aa(lp1431
Vshe
p1432
aVbreathed
p1433
aVa
aVquick
p1434
aVprayer
p1435
aVthat
p1436
aVlife
p1437
aVmight
p1438
aVbe
p1439
aVlong
p1440
aV.
aa(lp1441
Vit
p1442
aVwas
p1443
aVonly
p1444
aVyesterday
p1445
aVshe
p1446
aVhad
p1447
aVthought
p1448
aVwith
p1449
aVa
aVshudder
p1450
aVthat
p1451
aVlife
p1452
aVmight
p1453
aVbe
p1454
aVlong
p1455
aV.
aa(lp1456
Vshe
p1457
aVarose
p1458
aVat
p1459
aVlength
p1460
aVand
p1461
aVopened
p1462
aVthe
p1463
aVdoor
p1464
aVto
p1465
aVher
p1466
aVsister
p1467
aV's
p1468
aVimportunities
p1469
aV.
aa(lp1470
Vthere
p1471
aVwas
p1472
aVa
aVfeverish
p1473
aVtriumph
p1474
aVin
p1475
aVher
p1476
aVeyes
p1477
aV,
aVand
p1478
aVshe
p1479
aVcarried
p1480
aVherself
p1481
aVunwittingly
p1482
aVlike
p1483
aVa
aVgoddess
p1484
aVof
p1485
aVvictory
p1486
aV.
aa(lp1487
Vshe
p1488
aVclasped
p1489
aVher
p1490
aVsister
p1491
aV's
p1492
aVwaist
p1493
aV,
aVand
p1494
aVtogether
p1495
aVthey
p1496
aVdescended
p1497
aVthe
p1498
aVstairs
p1499
aV.
aa(lp1500
Vrichards
p1501
aVstood
p1502
aVwaiting
p1503
aVfor
p1504
aVthem
p1505
aVat
p1506
aVthe
p1507
aVbottom
p1508
aV.
aa(lp1509
Vsomeone
p1510
aVwas
p1511
aVopening
p1512
aVthe
p1513
aVfront
p1514
aVdoor
p1515
aVwith
p1516
aVa
aVlatchkey
p1517
aV.
aa(lp1518
Vit
p1519
aVwas
p1520
aVbrently
p1521
aVmallard
p1522
aVwho
p1523
aVentered
p1524
aV,
aVa
aVlittle
p1525
aVtravel-
p1526
aVstained
p1527
aV,
aVcomposedly
p1528
aVcarrying
p1529
aVhis
p1530
aVgrip-sack
p1531
aVand
p1532
aVumbrella
p1533
aV.
aa(lp1534
Vhe
p1535
aVhad
p1536
aVbeen
p1537
aVfar
p1538
aVfrom
p1539
aVthe
p1540
aVscene
p1541
aVof
p1542
aVthe
p1543
aVaccident
p1544
aV,
aVand
p1545
aVdid
p1546
aVnot
p1547
aVeven
p1548
aVknow
p1549
aVthere
p1550
aVhad
p1551
aVbeen
p1552
aVone
p1553
aV.
aa(lp1554
Vhe
p1555
aVstood
p1556
aVamazed
p1557
aVat
p1558
aVjosephine
p1559
aV's
p1560
aVpiercing
p1561
aVcry
p1562
aV;
aVat
p1563
aVrichards
p1564
aV'
aVquick
p1565
aVmotion
p1566
aVto
p1567
aVscreen
p1568
aVhim
p1569
aVfrom
p1570
aVthe
p1571
aVview
p1572
aVof
p1573
aVhis
p1574
aVwife
p1575
aV.
aa(lp1576
Vwhen
p1577
aVthe
p1578
aVdoctors
p1579
aVcame
p1580
aVthey
p1581
aVsaid
p1582
aVshe
p1583
aVhad
p1584
aVdied
p1585
aVof
p1586
aVheart
p1587
aVdisease
p1588
aV--
p1589
aVof
p1590
aVthe
p1591
aVjoy
p1592
aVthat
p1593
aVkills
p1594
aV.
aa(lp1595
Vappointment
p1596
aVwith
p1597
aVlove
p1598
aVby
p1599
aVs.l
p1600
aVkishor
p1601
aVsix
p1602
aVminutes
p1603
aVto
p1604
aVsix
p1605
aV,
aVsaid
p1606
aVthe
p1607
aVgreat
p1608
aVround
p1609
aVclock
p1610
aVover
p1611
aVthe
p1612
aVinformation
p1613
aVbooth
p1614
aVin
p1615
aVgrand
p1616
aVcentral
p1617
aVstation
p1618
aV.
aa(lp1619
Vthe
p1620
aVtall
p1621
aVyoung
p1622
aVarmy
p1623
aVlieutenant
p1624
aVwho
p1625
aVhad
p1626
aVjust
p1627
aVcome
p1628
aVfrom
p1629
aVthe
p1630
aVdirection
p1631
aVof
p1632
aVthe
p1633
aVtracks
p1634
aVlifted
p1635
aVhis
p1636
aVsunburned
p1637
aVface
p1638
aV,
aVand
p1639
aVhis
p1640
aVeyes
p1641
aVnarrowed
p1642
aVto
p1643
aVnote
p1644
aVthe
p1645
aVexact
p1646
aVtime
p1647
aV.
aa(lp1648
Vhis
p1649
aVheart
p1650
aVwas
p1651
aVpounding
p1652
aVwith
p1653
aVa
aVbeat
p1654
aVthat
p1655
aVshocked
p1656
aVhim
p1657
aVbecause
p1658
aVhe
p1659
aVcould
p1660
aVnot
p1661
aVcontrol
p1662
aVit
p1663
aV.
aa(lp1664
Vin
p1665
aVsix
p1666
aVminutes
p1667
aVhe
p1668
aVwould
p1669
aVsee
p1670
aVthe
p1671
aVwoman
p1672
aVwho
p1673
aVhad
p1674
aVfilled
p1675
aVsuch
p1676
aVa
aVspecial
p1677
aVplace
p1678
aVin
p1679
aVhis
p1680
aVlife
p1681
aVfor
p1682
aVthe
p1683
aVpast
p1684
aVthirteen
p1685
aVmonths
p1686
aV,
aVthe
p1687
aVwoman
p1688
aVhe
p1689
aVhad
p1690
aVnever
p1691
aVseen
p1692
aV,
aVyet
p1693
aVwhose
p1694
aVwritten
p1695
aVwords
p1696
aVhad
p1697
aVbeen
p1698
aVwith
p1699
aVhim
p1700
aVand
p1701
aVsustained
p1702
aVhim
p1703
aVunfailingly
p1704
aV.
aa(lp1705
Vhe
p1706
aVplaced
p1707
aVhimself
p1708
aVas
p1709
aVclose
p1710
aVas
p1711
aVhe
p1712
aVcould
p1713
aVto
p1714
aVthe
p1715
aVinformation
p1716
aVbooth
p1717
aV,
aVjust
p1718
aVbeyond
p1719
aVthe
p1720
aVring
p1721
aVof
p1722
aVpeople
p1723
aVbesieging
p1724
aVthe
p1725
aVclerks
p1726
aV.
aa(lp1727
Vlieutenant
p1728
aVblandford
p1729
aVremembered
p1730
aVone
p1731
aVnight
p1732
aVin
p1733
aVparticular
p1734
aV,
aVthe
p1735
aVworst
p1736
aVof
p1737
aVthe
p1738
aVfighting
p1739
aV,
aVwhen
p1740
aVhis
p1741
aVplane
p1742
aVhad
p1743
aVbeen
p1744
aVcaught
p1745
aVin
p1746
aVthe
p1747
aVmidst
p1748
aVof
p1749
aVa
aVpack
p1750
aVof
p1751
aVzeros
p1752
aV.
aa(lp1753
Vhe
p1754
aVhad
p1755
aVseen
p1756
aVthe
p1757
aVgrinning
p1758
aVface
p1759
aVof
p1760
aVone
p1761
aVof
p1762
aVthe
p1763
aVenemy
p1764
aVpilots
p1765
aV.
aa(lp1766
Vin
p1767
aVone
p1768
aVof
p1769
aVhis
p1770
aVletters
p1771
aVhe
p1772
aVhad
p1773
aVconfessed
p1774
aVto
p1775
aVher
p1776
aVthat
p1777
aVhe
p1778
aVoften
p1779
aVfelt
p1780
aVfear
p1781
aV,
aVand
p1782
aVonly
p1783
aVa
aVfew
p1784
aVdays
p1785
aVbefore
p1786
aVthis
p1787
aVbattle
p1788
aV,
aVhe
p1789
aVhad
p1790
aVreceived
p1791
aVher
p1792
aVanswer
p1793
aV.
aa(lp1794
V``
p1795
aVof
p1796
aVcourse
p1797
aVyou
p1798
aVfear
p1799
aV...
p1800
aVall
p1801
aVbrave
p1802
aVmen
p1803
aVdo
p1804
aV.
aa(lp1805
Vdid
p1806
aVn't
p1807
aVking
p1808
aVdavid
p1809
aVknow
p1810
aVfear
p1811
aV?
aa(lp1812
Vthat
p1813
aV's
p1814
aVwhy
p1815
aVhe
p1816
aVwrote
p1817
aVthe
p1818
aVtwenty-third
p1819
aVpsalm
p1820
aV.
aa(lp1821
Vnext
p1822
aVtime
p1823
aVyou
p1824
aVdoubt
p1825
aVyourself
p1826
aV,
aVi
aVwant
p1827
aVyou
p1828
aVto
p1829
aVhear
p1830
aVmy
p1831
aVvoice
p1832
aVreciting
p1833
aVto
p1834
aVyou
p1835
aV:
aV``
p1836
aVyea
p1837
aV,
aVthough
p1838
aVi
aVwalk
p1839
aVthrough
p1840
aVthe
p1841
aVvalley
p1842
aVof
p1843
aVthe
p1844
aVshadow
p1845
aVof
p1846
aVdeath
p1847
aV,
aVi
aVshall
p1848
aVfear
p1849
aVno
p1850
aVevil
p1851
aV,
aVfor
p1852
aVthou
p1853
aVart
p1854
aVwith
p1855
aVme
p1856
aV...
p1857
aV''
p1858
aVand
p1859
aVhe
p1860
aVhad
p1861
aVremembered
p1862
aV,
aVhe
p1863
aVhad
p1864
aVheard
p1865
aVher
p1866
aVimagined
p1867
aVvoice
p1868
aV,
aVand
p1869
aVit
p1870
aVhad
p1871
aVrenewed
p1872
aVhis
p1873
aVstrength
p1874
aVand
p1875
aVskill
p1876
aV.
aa(lp1877
Vnow
p1878
aVhe
p1879
aVwas
p1880
aVgoing
p1881
aVto
p1882
aVhear
p1883
aVher
p1884
aVreal
p1885
aVvoice
p1886
aV.
aa(lp1887
Vfour
p1888
aVminutes
p1889
aVto
p1890
aVsix
p1891
aV.
aa(lp1892
Vhis
p1893
aVface
p1894
aVgrew
p1895
aVsharp
p1896
aV.
aa(lp1897
Vunder
p1898
aVthe
p1899
aVimmense
p1900
aV,
aVstarred
p1901
aVroof
p1902
aV,
aVpeople
p1903
aVwere
p1904
aVwalking
p1905
aVfast
p1906
aV,
aVlike
p1907
aVthreads
p1908
aVof
p1909
aVcolor
p1910
aVbeing
p1911
aVwoven
p1912
aVinto
p1913
aVa
aVgray
p1914
aVweb
p1915
aV.
aa(lp1916
Va
aVgirl
p1917
aVpassed
p1918
aVclose
p1919
aVto
p1920
aVhim
p1921
aVand
p1922
aVlieutenant
p1923
aVblandford
p1924
aVstarted
p1925
aV.
aa(lp1926
Vshe
p1927
aVwas
p1928
aVwearing
p1929
aVa
aVred
p1930
aVflower
p1931
aVin
p1932
aVher
p1933
aVsuit
p1934
aVlapel
p1935
aV,
aVbut
p1936
aVit
p1937
aVwas
p1938
aVa
aVcrimson
p1939
aVsweet
p1940
aVpea
p1941
aV,
aVnot
p1942
aVthe
p1943
aVlittle
p1944
aVred
p1945
aVrose
p1946
aVthey
p1947
aVhad
p1948
aVagreed
p1949
aVupon
p1950
aV.
aa(lp1951
Vbesides
p1952
aV,
aVthis
p1953
aVgirl
p1954
aVwas
p1955
aVtoo
p1956
aVyoung
p1957
aVabout
p1958
aVeighteen
p1959
aV,
aVwhereas
p1960
aVhollis
p1961
aVmeynell
p1962
aVhad
p1963
aVfrankly
p1964
aVtold
p1965
aVhim
p1966
aVshe
p1967
aVwas
p1968
aVthirty
p1969
aV.
aa(lp1970
V``
p1971
aVwell
p1972
aV,
aVwhat
p1973
aVof
p1974
aVit
p1975
aV?
aV''
p1976
aa(lp1977
Vhe
p1978
aVhad
p1979
aVanswered
p1980
aV.
aa(lp1981
V``
p1982
aVi
aV'm
p1983
aVthirty-two
p1984
aV.
aV''
p1985
aa(lp1986
Vhe
p1987
aVwas
p1988
aVtwenty-nine
p1989
aV.
aa(lp1990
Vhis
p1991
aVmind
p1992
aVwent
p1993
aVback
p1994
aVto
p1995
aVthat
p1996
aVbook
p1997
aV\u2014
aVthe
p1998
aVbook
p1999
aVthe
p2000
aVlord
p2001
aVhimself
p2002
aVmust
p2003
aVhave
p2004
aVput
p2005
aVinto
p2006
aVhis
p2007
aVhands
p2008
aVout
p2009
aVof
p2010
aVthe
p2011
aVhundreds
p2012
aVof
p2013
aVarmy
p2014
aVlibrary
p2015
aVbooks
p2016
aVsent
p2017
aVto
p2018
aVthe
p2019
aVflorida
p2020
aVtraining
p2021
aVcamp
p2022
aV,
aVof
p2023
aVhuman
p2024
aVbondage
p2025
aV,
aVit
p2026
aVwas
p2027
aV;
aVand
p2028
aVthroughout
p2029
aVthe
p2030
aVbook
p2031
aVwere
p2032
aVnotes
p2033
aVin
p2034
aVa
aVwoman
p2035
aV's
p2036
aVwriting
p2037
aV.
aa(lp2038
Vhe
p2039
aVhad
p2040
aValways
p2041
aVhated
p2042
aVthat
p2043
aVwriting-in-habit
p2044
aVbut
p2045
aVthese
p2046
aVremarks
p2047
aVwere
p2048
aVdifferent
p2049
aV.
aa(lp2050
Vhe
p2051
aVhad
p2052
aVnever
p2053
aVbelieved
p2054
aVthat
p2055
aVa
aVwoman
p2056
aVcould
p2057
aVsee
p2058
aVinto
p2059
aVa
aVman
p2060
aV's
p2061
aVheart
p2062
aVso
p2063
aVtenderly
p2064
aV,
aVso
p2065
aVunderstandingly
p2066
aV.
aa(lp2067
Vher
p2068
aVname
p2069
aVwas
p2070
aVthe
p2071
aVbookplate
p2072
aV:
aVhollis
p2073
aVmeynell
p2074
aV.
aa(lp2075
Vhe
p2076
aVhad
p2077
aVgot
p2078
aVhold
p2079
aVof
p2080
aVa
aVnew
p2081
aVyork
p2082
aVcity
p2083
aVtelephone
p2084
aVphone
p2085
aVbook
p2086
aVand
p2087
aVfound
p2088
aVher
p2089
aVaddress
p2090
aV.
aa(lp2091
Vhe
p2092
aVhad
p2093
aVwritten
p2094
aV,
aVshe
p2095
aVhad
p2096
aVanswer
p2097
aV.
aa(lp2098
Vnext
p2099
aVday
p2100
aVhe
p2101
aVhad
p2102
aVbeen
p2103
aVshipped
p2104
aVout
p2105
aVbut
p2106
aVthey
p2107
aVhad
p2108
aVgone
p2109
aVon
p2110
aVwriting
p2111
aV.
aa(lp2112
Vfor
p2113
aVthirteen
p2114
aVmonths
p2115
aV,
aVshe
p2116
aVhad
p2117
aVfaithfully
p2118
aVreplied
p2119
aV,
aVand
p2120
aVmore
p2121
aVthan
p2122
aVreply
p2123
aV.
aa(lp2124
Vwhen
p2125
aVhis
p2126
aVletters
p2127
aVdid
p2128
aVnot
p2129
aVarrive
p2130
aV,
aVshe
p2131
aVwrote
p2132
aVanyway
p2133
aV,
aVand
p2134
aVnow
p2135
aVhe
p2136
aVbelieved
p2137
aV|
aVloved
p2138
aVher
p2139
aV,
aVand
p2140
aVshe
p2141
aVloved
p2142
aVhim
p2143
aV.
aa(lp2144
Vbut
p2145
aVshe
p2146
aVhad
p2147
aVrefused
p2148
aVall
p2149
aVhis
p2150
aVpleas
p2151
aVto
p2152
aVsend
p2153
aVhim
p2154
aVher
p2155
aVphotograph
p2156
aV.
aa(lp2157
Vthat
p2158
aVseemed
p2159
aVrather
p2160
aVbad
p2161
aV,
aVof
p2162
aVcourse
p2163
aV.
aa(lp2164
Vbut
p2165
aVshe
p2166
aVhad
p2167
aVexplained
p2168
aV:
aV``
p2169
aVif
p2170
aVyour
p2171
aVfeeling
p2172
aVfor
p2173
aVme
p2174
aVhas
p2175
aVany
p2176
aVreality
p2177
aV,
aVany
p2178
aVhonest
p2179
aVbasis
p2180
aV,
aVwhat
p2181
aVi
aVlook
p2182
aVlike
p2183
aVwo
p2184
aVn't
p2185
aVmatter
p2186
aV.
aa(lp2187
Vsuppose
p2188
aVi
aV'm
p2189
aVbeautiful
p2190
aV.
aa(lp2191
Vi
aV'd
p2192
aValways
p2193
aVbe
p2194
aVhaunted
p2195
aVby
p2196
aVthe
p2197
aVfeeling
p2198
aVthat
p2199
aVyou
p2200
aVhad
p2201
aVbeen
p2202
aVtaking
p2203
aVchance
p2204
aVon
p2205
aVjust
p2206
aVthat
p2207
aV,
aVand
p2208
aVthat
p2209
aVkind
p2210
aVof
p2211
aVlove
p2212
aVwould
p2213
aVdisgust
p2214
aVme
p2215
aV.
aa(lp2216
Vsuppose
p2217
aVi\u2019m
p2218
aVplain
p2219
aV(
aVand
p2220
aVyou
p2221
aVmust
p2222
aVadmit
p2223
aVthat
p2224
aVthis
p2225
aVis
p2226
aVmore
p2227
aVlikely
p2228
aV)
aV.
aa(lp2229
Vthen
p2230
aVi
aV'd
p2231
aValways
p2232
aVfear
p2233
aVyou
p2234
aVwere
p2235
aVgoing
p2236
aVon
p2237
aVwriting
p2238
aVto
p2239
aVme
p2240
aVonly
p2241
aVbecause
p2242
aVyou
p2243
aVwere
p2244
aVlonely
p2245
aVand
p2246
aVhad
p2247
aVno
p2248
aVone
p2249
aVelse
p2250
aV.
aa(lp2251
Vno
p2252
aV,
aVdo
p2253
aVn't
p2254
aVask
p2255
aVfor
p2256
aVmy
p2257
aVpicture
p2258
aV.
aa(lp2259
Vwhen
p2260
aVyou
p2261
aVcome
p2262
aVto
p2263
aVnew
p2264
aVyork
p2265
aV,
aVyou
p2266
aVsee
p2267
aVme
p2268
aVand
p2269
aVthen
p2270
aVyou
p2271
aVshall
p2272
aVmake
p2273
aVyour
p2274
aVdecision
p2275
aV.
aa(lp2276
Vremember
p2277
aV,
aVboth
p2278
aVof
p2279
aVus
p2280
aVare
p2281
aVfree
p2282
aVto
p2283
aVstop
p2284
aVor
p2285
aVto
p2286
aVgo
p2287
aVon
p2288
aVafter
p2289
aVthat
p2290
aV\u2014
aVwhichever
p2291
aVwe
p2292
aVchoose
p2293
aV...
p2294
aV''
p2295
aVthe
p2296
aVgirl
p2297
aVin
p2298
aVthe
p2299
aVgreen
p2300
aVsuit
p2301
aVwas
p2302
aVwalking
p2303
aVquickly
p2304
aVaway
p2305
aV.
aa(lp2306
Vone
p2307
aVminute
p2308
aVto
p2309
aVsix
p2310
aV...
p2311
aVthen
p2312
aVlieutenant
p2313
aVblandford
p2314
aV's
p2315
aVheart
p2316
aVleaped
p2317
aVhigher
p2318
aVthan
p2319
aVhis
p2320
aVplane
p2321
aVhad
p2322
aVever
p2323
aVdone
p2324
aV.
aa(lp2325
Va
aVyoung
p2326
aVwoman
p2327
aVwas
p2328
aVcoming
p2329
aVtoward
p2330
aVhim
p2331
aV.
aa(lp2332
Vher
p2333
aVfigure
p2334
aVwas
p2335
aVlong
p2336
aVand
p2337
aVslim
p2338
aV,
aVher
p2339
aVblond
p2340
aVhair
p2341
aVlay
p2342
aVback
p2343
aVin
p2344
aVcurls
p2345
aVfrom
p2346
aVher
p2347
aVdelicate
p2348
aVears
p2349
aV.
aa(lp2350
Vher
p2351
aVeyes
p2352
aVwere
p2353
aVblue
p2354
aVflowers
p2355
aV;
aVher
p2356
aVlips
p2357
aVand
p2358
aVchin
p2359
aVhad
p2360
aVa
aVgentle
p2361
aVfirmness
p2362
aV.
aa(lp2363
Vin
p2364
aVher
p2365
aVpale
p2366
aVgreen
p2367
aVsuit
p2368
aVshe
p2369
aVwas
p2370
aVlike
p2371
aVspringtime
p2372
aVcome
p2373
aValive
p2374
aV.
aa(lp2375
Vhe
p2376
aVstarted
p2377
aVtoward
p2378
aVher
p2379
aV,
aVentirely
p2380
aVforgetting
p2381
aVto
p2382
aVnotice
p2383
aVthat
p2384
aVshe
p2385
aVwas
p2386
aVwearing
p2387
aVno
p2388
aVrose
p2389
aV,
aVand
p2390
aVas
p2391
aVhe
p2392
aVmoved
p2393
aV,
aVa
aVsmall
p2394
aV,
aVprovocative
p2395
aVsmile
p2396
aVcurved
p2397
aVher
p2398
aVlips
p2399
aV.
aa(lp2400
V``
p2401
aVgoing
p2402
aVmy
p2403
aVway
p2404
aV,
aVsoldier
p2405
aV?
aV''
p2406
aa(lp2407
Vshe
p2408
aVmurmured
p2409
aV.
aa(lp2410
Vuncontrollably
p2411
aV,
aVhe
p2412
aVmade
p2413
aVone
p2414
aVstep
p2415
aVcloser
p2416
aVto
p2417
aVher
p2418
aV.
aa(lp2419
Vthen
p2420
aVhe
p2421
aVsaw
p2422
aVho
p2423
aVmeynell
p2424
aV.
aa(lp2425
Vshe
p2426
aVwas
p2427
aVstanding
p2428
aValmost
p2429
aVdirectly
p2430
aVbehind
p2431
aVthe
p2432
aVgirl
p2433
aV,
aVa
aVwoman
p2434
aVwell
p2435
aVp
aVforty
p2436
aV,
aVher
p2437
aVgraying
p2438
aVhair
p2439
aVtucked
p2440
aVunder
p2441
aVa
aVworn
p2442
aVhat
p2443
aV.
aa(lp2444
Vshe
p2445
aVwas
p2446
aVmore
p2447
aVthan
p2448
aVplump
p2449
aV;
aVher
p2450
aVthick-ankled
p2451
aVfeet
p2452
aVwere
p2453
aVthrust
p2454
aVinto
p2455
aVlow-heeled
p2456
aVshoes
p2457
aV.
aa(lp2458
Vbut
p2459
aVwore
p2460
aVa
aVred
p2461
aVrose
p2462
aVin
p2463
aVthe
p2464
aVrumpled
p2465
aVlapel
p2466
aVof
p2467
aVher
p2468
aVbrown
p2469
aVcoat
p2470
aV.
aa(lp2471
Vthe
p2472
aVgirl
p2473
aVin
p2474
aVthe
p2475
aVgreen
p2476
aVsuit
p2477
aVwas
p2478
aVwalking
p2479
aVquickly
p2480
aVaway
p2481
aV.
aa(lp2482
Vblandford
p2483
aVfelt
p2484
aVas
p2485
aVthough
p2486
aVhe
p2487
aVwere
p2488
aVbeing
p2489
aVsplit
p2490
aVin
p2491
aVtwo
p2492
aV,
aVso
p2493
aVkeen
p2494
aVwas
p2495
aVhis
p2496
aVdesire
p2497
aVto
p2498
aVfollow
p2499
aVthe
p2500
aVgirl
p2501
aV,
aVyet
p2502
aVso
p2503
aVdeep
p2504
aVwas
p2505
aVhis
p2506
aVlonging
p2507
aVfor
p2508
aVthe
p2509
aVwoman
p2510
aVwhose
p2511
aVspirit
p2512
aVhad
p2513
aVtruly
p2514
aVcompanioned
p2515
aVand
p2516
aVupheld
p2517
aVhis
p2518
aVown
p2519
aV;
aVand
p2520
aVthere
p2521
aVshe
p2522
aVstood
p2523
aV.
aa(lp2524
Vher
p2525
aVpale
p2526
aV,
aVplump
p2527
aVface
p2528
aVwas
p2529
aVgentle
p2530
aVand
p2531
aVsensible
p2532
aV;
aVhe
p2533
aVcould
p2534
aVsee
p2535
aVthat
p2536
aVnow
p2537
aV.
aa(lp2538
Vher
p2539
aVgray
p2540
aVeyes
p2541
aVhad
p2542
aVa
aVwarm
p2543
aV,
aVkindly
p2544
aVtwinkle
p2545
aV.
aa(lp2546
Vlieutenant
p2547
aVblandford
p2548
aVdid
p2549
aVnot
p2550
aVhesitate
p2551
aV.
aa(lp2552
Vhis
p2553
aVfingers
p2554
aVgripped
p2555
aVthe
p2556
aVsmall
p2557
aV,
aVworn
p2558
aV,
aVblue
p2559
aVleather
p2560
aVcopy
p2561
aVof
p2562
aVof
p2563
aVhuman
p2564
aVbondage
p2565
aVwhich
p2566
aVwas
p2567
aVto
p2568
aVidentify
p2569
aVhim
p2570
aVto
p2571
aVher
p2572
aV.
aa(lp2573
Vthis
p2574
aVwould
p2575
aVnot
p2576
aVbe
p2577
aVlove
p2578
aV,
aVbut
p2579
aVit
p2580
aVwould
p2581
aVbe
p2582
aVsomething
p2583
aVprecious
p2584
aV,
aVsomething
p2585
aVperhaps
p2586
aVeven
p2587
aVrarer
p2588
aVthan
p2589
aVlove
p2590
aV\u2014
aVa
aVfriendship
p2591
aVfor
p2592
aVwhich
p2593
aVhe
p2594
aVhad
p2595
aVbeen
p2596
aVand
p2597
aVmust
p2598
aVever
p2599
aVbe
p2600
aVgrateful
p2601
aV...
p2602
aVhe
p2603
aVsquared
p2604
aVhis
p2605
aVbroad
p2606
aVshoulders
p2607
aV,
aVsaluted
p2608
aV,
aVand
p2609
aVheld
p2610
aVthe
p2611
aVbook
p2612
aVout
p2613
aVtoward
p2614
aVthe
p2615
aVwoman
p2616
aV,
aValthough
p2617
aVeven
p2618
aVwhile
p2619
aVhe
p2620
aVspoke
p2621
aVhe
p2622
aVfelt
p2623
aVchoked
p2624
aVby
p2625
aVthe
p2626
aVbitterness
p2627
aVof
p2628
aVhis
p2629
aVdisappointment
p2630
aV.
aa(lp2631
V``
p2632
aVi
aV'm
p2633
aVlieutenant
p2634
aVjohn
p2635
aVblandford
p2636
aV,
aVand
p2637
aVyou
p2638
aV\u2014
aVyou
p2639
aVare
p2640
aVmiss
p2641
aVmeynell
p2642
aV.
aa(lp2643
Vi
aV'm
p2644
aVso
p2645
aVglad
p2646
aVyou
p2647
aVcould
p2648
aVmeet
p2649
aVme
p2650
aV.
aa(lp2651
Vmay
p2652
aV-
aV\u2014
aVmay
p2653
aVi
aVtake
p2654
aVyou
p2655
aVto
p2656
aVdinner
p2657
aV?
aV''
p2658
aa(lp2659
Vthe
p2660
aVwoman
p2661
aV's
p2662
aVface
p2663
aVbroadened
p2664
aVin
p2665
aVa
aVtolerant
p2666
aVsmile
p2667
aV.
aa(lp2668
V``
p2669
aVi
aVdo
p2670
aVn't
p2671
aVknow
p2672
aVwhat
p2673
aVthis
p2674
aVis
p2675
aVall
p2676
aVabout
p2677
aV,
aVson
p2678
aV,
aV''
p2679
aVshe
p2680
aVanswered
p2681
aV.
aa(lp2682
V``
p2683
aVthat
p2684
aVyoung
p2685
aVlady
p2686
aVin
p2687
aVthe
p2688
aVgreen
p2689
aVsuit
p2690
aV\u2014
aVthe
p2691
aVone
p2692
aVwho
p2693
aVjust
p2694
aVwent
p2695
aVby
p2696
aV\u2014
aVbegged
p2697
aVme
p2698
aVto
p2699
aVwear
p2700
aVthis
p2701
aVrose
p2702
aVon
p2703
aVmy
p2704
aVcoat
p2705
aV.
aa(lp2706
Vand
p2707
aVshe
p2708
aVsaid
p2709
aVthat
p2710
aVif
p2711
aVyou
p2712
aVasked
p2713
aVme
p2714
aVto
p2715
aVgo
p2716
aVout
p2717
aVwith
p2718
aVyou
p2719
aV,
aVi
aVshould
p2720
aVtell
p2721
aVyou
p2722
aVthat
p2723
aVshe
p2724
aV's
p2725
aVwaiting
p2726
aVfor
p2727
aVyou
p2728
aVin
p2729
aVthat
p2730
aVbig
p2731
aVrestaurant
p2732
aVacross
p2733
aVthe
p2734
aVstreet
p2735
aV.
aa(lp2736
Vshe
p2737
aVsaid
p2738
aVit
p2739
aVwas
p2740
aVsome
p2741
aVkind
p2742
aVof
p2743
aVa
aVtest
p2744
aV.
aa(lp2745
Vi
aV've
p2746
aVgot
p2747
aVtwo
p2748
aVboys
p2749
aVwith
p2750
aVuncle
p2751
aVsam
p2752
aVmyself
p2753
aV,
aVso
p2754
aVi
aVdid
p2755
aVn't
p2756
aVmind
p2757
aVto
p2758
aVoblige
p2759
aVyou
p2760
aV.
aV''
p2761
aa(lp2762
Vthe
p2763
aVchaser
p2764
aVby
p2765
aVjohn
p2766
aVcollier
p2767
aValan
p2768
aVausten
p2769
aV,
aVas
p2770
aVnervous
p2771
aVas
p2772
aVa
aVkitten
p2773
aV,
aVwent
p2774
aVup
p2775
aVcertain
p2776
aVdark
p2777
aVand
p2778
aVcreaky
p2779
aVstairs
p2780
aVin
p2781
aVthe
p2782
aVneighborhood
p2783
aVof
p2784
aVpell
p2785
aVstreet
p2786
aV,
aVand
p2787
aVpeered
p2788
aVabout
p2789
aVfor
p2790
aVa
aVlong
p2791
aVtime
p2792
aVon
p2793
aVthe
p2794
aVdime
p2795
aVlanding
p2796
aVbefore
p2797
aVhe
p2798
aVfound
p2799
aVthe
p2800
aVname
p2801
aVhe
p2802
aVwanted
p2803
aVwritten
p2804
aVobscurely
p2805
aVon
p2806
aVone
p2807
aVof
p2808
aVthe
p2809
aVdoors
p2810
aV.
aa(lp2811
Vhe
p2812
aVpushed
p2813
aVopen
p2814
aVthis
p2815
aVdoor
p2816
aV,
aVas
p2817
aVhe
p2818
aVhad
p2819
aVbeen
p2820
aVtold
p2821
aVto
p2822
aVdo
p2823
aV,
aVand
p2824
aVfound
p2825
aVhimself
p2826
aVin
p2827
aVa
aVtiny
p2828
aVroom
p2829
aV,
aVwhich
p2830
aVcontained
p2831
aVno
p2832
aVfurniture
p2833
aVbut
p2834
aVa
aVplain
p2835
aVkitchen
p2836
aVtable
p2837
aV,
aVa
aVrocking-chair
p2838
aV,
aVand
p2839
aVan
p2840
aVordinary
p2841
aVchair
p2842
aV.
aa(lp2843
Von
p2844
aVone
p2845
aVof
p2846
aVthe
p2847
aVdirty
p2848
aVbuff-
p2849
aVcoloured
p2850
aVwalls
p2851
aVwere
p2852
aVa
aVcouple
p2853
aVof
p2854
aVshelves
p2855
aV,
aVcontaining
p2856
aVin
p2857
aVall
p2858
aVperhaps
p2859
aVa
aVdozen
p2860
aVbottles
p2861
aVand
p2862
aVjars
p2863
aV.
aa(lp2864
Van
p2865
aVold
p2866
aVman
p2867
aVsat
p2868
aVin
p2869
aVthe
p2870
aVrocking-chair
p2871
aV,
aVreading
p2872
aVa
aVnewspaper
p2873
aV.
aa(lp2874
Valan
p2875
aV,
aVwithout
p2876
aVa
aVword
p2877
aV,
aVhanded
p2878
aVhim
p2879
aVthe
p2880
aVcard
p2881
aVhe
p2882
aVhad
p2883
aVbeen
p2884
aVgiven
p2885
aV.
aa(lp2886
V``
p2887
aVsit
p2888
aVdown
p2889
aV,
aVmr.
p2890
aVausten
p2891
aV,
aV''
p2892
aVsaid
p2893
aVthe
p2894
aVold
p2895
aVman
p2896
aVvery
p2897
aVpolitely
p2898
aV.
aa(lp2899
V``
p2900
aVi
aVam
p2901
aVglad
p2902
aVto
p2903
aVmake
p2904
aVyour
p2905
aVacquaintance
p2906
aV.
aV''
p2907
aa(lp2908
V``
p2909
aVis
p2910
aVit
p2911
aVtrue
p2912
aV,
aV''
p2913
aVasked
p2914
aValan
p2915
aV,
aV``
p2916
aVthat
p2917
aVyou
p2918
aVhave
p2919
aVa
aVcertain
p2920
aVmixture
p2921
aVthat
p2922
aVhas-er-quite
p2923
aVextraordinary
p2924
aVeffects
p2925
aV?
aV''
p2926
aa(lp2927
V``
p2928
aVmy
p2929
aVdear
p2930
aVsir
p2931
aV,
aV''
p2932
aVreplied
p2933
aVthe
p2934
aVold
p2935
aVman
p2936
aV,
aV``
p2937
aVmy
p2938
aVstock
p2939
aVin
p2940
aVtrade
p2941
aVis
p2942
aVnot
p2943
aVvery
p2944
aVlarge-i
p2945
aVdo
p2946
aVn't
p2947
aVdeal
p2948
aVin
p2949
aVlaxatives
p2950
aVand
p2951
aVteething
p2952
aVmixtures-but
p2953
aVsuch
p2954
aVas
p2955
aVit
p2956
aVis
p2957
aV,
aVit
p2958
aVis
p2959
aVvaried
p2960
aV.
aa(lp2961
Vi
aVthink
p2962
aVnothing
p2963
aVi
aVsell
p2964
aVhas
p2965
aVeffects
p2966
aVwhich
p2967
aVcould
p2968
aVbe
p2969
aVprecisely
p2970
aVdescribed
p2971
aVas
p2972
aVordinary
p2973
aV.
aV''
p2974
aa(lp2975
V``
p2976
aVwell
p2977
aV,
aVthe
p2978
aVfact
p2979
aVis
p2980
aV.
aa(lp2981
V.
aa(lp2982
V.
aV''
p2983
aa(lp2984
Vbegan
p2985
aValan
p2986
aV.
aa(lp2987
V``
p2988
aVhere
p2989
aV,
aVfor
p2990
aVexample
p2991
aV,
aV''
p2992
aVinterrupted
p2993
aVthe
p2994
aVold
p2995
aVman
p2996
aV,
aVreaching
p2997
aVfor
p2998
aVa
aVbottle
p2999
aVfrom
p3000
aVthe
p3001
aVshelf
p3002
aV.
aa(lp3003
V``
p3004
aVhere
p3005
aVis
p3006
aVa
aVliquid
p3007
aVas
p3008
aVcolourless
p3009
aVas
p3010
aVwater
p3011
aV,
aValmost
p3012
aVtasteless
p3013
aV,
aVquite
p3014
aVimperceptible
p3015
aVin
p3016
aVcoffee
p3017
aV,
aVwine
p3018
aV,
aVor
p3019
aVany
p3020
aVother
p3021
aVbeverage
p3022
aV.
aa(lp3023
Vit
p3024
aVis
p3025
aValso
p3026
aVquite
p3027
aVimperceptible
p3028
aVto
p3029
aVany
p3030
aVknown
p3031
aVmethod
p3032
aVof
p3033
aVautopsy
p3034
aV.
aV''
p3035
aa(lp3036
V``
p3037
aVdo
p3038
aVyou
p3039
aVmean
p3040
aVit
p3041
aVis
p3042
aVa
aVpoison
p3043
aV?
aV''
p3044
aa(lp3045
Vcried
p3046
aValan
p3047
aV,
aVvery
p3048
aVmuch
p3049
aVhorrified
p3050
aV.
aa(lp3051
V``
p3052
aVcall
p3053
aVit
p3054
aVa
aVglove-cleaner
p3055
aVif
p3056
aVyou
p3057
aVlike
p3058
aV,
aV''
p3059
aVsaid
p3060
aVthe
p3061
aVold
p3062
aVman
p3063
aVindifferently
p3064
aV.
aa(lp3065
V``
p3066
aVmaybe
p3067
aVit
p3068
aVwill
p3069
aVclean
p3070
aVgloves
p3071
aV.
aa(lp3072
Vi
aVhave
p3073
aVnever
p3074
aVtried
p3075
aV.
aa(lp3076
Vone
p3077
aVmight
p3078
aVcall
p3079
aVit
p3080
aVa
aVlife-cleaner
p3081
aV.
aa(lp3082
Vlives
p3083
aVneed
p3084
aVcleaning
p3085
aVsometimes
p3086
aV.
aV''
p3087
aa(lp3088
V``
p3089
aVi
aVwant
p3090
aVnothing
p3091
aVof
p3092
aVthat
p3093
aVsort
p3094
aV,
aV''
p3095
aVsaid
p3096
aValan
p3097
aV.
aa(lp3098
V``
p3099
aVprobably
p3100
aVit
p3101
aVis
p3102
aVjust
p3103
aVas
p3104
aVwell
p3105
aV,
aV''
p3106
aVsaid
p3107
aVthe
p3108
aVold
p3109
aVman
p3110
aV.
aa(lp3111
V``
p3112
aVdo
p3113
aVyou
p3114
aVknow
p3115
aVthe
p3116
aVprice
p3117
aVof
p3118
aVthis
p3119
aV?
aa(lp3120
Vfor
p3121
aVone
p3122
aVteaspoonful
p3123
aV,
aVwhich
p3124
aVis
p3125
aVsufficient
p3126
aV,
aVi
aVask
p3127
aVfive
p3128
aVthousand
p3129
aVdollars
p3130
aV.
aa(lp3131
Vnever
p3132
aVless
p3133
aV.
aa(lp3134
Vnot
p3135
aVa
aVpenny
p3136
aVless
p3137
aV.
aV''
p3138
aa(lp3139
V``
p3140
aVi
aVhope
p3141
aVall
p3142
aVyour
p3143
aVmixtures
p3144
aVare
p3145
aVnot
p3146
aVas
p3147
aVexpensive
p3148
aV,
aV''
p3149
aVsaid
p3150
aValan
p3151
aVapprehensively
p3152
aV.
aa(lp3153
V``
p3154
aVoh
p3155
aVdear
p3156
aV,
aVno
p3157
aV,
aV''
p3158
aVsaid
p3159
aVthe
p3160
aVold
p3161
aVman
p3162
aV.
aa(lp3163
V``
p3164
aVit
p3165
aVwould
p3166
aVbe
p3167
aVno
p3168
aVgood
p3169
aVcharging
p3170
aVthat
p3171
aVsort
p3172
aVof
p3173
aVprice
p3174
aVfor
p3175
aVa
aVlove
p3176
aVpotion
p3177
aV,
aVfor
p3178
aVexample
p3179
aV.
aa(lp3180
Vyoung
p3181
aVpeople
p3182
aVwho
p3183
aVneed
p3184
aVa
aVlove
p3185
aVpotion
p3186
aVvery
p3187
aVseldom
p3188
aVhave
p3189
aVfive
p3190
aVthousand
p3191
aVdollars
p3192
aV.
aa(lp3193
Votherwise
p3194
aVthey
p3195
aVwould
p3196
aVnot
p3197
aVneed
p3198
aVa
aVlove
p3199
aVpotion
p3200
aV.
aV''
p3201
aa(lp3202
V``
p3203
aVi
aVam
p3204
aVglad
p3205
aVto
p3206
aVhear
p3207
aVthat
p3208
aV,
aV''
p3209
aVsaid
p3210
aValan
p3211
aV.
aa(lp3212
V``
p3213
aVi
aVlook
p3214
aVat
p3215
aVit
p3216
aVlike
p3217
aVthis
p3218
aV,
aV''
p3219
aVsaid
p3220
aVthe
p3221
aVold
p3222
aVman
p3223
aV.
aa(lp3224
V``
p3225
aVplease
p3226
aVa
aVcustomer
p3227
aVwith
p3228
aVone
p3229
aVarticle
p3230
aV,
aVand
p3231
aVhe
p3232
aVwill
p3233
aVcome
p3234
aVback
p3235
aVwhen
p3236
aVhe
p3237
aVneeds
p3238
aVanother
p3239
aV.
aa(lp3240
Veven
p3241
aVif
p3242
aVit
p3243
aVis
p3244
aVmore
p3245
aVcostly
p3246
aV.
aa(lp3247
Vhe
p3248
aVwill
p3249
aVsave
p3250
aVup
p3251
aVfor
p3252
aVit
p3253
aV,
aVif
p3254
aVnecessary
p3255
aV.
aV''
p3256
aa(lp3257
V``
p3258
aVso
p3259
aV,
aV''
p3260
aVsaid
p3261
aValan
p3262
aV,
aV``
p3263
aVyou
p3264
aVreally
p3265
aVdo
p3266
aVsell
p3267
aVlove
p3268
aVpotions
p3269
aV?
aV''
p3270
aa(lp3271
V``
p3272
aVif
p3273
aVi
aVdid
p3274
aVnot
p3275
aVsell
p3276
aVlove
p3277
aVpotions
p3278
aV,
aV''
p3279
aVsaid
p3280
aVthe
p3281
aVold
p3282
aVman
p3283
aV,
aVreaching
p3284
aVfor
p3285
aVanother
p3286
aVbottle
p3287
aV,
aV``
p3288
aVi
aVshould
p3289
aVnot
p3290
aVhave
p3291
aVmentioned
p3292
aVthe
p3293
aVother
p3294
aVmatter
p3295
aVto
p3296
aVyou
p3297
aV.
aa(lp3298
Vit
p3299
aVis
p3300
aVonly
p3301
aVwhen
p3302
aVone
p3303
aVis
p3304
aVin
p3305
aVa
aVposition
p3306
aVto
p3307
aVoblige
p3308
aVthat
p3309
aVone
p3310
aVcan
p3311
aVafford
p3312
aVto
p3313
aVbe
p3314
aVso
p3315
aVconfidential
p3316
aV.
aV''
p3317
aa(lp3318
V``
p3319
aVand
p3320
aVthese
p3321
aVpotions
p3322
aV,
aV''
p3323
aVsaid
p3324
aValan
p3325
aV.
aa(lp3326
V``
p3327
aVthey
p3328
aVare
p3329
aVnot
p3330
aVjust-just-er-
p3331
aV''
p3332
aV''
p3333
aVoh
p3334
aV,
aVno
p3335
aV,
aV''
p3336
aVsaid
p3337
aVthe
p3338
aVold
p3339
aVman
p3340
aV.
aa(lp3341
V``
p3342
aVtheir
p3343
aVeffects
p3344
aVare
p3345
aVpermanent
p3346
aV,
aVand
p3347
aVextend
p3348
aVfar
p3349
aVbeyond
p3350
aVthe
p3351
aVmere
p3352
aVcasual
p3353
aVimpulse
p3354
aV.
aa(lp3355
Vbut
p3356
aVthey
p3357
aVinclude
p3358
aVit
p3359
aV.
aa(lp3360
Voh
p3361
aV,
aVyes
p3362
aVthey
p3363
aVinclude
p3364
aVit
p3365
aV.
aa(lp3366
Vbountifully
p3367
aV,
aVinsistently
p3368
aV.
aa(lp3369
Veverlastingly
p3370
aV.
aV''
p3371
aa(lp3372
V``
p3373
aVdear
p3374
aVme
p3375
aV!
aV''
p3376
aa(lp3377
Vsaid
p3378
aValan
p3379
aV,
aVattempting
p3380
aVa
aVlook
p3381
aVof
p3382
aVscientific
p3383
aVdetachment
p3384
aV.
aa(lp3385
V``
p3386
aVhow
p3387
aVvery
p3388
aVinteresting
p3389
aV!
aV''
p3390
aa(lp3391
V``
p3392
aVbut
p3393
aVconsider
p3394
aVthe
p3395
aVspiritual
p3396
aVside
p3397
aV,
aV''
p3398
aVsaid
p3399
aVthe
p3400
aVold
p3401
aVman
p3402
aV.
aa(lp3403
V``
p3404
aVi
aVdo
p3405
aV,
aVindeed
p3406
aV,
aV''
p3407
aVsaid
p3408
aValan
p3409
aV.
aa(lp3410
V``
p3411
aVfor
p3412
aVindifference
p3413
aV,
aV''
p3414
aVsaid
p3415
aVthe
p3416
aVold
p3417
aVman
p3418
aV,
aVthey
p3419
aVsubstitute
p3420
aVdevotion
p3421
aV.
aa(lp3422
Vfor
p3423
aVscorn
p3424
aV,
aVadoration
p3425
aV.
aa(lp3426
Vgive
p3427
aVone
p3428
aVtiny
p3429
aVmeasure
p3430
aVof
p3431
aVthis
p3432
aVto
p3433
aVthe
p3434
aVyoung
p3435
aVlady-its
p3436
aVflavour
p3437
aVis
p3438
aVimperceptible
p3439
aVin
p3440
aVorange
p3441
aVjuice
p3442
aV,
aVsoup
p3443
aV,
aVor
p3444
aVcocktails-and
p3445
aVhowever
p3446
aVgay
p3447
aVand
p3448
aVgiddy
p3449
aVshe
p3450
aVis
p3451
aV,
aVshe
p3452
aVwill
p3453
aVchange
p3454
aValtogether
p3455
aV.
aa(lp3456
Vshe
p3457
aVwill
p3458
aVwant
p3459
aVnothing
p3460
aVbut
p3461
aVsolitude
p3462
aVand
p3463
aVyou
p3464
aV.
aV''
p3465
aa(lp3466
V``
p3467
aVi
aVcan
p3468
aVhardly
p3469
aVbelieve
p3470
aVit
p3471
aV,
aV''
p3472
aVsaid
p3473
aValan
p3474
aV.
aa(lp3475
V``
p3476
aVshe
p3477
aVis
p3478
aVso
p3479
aVfond
p3480
aVof
p3481
aVparties
p3482
aV.
aV''
p3483
aa(lp3484
V``
p3485
aVshe
p3486
aVwill
p3487
aVnot
p3488
aVlike
p3489
aVthem
p3490
aVany
p3491
aVmore
p3492
aV,
aV''
p3493
aVsaid
p3494
aVthe
p3495
aVold
p3496
aVman
p3497
aV.
aa(lp3498
V``
p3499
aVshe
p3500
aVwill
p3501
aVbe
p3502
aVafraid
p3503
aVof
p3504
aVthe
p3505
aVpretty
p3506
aVgirls
p3507
aVyou
p3508
aVmay
p3509
aVmeet
p3510
aV.
aV''
p3511
aa(lp3512
V``
p3513
aVshe
p3514
aVwill
p3515
aVactually
p3516
aVbe
p3517
aVjealous
p3518
aV?
aV''
p3519
aa(lp3520
Vcried
p3521
aValan
p3522
aVin
p3523
aVa
aVrapture
p3524
aV.
aa(lp3525
V``
p3526
aVof
p3527
aVme
p3528
aV?
aV''
p3529
aa(lp3530
V``
p3531
aVyes
p3532
aV,
aVshe
p3533
aVwill
p3534
aVwant
p3535
aVto
p3536
aVbe
p3537
aVeverything
p3538
aVto
p3539
aVyou
p3540
aV.
aV''
p3541
aa(lp3542
V``
p3543
aVshe
p3544
aVis
p3545
aV,
aValready
p3546
aV.
aa(lp3547
Vonly
p3548
aVshe
p3549
aVdoes
p3550
aVn't
p3551
aVcare
p3552
aVabout
p3553
aVit
p3554
aV.
aV''
p3555
aa(lp3556
V``
p3557
aVshe
p3558
aVwill
p3559
aV,
aVwhen
p3560
aVshe
p3561
aVhas
p3562
aVtaken
p3563
aVthis
p3564
aV.
aa(lp3565
Vshe
p3566
aVwill
p3567
aVcare
p3568
aVintensely
p3569
aV.
aa(lp3570
Vyou
p3571
aVwill
p3572
aVbe
p3573
aVher
p3574
aVsole
p3575
aVinterest
p3576
aVin
p3577
aVlife
p3578
aV.
aV''
p3579
aa(lp3580
V``
p3581
aVwonderful
p3582
aV!
aV''
p3583
aa(lp3584
Vcried
p3585
aValan
p3586
aV.
aa(lp3587
V``
p3588
aVshe
p3589
aVwill
p3590
aVwant
p3591
aVto
p3592
aVknow
p3593
aVall
p3594
aVyou
p3595
aVdo
p3596
aV,
aV''
p3597
aVsaid
p3598
aVthe
p3599
aVold
p3600
aVman
p3601
aV.
aa(lp3602
V``
p3603
aVall
p3604
aVthat
p3605
aVhas
p3606
aVhappened
p3607
aVto
p3608
aVyou
p3609
aVduring
p3610
aVthe
p3611
aVday
p3612
aV.
aa(lp3613
Vevery
p3614
aVword
p3615
aVof
p3616
aVit
p3617
aV.
aa(lp3618
Vshe
p3619
aVwill
p3620
aVwant
p3621
aVto
p3622
aVknow
p3623
aVwhat
p3624
aVyou
p3625
aVare
p3626
aVthinking
p3627
aVabout
p3628
aV,
aVwhy
p3629
aVyou
p3630
aVsmile
p3631
aVsuddenly
p3632
aV,
aVwhy
p3633
aVyou
p3634
aVare
p3635
aVlooking
p3636
aVsad
p3637
aV.
aV''
p3638
aa(lp3639
V``
p3640
aVthat
p3641
aVis
p3642
aVlove
p3643
aV!
aV''
p3644
aa(lp3645
Vcried
p3646
aValan
p3647
aV.
aa(lp3648
V``
p3649
aVyes
p3650
aV,
aV''
p3651
aVsaid
p3652
aVthe
p3653
aVold
p3654
aVman
p3655
aV.
aa(lp3656
V``
p3657
aVhow
p3658
aVcarefully
p3659
aVshe
p3660
aVwill
p3661
aVlook
p3662
aVafter
p3663
aVyou
p3664
aV!
aa(lp3665
Vshe
p3666
aVwill
p3667
aVnever
p3668
aVallow
p3669
aVyou
p3670
aVto
p3671
aVbe
p3672
aVtired
p3673
aV,
aVto
p3674
aVsit
p3675
aVin
p3676
aVa
aVdraught
p3677
aV,
aVto
p3678
aVneglect
p3679
aVyour
p3680
aVfood
p3681
aV.
aa(lp3682
Vif
p3683
aVyou
p3684
aVare
p3685
aVan
p3686
aVhour
p3687
aVlate
p3688
aV,
aVshe
p3689
aVwill
p3690
aVbe
p3691
aVterrified
p3692
aV.
aa(lp3693
Vshe
p3694
aVwill
p3695
aVthink
p3696
aVyou
p3697
aVare
p3698
aVkilled
p3699
aV,
aVor
p3700
aVthat
p3701
aVsome
p3702
aVsiren
p3703
aVhas
p3704
aVcaught
p3705
aVyou
p3706
aV.
aV''
p3707
aa(lp3708
V``
p3709
aVi
aVcan
p3710
aVhardly
p3711
aVimagine
p3712
aVdiana
p3713
aVlike
p3714
aVthat
p3715
aV!
aV''
p3716
aa(lp3717
Vcried
p3718
aValan
p3719
aV,
aVoverwhelmed
p3720
aVwith
p3721
aVjoy
p3722
aV.
aa(lp3723
V``
p3724
aVyou
p3725
aVwill
p3726
aVnot
p3727
aVhave
p3728
aVto
p3729
aVuse
p3730
aVyour
p3731
aVimagination
p3732
aV,
aV''
p3733
aVsaid
p3734
aVthe
p3735
aVold
p3736
aVman
p3737
aV.
aa(lp3738
V``
p3739
aVand
p3740
aV,
aVby
p3741
aVthe
p3742
aVway
p3743
aV,
aVsince
p3744
aVthere
p3745
aVare
p3746
aValways
p3747
aVsirens
p3748
aV,
aVif
p3749
aVby
p3750
aVany
p3751
aVchance
p3752
aVyou
p3753
aVshould
p3754
aV,
aVlater
p3755
aVon
p3756
aV,
aVslip
p3757
aVa
aVlittle
p3758
aV,
aVyou
p3759
aVneed
p3760
aVnot
p3761
aVworry
p3762
aV.
aa(lp3763
Vshe
p3764
aVwill
p3765
aVforgive
p3766
aVyou
p3767
aV,
aVin
p3768
aVthe
p3769
aVend
p3770
aV.
aa(lp3771
Vshe
p3772
aVwill
p3773
aVbe
p3774
aVterribly
p3775
aVhurt
p3776
aV,
aVof
p3777
aVcourse
p3778
aV,
aVbut
p3779
aVshe
p3780
aVwill
p3781
aVforgive
p3782
aVyou-in
p3783
aVthe
p3784
aVend
p3785
aV.
aV''
p3786
aa(lp3787
V``
p3788
aVthat
p3789
aVwill
p3790
aVnot
p3791
aVhappen
p3792
aV,
aV''
p3793
aVsaid
p3794
aValan
p3795
aVfervently
p3796
aV.
aa(lp3797
V``
p3798
aVof
p3799
aVcourse
p3800
aVnot
p3801
aV,
aV''
p3802
aVsaid
p3803
aVthe
p3804
aVold
p3805
aVman
p3806
aV.
aa(lp3807
V``
p3808
aVbut
p3809
aV,
aVif
p3810
aVit
p3811
aVdid
p3812
aV,
aVyou
p3813
aVneed
p3814
aVnot
p3815
aVworry
p3816
aV.
aa(lp3817
Vshe
p3818
aVwould
p3819
aVnever
p3820
aVdivorce
p3821
aVyou
p3822
aV.
aa(lp3823
Voh
p3824
aV,
aVno
p3825
aV!
aa(lp3826
Vand
p3827
aV,
aVof
p3828
aVcourse
p3829
aV,
aVshe
p3830
aVwill
p3831
aVnever
p3832
aVgive
p3833
aVyou
p3834
aVthe
p3835
aVleast
p3836
aV,
aVthe
p3837
aVvery
p3838
aVleast
p3839
aV,
aVgrounds
p3840
aVfor
p3841
aVuneasiness
p3842
aV.
aV''
p3843
aa(lp3844
V``
p3845
aVand
p3846
aVhow
p3847
aVmuch
p3848
aV,
aV''
p3849
aVsaid
p3850
aValan
p3851
aV,
aV``
p3852
aVis
p3853
aVthis
p3854
aVwonderful
p3855
aVmixture
p3856
aV?
aV''
p3857
aa(lp3858
V``
p3859
aVit
p3860
aVis
p3861
aVnot
p3862
aVas
p3863
aVdear
p3864
aV,
aV''
p3865
aVsaid
p3866
aVthe
p3867
aVold
p3868
aVman
p3869
aV,
aV``
p3870
aVas
p3871
aVthe
p3872
aVglove-cleaner
p3873
aV,
aVor
p3874
aVlife-cleaner
p3875
aV,
aVas
p3876
aVi
aVsometimes
p3877
aVcall
p3878
aVit
p3879
aV.
aa(lp3880
Vno
p3881
aV.
aa(lp3882
Vthat
p3883
aVis
p3884
aVfive
p3885
aVthousand
p3886
aVdollars
p3887
aV,
aVnever
p3888
aVa
aVpenny
p3889
aVless
p3890
aV.
aa(lp3891
Vone
p3892
aVhas
p3893
aVto
p3894
aVbe
p3895
aVolder
p3896
aVthan
p3897
aVyou
p3898
aVare
p3899
aV,
aVto
p3900
aVindulge
p3901
aVin
p3902
aVthat
p3903
aVsort
p3904
aVof
p3905
aVthing
p3906
aV.
aa(lp3907
Vone
p3908
aVhas
p3909
aVto
p3910
aVsave
p3911
aVup
p3912
aVfor
p3913
aVit
p3914
aV.
aV''
p3915
aa(lp3916
V``
p3917
aVbut
p3918
aVthe
p3919
aVlove
p3920
aVpotion
p3921
aV?
aV''
p3922
aa(lp3923
Vsaid
p3924
aValan
p3925
aV.
aa(lp3926
V``
p3927
aVoh
p3928
aV,
aVthat
p3929
aV,
aV''
p3930
aVsaid
p3931
aVthe
p3932
aVold
p3933
aVman
p3934
aV,
aVopening
p3935
aVthe
p3936
aVdrawer
p3937
aVin
p3938
aVthe
p3939
aVkitchen
p3940
aVtable
p3941
aV,
aVand
p3942
aVtaking
p3943
aVout
p3944
aVa
aVtiny
p3945
aV,
aVrather
p3946
aVdirty-
p3947
aVlooking
p3948
aVphial
p3949
aV.
aa(lp3950
V``
p3951
aVthat
p3952
aVis
p3953
aVjust
p3954
aVa
aVdollar
p3955
aV.
aV''
p3956
aa(lp3957
V``
p3958
aVi
aVca
p3959
aVn't
p3960
aVtell
p3961
aVyou
p3962
aVhow
p3963
aVgrateful
p3964
aVi
aVam
p3965
aV,
aV''
p3966
aVsaid
p3967
aValan
p3968
aV,
aVwatching
p3969
aVhim
p3970
aVfill
p3971
aVit
p3972
aV.
aa(lp3973
V``
p3974
aVi
aVlike
p3975
aVto
p3976
aVoblige
p3977
aV,
aV''
p3978
aVsaid
p3979
aVthe
p3980
aVold
p3981
aVman
p3982
aV.
aa(lp3983
V``
p3984
aVthen
p3985
aVcustomers
p3986
aVcome
p3987
aVback
p3988
aV,
aVlater
p3989
aVin
p3990
aVlife
p3991
aV,
aVwhen
p3992
aVthey
p3993
aVare
p3994
aVbetter
p3995
aVoff
p3996
aV,
aVand
p3997
aVwant
p3998
aVmore
p3999
aVexpensive
p4000
aVthings
p4001
aV.
aa(lp4002
Vhere
p4003
aVyou
p4004
aVare
p4005
aV.
aa(lp4006
Vyou
p4007
aVwill
p4008
aVfind
p4009
aVit
p4010
aVvery
p4011
aVeffective
p4012
aV.
aV''
p4013
aa(lp4014
V``
p4015
aVthank
p4016
aVyou
p4017
aVagain
p4018
aV,
aV''
p4019
aVsaid
p4020
aValan
p4021
aV.
aa(lp4022
V``
p4023
aVgood-bye
p4024
aV.
aV''
p4025
aa(lp4026
V``
p4027
aVau
p4028
aVrevoir
p4029
aV,
aV''
p4030
aVsaid
p4031
aVthe
p4032
aVman
p4033
aV.
aa(lp4034
Vthe
p4035
aVjockey
p4036
aVby
p4037
aVcarson
p4038
aVmccullers
p4039
aVthe
p4040
aVjockey
p4041
aVcame
p4042
aVto
p4043
aVthe
p4044
aVdoorway
p4045
aVof
p4046
aVthe
p4047
aVdining
p4048
aVroom
p4049
aV,
aVthen
p4050
aVafter
p4051
aVa
aVmoment
p4052
aVstepped
p4053
aVto
p4054
aVone
p4055
aVside
p4056
aVand
p4057
aVstood
p4058
aVmotionless
p4059
aV,
aVwith
p4060
aVhis
p4061
aVback
p4062
aVto
p4063
aVthe
p4064
aVwall
p4065
aV.
aa(lp4066
Vthe
p4067
aVroom
p4068
aVwas
p4069
aVcrowded
p4070
aV,
aVas
p4071
aVthis
p4072
aVwas
p4073
aVthe
p4074
aVthird
p4075
aVday
p4076
aVof
p4077
aVthe
p4078
aVseason
p4079
aVand
p4080
aVall
p4081
aVthe
p4082
aVhotels
p4083
aVin
p4084
aVthe
p4085
aVtown
p4086
aVwere
p4087
aVfull
p4088
aV.
aa(lp4089
Vin
p4090
aVthe
p4091
aVdining
p4092
aVroom
p4093
aVbouquets
p4094
aVof
p4095
aVaugust
p4096
aVroses
p4097
aVscattered
p4098
aVtheir
p4099
aVpetals
p4100
aVon
p4101
aVthe
p4102
aVwhite
p4103
aVtable
p4104
aVlinen
p4105
aVand
p4106
aVfrom
p4107
aVthe
p4108
aVadjoining
p4109
aVbar
p4110
aVcame
p4111
aVa
aVwarm
p4112
aV,
aVdrunken
p4113
aVwash
p4114
aVof
p4115
aVvoices
p4116
aV.
aa(lp4117
Vthe
p4118
aVjockey
p4119
aVwaited
p4120
aVwith
p4121
aVhis
p4122
aVback
p4123
aVto
p4124
aVthe
p4125
aVwall
p4126
aVand
p4127
aVscrutinized
p4128
aVthe
p4129
aVroom
p4130
aVwith
p4131
aVpinched
p4132
aV,
aVcrpy
p4133
aVeyes
p4134
aV.
aa(lp4135
Vhe
p4136
aVexamined
p4137
aVthe
p4138
aVroom
p4139
aVuntil
p4140
aVat
p4141
aVlast
p4142
aVhis
p4143
aVeyes
p4144
aVreached
p4145
aVa
aVtable
p4146
aVin
p4147
aVa
aVcorner
p4148
aVdiagonally
p4149
aVacross
p4150
aVfrom
p4151
aVhim
p4152
aV,
aVat
p4153
aVwhich
p4154
aVthree
p4155
aVmen
p4156
aVwere
p4157
aVsitting
p4158
aV.
aa(lp4159
Vas
p4160
aVhe
p4161
aVwatched
p4162
aV,
aVthe
p4163
aVjockey
p4164
aVraised
p4165
aVhis
p4166
aVchin
p4167
aVand
p4168
aVtilted
p4169
aVhis
p4170
aVhead
p4171
aVback
p4172
aVto
p4173
aVone
p4174
aVside
p4175
aV,
aVhis
p4176
aVdwarfed
p4177
aVbody
p4178
aVgrew
p4179
aVrigid
p4180
aV,
aVand
p4181
aVhis
p4182
aVhands
p4183
aVstiffened
p4184
aVso
p4185
aVthat
p4186
aVthe
p4187
aVfingers
p4188
aVcurled
p4189
aVinward
p4190
aVlike
p4191
aVgray
p4192
aVclaws
p4193
aV.
aa(lp4194
Vtense
p4195
aVagainst
p4196
aVthe
p4197
aVwall
p4198
aVof
p4199
aVthe
p4200
aVdining
p4201
aVroom
p4202
aV,
aVhe
p4203
aVwatched
p4204
aVand
p4205
aVwaited
p4206
aVin
p4207
aVthis
p4208
aVway
p4209
aV.
aa(lp4210
Vhe
p4211
aVwas
p4212
aVwearing
p4213
aVa
aVsuit
p4214
aVof
p4215
aVgreen
p4216
aVchinese
p4217
aVsilk
p4218
aVthat
p4219
aVevening
p4220
aV,
aVtailored
p4221
aVprecisely
p4222
aVand
p4223
aVthe
p4224
aVsize
p4225
aVof
p4226
aVa
aVcostume
p4227
aVoutfit
p4228
aVfor
p4229
aVa
aVchild
p4230
aV.
aa(lp4231
Vthe
p4232
aVshirt
p4233
aVwas
p4234
aVyellow
p4235
aV,
aVthe
p4236
aVtie
p4237
aVstriped
p4238
aVwith
p4239
aVpastel
p4240
aVcolors
p4241
aV.
aa(lp4242
Vhe
p4243
aVhad
p4244
aVno
p4245
aVhat
p4246
aVwith
p4247
aVhim
p4248
aVand
p4249
aVwore
p4250
aVhis
p4251
aVhair
p4252
aVbrushed
p4253
aVdown
p4254
aVin
p4255
aVa
aVstiff
p4256
aV,
aVwet
p4257
aVbang
p4258
aVon
p4259
aVhis
p4260
aVforehead
p4261
aV.
aa(lp4262
Vhis
p4263
aVface
p4264
aVwas
p4265
aVdrawn
p4266
aV,
aVageless
p4267
aV,
aVand
p4268
aVgray
p4269
aV.
aa(lp4270
Vthere
p4271
aVwere
p4272
aVshadowed
p4273
aVhollows
p4274
aVat
p4275
aVhis
p4276
aVtemples
p4277
aVand
p4278
aVhis
p4279
aVmouth
p4280
aVwas
p4281
aVset
p4282
aVin
p4283
aVa
aVwiry
p4284
aVsmile
p4285
aV.
aa(lp4286
Vafter
p4287
aVa
aVtime
p4288
aVhe
p4289
aVwas
p4290
aVaware
p4291
aVthat
p4292
aVhe
p4293
aVhad
p4294
aVbeen
p4295
aVseen
p4296
aVby
p4297
aVone
p4298
aVof
p4299
aVthe
p4300
aVthree
p4301
aVmen
p4302
aVhe
p4303
aVhad
p4304
aVbeen
p4305
aVwatching
p4306
aV.
aa(lp4307
Vbut
p4308
aVthe
p4309
aVjockey
p4310
aVdid
p4311
aVnot
p4312
aVnod
p4313
aV;
aVhe
p4314
aVonly
p4315
aVraised
p4316
aVhis
p4317
aVchin
p4318
aVstill
p4319
aVhigher
p4320
aVand
p4321
aVhooked
p4322
aVthe
p4323
aVthumb
p4324
aVof
p4325
aVhis
p4326
aVtense
p4327
aVhand
p4328
aVin
p4329
aVthe
p4330
aVpocket
p4331
aVof
p4332
aVhis
p4333
aVcoat
p4334
aV.
aa(lp4335
Vthe
p4336
aVthree
p4337
aVmen
p4338
aVat
p4339
aVthe
p4340
aVcorner
p4341
aVtable
p4342
aVwere
p4343
aVa
aVtrainer
p4344
aV,
aVa
aVbookie
p4345
aV,
aVand
p4346
aVa
aVrich
p4347
aVman
p4348
aV.
aa(lp4349
Vthe
p4350
aVtrainer
p4351
aVwas
p4352
aVsylvester
p4353
aV--
p4354
aVa
aVlarge
p4355
aV,
aVloosely
p4356
aVbuilt
p4357
aVfellow
p4358
aVwith
p4359
aVa
aVflushed
p4360
aVnose
p4361
aVand
p4362
aVslow
p4363
aVblue
p4364
aVeyes
p4365
aV.
aa(lp4366
Vthe
p4367
aVbookie
p4368
aVwas
p4369
aVsimmons
p4370
aV.
aa(lp4371
Vthe
p4372
aVrich
p4373
aVman
p4374
aVwas
p4375
aVthe
p4376
aVowner
p4377
aVof
p4378
aVa
aVhorse
p4379
aVnamed
p4380
aVseltzer
p4381
aV,
aVwhich
p4382
aVthe
p4383
aVjockey
p4384
aVhad
p4385
aVridden
p4386
aVthat
p4387
aVafternoon
p4388
aV.
aa(lp4389
Vthe
p4390
aVthree
p4391
aVof
p4392
aVthem
p4393
aVdrank
p4394
aVwhiskey
p4395
aVwith
p4396
aVsoda
p4397
aV,
aVand
p4398
aVa
aVwhite-coated
p4399
aVwaiter
p4400
aVhad
p4401
aVjust
p4402
aVbrought
p4403
aVon
p4404
aVthe
p4405
aVmain
p4406
aVcourse
p4407
aVof
p4408
aVthe
p4409
aVdinner
p4410
aV.
aa(lp4411
Vit
p4412
aVwas
p4413
aVsylvester
p4414
aVwho
p4415
aVfirst
p4416
aVsaw
p4417
aVthe
p4418
aVjockey
p4419
aV.
aa(lp4420
Vhe
p4421
aVlooked
p4422
aVaway
p4423
aVquickly
p4424
aV,
aVput
p4425
aVdown
p4426
aVhis
p4427
aVwhiskey
p4428
aVglass
p4429
aV,
aVand
p4430
aVnervously
p4431
aVmashed
p4432
aVthe
p4433
aVtip
p4434
aVof
p4435
aVhis
p4436
aVred
p4437
aVnose
p4438
aVwith
p4439
aVhis
p4440
aVthumb
p4441
aV.
aa(lp4442
V``
p4443
aVit
p4444
aV's
p4445
aVbitsy
p4446
aVbarlow
p4447
aV,
aV''
p4448
aVhe
p4449
aVsaid
p4450
aV.
aa(lp4451
V``
p4452
aVstanding
p4453
aVover
p4454
aVthere
p4455
aVacross
p4456
aVthe
p4457
aVroom
p4458
aV.
aa(lp4459
Vjust
p4460
aVwatching
p4461
aVus
p4462
aV.
aV''
p4463
aa(lp4464
V``
p4465
aVoh
p4466
aV,
aVthe
p4467
aVjockey
p4468
aV,
aV''
p4469
aVsaid
p4470
aVthe
p4471
aVrich
p4472
aVman
p4473
aV.
aa(lp4474
Vhe
p4475
aVwas
p4476
aVfacing
p4477
aVthe
p4478
aVwall
p4479
aVand
p4480
aVhe
p4481
aVhalf
p4482
aVturned
p4483
aVhis
p4484
aVhead
p4485
aVto
p4486
aVlook
p4487
aVbehind
p4488
aVhim
p4489
aV.
aa(lp4490
V``
p4491
aVask
p4492
aVhim
p4493
aVover
p4494
aV.
aV''
p4495
aa(lp4496
V``
p4497
aVgod
p4498
aVno
p4499
aV,
aV''
p4500
aVsylvester
p4501
aVsaid
p4502
aV.
aa(lp4503
V``
p4504
aVhe
p4505
aV's
p4506
aVcrazy
p4507
aV,
aV''
p4508
aVsimmons
p4509
aVsaid
p4510
aV.
aa(lp4511
Vthe
p4512
aVbookie
p4513
aV's
p4514
aVvoice
p4515
aVwas
p4516
aVflat
p4517
aVand
p4518
aVwithout
p4519
aVinflection
p4520
aV.
aa(lp4521
Vhe
p4522
aVhad
p4523
aVthe
p4524
aVface
p4525
aVof
p4526
aVa
aVborn
p4527
aVgambler
p4528
aV,
aVcarefully
p4529
aVadjusted
p4530
aV,
aVthe
p4531
aVexpression
p4532
aVa
aVpermanent
p4533
aVdeadlock
p4534
aVbetween
p4535
aVfear
p4536
aVand
p4537
aVgreed
p4538
aV.
aa(lp4539
V``
p4540
aVwell
p4541
aV,
aVi
aVwould
p4542
aVn't
p4543
aVcall
p4544
aVhim
p4545
aVthat
p4546
aVexactly
p4547
aV,
aV''
p4548
aVsaid
p4549
aVsylvester
p4550
aV.
aa(lp4551
V``
p4552
aVi
aV've
p4553
aVknown
p4554
aVhim
p4555
aVa
aVlong
p4556
aVtime
p4557
aV.
aa(lp4558
Vhe
p4559
aVwas
p4560
aVo.k
p4561
aV.
aa(lp4562
Vuntil
p4563
aVabout
p4564
aVsix
p4565
aVmonths
p4566
aVago
p4567
aV.
aa(lp4568
Vbut
p4569
aVif
p4570
aVhe
p4571
aVgoes
p4572
aVon
p4573
aVlike
p4574
aVthis
p4575
aV,
aVi
aVca
p4576
aVn't
p4577
aVsee
p4578
aVhim
p4579
aVlasting
p4580
aVanother
p4581
aVyear
p4582
aV.
aa(lp4583
Vi
aVjust
p4584
aVca
p4585
aVn't
p4586
aV.
aV''
p4587
aa(lp4588
V``
p4589
aVit
p4590
aVwas
p4591
aVwhat
p4592
aVhappened
p4593
aVin
p4594
aVmiami
p4595
aV,
aV''
p4596
aVsaid
p4597
aVsimmons
p4598
aV.
aa(lp4599
V``
p4600
aVwhat
p4601
aV?
aV''
p4602
aa(lp4603
Vasked
p4604
aVthe
p4605
aVrich
p4606
aVman
p4607
aV.
aa(lp4608
Vsylvester
p4609
aVglanced
p4610
aVacross
p4611
aVthe
p4612
aVroom
p4613
aVat
p4614
aVthe
p4615
aVjockey
p4616
aVand
p4617
aVwet
p4618
aVthe
p4619
aVcorner
p4620
aVof
p4621
aVhis
p4622
aVmouth
p4623
aVwith
p4624
aVhis
p4625
aVred
p4626
aV,
aVfleshy
p4627
aVtongue
p4628
aV.
aa(lp4629
V``
p4630
aVa
aVaccident
p4631
aV.
aa(lp4632
Va
aVkid
p4633
aVgot
p4634
aVhurt
p4635
aVon
p4636
aVthe
p4637
aVtrack
p4638
aV.
aa(lp4639
Vbroke
p4640
aVa
aVleg
p4641
aVand
p4642
aVa
aVhip
p4643
aV.
aa(lp4644
Vhe
p4645
aVwas
p4646
aVa
aVparticular
p4647
aVpal
p4648
aVof
p4649
aVbitsy
p4650
aV's
p4651
aV.
aa(lp4652
Va
aVirish
p4653
aVkid
p4654
aV.
aa(lp4655
Vnot
p4656
aVa
aVbad
p4657
aVrider
p4658
aV,
aVeither
p4659
aV.
aV''
p4660
aa(lp4661
V``
p4662
aVthat
p4663
aV's
p4664
aVa
aVpity
p4665
aV,
aV''
p4666
aVsaid
p4667
aVthe
p4668
aVrich
p4669
aVman
p4670
aV.
aa(lp4671
V``
p4672
aVyeah
p4673
aV.
aa(lp4674
Vthey
p4675
aVwere
p4676
aVparticular
p4677
aVfriends
p4678
aV,
aV''
p4679
aVsylvester
p4680
aVsaid
p4681
aV.
aa(lp4682
V``
p4683
aVyou
p4684
aVwould
p4685
aValways
p4686
aVfind
p4687
aVhim
p4688
aVup
p4689
aVin
p4690
aVbitsy
p4691
aV's
p4692
aVhotel
p4693
aVroom
p4694
aV.
aa(lp4695
Vthey
p4696
aVwould
p4697
aVbe
p4698
aVplaying
p4699
aVrummy
p4700
aVor
p4701
aVelse
p4702
aVlying
p4703
aVon
p4704
aVthe
p4705
aVfloor
p4706
aVreading
p4707
aVthe
p4708
aVsports
p4709
aVpage
p4710
aVtogether
p4711
aV.
aV''
p4712
aa(lp4713
V``
p4714
aVwell
p4715
aV,
aVthose
p4716
aVthings
p4717
aVhappen
p4718
aV,
aV''
p4719
aVsaid
p4720
aVthe
p4721
aVrich
p4722
aVman
p4723
aV.
aa(lp4724
Vsimmons
p4725
aVcut
p4726
aVinto
p4727
aVhis
p4728
aVbeefsteak
p4729
aV.
aa(lp4730
Vhe
p4731
aVheld
p4732
aVhis
p4733
aVfork
p4734
aVprongs
p4735
aVdownward
p4736
aVon
p4737
aVthe
p4738
aVplate
p4739
aVand
p4740
aVcarefully
p4741
aVpiled
p4742
aVon
p4743
aVmushrooms
p4744
aVwith
p4745
aVthe
p4746
aVblade
p4747
aVof
p4748
aVhis
p4749
aVknife
p4750
aV.
aa(lp4751
V``
p4752
aVhe
p4753
aV's
p4754
aVcrazy
p4755
aV,
aV''
p4756
aVhe
p4757
aVrepeated
p4758
aV.
aa(lp4759
V``
p4760
aVhe
p4761
aVgives
p4762
aVme
p4763
aVthe
p4764
aVcreeps
p4765
aV.
aV''
p4766
aa(lp4767
Vall
p4768
aVthe
p4769
aVtables
p4770
aVin
p4771
aVthe
p4772
aVdining
p4773
aVroom
p4774
aVwere
p4775
aVoccupied
p4776
aV.
aa(lp4777
Vthere
p4778
aVwas
p4779
aVa
aVparty
p4780
aVat
p4781
aVthe
p4782
aVbanquet
p4783
aVtable
p4784
aVin
p4785
aVthe
p4786
aVcenter
p4787
aV,
aVand
p4788
aVgreen-white
p4789
aVaugust
p4790
aVmoths
p4791
aVhad
p4792
aVfound
p4793
aVtheir
p4794
aVway
p4795
aVin
p4796
aVfrom
p4797
aVthe
p4798
aVnight
p4799
aVand
p4800
aVfluttered
p4801
aVabout
p4802
aVthe
p4803
aVclear
p4804
aVcandle
p4805
aVflames
p4806
aV.
aa(lp4807
Vtwo
p4808
aVgirls
p4809
aVwearing
p4810
aVflannel
p4811
aVslacks
p4812
aVand
p4813
aVblazers
p4814
aVwalked
p4815
aVarm
p4816
aVin
p4817
aVarm
p4818
aVacross
p4819
aVthe
p4820
aVroom
p4821
aVinto
p4822
aVthe
p4823
aVbar
p4824
aV.
aa(lp4825
Vfrom
p4826
aVthe
p4827
aVmain
p4828
aVstreet
p4829
aVoutside
p4830
aVcame
p4831
aVthe
p4832
aVechoes
p4833
aVof
p4834
aVholiday
p4835
aVhysteria
p4836
aV.
aa(lp4837
V``
p4838
aVthey
p4839
aVclaim
p4840
aVthat
p4841
aVin
p4842
aVaugust
p4843
aVsaratoga
p4844
aVis
p4845
aVthe
p4846
aVwealthiest
p4847
aVtown
p4848
aVper
p4849
aVcapita
p4850
aVin
p4851
aVthe
p4852
aVworld
p4853
aV.
aV''
p4854
aa(lp4855
Vsylvester
p4856
aVturned
p4857
aVto
p4858
aVthe
p4859
aVrich
p4860
aVman
p4861
aV.
aa(lp4862
V``
p4863
aVwhat
p4864
aVdo
p4865
aVyou
p4866
aVthink
p4867
aV?
aV''
p4868
aa(lp4869
V``
p4870
aVi
aVwould
p4871
aVn't
p4872
aVknow
p4873
aV,
aV''
p4874
aVsaid
p4875
aVthe
p4876
aVrich
p4877
aVman
p4878
aV.
aa(lp4879
V``
p4880
aVit
p4881
aVmay
p4882
aVvery
p4883
aVwell
p4884
aVbe
p4885
aVso
p4886
aV.
aV''
p4887
aa(lp4888
Vdaintily
p4889
aV,
aVsimmons
p4890
aVwiped
p4891
aVhis
p4892
aVgreasy
p4893
aVmouth
p4894
aVwith
p4895
aVthe
p4896
aVtip
p4897
aVof
p4898
aVhis
p4899
aVforefinger
p4900
aV.
aa(lp4901
V``
p4902
aVhow
p4903
aVabout
p4904
aVhollywood
p4905
aV?
aa(lp4906
Vand
p4907
aVwall
p4908
aVstreet
p4909
aV--
p4910
aV''
p4911
aV''
p4912
aVwait
p4913
aV,
aV''
p4914
aVsaid
p4915
aVsylvester
p4916
aV.
aa(lp4917
V``
p4918
aVhe
p4919
aV's
p4920
aVdecided
p4921
aVto
p4922
aVcome
p4923
aVover
p4924
aVhere
p4925
aV.
aV''
p4926
aa(lp4927
Vthe
p4928
aVjockey
p4929
aVhad
p4930
aVleft
p4931
aVthe
p4932
aVwall
p4933
aVand
p4934
aVwas
p4935
aVapproaching
p4936
aVthe
p4937
aVtable
p4938
aVin
p4939
aVthe
p4940
aVcorner
p4941
aV.
aa(lp4942
Vhe
p4943
aVwalked
p4944
aVwith
p4945
aVa
aVprim
p4946
aVstrut
p4947
aV,
aVswinging
p4948
aVout
p4949
aVhis
p4950
aVlegs
p4951
aVin
p4952
aVa
aVhalf-circle
p4953
aVwith
p4954
aVeach
p4955
aVstep
p4956
aV,
aVhis
p4957
aVheels
p4958
aVbiting
p4959
aVsmartly
p4960
aVinto
p4961
aVthe
p4962
aVred
p4963
aVvelvet
p4964
aVcarpet
p4965
aVon
p4966
aVthe
p4967
aVfloor
p4968
aV.
aa(lp4969
Von
p4970
aVthe
p4971
aVway
p4972
aVover
p4973
aVhe
p4974
aVbrushed
p4975
aVagainst
p4976
aVthe
p4977
aVelbow
p4978
aVof
p4979
aVa
aVfat
p4980
aVwoman
p4981
aVin
p4982
aVwhite
p4983
aVsatin
p4984
aVat
p4985
aVthe
p4986
aVbanquet
p4987
aVtable
p4988
aV;
aVhe
p4989
aVstepped
p4990
aVback
p4991
aVand
p4992
aVbowed
p4993
aVwith
p4994
aVdandified
p4995
aVcourtesy
p4996
aV,
aVhis
p4997
aVeyes
p4998
aVquite
p4999
aVclosed
p5000
aV.
aa(lp5001
Vwhen
p5002
aVhe
p5003
aVhad
p5004
aVcrossed
p5005
aVthe
p5006
aVroom
p5007
aVhe
p5008
aVdrew
p5009
aVup
p5010
aVa
aVchair
p5011
aVand
p5012
aVsat
p5013
aVat
p5014
aVa
aVcorner
p5015
aVof
p5016
aVthe
p5017
aVtable
p5018
aV,
aVbetween
p5019
aVsylvester
p5020
aVand
p5021
aVthe
p5022
aVrich
p5023
aVman
p5024
aV,
aVwithout
p5025
aVa
aVnod
p5026
aVof
p5027
aVgreeting
p5028
aVor
p5029
aVa
aVchange
p5030
aVin
p5031
aVhis
p5032
aVset
p5033
aV,
aVgray
p5034
aVface
p5035
aV.
aa(lp5036
V``
p5037
aVhad
p5038
aVdinner
p5039
aV?
aV''
p5040
aa(lp5041
Vsylvester
p5042
aVasked
p5043
aV.
aa(lp5044
V``
p5045
aVsome
p5046
aVpeople
p5047
aVmight
p5048
aVcall
p5049
aVit
p5050
aVthat
p5051
aV.
aV''
p5052
aa(lp5053
Vthe
p5054
aVjockey
p5055
aV's
p5056
aVvoice
p5057
aVwas
p5058
aVhigh
p5059
aV,
aVbitter
p5060
aV,
aVclear
p5061
aV.
aa(lp5062
Vsylvester
p5063
aVput
p5064
aVhis
p5065
aVknife
p5066
aVand
p5067
aVfork
p5068
aVdown
p5069
aVcarefully
p5070
aVon
p5071
aVhis
p5072
aVplate
p5073
aV.
aa(lp5074
Vthe
p5075
aVrich
p5076
aVman
p5077
aVshifted
p5078
aVhis
p5079
aVposition
p5080
aV,
aVturning
p5081
aVsidewise
p5082
aVin
p5083
aVhis
p5084
aVchair
p5085
aVand
p5086
aVcrossing
p5087
aVhis
p5088
aVlegs
p5089
aV.
aa(lp5090
Vhe
p5091
aVwas
p5092
aVdressed
p5093
aVin
p5094
aVtwill
p5095
aVriding
p5096
aVpants
p5097
aV,
aVunpolished
p5098
aVboots
p5099
aV,
aVand
p5100
aVa
aVshabby
p5101
aVbrown
p5102
aVjacket
p5103
aV--
p5104
aVthis
p5105
aVwas
p5106
aVhis
p5107
aVoutfit
p5108
aVday
p5109
aVand
p5110
aVnight
p5111
aVin
p5112
aVthe
p5113
aVracing
p5114
aVseason
p5115
aV,
aValthough
p5116
aVhe
p5117
aVwas
p5118
aVnever
p5119
aVseen
p5120
aVon
p5121
aVa
aVhorse
p5122
aV.
aa(lp5123
Vsimmons
p5124
aVwent
p5125
aVon
p5126
aVwith
p5127
aVhis
p5128
aVdinner
p5129
aV.
aa(lp5130
V``
p5131
aVlike
p5132
aVa
aVspot
p5133
aVof
p5134
aVseltzer
p5135
aVwater
p5136
aV?
aV''
p5137
aa(lp5138
Vasked
p5139
aVsylvester
p5140
aV.
aa(lp5141
V``
p5142
aVor
p5143
aVsomething
p5144
aVlike
p5145
aVthat
p5146
aV?
aV''
p5147
aa(lp5148
Vthe
p5149
aVjockey
p5150
aVdid
p5151
aVn't
p5152
aVanswer
p5153
aV.
aa(lp5154
Vhe
p5155
aVdrew
p5156
aVa
aVgold
p5157
aVcigarette
p5158
aVcase
p5159
aVfrom
p5160
aVhis
p5161
aVpocket
p5162
aVand
p5163
aVsnapped
p5164
aVit
p5165
aVopen
p5166
aV.
aa(lp5167
Vinside
p5168
aVwere
p5169
aVa
aVfew
p5170
aVcigarettes
p5171
aVand
p5172
aVa
aVtiny
p5173
aVgold
p5174
aVpenknife
p5175
aV.
aa(lp5176
Vhe
p5177
aVused
p5178
aVthe
p5179
aVknife
p5180
aVto
p5181
aVcut
p5182
aVa
aVcigarette
p5183
aVin
p5184
aVhalf
p5185
aV.
aa(lp5186
Vwhen
p5187
aVhe
p5188
aVhad
p5189
aVlighted
p5190
aVhis
p5191
aVsmoke
p5192
aVhe
p5193
aVheld
p5194
aVup
p5195
aVhis
p5196
aVhand
p5197
aVto
p5198
aVa
aVwaiter
p5199
aVpassing
p5200
aVby
p5201
aVthe
p5202
aVtable
p5203
aV.
aa(lp5204
V``
p5205
aVkentucky
p5206
aVbourbon
p5207
aV,
aVplease
p5208
aV.
aV''
p5209
aa(lp5210
V``
p5211
aVnow
p5212
aV,
aVlisten
p5213
aV,
aVkid
p5214
aV,
aV''
p5215
aVsaid
p5216
aVsylvester
p5217
aV.
aa(lp5218
V``
p5219
aVdo
p5220
aVn't
p5221
aVkid
p5222
aVme
p5223
aV.
aV''
p5224
aa(lp5225
V``
p5226
aVbe
p5227
aVreasonable
p5228
aV.
aa(lp5229
Vyou
p5230
aVknow
p5231
aVyou
p5232
aVgot
p5233
aVto
p5234
aVbehave
p5235
aVreasonable
p5236
aV.
aV''
p5237
aa(lp5238
Vthe
p5239
aVjockey
p5240
aVdrew
p5241
aVup
p5242
aVthe
p5243
aVleft
p5244
aVcorner
p5245
aVof
p5246
aVhis
p5247
aVmouth
p5248
aVin
p5249
aVa
aVstiff
p5250
aVjeer
p5251
aV.
aa(lp5252
Vhis
p5253
aVeyes
p5254
aVlowered
p5255
aVto
p5256
aVthe
p5257
aVfood
p5258
aVspread
p5259
aVout
p5260
aVon
p5261
aVthe
p5262
aVtable
p5263
aV,
aVbut
p5264
aVinstantly
p5265
aVhe
p5266
aVlooked
p5267
aVup
p5268
aVagain
p5269
aV.
aa(lp5270
Vbefore
p5271
aVthe
p5272
aVrich
p5273
aVman
p5274
aVwas
p5275
aVa
aVfish
p5276
aVcasserole
p5277
aV,
aVbaked
p5278
aVin
p5279
aVa
aVcream
p5280
aVsauce
p5281
aVand
p5282
aVgarnished
p5283
aVwith
p5284
aVparsley
p5285
aV.
aa(lp5286
Vsylvester
p5287
aVhad
p5288
aVordered
p5289
aVeggs
p5290
aVbenedict
p5291
aV.
aa(lp5292
Vthere
p5293
aVwas
p5294
aVasparagus
p5295
aV,
aVfresh
p5296
aVbuttered
p5297
aVcorn
p5298
aV,
aVand
p5299
aVa
aVside
p5300
aVdish
p5301
aVof
p5302
aVwet
p5303
aVblack
p5304
aVolives
p5305
aV.
aa(lp5306
Va
aVplate
p5307
aVof
p5308
aVfrench-fried
p5309
aVpotatoes
p5310
aVwas
p5311
aVin
p5312
aVthe
p5313
aVcorner
p5314
aVof
p5315
aVthe
p5316
aVtable
p5317
aVbefore
p5318
aVthe
p5319
aVjockey
p5320
aV.
aa(lp5321
Vhe
p5322
aVdid
p5323
aVn't
p5324
aVlook
p5325
aVat
p5326
aVthe
p5327
aVfood
p5328
aVagain
p5329
aV,
aVbut
p5330
aVkept
p5331
aVhis
p5332
aVpinched
p5333
aVeyes
p5334
aVon
p5335
aVthe
p5336
aVcenter
p5337
aVpiece
p5338
aVof
p5339
aVfull-blown
p5340
aVlavender
p5341
aVroses
p5342
aV.
aa(lp5343
V``
p5344
aVi
aVdo
p5345
aVn't
p5346
aVsuppose
p5347
aVyou
p5348
aVremember
p5349
aVa
aVcertain
p5350
aVperson
p5351
aVby
p5352
aVthe
p5353
aVname
p5354
aVof
p5355
aVmcguire
p5356
aV,
aV''
p5357
aVhe
p5358
aVsaid
p5359
aV.
aa(lp5360
V``
p5361
aVnow
p5362
aV,
aVlisten
p5363
aV,
aV''
p5364
aVsaid
p5365
aVsylvester
p5366
aV.
aa(lp5367
Vthe
p5368
aVwaiter
p5369
aVbrought
p5370
aVthe
p5371
aVwhiskey
p5372
aV,
aVand
p5373
aVthe
p5374
aVjockey
p5375
aVsat
p5376
aVfondling
p5377
aVthe
p5378
aVglass
p5379
aVwith
p5380
aVhis
p5381
aVsmall
p5382
aV,
aVstrong
p5383
aV,
aVcallused
p5384
aVhands
p5385
aV.
aa(lp5386
Von
p5387
aVhis
p5388
aVwrist
p5389
aVwas
p5390
aVa
aVgold
p5391
aVlink
p5392
aVbracelet
p5393
aVthat
p5394
aVclinked
p5395
aVagainst
p5396
aVthe
p5397
aVtable
p5398
aVedge
p5399
aV.
aa(lp5400
Vafter
p5401
aVturning
p5402
aVthe
p5403
aVglass
p5404
aVbetween
p5405
aVhis
p5406
aVpalms
p5407
aV,
aVthe
p5408
aVjockey
p5409
aVsuddenly
p5410
aVdrank
p5411
aVthe
p5412
aVwhiskey
p5413
aVneat
p5414
aVin
p5415
aVtwo
p5416
aVhard
p5417
aVswallows
p5418
aV.
aa(lp5419
Vhe
p5420
aVset
p5421
aVdown
p5422
aVthe
p5423
aVglass
p5424
aVsharply
p5425
aV.
aa(lp5426
V``
p5427
aVno
p5428
aV,
aVi
aVdo
p5429
aVn't
p5430
aVsuppose
p5431
aVyour
p5432
aVmemory
p5433
aVis
p5434
aVthat
p5435
aVlong
p5436
aVand
p5437
aVextensive
p5438
aV,
aV''
p5439
aVhe
p5440
aVsaid
p5441
aV.
aa(lp5442
V``
p5443
aVsure
p5444
aVenough
p5445
aV,
aVbitsy
p5446
aV,
aV''
p5447
aVsaid
p5448
aVsylvester
p5449
aV.
aa(lp5450
V``
p5451
aVwhat
p5452
aVmakes
p5453
aVyou
p5454
aVact
p5455
aVlike
p5456
aVthis
p5457
aV?
aa(lp5458
Vyou
p5459
aVhear
p5460
aVfrom
p5461
aVthe
p5462
aVkid
p5463
aVtoday
p5464
aV?
aV''
p5465
aa(lp5466
V``
p5467
aVi
aVreceived
p5468
aVa
aVletter
p5469
aV,
aV''
p5470
aVthe
p5471
aVjockey
p5472
aVsaid
p5473
aV.
aa(lp5474
V``
p5475
aVthe
p5476
aVcertain
p5477
aVperson
p5478
aVwe
p5479
aVwere
p5480
aVspeaking
p5481
aVabout
p5482
aVwas
p5483
aVtaken
p5484
aVout
p5485
aVfrom
p5486
aVthe
p5487
aVcast
p5488
aVon
p5489
aVwednesday
p5490
aV.
aa(lp5491
Vone
p5492
aVleg
p5493
aVis
p5494
aVtwo
p5495
aVinches
p5496
aVshorter
p5497
aVthan
p5498
aVthe
p5499
aVother
p5500
aVone
p5501
aV.
aa(lp5502
Vthat
p5503
aV's
p5504
aVall
p5505
aV.
aV''
p5506
aa(lp5507
Vsylvester
p5508
aVclucked
p5509
aVhis
p5510
aVtongue
p5511
aVand
p5512
aVshook
p5513
aVhis
p5514
aVhead
p5515
aV.
aa(lp5516
V``
p5517
aVi
aVrealize
p5518
aVhow
p5519
aVyou
p5520
aVfeel
p5521
aV.
aV''
p5522
aa(lp5523
V``
p5524
aVdo
p5525
aVyou
p5526
aV?
aV''
p5527
aa(lp5528
Vthe
p5529
aVjockey
p5530
aVwas
p5531
aVlooking
p5532
aVat
p5533
aVthe
p5534
aVdishes
p5535
aVon
p5536
aVthe
p5537
aVtable
p5538
aV.
aa(lp5539
Vhis
p5540
aVgaze
p5541
aVpassed
p5542
aVfrom
p5543
aVthe
p5544
aVfish
p5545
aVcasserole
p5546
aVto
p5547
aVthe
p5548
aVcorn
p5549
aV,
aVand
p5550
aVfinally
p5551
aVfixed
p5552
aVon
p5553
aVthe
p5554
aVplate
p5555
aVof
p5556
aVfried
p5557
aVpotatoes
p5558
aV.
aa(lp5559
Vhis
p5560
aVface
p5561
aVtightened
p5562
aVand
p5563
aVquickly
p5564
aVhe
p5565
aVlooked
p5566
aVup
p5567
aVagain
p5568
aV.
aa(lp5569
Va
aVrose
p5570
aVshattered
p5571
aVand
p5572
aVhe
p5573
aVpicked
p5574
aVup
p5575
aVone
p5576
aVof
p5577
aVthe
p5578
aVpetals
p5579
aV,
aVbruised
p5580
aVit
p5581
aVbetween
p5582
aVhis
p5583
aVthumb
p5584
aVand
p5585
aVforefinger
p5586
aV,
aVand
p5587
aVput
p5588
aVit
p5589
aVin
p5590
aVhis
p5591
aVmouth
p5592
aV.
aa(lp5593
V``
p5594
aVwell
p5595
aV,
aVthose
p5596
aVthings
p5597
aVhappen
p5598
aV,
aV''
p5599
aVsaid
p5600
aVthe
p5601
aVrich
p5602
aVman
p5603
aV.
aa(lp5604
Vthe
p5605
aVtrainer
p5606
aVand
p5607
aVthe
p5608
aVbookie
p5609
aVhad
p5610
aVfinished
p5611
aVeating
p5612
aV,
aVbut
p5613
aVthere
p5614
aVwas
p5615
aVfood
p5616
aVleft
p5617
aVon
p5618
aVthe
p5619
aVserving
p5620
aVdishes
p5621
aVbefore
p5622
aVtheir
p5623
aVplates
p5624
aV.
aa(lp5625
Vthe
p5626
aVrich
p5627
aVman
p5628
aVdipped
p5629
aVhis
p5630
aVbuttery
p5631
aVfingers
p5632
aVin
p5633
aVhis
p5634
aVwater
p5635
aVglass
p5636
aVand
p5637
aVwiped
p5638
aVthem
p5639
aVwith
p5640
aVhis
p5641
aVnapkin
p5642
aV.
aa(lp5643
V``
p5644
aVwell
p5645
aV,
aV''
p5646
aVsaid
p5647
aVthe
p5648
aVjockey
p5649
aV.
aa(lp5650
V``
p5651
aVdoes
p5652
aVn't
p5653
aVsomebody
p5654
aVwant
p5655
aVme
p5656
aVto
p5657
aVpass
p5658
aVthem
p5659
aVsomething
p5660
aV?
aa(lp5661
Vor
p5662
aVmaybe
p5663
aVperhaps
p5664
aVyou
p5665
aVdesire
p5666
aVto
p5667
aVre-order
p5668
aV.
aa(lp5669
Vanother
p5670
aVhunk
p5671
aVof
p5672
aVbeefsteak
p5673
aV,
aVgentlemen
p5674
aV,
aVor
p5675
aV--
p5676
aV''
p5677
aV''
p5678
aVplease
p5679
aV,
aV''
p5680
aVsaid
p5681
aVsylvester
p5682
aV.
aa(lp5683
V``
p5684
aVbe
p5685
aVreasonable
p5686
aV.
aa(lp5687
Vwhy
p5688
aVdo
p5689
aVn't
p5690
aVyou
p5691
aVgo
p5692
aVon
p5693
aVupstairs
p5694
aV?
aV''
p5695
aa(lp5696
V``
p5697
aVyes
p5698
aV,
aVwhy
p5699
aVdo
p5700
aVn't
p5701
aVi
aV?
aV''
p5702
aa(lp5703
Vthe
p5704
aVjockey
p5705
aVsaid
p5706
aV.
aa(lp5707
Vhis
p5708
aVprim
p5709
aVvoice
p5710
aVhad
p5711
aVrisen
p5712
aVhigher
p5713
aVand
p5714
aVthere
p5715
aVwas
p5716
aVabout
p5717
aVit
p5718
aVthe
p5719
aVsharp
p5720
aVwhine
p5721
aVof
p5722
aVhysteria
p5723
aV.
aa(lp5724
V``
p5725
aVwhy
p5726
aVdo
p5727
aVn't
p5728
aVi
aVgo
p5729
aVup
p5730
aVto
p5731
aVmy
p5732
aVgod-damn
p5733
aVroom
p5734
aVand
p5735
aVwalk
p5736
aVaround
p5737
aVand
p5738
aVwrite
p5739
aVsome
p5740
aVletters
p5741
aVand
p5742
aVgo
p5743
aVto
p5744
aVbed
p5745
aVlike
p5746
aVa
aVgood
p5747
aVboy
p5748
aV?
aa(lp5749
Vwhy
p5750
aVdo
p5751
aVn't
p5752
aVi
aVjust
p5753
aV--
p5754
aV''
p5755
aVhe
p5756
aVpushed
p5757
aVhis
p5758
aVchair
p5759
aVback
p5760
aVand
p5761
aVgot
p5762
aVup
p5763
aV.
aa(lp5764
V``
p5765
aVoh
p5766
aV,
aVfoo
p5767
aV,
aV''
p5768
aVhe
p5769
aVsaid
p5770
aV.
aa(lp5771
V``
p5772
aVfoo
p5773
aVto
p5774
aVyou
p5775
aV.
aa(lp5776
Vi
aVwant
p5777
aVa
aVdrink
p5778
aV.
aV''
p5779
aa(lp5780
V``
p5781
aVall
p5782
aVi
aVcan
p5783
aVsay
p5784
aVis
p5785
aVit
p5786
aV's
p5787
aVyour
p5788
aVfuneral
p5789
aV,
aV''
p5790
aVsaid
p5791
aVsylvester
p5792
aV.
aa(lp5793
V``
p5794
aVyou
p5795
aVknow
p5796
aVwhat
p5797
aVit
p5798
aVdoes
p5799
aVto
p5800
aVyou
p5801
aV.
aa(lp5802
Vyou
p5803
aVknow
p5804
aVwell
p5805
aVenough
p5806
aV.
aV''
p5807
aa(lp5808
Vthe
p5809
aVjockey
p5810
aVcrossed
p5811
aVthe
p5812
aVdining
p5813
aVroom
p5814
aVand
p5815
aVwent
p5816
aVinto
p5817
aVthe
p5818
aVbar
p5819
aV.
aa(lp5820
Vhe
p5821
aVordered
p5822
aVa
aVmanhattan
p5823
aV,
aVand
p5824
aVsylvester
p5825
aVwatched
p5826
aVhim
p5827
aVstand
p5828
aVwith
p5829
aVhis
p5830
aVheels
p5831
aVpressed
p5832
aVtight
p5833
aVtogether
p5834
aV,
aVhis
p5835
aVbody
p5836
aVhard
p5837
aVas
p5838
aVa
aVlead
p5839
aVsoldier
p5840
aV's
p5841
aV,
aVholding
p5842
aVhis
p5843
aVlittle
p5844
aVfinger
p5845
aVout
p5846
aVfrom
p5847
aVthe
p5848
aVcocktail
p5849
aVglass
p5850
aVand
p5851
aVsipping
p5852
aVthe
p5853
aVdrink
p5854
aVslowly
p5855
aV.
aa(lp5856
V``
p5857
aVhe
p5858
aV's
p5859
aVcrazy
p5860
aV,
aV''
p5861
aVsaid
p5862
aVsimmons
p5863
aV.
aa(lp5864
V``
p5865
aVlike
p5866
aVi
aVsaid
p5867
aV.
aV''
p5868
aa(lp5869
Vsylvester
p5870
aVturned
p5871
aVto
p5872
aVthe
p5873
aVrich
p5874
aVman
p5875
aV.
aa(lp5876
V``
p5877
aVif
p5878
aVhe
p5879
aVeats
p5880
aVa
aVlamb
p5881
aVchop
p5882
aV,
aVyou
p5883
aVcan
p5884
aVsee
p5885
aVthe
p5886
aVshape
p5887
aVof
p5888
aVit
p5889
aVin
p5890
aVhis
p5891
aVstomach
p5892
aVa
aVhour
p5893
aVafterward
p5894
aV.
aa(lp5895
Vhe
p5896
aVca
p5897
aVn't
p5898
aVsweat
p5899
aVthings
p5900
aVout
p5901
aVof
p5902
aVhim
p5903
aVanymore
p5904
aV.
aa(lp5905
Vhe
p5906
aV's
p5907
aVa
aVhundred
p5908
aVand
p5909
aVtwelve
p5910
aVand
p5911
aVa
aVhalf
p5912
aV.
aa(lp5913
Vhe
p5914
aV's
p5915
aVgained
p5916
aVthree
p5917
aVpounds
p5918
aVsince
p5919
aVwe
p5920
aVleft
p5921
aVmiami
p5922
aV.
aV''
p5923
aa(lp5924
V``
p5925
aVa
aVjockey
p5926
aVshould
p5927
aVn't
p5928
aVdrink
p5929
aV,
aV''
p5930
aVsaid
p5931
aVthe
p5932
aVrich
p5933
aVman
p5934
aV.
aa(lp5935
V``
p5936
aVthe
p5937
aVfood
p5938
aVdo
p5939
aVn't
p5940
aVsatisfy
p5941
aVhim
p5942
aVlike
p5943
aVit
p5944
aVused
p5945
aVto
p5946
aVand
p5947
aVhe
p5948
aVca
p5949
aVn't
p5950
aVsweat
p5951
aVit
p5952
aVout
p5953
aV.
aa(lp5954
Vif
p5955
aVhe
p5956
aVeats
p5957
aVa
aVlamb
p5958
aVchop
p5959
aV,
aVyou
p5960
aVcan
p5961
aVwatch
p5962
aVit
p5963
aVtooching
p5964
aVout
p5965
aVin
p5966
aVhis
p5967
aVstomach
p5968
aVand
p5969
aVit
p5970
aVdo
p5971
aVn't
p5972
aVgo
p5973
aVdown
p5974
aV.
aV''
p5975
aa(lp5976
Vthe
p5977
aVjockey
p5978
aVfinished
p5979
aVhis
p5980
aVmanhattan
p5981
aV.
aa(lp5982
Vhe
p5983
aVswallowed
p5984
aV,
aVcrushed
p5985
aVthe
p5986
aVcherry
p5987
aVin
p5988
aVthe
p5989
aVbottom
p5990
aVof
p5991
aVthe
p5992
aVglass
p5993
aVwith
p5994
aVhis
p5995
aVthumb
p5996
aV,
aVthen
p5997
aVpushed
p5998
aVthe
p5999
aVglass
p6000
aVaway
p6001
aVfrom
p6002
aVhim
p6003
aV.
aa(lp6004
Vthe
p6005
aVtwo
p6006
aVgirls
p6007
aVin
p6008
aVblazers
p6009
aVwere
p6010
aVstanding
p6011
aVat
p6012
aVhis
p6013
aVleft
p6014
aV,
aVtheir
p6015
aVfaces
p6016
aVturned
p6017
aVtoward
p6018
aVeach
p6019
aVother
p6020
aV,
aVand
p6021
aVat
p6022
aVthe
p6023
aVother
p6024
aVend
p6025
aVof
p6026
aVthe
p6027
aVbar
p6028
aVtwo
p6029
aVtouts
p6030
aVhad
p6031
aVstarted
p6032
aVan
p6033
aVargument
p6034
aVabout
p6035
aVwhich
p6036
aVwas
p6037
aVthe
p6038
aVhighest
p6039
aVmountain
p6040
aVin
p6041
aVthe
p6042
aVworld
p6043
aV.
aa(lp6044
Veveryone
p6045
aVwas
p6046
aVwith
p6047
aVsomebody
p6048
aVelse
p6049
aV;
aVthere
p6050
aVwas
p6051
aVno
p6052
aVother
p6053
aVperson
p6054
aVdrinking
p6055
aValone
p6056
aVthat
p6057
aVnight
p6058
aV.
aa(lp6059
Vthe
p6060
aVjockey
p6061
aVpaid
p6062
aVwith
p6063
aVa
aVbrand-new
p6064
aVfifty-dollar
p6065
aVbill
p6066
aVand
p6067
aVdid
p6068
aVn't
p6069
aVcount
p6070
aVthe
p6071
aVchange
p6072
aV.
aa(lp6073
Vhe
p6074
aVwalked
p6075
aVback
p6076
aVto
p6077
aVthe
p6078
aVdining
p6079
aVroom
p6080
aVand
p6081
aVto
p6082
aVthe
p6083
aVtable
p6084
aVat
p6085
aVwhich
p6086
aVthe
p6087
aVthree
p6088
aVmen
p6089
aVwere
p6090
aVsitting
p6091
aV,
aVbut
p6092
aVhe
p6093
aVdid
p6094
aVnot
p6095
aVsit
p6096
aVdown
p6097
aV.
aa(lp6098
V``
p6099
aVno
p6100
aV,
aVi
aVwould
p6101
aVn't
p6102
aVpresume
p6103
aVto
p6104
aVthink
p6105
aVyour
p6106
aVmemory
p6107
aVis
p6108
aVthat
p6109
aVextensive
p6110
aV,
aV''
p6111
aVhe
p6112
aVsaid
p6113
aV.
aa(lp6114
Vhe
p6115
aVwas
p6116
aVso
p6117
aVsmall
p6118
aVthat
p6119
aVthe
p6120
aVedge
p6121
aVof
p6122
aVthe
p6123
aVtable
p6124
aVtop
p6125
aVreached
p6126
aValmost
p6127
aVto
p6128
aVhis
p6129
aVbelt
p6130
aV,
aVand
p6131
aVwhen
p6132
aVhe
p6133
aVgripped
p6134
aVthe
p6135
aVcorner
p6136
aVwith
p6137
aVhis
p6138
aVwiry
p6139
aVhands
p6140
aVhe
p6141
aVdid
p6142
aVn't
p6143
aVhave
p6144
aVto
p6145
aVstoop
p6146
aV.
aa(lp6147
V``
p6148
aVno
p6149
aV,
aVyou
p6150
aV're
p6151
aVtoo
p6152
aVbusy
p6153
aVgobbling
p6154
aVup
p6155
aVdinners
p6156
aVin
p6157
aVdining
p6158
aVrooms
p6159
aV.
aa(lp6160
Vyou
p6161
aV''
p6162
aVre
p6163
aVtoo
p6164
aV--
p6165
aV''
p6166
aV''
p6167
aVhonestly
p6168
aV,
aV''
p6169
aVbegged
p6170
aVsylvester
p6171
aV.
aa(lp6172
V``
p6173
aVyou
p6174
aVgot
p6175
aVto
p6176
aVbehave
p6177
aVreasonable
p6178
aV.
aV''
p6179
aa(lp6180
V``
p6181
aVreasonable
p6182
aV!
aa(lp6183
Vreasonable
p6184
aV!
aV''
p6185
aa(lp6186
Vthe
p6187
aVjockey
p6188
aV's
p6189
aVgray
p6190
aVface
p6191
aVquivered
p6192
aV,
aVthen
p6193
aVset
p6194
aVin
p6195
aVa
aVmean
p6196
aV,
aVfrozen
p6197
aVgrin
p6198
aV.
aa(lp6199
Vhe
p6200
aVshook
p6201
aVthe
p6202
aVtable
p6203
aVso
p6204
aVthat
p6205
aVthe
p6206
aVplates
p6207
aVrattled
p6208
aV,
aVand
p6209
aVfor
p6210
aVa
aVmoment
p6211
aVit
p6212
aVseemed
p6213
aVthat
p6214
aVhe
p6215
aVwould
p6216
aVpush
p6217
aVit
p6218
aVover
p6219
aV.
aa(lp6220
Vbut
p6221
aVsuddenly
p6222
aVhe
p6223
aVstopped
p6224
aV.
aa(lp6225
Vhis
p6226
aVhand
p6227
aVreached
p6228
aVout
p6229
aVtoward
p6230
aVthe
p6231
aVplate
p6232
aVnearest
p6233
aVto
p6234
aVhim
p6235
aVand
p6236
aVdeliberately
p6237
aVhe
p6238
aVput
p6239
aVa
aVfew
p6240
aVof
p6241
aVthe
p6242
aVfrench-fried
p6243
aVpotatoes
p6244
aVin
p6245
aVhis
p6246
aVmouth
p6247
aV.
aa(lp6248
Vhe
p6249
aVchewed
p6250
aVslowly
p6251
aV,
aVhis
p6252
aVupper
p6253
aVlip
p6254
aVraised
p6255
aV,
aVthen
p6256
aVhe
p6257
aVturned
p6258
aVand
p6259
aVspat
p6260
aVout
p6261
aVthe
p6262
aVpulpy
p6263
aVmouthful
p6264
aVon
p6265
aVthe
p6266
aVsmooth
p6267
aVred
p6268
aVcarpet
p6269
aVwhich
p6270
aVcovered
p6271
aVthe
p6272
aVfloor
p6273
aV.
aa(lp6274
V``
p6275
aVlibertines
p6276
aV,
aV''
p6277
aVhe
p6278
aVsaid
p6279
aV,
aVand
p6280
aVhis
p6281
aVvoice
p6282
aVwas
p6283
aVthin
p6284
aVand
p6285
aVbroken
p6286
aV.
aa(lp6287
Vhe
p6288
aVrolled
p6289
aVthe
p6290
aVword
p6291
aVin
p6292
aVhis
p6293
aVmouth
p6294
aV,
aVas
p6295
aVthough
p6296
aVit
p6297
aVhad
p6298
aVa
aVflavor
p6299
aVand
p6300
aVa
aVsubstance
p6301
aVthat
p6302
aVgratified
p6303
aVhim
p6304
aV.
aa(lp6305
V``
p6306
aVyou
p6307
aVlibertines
p6308
aV,
aV''
p6309
aVhe
p6310
aVsaid
p6311
aVagain
p6312
aV,
aVand
p6313
aVturned
p6314
aVand
p6315
aVwalked
p6316
aVwith
p6317
aVhis
p6318
aVrigid
p6319
aVswagger
p6320
aVout
p6321
aVof
p6322
aVthe
p6323
aVdining
p6324
aVroom
p6325
aV.
aa(lp6326
Vsylvester
p6327
aVshrugged
p6328
aVone
p6329
aVof
p6330
aVhis
p6331
aVloose
p6332
aV,
aVheavy
p6333
aVshoulders
p6334
aV.
aa(lp6335
Vthe
p6336
aVrich
p6337
aVman
p6338
aVsopped
p6339
aVup
p6340
aVsome
p6341
aVwater
p6342
aVthat
p6343
aVhad
p6344
aVbeen
p6345
aVspilled
p6346
aVon
p6347
aVthe
p6348
aVtablecloth
p6349
aV,
aVand
p6350
aVthey
p6351
aVdid
p6352
aVn't
p6353
aVspeak
p6354
aVuntil
p6355
aVthe
p6356
aVwaiter
p6357
aVcame
p6358
aVto
p6359
aVclear
p6360
aVaway
p6361
aV.
aa(lp6362
Vthe
p6363
aVjapanese
p6364
aVquince
p6365
aV(
aV1910
p6366
aV)
aVby
p6367
aVjohn
p6368
aVgalsworthy
p6369
aVas
p6370
aVmr.
p6371
aVnilson
p6372
aV,
aVwell
p6373
aVknown
p6374
aVin
p6375
aVthe
p6376
aVcity
p6377
aV,
aVopened
p6378
aVthe
p6379
aVwindow
p6380
aVof
p6381
aVhis
p6382
aVdressing
p6383
aVroom
p6384
aVon
p6385
aVcampden
p6386
aVhill
p6387
aV,
aVhe
p6388
aVexperienced
p6389
aVa
aVpeculiar
p6390
aVsweetish
p6391
aVsensation
p6392
aVin
p6393
aVthe
p6394
aVback
p6395
aVof
p6396
aVhis
p6397
aVthroat
p6398
aV,
aVand
p6399
aVa
aVfeeling
p6400
aVof
p6401
aVemptiness
p6402
aVjust
p6403
aVunder
p6404
aVhis
p6405
aVfifth
p6406
aVrib
p6407
aV.
aa(lp6408
Vhooking
p6409
aVthe
p6410
aVwindow
p6411
aVback
p6412
aV,
aVhe
p6413
aVnoticed
p6414
aVthat
p6415
aVa
aVlittle
p6416
aVtree
p6417
aVin
p6418
aVthe
p6419
aVsquare
p6420
aVgardens
p6421
aVhad
p6422
aVcome
p6423
aVout
p6424
aVin
p6425
aVblossom
p6426
aV,
aVand
p6427
aVthat
p6428
aVthe
p6429
aVthermometer
p6430
aVstood
p6431
aVat
p6432
aVsixty
p6433
aV.
aa(lp6434
V\u201cperfect
p6435
aVmorning
p6436
aV,
aV\u201d
aVhe
p6437
aVthought
p6438
aV;
aV\u201cspring
p6439
aVat
p6440
aVlast
p6441
aV!
aV\u201d
aVresuming
p6442
aVsome
p6443
aVmeditations
p6444
aVon
p6445
aVthe
p6446
aVprice
p6447
aVof
p6448
aVtintos
p6449
aV,
aVhe
p6450
aVtook
p6451
aVup
p6452
aVan
p6453
aVivory-backed
p6454
aVhandglass
p6455
aVand
p6456
aVscrutinised
p6457
aVhis
p6458
aVface
p6459
aV.
aa(lp6460
Vhis
p6461
aVfirm
p6462
aV,
aVwell-coloured
p6463
aVcheeks
p6464
aV,
aVwith
p6465
aVtheir
p6466
aVneat
p6467
aVbrown
p6468
aVmoustaches
p6469
aV,
aVand
p6470
aVhis
p6471
aVround
p6472
aV,
aVwell-opened
p6473
aV,
aVclear
p6474
aVgrey
p6475
aVeyes
p6476
aV,
aVwore
p6477
aVa
aVreassuring
p6478
aVappearance
p6479
aVof
p6480
aVgood
p6481
aVhealth
p6482
aV.
aa(lp6483
Vputting
p6484
aVon
p6485
aVhis
p6486
aVblack
p6487
aVfrock
p6488
aVcoat
p6489
aV,
aVhe
p6490
aVwent
p6491
aV,
aVdownstairs
p6492
aV.
aa(lp6493
Vin
p6494
aVthe
p6495
aVdining
p6496
aVroom
p6497
aVhis
p6498
aVmorning
p6499
aVpaper
p6500
aVwas
p6501
aVlaid
p6502
aVout
p6503
aVon
p6504
aVthe
p6505
aVsideboard
p6506
aV.
aa(lp6507
Vmr.
p6508
aVnilson
p6509
aVhad
p6510
aVscarcely
p6511
aVtaken
p6512
aVit
p6513
aVin
p6514
aVhis
p6515
aVhand
p6516
aVwhen
p6517
aVhe
p6518
aVagain
p6519
aVbecame
p6520
aVaware
p6521
aVof
p6522
aVthat
p6523
aVqueer
p6524
aV.feeling
p6525
aV.
aa(lp6526
Vsomewhat
p6527
aVconcerned
p6528
aV,
aVhe
p6529
aVwent
p6530
aVto
p6531
aVthe
p6532
aVfrench
p6533
aVwindow
p6534
aVand
p6535
aVdescended
p6536
aVthe
p6537
aVscrolled
p6538
aViron
p6539
aVsteps
p6540
aVinto
p6541
aVthe
p6542
aVfresh
p6543
aVair
p6544
aV.
aa(lp6545
Va
aVcuckoo
p6546
aVclock
p6547
aVstruck
p6548
aVeight
p6549
aV.
aa(lp6550
V\u201chalf
p6551
aVan
p6552
aVhour
p6553
aVto
p6554
aVbreakfast
p6555
aV,
aV\u201d
aVhe
p6556
aVthought
p6557
aV;
aV\u201ci\u2019ll
p6558
aVtake
p6559
aVa
aVturn
p6560
aVin
p6561
aVthe
p6562
aVgardens.\u201d
p6563
aVhe
p6564
aVhad
p6565
aVthem
p6566
aVto
p6567
aVhimself
p6568
aV,
aVand
p6569
aVproceeded
p6570
aVto
p6571
aVpace
p6572
aVthe
p6573
aVcircular
p6574
aVpath
p6575
aVwith
p6576
aVhis
p6577
aVmorning
p6578
aVpaper
p6579
aVclasped
p6580
aVbehind
p6581
aVhim
p6582
aV.
aa(lp6583
Vhe
p6584
aVhad
p6585
aVscarcely
p6586
aVmade
p6587
aVtwo
p6588
aVrevolutions
p6589
aV,
aVhowever
p6590
aV,
aVwhen
p6591
aVit
p6592
aVwas
p6593
aVborne
p6594
aVin
p6595
aVon
p6596
aVhim
p6597
aVthat
p6598
aV,
aVinstead
p6599
aVof
p6600
aVgoing
p6601
aVaway
p6602
aVin
p6603
aVthe
p6604
aVfresh
p6605
aVair
p6606
aV,
aVthe
p6607
aVfeeling
p6608
aVhad
p6609
aVincreased
p6610
aV.
aa(lp6611
Vhe
p6612
aVdrew
p6613
aVseveral
p6614
aVdeep
p6615
aVbreaths
p6616
aV,
aVhaving
p6617
aVheard
p6618
aVdeep
p6619
aVbreathing
p6620
aVrecommended
p6621
aVby
p6622
aVhis
p6623
aVwife\u2019s
p6624
aVdoctor
p6625
aV;
aVbut
p6626
aVthey
p6627
aVaugmented
p6628
aVrather
p6629
aVthan
p6630
aVdiminished
p6631
aVthe
p6632
aVsensation\u2014
p6633
aVas
p6634
aVof
p6635
aVsome
p6636
aVsweetish
p6637
aVliquor
p6638
aVin
p6639
aVcourse
p6640
aVwithin
p6641
aVhim
p6642
aV,
aVtogether
p6643
aVwith
p6644
aVa
aVfaint
p6645
aVaching
p6646
aVjust
p6647
aVabove
p6648
aVhis
p6649
aVheart
p6650
aV.
aa(lp6651
Vrunning
p6652
aVover
p6653
aVwhat
p6654
aVhe
p6655
aVhad
p6656
aVeaten
p6657
aVthe
p6658
aVnight
p6659
aVbefore
p6660
aV,
aVhe
p6661
aVcould
p6662
aVrecollect
p6663
aVno
p6664
aVunusual
p6665
aVdish
p6666
aV,
aVand
p6667
aVit
p6668
aVoccurred
p6669
aVto
p6670
aVhim
p6671
aVthat
p6672
aVit
p6673
aVmight
p6674
aVpossibly
p6675
aVbe
p6676
aVsome
p6677
aVsmell
p6678
aVaffecting
p6679
aVhim
p6680
aV.
aa(lp6681
Vbut
p6682
aVhe
p6683
aVcould
p6684
aVdetect
p6685
aVnothing
p6686
aVexcept
p6687
aVa
aVfaint
p6688
aVsweet
p6689
aVlemony
p6690
aVscent
p6691
aV,
aVrather
p6692
aVagreeable
p6693
aVthan
p6694
aVotherwise
p6695
aV,
aVwhich
p6696
aVevidently
p6697
aVemanated
p6698
aVfrom
p6699
aVthe
p6700
aVbushes
p6701
aVbudding
p6702
aVin
p6703
aVthe
p6704
aVsunshine
p6705
aV.
aa(lp6706
Vhe
p6707
aVwas
p6708
aVon
p6709
aVthe
p6710
aVpoint
p6711
aVof
p6712
aVresuming
p6713
aVhis
p6714
aVpromenade
p6715
aV,
aVwhen
p6716
aVa
aVblackbird
p6717
aVclose
p6718
aVby
p6719
aVburst
p6720
aVinto
p6721
aVsong
p6722
aV,
aVand
p6723
aV,
aVlooking
p6724
aVup
p6725
aV,
aVmr.
p6726
aVnilson
p6727
aVsaw
p6728
aVat
p6729
aVa
aVdistance
p6730
aVof
p6731
aVperhaps
p6732
aVfive
p6733
aVyards
p6734
aVa
aVlittle
p6735
aVtree
p6736
aV,
aVin
p6737
aVthe
p6738
aVheart
p6739
aVof
p6740
aVwhose
p6741
aVbranches
p6742
aVthe
p6743
aVbird
p6744
aVwas
p6745
aVperched
p6746
aV.
aa(lp6747
Vhe
p6748
aVstood
p6749
aVstaring
p6750
aVcuriously
p6751
aVat
p6752
aVthis
p6753
aVtree
p6754
aV,
aVrecognising
p6755
aVit
p6756
aVfor
p6757
aVthat
p6758
aVwhich
p6759
aVhe
p6760
aVhad
p6761
aVnoticed
p6762
aVfrom
p6763
aVhis
p6764
aVwindow
p6765
aV.
aa(lp6766
Vit
p6767
aVwas
p6768
aVcovered
p6769
aVwith
p6770
aVyoung
p6771
aVblossoms
p6772
aV,
aVpink
p6773
aVand
p6774
aVwhite
p6775
aV,
aVand
p6776
aVlittle
p6777
aVbright
p6778
aVgreen
p6779
aVleaves
p6780
aVboth
p6781
aVround
p6782
aVand
p6783
aVspiky
p6784
aV;
aVand
p6785
aVon
p6786
aVall
p6787
aVthis
p6788
aVblossom
p6789
aVand
p6790
aVthese
p6791
aVleaves
p6792
aVthe
p6793
aVsunlight
p6794
aVglistened
p6795
aV.
aa(lp6796
Vmr.
p6797
aVnilson
p6798
aVsmiled
p6799
aV;
aVthe
p6800
aVlittle
p6801
aVtree
p6802
aVwas
p6803
aVso
p6804
aValive
p6805
aVand
p6806
aVpretty
p6807
aV!
aa(lp6808
Vand
p6809
aVinstead
p6810
aVof
p6811
aVpassing
p6812
aVon
p6813
aV,
aVhe
p6814
aVstayed
p6815
aVthere
p6816
aVsmiling
p6817
aVat
p6818
aVthe
p6819
aVtree
p6820
aV.
aa(lp6821
V\u201cmorning
p6822
aVlike
p6823
aVthis
p6824
aV!
aV\u201d
aVhe
p6825
aVthought
p6826
aV;
aV\u201cand
p6827
aVhere
p6828
aVi
aVam
p6829
aVthe
p6830
aVonly
p6831
aVperson
p6832
aVin
p6833
aVthe
p6834
aVsquare
p6835
aVwho
p6836
aVhas
p6837
aVthe
p6838
aV-to
p6839
aVcome
p6840
aVout
p6841
aVand\u2014
p6842
aV!
aV\u201d
aVbut
p6843
aVhe
p6844
aVhad
p6845
aVno
p6846
aVsooner
p6847
aVconceived
p6848
aVthis
p6849
aVthought
p6850
aVthan
p6851
aVhe
p6852
aVsaw
p6853
aVquite
p6854
aVnear
p6855
aVhim
p6856
aVa
aVman
p6857
aVwith
p6858
aVhis
p6859
aVhands
p6860
aVbehind
p6861
aVhim
p6862
aV,
aVwho
p6863
aVwas
p6864
aValso
p6865
aVstaring
p6866
aVup
p6867
aVand
p6868
aVsmiling
p6869
aVat
p6870
aVthe
p6871
aVlittle
p6872
aVtree
p6873
aV.
aa(lp6874
Vrather
p6875
aVtaken
p6876
aVaback
p6877
aV,
aVmr.
p6878
aVnilson
p6879
aVceased
p6880
aVto
p6881
aVsmile
p6882
aV,
aVand
p6883
aVlooked
p6884
aVfurtively
p6885
aVat
p6886
aVthe
p6887
aVstranger
p6888
aV.
aa(lp6889
Vit
p6890
aVwas
p6891
aVhis
p6892
aVnext-door
p6893
aVneighbour
p6894
aV,
aVmr.
p6895
aVtandram
p6896
aV,
aVwell
p6897
aVknown
p6898
aVin
p6899
aVthe
p6900
aVcity
p6901
aV,
aVwho
p6902
aVhad
p6903
aVoccupied
p6904
aVthe
p6905
aVadjoining
p6906
aVhouse
p6907
aVfor
p6908
aVsome
p6909
aVfive
p6910
aVyears
p6911
aV.
aa(lp6912
Vmr.
p6913
aVnilson
p6914
aVperceived
p6915
aVat
p6916
aVonce
p6917
aVthe
p6918
aVawkwardness
p6919
aVof
p6920
aVhis
p6921
aVposition
p6922
aV,
aVfor
p6923
aV,
aVbeing
p6924
aVmarried
p6925
aV,
aVthey
p6926
aVhad
p6927
aVnot
p6928
aVyet
p6929
aVhad
p6930
aVoccasion
p6931
aVto
p6932
aVspeak
p6933
aVto
p6934
aVone
p6935
aVanother
p6936
aV.
aa(lp6937
Vdoubtful
p6938
aVas
p6939
aVto
p6940
aVhis
p6941
aVproper
p6942
aVconduct
p6943
aV,
aVhe
p6944
aVdecided
p6945
aVat
p6946
aVlast
p6947
aVto
p6948
aVmurmur
p6949
aV:
aV\u201cfine
p6950
aVmorning
p6951
aV!
aV\u201d
aVand
p6952
aVwas
p6953
aVpassing
p6954
aVon
p6955
aV,
aVwhen
p6956
aVmr.
p6957
aVtandram
p6958
aVanswered
p6959
aV:
aV\u201cbeautiful
p6960
aV,
aVfor
p6961
aVthe
p6962
aVtime
p6963
aVof
p6964
aVyear
p6965
aV!
aV\u201d
aVdetecting
p6966
aVa
aVslight
p6967
aVnervousness
p6968
aVin
p6969
aVhis
p6970
aVneighbour\u2019s
p6971
aVvoice
p6972
aV,
aVmr.
p6973
aVnilson
p6974
aVwas
p6975
aVemboldened
p6976
aVto
p6977
aVregard
p6978
aVhim
p6979
aVopenly
p6980
aV.
aa(lp6981
Vhe
p6982
aVwas
p6983
aVof
p6984
aVabout
p6985
aVmr.
p6986
aVnilson\u2019s
p6987
aVown
p6988
aVheight
p6989
aV,
aVwith
p6990
aVfirm
p6991
aVwell-coloured
p6992
aVcheeks
p6993
aV,
aVneat
p6994
aVbrown
p6995
aVmoustaches
p6996
aV,
aVclear
p6997
aVgrey
p6998
aVeyes
p6999
aV;
aVand
p7000
aVwas
p7001
aVwearing
p7002
aVa
aVfrock
p7003
aVcoat
p7004
aV.
aa(lp7005
Vmr.
p7006
aVnilson
p7007
aVnoticed
p7008
aVthat
p7009
aVhe
p7010
aVhad
p7011
aVhis
p7012
aVmorning
p7013
aVpaper
p7014
aVclasped
p7015
aVbehind
p7016
aVhim
p7017
aVas
p7018
aVhe
p7019
aVlooked
p7020
aVup
p7021
aVat
p7022
aVthe
p7023
aVlittle
p7024
aVtree
p7025
aV.
aa(lp7026
Vand
p7027
aV,
aVvisited
p7028
aVsomehow
p7029
aVby
p7030
aVthe
p7031
aVfeeling
p7032
aVthat
p7033
aVhe
p7034
aVhad
p7035
aVbeen
p7036
aVcaught
p7037
aVout
p7038
aV,
aVhe
p7039
aVsaid
p7040
aVabruptly
p7041
aV:
aV\u201cer\u2014can
p7042
aVyou
p7043
aVgive
p7044
aVme
p7045
aVthe
p7046
aVname
p7047
aVof
p7048
aVthat
p7049
aVtree
p7050
aV?
aV\u201d
aVmr.
p7051
aVtandram
p7052
aVanswered
p7053
aV:
aV\u201ci
p7054
aVwas
p7055
aVabout
p7056
aVto
p7057
aVask
p7058
aVyou
p7059
aVthat
p7060
aV,
aV\u201d
aVand
p7061
aVstepped
p7062
aVtowards
p7063
aVit
p7064
aV.
aa(lp7065
Vmr.
p7066
aVnilson
p7067
aValso
p7068
aVapproached
p7069
aVthe
p7070
aVtree
p7071
aV.
aa(lp7072
V\u201csure
p7073
aVto
p7074
aVhave
p7075
aVits
p7076
aVname
p7077
aVon
p7078
aV,
aVi
aVshould
p7079
aVthink
p7080
aV,
aV\u201d
aVhe
p7081
aVsaid
p7082
aV.
aa(lp7083
Vmr.
p7084
aVtandram
p7085
aVwas
p7086
aVthe
p7087
aVfirst
p7088
aVto
p7089
aVsee
p7090
aVthe
p7091
aVlittle
p7092
aVlabel
p7093
aV,
aVclose
p7094
aVto
p7095
aVwhere
p7096
aVblackbird
p7097
aVhad
p7098
aVbeen
p7099
aVsitting
p7100
aV.
aa(lp7101
Vhe
p7102
aVread
p7103
aVit
p7104
aVout
p7105
aV.
aa(lp7106
V\u201cjapanese
p7107
aVquince
p7108
aV!
aV\u201d
aV\u201cah
p7109
aV!
aV\u201d
aVsaid
p7110
aVmr.
p7111
aVnilson
p7112
aV,
aV\u201cthought
p7113
aVso
p7114
aV.
aa(lp7115
Vearly
p7116
aVflowerers.\u201d
p7117
aV\u201cvery
p7118
aV,
aV\u201d
aVassented
p7119
aVmr.
p7120
aVtandram
p7121
aV,
aVand
p7122
aVadded
p7123
aV:
aV\u201cquite
p7124
aVa
aVfeelin\u2019
p7125
aVin
p7126
aVthe
p7127
aVair
p7128
aVtoday.\u201d
p7129
aVmr.
p7130
aVnilson
p7131
aVnodded
p7132
aV.
aa(lp7133
V\u201cit
p7134
aVwas
p7135
aVa
aVblackbird
p7136
aVsingin\u2019
p7137
aV,
aV\u201d
aVhe
p7138
aVsaid
p7139
aV.
aa(lp7140
V\u201cblackbirds
p7141
aV,
aV\u201d
aVanswered
p7142
aVmr.
p7143
aVtandram
p7144
aV.
aa(lp7145
V\u201ci
p7146
aVprefer
p7147
aVthem
p7148
aVto
p7149
aVthrushes
p7150
aVmyself
p7151
aV;
aVmore
p7152
aVbody
p7153
aVin
p7154
aVthe
p7155
aVnote.\u201d
p7156
aVand
p7157
aVhe
p7158
aVlooked
p7159
aVat
p7160
aVmr.
p7161
aVnilson
p7162
aVin
p7163
aVan
p7164
aValmost
p7165
aVfriendly
p7166
aVway
p7167
aV.
aa(lp7168
V\u201cquite
p7169
aV,
aV\u201d
aVmurmured
p7170
aVmr.
p7171
aVnilson
p7172
aV.
aa(lp7173
V\u201cthese
p7174
aVexotics
p7175
aV,
aVthey
p7176
aVdon\u2019t
p7177
aVbear
p7178
aVfruit
p7179
aV.
aa(lp7180
Vpretty
p7181
aVblossom
p7182
aV!
aV\u201d
aVand
p7183
aVhe
p7184
aVagain
p7185
aVglanced
p7186
aVup
p7187
aVat
p7188
aVthe
p7189
aVblossom
p7190
aV,
aVthinking
p7191
aV:
aV\u201cnice
p7192
aVfellow
p7193
aV,
aVthis
p7194
aV,
aVi
aVrather
p7195
aVlike
p7196
aVhim.\u201d
p7197
aVmr.
p7198
aVtandram
p7199
aValso
p7200
aVgazed
p7201
aVat
p7202
aVthe
p7203
aVblossom
p7204
aV.
aa(lp7205
Vand
p7206
aVthe
p7207
aVlittle
p7208
aVtree
p7209
aV,
aVas
p7210
aVif
p7211
aVappreciating
p7212
aVtheir
p7213
aVattention
p7214
aV,
aVquivered
p7215
aVand
p7216
aVglowed
p7217
aV.
aa(lp7218
Vfrom
p7219
aVa
aVdistance
p7220
aVthe
p7221
aVblackbird
p7222
aVgave
p7223
aVa
aVloud
p7224
aV,
aVclear
p7225
aVcall
p7226
aV.
aa(lp7227
Vmr.
p7228
aVnilson
p7229
aVdropped
p7230
aVhis
p7231
aVeyes
p7232
aV.
aa(lp7233
Vit
p7234
aVstruck
p7235
aVhim
p7236
aVsuddenly
p7237
aVthat
p7238
aVmr.
p7239
aVtandram
p7240
aVlooked
p7241
aVa
aVlittle
p7242
aVfoolish
p7243
aV;
aVand
p7244
aV,
aVas
p7245
aVif
p7246
aVhe
p7247
aVhad
p7248
aVseen
p7249
aVhimself
p7250
aV,
aVhe
p7251
aVsaid
p7252
aV:
aV\u201ci
p7253
aVmust
p7254
aVbe
p7255
aVgoing
p7256
aVin
p7257
aV.
aa(lp7258
Vgood
p7259
aVmorning
p7260
aV!
aV\u201d
aVa
aVshade
p7261
aVpassed
p7262
aVover
p7263
aVmr.
p7264
aVtandram\u2019s
p7265
aVface
p7266
aV,
aVas
p7267
aVif
p7268
aVhe
p7269
aV,
aVtoo
p7270
aV,
aVhad
p7271
aVsuddenly
p7272
aVnoticed
p7273
aVsomething
p7274
aVabout
p7275
aVmr.
p7276
aVnilson
p7277
aV.
aa(lp7278
V\u201cgood
p7279
aVmorning
p7280
aV,
aV\u201d
aVhe
p7281
aVreplied
p7282
aV,
aVand
p7283
aVclasping
p7284
aVtheir
p7285
aVjournals
p7286
aVto
p7287
aVtheir
p7288
aVbacks
p7289
aVthey
p7290
aVseparated
p7291
aV.
aa(lp7292
Vmr.
p7293
aVnilson
p7294
aVretraced
p7295
aVhis
p7296
aVsteps
p7297
aVtowards
p7298
aVhis
p7299
aVgarden
p7300
aVwindow
p7301
aV,
aVwalking
p7302
aVslowly
p7303
aVso
p7304
aVas
p7305
aVto
p7306
aVavoid
p7307
aVarriving
p7308
aVat
p7309
aVthe
p7310
aVsame
p7311
aVtime
p7312
aVas
p7313
aVhis
p7314
aVneighbour
p7315
aV.
aa(lp7316
Vhaving
p7317
aVseen
p7318
aVmr.
p7319
aVtandram
p7320
aVmount
p7321
aVhis
p7322
aVscrolled
p7323
aViron
p7324
aVsteps
p7325
aV,
aVhe
p7326
aVascended
p7327
aVhis
p7328
aVown
p7329
aVin
p7330
aVturn
p7331
aV.
aa(lp7332
Von
p7333
aVthe
p7334
aVtop
p7335
aVstep
p7336
aVhe
p7337
aVpaused
p7338
aV.
aa(lp7339
Vwith
p7340
aVthe
p7341
aVslanting
p7342
aVspring
p7343
aVsunlight
p7344
aVdarting
p7345
aVand
p7346
aVquivering
p7347
aVinto
p7348
aVit
p7349
aV,
aVthe
p7350
aVjapanese
p7351
aVquince
p7352
aVseemed
p7353
aVmore
p7354
aVliving
p7355
aVthan
p7356
aVa
aVtree
p7357
aV.
aa(lp7358
Vthe
p7359
aVblackbird
p7360
aVhad
p7361
aVreturned
p7362
aVto
p7363
aVit
p7364
aV,
aVand
p7365
aVwas
p7366
aVchanting
p7367
aVout
p7368
aVhis
p7369
aVheart
p7370
aV.
aa(lp7371
Vmr.
p7372
aVnilson
p7373
aVsighed
p7374
aV;
aVagain
p7375
aVhe
p7376
aVfelt
p7377
aVthat
p7378
aVqueer
p7379
aVsensation
p7380
aV,
aVthat
p7381
aVchoky
p7382
aVfeeling
p7383
aVin
p7384
aVhis
p7385
aVthroat
p7386
aV.
aa(lp7387
Vthe
p7388
aVsound
p7389
aVof
p7390
aVa
aVcough
p7391
aVor
p7392
aVsigh
p7393
aVattracted
p7394
aVhis
p7395
aVattention
p7396
aV.
aa(lp7397
Vthere
p7398
aV,
aVin
p7399
aVthe
p7400
aVshadow
p7401
aVof
p7402
aVhis
p7403
aVfrench
p7404
aVwindow
p7405
aV,
aVstood
p7406
aVmr.
p7407
aVtandram
p7408
aV,
aValso
p7409
aVlooking
p7410
aVforth
p7411
aVacross
p7412
aVthe
p7413
aVgardens
p7414
aVat
p7415
aVthe
p7416
aVlittle
p7417
aVquince
p7418
aVtree
p7419
aV.
aa(lp7420
Vunaccountably
p7421
aVupset
p7422
aV,
aVmr.
p7423
aVnilson
p7424
aVturned
p7425
aVabruptly
p7426
aVinto
p7427
aVthe
p7428
aVhouse
p7429
aV,
aVand
p7430
aVopened
p7431
aVhis
p7432
aVmorning
p7433
aVpaper
p7434
aV.
aasb.