ccopy_reg
_reconstructor
p1
(cData.Book
Book
p2
c__builtin__
object
p3
NtRp4
(dp5
S'stored_object'
p6
S'Books/The_Story_of_an_Hour/Book_object.p'
p7
sS'title'
p8
S'The Story of an Hour'
p9
sS'main_text_path'
p10
S'Books/The_Story_of_an_Hour/main_cleaned.txt'
p11
sS'metadata_path'
p12
S'Books/The_Story_of_an_Hour/meta_data.csv'
p13
sS'book_path'
p14
S'Books/The_Story_of_an_Hour/'
p15
sS'characters'
p16
(dp17
S'brently mallard'
p18
(dp19
S'list'
p20
(lp21
(lp22
V[
aVCHARACTER
p23
aV]
aV-
aVlouise
p24
aV's
p25
aVhusband
p26
aV,
aVsupposedly
p27
aVkilled
p28
aVin
p29
aVa
aVtrain
p30
aVaccident
p31
aV.
aa(lp32
Valthough
p33
aVlouise
p34
aVremembers
p35
aVbrently
p36
aVas
p37
aVa
aVkind
p38
aVand
p39
aVloving
p40
aVman
p41
aV,
aVmerely
p42
aVbeing
p43
aVmarried
p44
aVto
p45
aVhim
p46
aValso
p47
aVmade
p48
aVhim
p49
aVan
p50
aVoppressive
p51
aVfactor
p52
aVin
p53
aVher
p54
aVlife
p55
aV.
aa(lp56
Vbrently
p57
aVarrives
p58
aVhome
p59
aVunaware
p60
aVthat
p61
aVthere
p62
aVhad
p63
aVbeen
p64
aVa
aVtrain
p65
aVaccident
p66
aV.
aasS'relevant_text'
p67
(lp68
(lp69
(lp70
Vthe
p71
aVstory
p72
aVof
p73
aVan
p74
aVhour
p75
aVby
p76
aVkate
p77
aVchopin
p78
aV(
aV1894
p79
aV)
aVknowing
p80
aVthat
p81
aVmrs.
p82
aVmallard
p83
aVwas
p84
aVafflicted
p85
aVwith
p86
aVa
aVheart
p87
aVtrouble
p88
aV,
aVgreat
p89
aVcare
p90
aVwas
p91
aVtaken
p92
aVto
p93
aVbreak
p94
aVto
p95
aVher
p96
aVas
p97
aVgently
p98
aVas
p99
aVpossible
p100
aVthe
p101
aVnews
p102
aVof
p103
aVher
p104
aVhusband
p105
aV's
p106
aVdeath
p107
aV.
aa(lp108
Vit
p109
aVwas
p110
aVher
p111
aVsister
p112
aVjosephine
p113
aVwho
p114
aVtold
p115
aVher
p116
aV,
aVin
p117
aVbroken
p118
aVsentences
p119
aV;
aVveiled
p120
aVhints
p121
aVthat
p122
aVrevealed
p123
aVin
p124
aVhalf
p125
aVconcealing
p126
aV.
aa(lp127
Vher
p128
aVhusband
p129
aV's
p130
aVfriend
p131
aVrichards
p132
aVwas
p133
aVthere
p134
aV,
aVtoo
p135
aV,
aVnear
p136
aVher
p137
aV.
aa(lp138
Vit
p139
aVwas
p140
aVhe
p141
aVwho
p142
aVhad
p143
aVbeen
p144
aVin
p145
aVthe
p146
aVnewspaper
p147
aVoffice
p148
aVwhen
p149
aVintelligence
p150
aVof
p151
aVthe
p152
aVrailroad
p153
aVdisaster
p154
aVwas
p155
aVreceived
p156
aV,
aVwith
p157
aVbrently
p158
aVmallard
p159
aV's
p160
aVname
p161
aVleading
p162
aVthe
p163
aVlist
p164
aVof
p165
aV''
p166
aVkilled
p167
aV.
aV''
p168
aa(lp169
Vhe
p170
aVhad
p171
aVonly
p172
aVtaken
p173
aVthe
p174
aVtime
p175
aVto
p176
aVassure
p177
aVhimself
p178
aVof
p179
aVits
p180
aVtruth
p181
aVby
p182
aVa
aVsecond
p183
aVtelegram
p184
aV,
aVand
p185
aVhad
p186
aVhastened
p187
aVto
p188
aVforestall
p189
aVany
p190
aVless
p191
aVcareful
p192
aV,
aVless
p193
aVtender
p194
aVfriend
p195
aVin
p196
aVbearing
p197
aVthe
p198
aVsad
p199
aVmessage
p200
aV.
aa(lp201
Vshe
p202
aVdid
p203
aVnot
p204
aVhear
p205
aVthe
p206
aVstory
p207
aVas
p208
aVmany
p209
aVwomen
p210
aVhave
p211
aVheard
p212
aVthe
p213
aVsame
p214
aV,
aVwith
p215
aVa
aVparalyzed
p216
aVinability
p217
aVto
p218
aVaccept
p219
aVits
p220
aVsignificance
p221
aV.
aa(lp222
Vshe
p223
aVwept
p224
aVat
p225
aVonce
p226
aV,
aVwith
p227
aVsudden
p228
aV,
aVwild
p229
aVabandonment
p230
aV,
aVin
p231
aVher
p232
aVsister
p233
aV's
p234
aVarms
p235
aV.
aa(lp236
Vwhen
p237
aVthe
p238
aVstorm
p239
aVof
p240
aVgrief
p241
aVhad
p242
aVspent
p243
aVitself
p244
aVshe
p245
aVwent
p246
aVaway
p247
aVto
p248
aVher
p249
aVroom
p250
aValone
p251
aV.
aa(lp252
Vshe
p253
aVwould
p254
aVhave
p255
aVno
p256
aaa(lp257
(lp258
Vown
p259
aV.
aa(lp260
Vshe
p261
aVbreathed
p262
aVa
aVquick
p263
aVprayer
p264
aVthat
p265
aVlife
p266
aVmight
p267
aVbe
p268
aVlong
p269
aV.
aa(lp270
Vit
p271
aVwas
p272
aVonly
p273
aVyesterday
p274
aVshe
p275
aVhad
p276
aVthought
p277
aVwith
p278
aVa
aVshudder
p279
aVthat
p280
aVlife
p281
aVmight
p282
aVbe
p283
aVlong
p284
aV.
aa(lp285
Vshe
p286
aVarose
p287
aVat
p288
aVlength
p289
aVand
p290
aVopened
p291
aVthe
p292
aVdoor
p293
aVto
p294
aVher
p295
aVsister
p296
aV's
p297
aVimportunities
p298
aV.
aa(lp299
Vthere
p300
aVwas
p301
aVa
aVfeverish
p302
aVtriumph
p303
aVin
p304
aVher
p305
aVeyes
p306
aV,
aVand
p307
aVshe
p308
aVcarried
p309
aVherself
p310
aVunwittingly
p311
aVlike
p312
aVa
aVgoddess
p313
aVof
p314
aVvictory
p315
aV.
aa(lp316
Vshe
p317
aVclasped
p318
aVher
p319
aVsister
p320
aV's
p321
aVwaist
p322
aV,
aVand
p323
aVtogether
p324
aVthey
p325
aVdescended
p326
aVthe
p327
aVstairs
p328
aV.
aa(lp329
Vrichards
p330
aVstood
p331
aVwaiting
p332
aVfor
p333
aVthem
p334
aVat
p335
aVthe
p336
aVbottom
p337
aV.
aa(lp338
Vsomeone
p339
aVwas
p340
aVopening
p341
aVthe
p342
aVfront
p343
aVdoor
p344
aVwith
p345
aVa
aVlatchkey
p346
aV.
aa(lp347
Vit
p348
aVwas
p349
aVbrently
p350
aVmallard
p351
aVwho
p352
aVentered
p353
aV,
aVa
aVlittle
p354
aVtravel-
p355
aVstained
p356
aV,
aVcomposedly
p357
aVcarrying
p358
aVhis
p359
aVgrip-sack
p360
aVand
p361
aVumbrella
p362
aV.
aa(lp363
Vhe
p364
aVhad
p365
aVbeen
p366
aVfar
p367
aVfrom
p368
aVthe
p369
aVscene
p370
aVof
p371
aVthe
p372
aVaccident
p373
aV,
aVand
p374
aVdid
p375
aVnot
p376
aVeven
p377
aVknow
p378
aVthere
p379
aVhad
p380
aVbeen
p381
aVone
p382
aV.
aa(lp383
Vhe
p384
aVstood
p385
aVamazed
p386
aVat
p387
aVjosephine
p388
aV's
p389
aVpiercing
p390
aVcry
p391
aV;
aVat
p392
aVrichards
p393
aV'
aVquick
p394
aVmotion
p395
aVto
p396
aVscreen
p397
aVhim
p398
aVfrom
p399
aVthe
p400
aVview
p401
aVof
p402
aVhis
p403
aVwife
p404
aV.
aa(lp405
Vwhen
p406
aVthe
p407
aVdoctors
p408
aVcame
p409
aVthey
p410
aVsaid
p411
aVshe
p412
aVhad
p413
aVdied
p414
aVof
p415
aVheart
p416
aVdisease
p417
aV--
p418
aVof
p419
aVthe
p420
aVjoy
p421
aVthat
p422
aVkills
p423
aV.
aa(lp424
Vappointment
p425
aVwith
p426
aVlove
p427
aVby
p428
aVs.l
p429
aVkishor
p430
aVsix
p431
aVminutes
p432
aVto
p433
aVsix
p434
aV,
aVsaid
p435
aVthe
p436
aVgreat
p437
aVround
p438
aVclock
p439
aVover
p440
aVthe
p441
aVinformation
p442
aVb
aaasS'analysis'
p443
NssS'josephine'
p444
(dp445
g20
(lp446
(lp447
V[
aVCHARACTER
p448
aV]
aV-
aVlouise
p449
aV's
p450
aVsister
p451
aV.
aa(lp452
V[
aVCHARACTER
p453
aV]
aVinforms
p454
aVlouise
p455
aVabout
p456
aVbrently
p457
aV's
p458
aVdeath
p459
aV.
aasg67
(lp460
(lp461
(lp462
Vthe
p463
aVstory
p464
aVof
p465
aVan
p466
aVhour
p467
aVby
p468
aVkate
p469
aVchopin
p470
aV(
aV1894
p471
aV)
aVknowing
p472
aVthat
p473
aVmrs.
p474
aVmallard
p475
aVwas
p476
aVafflicted
p477
aVwith
p478
aVa
aVheart
p479
aVtrouble
p480
aV,
aVgreat
p481
aVcare
p482
aVwas
p483
aVtaken
p484
aVto
p485
aVbreak
p486
aVto
p487
aVher
p488
aVas
p489
aVgently
p490
aVas
p491
aVpossible
p492
aVthe
p493
aVnews
p494
aVof
p495
aVher
p496
aVhusband
p497
aV's
p498
aVdeath
p499
aV.
aa(lp500
Vit
p501
aVwas
p502
aVher
p503
aVsister
p504
aVjosephine
p505
aVwho
p506
aVtold
p507
aVher
p508
aV,
aVin
p509
aVbroken
p510
aVsentences
p511
aV;
aVveiled
p512
aVhints
p513
aVthat
p514
aVrevealed
p515
aVin
p516
aVhalf
p517
aVconcealing
p518
aV.
aa(lp519
Vher
p520
aVhusband
p521
aV's
p522
aVfriend
p523
aVrichards
p524
aVwas
p525
aVthere
p526
aV,
aVtoo
p527
aV,
aVnear
p528
aVher
p529
aV.
aa(lp530
Vit
p531
aVwas
p532
aVhe
p533
aVwho
p534
aVhad
p535
aVbeen
p536
aVin
p537
aVthe
p538
aVnewspaper
p539
aVoffice
p540
aVwhen
p541
aVintelligence
p542
aVof
p543
aVthe
p544
aVrailroad
p545
aVdisaster
p546
aVwas
p547
aVreceived
p548
aV,
aVwith
p549
aVbrently
p550
aVmallard
p551
aV's
p552
aVname
p553
aVleading
p554
aVthe
p555
aVlist
p556
aVof
p557
aV''
p558
aVkilled
p559
aV.
aV''
p560
aa(lp561
Vhe
p562
aVhad
p563
aVonly
p564
aVtaken
p565
aVthe
p566
aVtime
p567
aVto
p568
aVassure
p569
aVhimself
p570
aVof
p571
aVits
p572
aVtruth
p573
aVby
p574
aVa
aVsecond
p575
aVtelegram
p576
aV,
aVand
p577
aVhad
p578
aVhastened
p579
aVto
p580
aVforestall
p581
aVany
p582
aVless
p583
aVcareful
p584
aV,
aVless
p585
aVtender
p586
aVfriend
p587
aVin
p588
aVbearing
p589
aVthe
p590
aVsad
p591
aVmessage
p592
aV.
aa(lp593
Vshe
p594
aVdid
p595
aVnot
p596
aVhear
p597
aaa(lp598
(lp599
Vhave
p600
aVa
aVright
p601
aVto
p602
aVimpose
p603
aVa
aVprivate
p604
aVwill
p605
aVupon
p606
aVa
aVfellow-creature
p607
aV.
aa(lp608
Va
aVkind
p609
aVintention
p610
aVor
p611
aVa
aVcruel
p612
aVintention
p613
aVmade
p614
aVthe
p615
aVact
p616
aVseem
p617
aVno
p618
aVless
p619
aVa
aVcrime
p620
aVas
p621
aVshe
p622
aVlooked
p623
aVupon
p624
aVit
p625
aVin
p626
aVthat
p627
aVbrief
p628
aVmoment
p629
aVof
p630
aVillumination
p631
aV.
aa(lp632
Vand
p633
aVyet
p634
aVshe
p635
aVhad
p636
aVloved
p637
aVhim
p638
aV--
p639
aVsometimes
p640
aV.
aa(lp641
Voften
p642
aVshe
p643
aVhad
p644
aVnot
p645
aV.
aa(lp646
Vwhat
p647
aVdid
p648
aVit
p649
aVmatter
p650
aV!
aa(lp651
Vwhat
p652
aVcould
p653
aVlove
p654
aV,
aVthe
p655
aVunsolved
p656
aVmystery
p657
aV,
aVcount
p658
aVfor
p659
aVin
p660
aVthe
p661
aVface
p662
aVof
p663
aVthis
p664
aVpossession
p665
aVof
p666
aVself-assertion
p667
aVwhich
p668
aVshe
p669
aVsuddenly
p670
aVrecognized
p671
aVas
p672
aVthe
p673
aVstrongest
p674
aVimpulse
p675
aVof
p676
aVher
p677
aVbeing
p678
aV!
aa(lp679
V``
p680
aVfree
p681
aV!
aa(lp682
Vbody
p683
aVand
p684
aVsoul
p685
aVfree
p686
aV!
aV''
p687
aa(lp688
Vshe
p689
aVkept
p690
aVwhispering
p691
aV.
aa(lp692
Vjosephine
p693
aVwas
p694
aVkneeling
p695
aVbefore
p696
aVthe
p697
aVclosed
p698
aVdoor
p699
aVwith
p700
aVher
p701
aVlips
p702
aVto
p703
aVthe
p704
aVkeyhole
p705
aV,
aVimploring
p706
aVfor
p707
aVadmission
p708
aV.
aa(lp709
V``
p710
aVlouise
p711
aV,
aVopen
p712
aVthe
p713
aVdoor
p714
aV!
aa(lp715
Vi
aVbeg
p716
aV;
aVopen
p717
aVthe
p718
aVdoor
p719
aV--
p720
aVyou
p721
aVwill
p722
aVmake
p723
aVyourself
p724
aVill.
p725
aVwhat
p726
aVare
p727
aVyou
p728
aVdoing
p729
aV,
aVlouise
p730
aV?
aa(lp731
Vfor
p732
aVheaven
p733
aV's
p734
aVsake
p735
aVopen
p736
aVthe
p737
aVdoor
p738
aV.
aV''
p739
aa(lp740
V``
p741
aVgo
p742
aVaway
p743
aV.
aa(lp744
Vi
aVam
p745
aVnot
p746
aVmaking
p747
aVmyself
p748
aVill.
p749
aV''
p750
aVno
p751
aV;
aVshe
p752
aVwas
p753
aVdrinking
p754
aVin
p755
aVa
aVvery
p756
aVelixir
p757
aVof
p758
aVlife
p759
aVthrough
p760
aVthat
p761
aVopen
p762
aVwindow
p763
aV.
aa(lp764
Vher
p765
aVfancy
p766
aVwas
p767
aVrunning
p768
aVriot
p769
aValong
p770
aVthose
p771
aVdays
p772
aVahead
p773
aVof
p774
aVher
p775
aV.
aa(lp776
Vspring
p777
aVdays
p778
aV,
aVand
p779
aVsummer
p780
aVdays
p781
aV,
aVand
p782
aVall
p783
aVsorts
p784
aVof
p785
aVdays
p786
aVthat
p787
aVwould
p788
aVbe
p789
aVher
p790
aVown
p791
aV.
aa(lp792
Vshe
p793
aVbreathed
p794
aVa
aVqui
p795
aaa(lp796
(lp797
Vhere
p798
aVwas
p799
aVa
aVfeverish
p800
aVtriumph
p801
aVin
p802
aVher
p803
aVeyes
p804
aV,
aVand
p805
aVshe
p806
aVcarried
p807
aVherself
p808
aVunwittingly
p809
aVlike
p810
aVa
aVgoddess
p811
aVof
p812
aVvictory
p813
aV.
aa(lp814
Vshe
p815
aVclasped
p816
aVher
p817
aVsister
p818
aV's
p819
aVwaist
p820
aV,
aVand
p821
aVtogether
p822
aVthey
p823
aVdescended
p824
aVthe
p825
aVstairs
p826
aV.
aa(lp827
Vrichards
p828
aVstood
p829
aVwaiting
p830
aVfor
p831
aVthem
p832
aVat
p833
aVthe
p834
aVbottom
p835
aV.
aa(lp836
Vsomeone
p837
aVwas
p838
aVopening
p839
aVthe
p840
aVfront
p841
aVdoor
p842
aVwith
p843
aVa
aVlatchkey
p844
aV.
aa(lp845
Vit
p846
aVwas
p847
aVbrently
p848
aVmallard
p849
aVwho
p850
aVentered
p851
aV,
aVa
aVlittle
p852
aVtravel-
p853
aVstained
p854
aV,
aVcomposedly
p855
aVcarrying
p856
aVhis
p857
aVgrip-sack
p858
aVand
p859
aVumbrella
p860
aV.
aa(lp861
Vhe
p862
aVhad
p863
aVbeen
p864
aVfar
p865
aVfrom
p866
aVthe
p867
aVscene
p868
aVof
p869
aVthe
p870
aVaccident
p871
aV,
aVand
p872
aVdid
p873
aVnot
p874
aVeven
p875
aVknow
p876
aVthere
p877
aVhad
p878
aVbeen
p879
aVone
p880
aV.
aa(lp881
Vhe
p882
aVstood
p883
aVamazed
p884
aVat
p885
aVjosephine
p886
aV's
p887
aVpiercing
p888
aVcry
p889
aV;
aVat
p890
aVrichards
p891
aV'
aVquick
p892
aVmotion
p893
aVto
p894
aVscreen
p895
aVhim
p896
aVfrom
p897
aVthe
p898
aVview
p899
aVof
p900
aVhis
p901
aVwife
p902
aV.
aa(lp903
Vwhen
p904
aVthe
p905
aVdoctors
p906
aVcame
p907
aVthey
p908
aVsaid
p909
aVshe
p910
aVhad
p911
aVdied
p912
aVof
p913
aVheart
p914
aVdisease
p915
aV--
p916
aVof
p917
aVthe
p918
aVjoy
p919
aVthat
p920
aVkills
p921
aV.
aa(lp922
Vappointment
p923
aVwith
p924
aVlove
p925
aVby
p926
aVs.l
p927
aVkishor
p928
aVsix
p929
aVminutes
p930
aVto
p931
aVsix
p932
aV,
aVsaid
p933
aVthe
p934
aVgreat
p935
aVround
p936
aVclock
p937
aVover
p938
aVthe
p939
aVinformation
p940
aVbooth
p941
aVin
p942
aVgrand
p943
aVcentral
p944
aVstation
p945
aV.
aa(lp946
Vthe
p947
aVtall
p948
aVyoung
p949
aVarmy
p950
aVlieutenant
p951
aVwho
p952
aVhad
p953
aVjust
p954
aVcome
p955
aVfrom
p956
aVthe
p957
aVdirection
p958
aVof
p959
aVthe
p960
aVtracks
p961
aVlifted
p962
aVhis
p963
aVsunburned
p964
aVface
p965
aV,
aVand
p966
aVhis
p967
aVeyes
p968
aVnarrowed
p969
aVto
p970
aVnote
p971
aVthe
p972
aVexact
p973
aVtime
p974
aV.
aa(lp975
Vhis
p976
aVheart
p977
aVwas
p978
aVpound
p979
aaasg443
NssS'louise mallard'
p980
(dp981
g20
(lp982
(lp983
V[
aVCHARACTER
p984
aV]
aV-
aVa
aVwoman
p985
aVwhose
p986
aVhusband
p987
aVis
p988
aVreportedly
p989
aVkilled
p990
aVin
p991
aVa
aVtrain
p992
aVaccident
p993
aV.
aa(lp994
Vwhen
p995
aVlouise
p996
aVhears
p997
aVthe
p998
aVnews
p999
aV,
aVshe
p1000
aVis
p1001
aVsecretly
p1002
aVhappy
p1003
aVbecause
p1004
aVshe
p1005
aVis
p1006
aVnow
p1007
aVfree
p1008
aV.
aa(lp1009
Vshe
p1010
aVis
p1011
aVfilled
p1012
aVwith
p1013
aVa
aVnew
p1014
aVlust
p1015
aVfor
p1016
aVlife
p1017
aV,
aVand
p1018
aValthough
p1019
aVshe
p1020
aVusually
p1021
aVloved
p1022
aVher
p1023
aVhusband
p1024
aV,
aVshe
p1025
aVcherishes
p1026
aVher
p1027
aVnewfound
p1028
aVindependence
p1029
aVeven
p1030
aVmore
p1031
aV.
aa(lp1032
Vshe
p1033
aVhas
p1034
aVa
aVheart
p1035
aVattack
p1036
aVwhen
p1037
aVher
p1038
aVhusband
p1039
aV,
aValive
p1040
aVafter
p1041
aVall
p1042
aV,
aVcomes
p1043
aVhome
p1044
aV.
aasg67
(lp1045
(lp1046
asg443
(lp1047
(lp1048
V[
aVCHARACTER
p1049
aV]
aVan
p1050
aVintelligent
p1051
aV,
aVindependent
p1052
aVwoman
p1053
aV,
aV[
aVCHARACTER
p1054
aV]
aVunderstands
p1055
aVthe
p1056
aV``
p1057
aVright
p1058
aV''
p1059
aVway
p1060
aVfor
p1061
aVwomen
p1062
aVto
p1063
aVbehave
p1064
aV,
aVbut
p1065
aVher
p1066
aVinternal
p1067
aVthoughts
p1068
aVand
p1069
aVfeelings
p1070
aVare
p1071
aVanything
p1072
aVbut
p1073
aVcorrect
p1074
aV.
aa(lp1075
Vwhen
p1076
aVher
p1077
aVsister
p1078
aVannounces
p1079
aVthat
p1080
aVbrently
p1081
aVhas
p1082
aVdied
p1083
aV,
aVlouise
p1084
aVcries
p1085
aVdramatically
p1086
aVrather
p1087
aVthan
p1088
aVfeeling
p1089
aVnumb
p1090
aV,
aVas
p1091
aVshe
p1092
aVknows
p1093
aVmany
p1094
aVother
p1095
aVwomen
p1096
aVwould
p1097
aV.
aa(lp1098
Vher
p1099
aVviolent
p1100
aVreaction
p1101
aVimmediately
p1102
aVshows
p1103
aVthat
p1104
aVshe
p1105
aVis
p1106
aVan
p1107
aVemotional
p1108
aV,
aVdemonstrative
p1109
aVwoman
p1110
aV.
aa(lp1111
Vshe
p1112
aVknows
p1113
aVthat
p1114
aVshe
p1115
aVshould
p1116
aVgrieve
p1117
aVfor
p1118
aVbrently
p1119
aVand
p1120
aVfear
p1121
aVfor
p1122
aVher
p1123
aVown
p1124
aVfuture
p1125
aV,
aVbut
p1126
aVinstead
p1127
aVshe
p1128
aVfeels
p1129
aVelation
p1130
aVat
p1131
aVher
p1132
aVnewfound
p1133
aVindependence
p1134
aV.
aa(lp1135
Vlouise
p1136
aVis
p1137
aVnot
p1138
aVcruel
p1139
aVand
p1140
aVknows
p1141
aVthat
p1142
aVshe
p1143
aV'll
p1144
aVcry
p1145
aVover
p1146
aVbrently
p1147
aV's
p1148
aVdead
p1149
aVbody
p1150
aVwhen
p1151
aVthe
p1152
aVtime
p1153
aVcomes
p1154
aV.
aa(lp1155
Vbut
p1156
aVwhen
p1157
aVshe
p1158
aVis
p1159
aVout
p1160
aVof
p1161
aVothers
p1162
aV'
aVsight
p1163
aV,
aVher
p1164
aVprivate
p1165
aVthoughts
p1166
aVare
p1167
aVof
p1168
aVher
p1169
aVown
p1170
aVlife
p1171
aVand
p1172
aVthe
p1173
aVopportunities
p1174
aVthat
p1175
aVawait
p1176
aVher
p1177
aV,
aVwhich
p1178
aVshe
p1179
aVfeels
p1180
aVhave
p1181
aVjust
p1182
aVbrightened
p1183
aVconsiderably
p1184
aV.
aa(lp1185
Vlouise
p1186
aVsuffers
p1187
aVfrom
p1188
aVa
aVheart
p1189
aVproblem
p1190
aV,
aVwhich
p1191
aVindicates
p1192
aVthe
p1193
aVextent
p1194
aVto
p1195
aVwhich
p1196
aVshe
p1197
aVfeels
p1198
aVthat
p1199
aVmarriage
p1200
aVhas
p1201
aVoppressed
p1202
aVher
p1203
aV.
aa(lp1204
Vthe
p1205
aVvague
p1206
aVlabel
p1207
aVchopin
p1208
aVgives
p1209
aVto
p1210
aVlouise
p1211
aV's
p1212
aVproblem
p1213
aV--
p1214
aV''
p1215
aVheart
p1216
aVtrouble
p1217
aV''
p1218
aV--
p1219
aVsuggests
p1220
aVthat
p1221
aVthis
p1222
aVtrouble
p1223
aVis
p1224
aVboth
p1225
aVphysical
p1226
aVand
p1227
aVemotional
p1228
aV,
aVa
aVproblem
p1229
aVboth
p1230
aVwithin
p1231
aVher
p1232
aVbody
p1233
aVand
p1234
aVwith
p1235
aVher
p1236
aVrelationship
p1237
aVto
p1238
aVbrently
p1239
aV.
aa(lp1240
Vin
p1241
aVthe
p1242
aVhour
p1243
aVduring
p1244
aVwhich
p1245
aVlouise
p1246
aVbelieves
p1247
aVbrently
p1248
aVis
p1249
aVdead
p1250
aV,
aVher
p1251
aVheart
p1252
aVbeats
p1253
aVstrongly
p1254
aV--
p1255
aVindeed
p1256
aV,
aVlouise
p1257
aVfeels
p1258
aVher
p1259
aVnew
p1260
aVindependence
p1261
aVphysically
p1262
aV.
aa(lp1263
Valone
p1264
aVin
p1265
aVher
p1266
aVroom
p1267
aV,
aVher
p1268
aVheart
p1269
aVraces
p1270
aV,
aVand
p1271
aVher
p1272
aVwhole
p1273
aVbody
p1274
aVfeels
p1275
aVwarm
p1276
aV.
aa(lp1277
Vshe
p1278
aVspreads
p1279
aVher
p1280
aVarms
p1281
aVopen
p1282
aV,
aVsymbolically
p1283
aVwelcoming
p1284
aVher
p1285
aVnew
p1286
aVlife
p1287
aV.
aa(lp1288
V``
p1289
aVbody
p1290
aVand
p1291
aVsoul
p1292
aVfree
p1293
aV!
aV''
p1294
aa(lp1295
Vshe
p1296
aVrepeats
p1297
aVto
p1298
aVherself
p1299
aV,
aVa
aVstatement
p1300
aVthat
p1301
aVshows
p1302
aVhow
p1303
aVtotal
p1304
aVher
p1305
aVnew
p1306
aVindependence
p1307
aVreally
p1308
aVis
p1309
aVfor
p1310
aVher
p1311
aV.
aa(lp1312
Vonly
p1313
aVwhen
p1314
aVbrently
p1315
aVwalks
p1316
aVin
p1317
aVdoes
p1318
aVher
p1319
aV``
p1320
aVheart
p1321
aVtrouble
p1322
aV''
p1323
aVreappear
p1324
aV,
aVand
p1325
aVthis
p1326
aVtrouble
p1327
aVis
p1328
aVso
p1329
aVacute
p1330
aVthat
p1331
aVit
p1332
aVkills
p1333
aVher
p1334
aV.
aa(lp1335
Vthe
p1336
aVirony
p1337
aVof
p1338
aVthe
p1339
aVending
p1340
aVis
p1341
aVthat
p1342
aVlouise
p1343
aVdoes
p1344
aVn't
p1345
aVdie
p1346
aVof
p1347
aVjoy
p1348
aVas
p1349
aVthe
p1350
aVdoctors
p1351
aVclaim
p1352
aVbut
p1353
aVactually
p1354
aVfrom
p1355
aVthe
p1356
aVloss
p1357
aVof
p1358
aVjoy
p1359
aV.
aa(lp1360
Vbrently
p1361
aV's
p1362
aVdeath
p1363
aVgave
p1364
aVher
p1365
aVa
aVglimpse
p1366
aVof
p1367
aVa
aVnew
p1368
aVlife
p1369
aV,
aVand
p1370
aVwhen
p1371
aVthat
p1372
aVnew
p1373
aVlife
p1374
aVis
p1375
aVswiftly
p1376
aVtaken
p1377
aVaway
p1378
aV,
aVthe
p1379
aVshock
p1380
aVand
p1381
aVdisappointment
p1382
aVkill
p1383
aVher
p1384
aV.
aassS'richards'
p1385
(dp1386
g20
(lp1387
(lp1388
V[
aVCHARACTER
p1389
aV]
aV-
aVbrently
p1390
aV's
p1391
aVfriend
p1392
aV.
aa(lp1393
V[
aVCHARACTER
p1394
aV]
aVlearns
p1395
aVabout
p1396
aVthe
p1397
aVtrain
p1398
aVaccident
p1399
aVand
p1400
aVbrently
p1401
aV's
p1402
aVdeath
p1403
aVat
p1404
aVthe
p1405
aVnewspaper
p1406
aVoffice
p1407
aV,
aVand
p1408
aVhe
p1409
aVis
p1410
aVthere
p1411
aVwhen
p1412
aVjosephine
p1413
aVtells
p1414
aVthe
p1415
aVnews
p1416
aVto
p1417
aVlouise
p1418
aV.
aasg67
(lp1419
(lp1420
(lp1421
Vthe
p1422
aVstory
p1423
aVof
p1424
aVan
p1425
aVhour
p1426
aVby
p1427
aVkate
p1428
aVchopin
p1429
aV(
aV1894
p1430
aV)
aVknowing
p1431
aVthat
p1432
aVmrs.
p1433
aVmallard
p1434
aVwas
p1435
aVafflicted
p1436
aVwith
p1437
aVa
aVheart
p1438
aVtrouble
p1439
aV,
aVgreat
p1440
aVcare
p1441
aVwas
p1442
aVtaken
p1443
aVto
p1444
aVbreak
p1445
aVto
p1446
aVher
p1447
aVas
p1448
aVgently
p1449
aVas
p1450
aVpossible
p1451
aVthe
p1452
aVnews
p1453
aVof
p1454
aVher
p1455
aVhusband
p1456
aV's
p1457
aVdeath
p1458
aV.
aa(lp1459
Vit
p1460
aVwas
p1461
aVher
p1462
aVsister
p1463
aVjosephine
p1464
aVwho
p1465
aVtold
p1466
aVher
p1467
aV,
aVin
p1468
aVbroken
p1469
aVsentences
p1470
aV;
aVveiled
p1471
aVhints
p1472
aVthat
p1473
aVrevealed
p1474
aVin
p1475
aVhalf
p1476
aVconcealing
p1477
aV.
aa(lp1478
Vher
p1479
aVhusband
p1480
aV's
p1481
aVfriend
p1482
aVrichards
p1483
aVwas
p1484
aVthere
p1485
aV,
aVtoo
p1486
aV,
aVnear
p1487
aVher
p1488
aV.
aa(lp1489
Vit
p1490
aVwas
p1491
aVhe
p1492
aVwho
p1493
aVhad
p1494
aVbeen
p1495
aVin
p1496
aVthe
p1497
aVnewspaper
p1498
aVoffice
p1499
aVwhen
p1500
aVintelligence
p1501
aVof
p1502
aVthe
p1503
aVrailroad
p1504
aVdisaster
p1505
aVwas
p1506
aVreceived
p1507
aV,
aVwith
p1508
aVbrently
p1509
aVmallard
p1510
aV's
p1511
aVname
p1512
aVleading
p1513
aVthe
p1514
aVlist
p1515
aVof
p1516
aV''
p1517
aVkilled
p1518
aV.
aV''
p1519
aa(lp1520
Vhe
p1521
aVhad
p1522
aVonly
p1523
aVtaken
p1524
aVthe
p1525
aVtime
p1526
aVto
p1527
aVassure
p1528
aVhimself
p1529
aVof
p1530
aVits
p1531
aVtruth
p1532
aVby
p1533
aVa
aVsecond
p1534
aVtelegram
p1535
aV,
aVand
p1536
aVhad
p1537
aVhastened
p1538
aVto
p1539
aVforestall
p1540
aVany
p1541
aVless
p1542
aVcareful
p1543
aV,
aVless
p1544
aVtender
p1545
aVfriend
p1546
aVin
p1547
aVbearing
p1548
aVthe
p1549
aVsad
p1550
aVmessage
p1551
aV.
aa(lp1552
Vshe
p1553
aVdid
p1554
aVnot
p1555
aVhear
p1556
aVthe
p1557
aVstory
p1558
aVas
p1559
aVmany
p1560
aVwomen
p1561
aVhave
p1562
aVheard
p1563
aVthe
p1564
aVsame
p1565
aV,
aVwith
p1566
aVa
aVparalyzed
p1567
aVinability
p1568
aVto
p1569
aVaccept
p1570
aVits
p1571
aVsignificance
p1572
aV.
aa(lp1573
Vshe
p1574
aVwept
p1575
aVat
p1576
aaa(lp1577
(lp1578
Vng
p1579
aVriot
p1580
aValong
p1581
aVthose
p1582
aVdays
p1583
aVahead
p1584
aVof
p1585
aVher
p1586
aV.
aa(lp1587
Vspring
p1588
aVdays
p1589
aV,
aVand
p1590
aVsummer
p1591
aVdays
p1592
aV,
aVand
p1593
aVall
p1594
aVsorts
p1595
aVof
p1596
aVdays
p1597
aVthat
p1598
aVwould
p1599
aVbe
p1600
aVher
p1601
aVown
p1602
aV.
aa(lp1603
Vshe
p1604
aVbreathed
p1605
aVa
aVquick
p1606
aVprayer
p1607
aVthat
p1608
aVlife
p1609
aVmight
p1610
aVbe
p1611
aVlong
p1612
aV.
aa(lp1613
Vit
p1614
aVwas
p1615
aVonly
p1616
aVyesterday
p1617
aVshe
p1618
aVhad
p1619
aVthought
p1620
aVwith
p1621
aVa
aVshudder
p1622
aVthat
p1623
aVlife
p1624
aVmight
p1625
aVbe
p1626
aVlong
p1627
aV.
aa(lp1628
Vshe
p1629
aVarose
p1630
aVat
p1631
aVlength
p1632
aVand
p1633
aVopened
p1634
aVthe
p1635
aVdoor
p1636
aVto
p1637
aVher
p1638
aVsister
p1639
aV's
p1640
aVimportunities
p1641
aV.
aa(lp1642
Vthere
p1643
aVwas
p1644
aVa
aVfeverish
p1645
aVtriumph
p1646
aVin
p1647
aVher
p1648
aVeyes
p1649
aV,
aVand
p1650
aVshe
p1651
aVcarried
p1652
aVherself
p1653
aVunwittingly
p1654
aVlike
p1655
aVa
aVgoddess
p1656
aVof
p1657
aVvictory
p1658
aV.
aa(lp1659
Vshe
p1660
aVclasped
p1661
aVher
p1662
aVsister
p1663
aV's
p1664
aVwaist
p1665
aV,
aVand
p1666
aVtogether
p1667
aVthey
p1668
aVdescended
p1669
aVthe
p1670
aVstairs
p1671
aV.
aa(lp1672
Vrichards
p1673
aVstood
p1674
aVwaiting
p1675
aVfor
p1676
aVthem
p1677
aVat
p1678
aVthe
p1679
aVbottom
p1680
aV.
aa(lp1681
Vsomeone
p1682
aVwas
p1683
aVopening
p1684
aVthe
p1685
aVfront
p1686
aVdoor
p1687
aVwith
p1688
aVa
aVlatchkey
p1689
aV.
aa(lp1690
Vit
p1691
aVwas
p1692
aVbrently
p1693
aVmallard
p1694
aVwho
p1695
aVentered
p1696
aV,
aVa
aVlittle
p1697
aVtravel-
p1698
aVstained
p1699
aV,
aVcomposedly
p1700
aVcarrying
p1701
aVhis
p1702
aVgrip-sack
p1703
aVand
p1704
aVumbrella
p1705
aV.
aa(lp1706
Vhe
p1707
aVhad
p1708
aVbeen
p1709
aVfar
p1710
aVfrom
p1711
aVthe
p1712
aVscene
p1713
aVof
p1714
aVthe
p1715
aVaccident
p1716
aV,
aVand
p1717
aVdid
p1718
aVnot
p1719
aVeven
p1720
aVknow
p1721
aVthere
p1722
aVhad
p1723
aVbeen
p1724
aVone
p1725
aV.
aa(lp1726
Vhe
p1727
aVstood
p1728
aVamazed
p1729
aVat
p1730
aVjosephine
p1731
aV's
p1732
aVpiercing
p1733
aVcry
p1734
aV;
aVat
p1735
aVrichards
p1736
aV'
aVquick
p1737
aVmotion
p1738
aVto
p1739
aVscreen
p1740
aVhim
p1741
aVfrom
p1742
aVthe
p1743
aVview
p1744
aVof
p1745
aVhis
p1746
aVwife
p1747
aV.
aa(lp1748
Vwhen
p1749
aVthe
p1750
aVdoctors
p1751
aVcame
p1752
aVthey
p1753
aVsaid
p1754
aVshe
p1755
aVhad
p1756
aVdied
p1757
aVof
p1758
aVheart
p1759
aVdisease
p1760
aV--
p1761
aVof
p1762
aVthe
p1763
aVjoy
p1764
aVthat
p1765
aVkills
p1766
aV.
aaasg443
NsssS'mainText'
p1767
(lp1768
(lp1769
Vthe
p1770
aVstory
p1771
aVof
p1772
aVan
p1773
aVhour
p1774
aVby
p1775
aVkate
p1776
aVchopin
p1777
aV(
aV1894
p1778
aV)
aVknowing
p1779
aVthat
p1780
aVmrs.
p1781
aVmallard
p1782
aVwas
p1783
aVafflicted
p1784
aVwith
p1785
aVa
aVheart
p1786
aVtrouble
p1787
aV,
aVgreat
p1788
aVcare
p1789
aVwas
p1790
aVtaken
p1791
aVto
p1792
aVbreak
p1793
aVto
p1794
aVher
p1795
aVas
p1796
aVgently
p1797
aVas
p1798
aVpossible
p1799
aVthe
p1800
aVnews
p1801
aVof
p1802
aVher
p1803
aVhusband
p1804
aV's
p1805
aVdeath
p1806
aV.
aa(lp1807
Vit
p1808
aVwas
p1809
aVher
p1810
aVsister
p1811
aVjosephine
p1812
aVwho
p1813
aVtold
p1814
aVher
p1815
aV,
aVin
p1816
aVbroken
p1817
aVsentences
p1818
aV;
aVveiled
p1819
aVhints
p1820
aVthat
p1821
aVrevealed
p1822
aVin
p1823
aVhalf
p1824
aVconcealing
p1825
aV.
aa(lp1826
Vher
p1827
aVhusband
p1828
aV's
p1829
aVfriend
p1830
aVrichards
p1831
aVwas
p1832
aVthere
p1833
aV,
aVtoo
p1834
aV,
aVnear
p1835
aVher
p1836
aV.
aa(lp1837
Vit
p1838
aVwas
p1839
aVhe
p1840
aVwho
p1841
aVhad
p1842
aVbeen
p1843
aVin
p1844
aVthe
p1845
aVnewspaper
p1846
aVoffice
p1847
aVwhen
p1848
aVintelligence
p1849
aVof
p1850
aVthe
p1851
aVrailroad
p1852
aVdisaster
p1853
aVwas
p1854
aVreceived
p1855
aV,
aVwith
p1856
aVbrently
p1857
aVmallard
p1858
aV's
p1859
aVname
p1860
aVleading
p1861
aVthe
p1862
aVlist
p1863
aVof
p1864
aV''
p1865
aVkilled
p1866
aV.
aV''
p1867
aa(lp1868
Vhe
p1869
aVhad
p1870
aVonly
p1871
aVtaken
p1872
aVthe
p1873
aVtime
p1874
aVto
p1875
aVassure
p1876
aVhimself
p1877
aVof
p1878
aVits
p1879
aVtruth
p1880
aVby
p1881
aVa
aVsecond
p1882
aVtelegram
p1883
aV,
aVand
p1884
aVhad
p1885
aVhastened
p1886
aVto
p1887
aVforestall
p1888
aVany
p1889
aVless
p1890
aVcareful
p1891
aV,
aVless
p1892
aVtender
p1893
aVfriend
p1894
aVin
p1895
aVbearing
p1896
aVthe
p1897
aVsad
p1898
aVmessage
p1899
aV.
aa(lp1900
Vshe
p1901
aVdid
p1902
aVnot
p1903
aVhear
p1904
aVthe
p1905
aVstory
p1906
aVas
p1907
aVmany
p1908
aVwomen
p1909
aVhave
p1910
aVheard
p1911
aVthe
p1912
aVsame
p1913
aV,
aVwith
p1914
aVa
aVparalyzed
p1915
aVinability
p1916
aVto
p1917
aVaccept
p1918
aVits
p1919
aVsignificance
p1920
aV.
aa(lp1921
Vshe
p1922
aVwept
p1923
aVat
p1924
aVonce
p1925
aV,
aVwith
p1926
aVsudden
p1927
aV,
aVwild
p1928
aVabandonment
p1929
aV,
aVin
p1930
aVher
p1931
aVsister
p1932
aV's
p1933
aVarms
p1934
aV.
aa(lp1935
Vwhen
p1936
aVthe
p1937
aVstorm
p1938
aVof
p1939
aVgrief
p1940
aVhad
p1941
aVspent
p1942
aVitself
p1943
aVshe
p1944
aVwent
p1945
aVaway
p1946
aVto
p1947
aVher
p1948
aVroom
p1949
aValone
p1950
aV.
aa(lp1951
Vshe
p1952
aVwould
p1953
aVhave
p1954
aVno
p1955
aVone
p1956
aVfollow
p1957
aVher
p1958
aV.
aa(lp1959
Vthere
p1960
aVstood
p1961
aV,
aVfacing
p1962
aVthe
p1963
aVopen
p1964
aVwindow
p1965
aV,
aVa
aVcomfortable
p1966
aV,
aVroomy
p1967
aVarmchair
p1968
aV.
aa(lp1969
Vinto
p1970
aVthis
p1971
aVshe
p1972
aVsank
p1973
aV,
aVpressed
p1974
aVdown
p1975
aVby
p1976
aVa
aVphysical
p1977
aVexhaustion
p1978
aVthat
p1979
aVhaunted
p1980
aVher
p1981
aVbody
p1982
aVand
p1983
aVseemed
p1984
aVto
p1985
aVreach
p1986
aVinto
p1987
aVher
p1988
aVsoul
p1989
aV.
aa(lp1990
Vshe
p1991
aVcould
p1992
aVsee
p1993
aVin
p1994
aVthe
p1995
aVopen
p1996
aVsquare
p1997
aVbefore
p1998
aVher
p1999
aVhouse
p2000
aVthe
p2001
aVtops
p2002
aVof
p2003
aVtrees
p2004
aVthat
p2005
aVwere
p2006
aVall
p2007
aVaquiver
p2008
aVwith
p2009
aVthe
p2010
aVnew
p2011
aVspring
p2012
aVlife
p2013
aV.
aa(lp2014
Vthe
p2015
aVdelicious
p2016
aVbreath
p2017
aVof
p2018
aVrain
p2019
aVwas
p2020
aVin
p2021
aVthe
p2022
aVair
p2023
aV.
aa(lp2024
Vin
p2025
aVthe
p2026
aVstreet
p2027
aVbelow
p2028
aVa
aVpeddler
p2029
aVwas
p2030
aVcrying
p2031
aVhis
p2032
aVwares
p2033
aV.
aa(lp2034
Vthe
p2035
aVnotes
p2036
aVof
p2037
aVa
aVdistant
p2038
aVsong
p2039
aVwhich
p2040
aVsome
p2041
aVone
p2042
aVwas
p2043
aVsinging
p2044
aVreached
p2045
aVher
p2046
aVfaintly
p2047
aV,
aVand
p2048
aVcountless
p2049
aVsparrows
p2050
aVwere
p2051
aVtwittering
p2052
aVin
p2053
aVthe
p2054
aVeaves
p2055
aV.
aa(lp2056
Vthere
p2057
aVwere
p2058
aVpatches
p2059
aVof
p2060
aVblue
p2061
aVsky
p2062
aVshowing
p2063
aVhere
p2064
aVand
p2065
aVthere
p2066
aVthrough
p2067
aVthe
p2068
aVclouds
p2069
aVthat
p2070
aVhad
p2071
aVmet
p2072
aVand
p2073
aVpiled
p2074
aVone
p2075
aVabove
p2076
aVthe
p2077
aVother
p2078
aVin
p2079
aVthe
p2080
aVwest
p2081
aVfacing
p2082
aVher
p2083
aVwindow
p2084
aV.
aa(lp2085
Vshe
p2086
aVsat
p2087
aVwith
p2088
aVher
p2089
aVhead
p2090
aVthrown
p2091
aVback
p2092
aVupon
p2093
aVthe
p2094
aVcushion
p2095
aVof
p2096
aVthe
p2097
aVchair
p2098
aV,
aVquite
p2099
aVmotionless
p2100
aV,
aVexcept
p2101
aVwhen
p2102
aVa
aVsob
p2103
aVcame
p2104
aVup
p2105
aVinto
p2106
aVher
p2107
aVthroat
p2108
aVand
p2109
aVshook
p2110
aVher
p2111
aV,
aVas
p2112
aVa
aVchild
p2113
aVwho
p2114
aVhas
p2115
aVcried
p2116
aVitself
p2117
aVto
p2118
aVsleep
p2119
aVcontinues
p2120
aVto
p2121
aVsob
p2122
aVin
p2123
aVits
p2124
aVdreams
p2125
aV.
aa(lp2126
Vshe
p2127
aVwas
p2128
aVyoung
p2129
aV,
aVwith
p2130
aVa
aVfair
p2131
aV,
aVcalm
p2132
aVface
p2133
aV,
aVwhose
p2134
aVlines
p2135
aVbespoke
p2136
aVrepression
p2137
aVand
p2138
aVeven
p2139
aVa
aVcertain
p2140
aVstrength
p2141
aV.
aa(lp2142
Vbut
p2143
aVnow
p2144
aVthere
p2145
aVwas
p2146
aVa
aVdull
p2147
aVstare
p2148
aVin
p2149
aVher
p2150
aVeyes
p2151
aV,
aVwhose
p2152
aVgaze
p2153
aVwas
p2154
aVfixed
p2155
aVaway
p2156
aVoff
p2157
aVyonder
p2158
aVon
p2159
aVone
p2160
aVof
p2161
aVthose
p2162
aVpatches
p2163
aVof
p2164
aVblue
p2165
aVsky
p2166
aV.
aa(lp2167
Vit
p2168
aVwas
p2169
aVnot
p2170
aVa
aVglance
p2171
aVof
p2172
aVreflection
p2173
aV,
aVbut
p2174
aVrather
p2175
aVindicated
p2176
aVa
aVsuspension
p2177
aVof
p2178
aVintelligent
p2179
aVthought
p2180
aV.
aa(lp2181
Vthere
p2182
aVwas
p2183
aVsomething
p2184
aVcoming
p2185
aVto
p2186
aVher
p2187
aVand
p2188
aVshe
p2189
aVwas
p2190
aVwaiting
p2191
aVfor
p2192
aVit
p2193
aV,
aVfearfully
p2194
aV.
aa(lp2195
Vwhat
p2196
aVwas
p2197
aVit
p2198
aV?
aa(lp2199
Vshe
p2200
aVdid
p2201
aVnot
p2202
aVknow
p2203
aV;
aVit
p2204
aVwas
p2205
aVtoo
p2206
aVsubtle
p2207
aVand
p2208
aVelusive
p2209
aVto
p2210
aVname
p2211
aV.
aa(lp2212
Vbut
p2213
aVshe
p2214
aVfelt
p2215
aVit
p2216
aV,
aVcreeping
p2217
aVout
p2218
aVof
p2219
aVthe
p2220
aVsky
p2221
aV,
aVreaching
p2222
aVtoward
p2223
aVher
p2224
aVthrough
p2225
aVthe
p2226
aVsounds
p2227
aV,
aVthe
p2228
aVscents
p2229
aV,
aVthe
p2230
aVcolor
p2231
aVthat
p2232
aVfilled
p2233
aVthe
p2234
aVair
p2235
aV.
aa(lp2236
Vnow
p2237
aVher
p2238
aVbosom
p2239
aVrose
p2240
aVand
p2241
aVfell
p2242
aVtumultuously
p2243
aV.
aa(lp2244
Vshe
p2245
aVwas
p2246
aVbeginning
p2247
aVto
p2248
aVrecognize
p2249
aVthis
p2250
aVthing
p2251
aVthat
p2252
aVwas
p2253
aVapproaching
p2254
aVto
p2255
aVpossess
p2256
aVher
p2257
aV,
aVand
p2258
aVshe
p2259
aVwas
p2260
aVstriving
p2261
aVto
p2262
aVbeat
p2263
aVit
p2264
aVback
p2265
aVwith
p2266
aVher
p2267
aVwill
p2268
aV--
p2269
aVas
p2270
aVpowerless
p2271
aVas
p2272
aVher
p2273
aVtwo
p2274
aVwhite
p2275
aVslender
p2276
aVhands
p2277
aVwould
p2278
aVhave
p2279
aVbeen
p2280
aV.
aa(lp2281
Vwhen
p2282
aVshe
p2283
aVabandoned
p2284
aVherself
p2285
aVa
aVlittle
p2286
aVwhispered
p2287
aVword
p2288
aVescaped
p2289
aVher
p2290
aVslightly
p2291
aVparted
p2292
aVlips
p2293
aV.
aa(lp2294
Vshe
p2295
aVsaid
p2296
aVit
p2297
aVover
p2298
aVand
p2299
aVover
p2300
aVunder
p2301
aVthe
p2302
aVbreath
p2303
aV:
aV``
p2304
aVfree
p2305
aV,
aVfree
p2306
aV,
aVfree
p2307
aV!
aV''
p2308
aa(lp2309
Vthe
p2310
aVvacant
p2311
aVstare
p2312
aVand
p2313
aVthe
p2314
aVlook
p2315
aVof
p2316
aVterror
p2317
aVthat
p2318
aVhad
p2319
aVfollowed
p2320
aVit
p2321
aVwent
p2322
aVfrom
p2323
aVher
p2324
aVeyes
p2325
aV.
aa(lp2326
Vthey
p2327
aVstayed
p2328
aVkeen
p2329
aVand
p2330
aVbright
p2331
aV.
aa(lp2332
Vher
p2333
aVpulses
p2334
aVbeat
p2335
aVfast
p2336
aV,
aVand
p2337
aVthe
p2338
aVcoursing
p2339
aVblood
p2340
aVwarmed
p2341
aVand
p2342
aVrelaxed
p2343
aVevery
p2344
aVinch
p2345
aVof
p2346
aVher
p2347
aVbody
p2348
aV.
aa(lp2349
Vshe
p2350
aVdid
p2351
aVnot
p2352
aVstop
p2353
aVto
p2354
aVask
p2355
aVif
p2356
aVit
p2357
aVwere
p2358
aVor
p2359
aVwere
p2360
aVnot
p2361
aVa
aVmonstrous
p2362
aVjoy
p2363
aVthat
p2364
aVheld
p2365
aVher
p2366
aV.
aa(lp2367
Va
aVclear
p2368
aVand
p2369
aVexalted
p2370
aVperception
p2371
aVenabled
p2372
aVher
p2373
aVto
p2374
aVdismiss
p2375
aVthe
p2376
aVsuggestion
p2377
aVas
p2378
aVtrivial
p2379
aV.
aa(lp2380
Vshe
p2381
aVknew
p2382
aVthat
p2383
aVshe
p2384
aVwould
p2385
aVweep
p2386
aVagain
p2387
aVwhen
p2388
aVshe
p2389
aVsaw
p2390
aVthe
p2391
aVkind
p2392
aV,
aVtender
p2393
aVhands
p2394
aVfolded
p2395
aVin
p2396
aVdeath
p2397
aV;
aVthe
p2398
aVface
p2399
aVthat
p2400
aVhad
p2401
aVnever
p2402
aVlooked
p2403
aVsave
p2404
aVwith
p2405
aVlove
p2406
aVupon
p2407
aVher
p2408
aV,
aVfixed
p2409
aVand
p2410
aVgray
p2411
aVand
p2412
aVdead
p2413
aV.
aa(lp2414
Vbut
p2415
aVshe
p2416
aVsaw
p2417
aVbeyond
p2418
aVthat
p2419
aVbitter
p2420
aVmoment
p2421
aVa
aVlong
p2422
aVprocession
p2423
aVof
p2424
aVyears
p2425
aVto
p2426
aVcome
p2427
aVthat
p2428
aVwould
p2429
aVbelong
p2430
aVto
p2431
aVher
p2432
aVabsolutely
p2433
aV.
aa(lp2434
Vand
p2435
aVshe
p2436
aVopened
p2437
aVand
p2438
aVspread
p2439
aVher
p2440
aVarms
p2441
aVout
p2442
aVto
p2443
aVthem
p2444
aVin
p2445
aVwelcome
p2446
aV.
aa(lp2447
Vthere
p2448
aVwould
p2449
aVbe
p2450
aVno
p2451
aVone
p2452
aVto
p2453
aVlive
p2454
aVfor
p2455
aVduring
p2456
aVthose
p2457
aVcoming
p2458
aVyears
p2459
aV;
aVshe
p2460
aVwould
p2461
aVlive
p2462
aVfor
p2463
aVherself
p2464
aV.
aa(lp2465
Vthere
p2466
aVwould
p2467
aVbe
p2468
aVno
p2469
aVpowerful
p2470
aVwill
p2471
aVbending
p2472
aVhers
p2473
aVin
p2474
aVthat
p2475
aVblind
p2476
aVpersistence
p2477
aVwith
p2478
aVwhich
p2479
aVmen
p2480
aVand
p2481
aVwomen
p2482
aVbelieve
p2483
aVthey
p2484
aVhave
p2485
aVa
aVright
p2486
aVto
p2487
aVimpose
p2488
aVa
aVprivate
p2489
aVwill
p2490
aVupon
p2491
aVa
aVfellow-creature
p2492
aV.
aa(lp2493
Va
aVkind
p2494
aVintention
p2495
aVor
p2496
aVa
aVcruel
p2497
aVintention
p2498
aVmade
p2499
aVthe
p2500
aVact
p2501
aVseem
p2502
aVno
p2503
aVless
p2504
aVa
aVcrime
p2505
aVas
p2506
aVshe
p2507
aVlooked
p2508
aVupon
p2509
aVit
p2510
aVin
p2511
aVthat
p2512
aVbrief
p2513
aVmoment
p2514
aVof
p2515
aVillumination
p2516
aV.
aa(lp2517
Vand
p2518
aVyet
p2519
aVshe
p2520
aVhad
p2521
aVloved
p2522
aVhim
p2523
aV--
p2524
aVsometimes
p2525
aV.
aa(lp2526
Voften
p2527
aVshe
p2528
aVhad
p2529
aVnot
p2530
aV.
aa(lp2531
Vwhat
p2532
aVdid
p2533
aVit
p2534
aVmatter
p2535
aV!
aa(lp2536
Vwhat
p2537
aVcould
p2538
aVlove
p2539
aV,
aVthe
p2540
aVunsolved
p2541
aVmystery
p2542
aV,
aVcount
p2543
aVfor
p2544
aVin
p2545
aVthe
p2546
aVface
p2547
aVof
p2548
aVthis
p2549
aVpossession
p2550
aVof
p2551
aVself-assertion
p2552
aVwhich
p2553
aVshe
p2554
aVsuddenly
p2555
aVrecognized
p2556
aVas
p2557
aVthe
p2558
aVstrongest
p2559
aVimpulse
p2560
aVof
p2561
aVher
p2562
aVbeing
p2563
aV!
aa(lp2564
V``
p2565
aVfree
p2566
aV!
aa(lp2567
Vbody
p2568
aVand
p2569
aVsoul
p2570
aVfree
p2571
aV!
aV''
p2572
aa(lp2573
Vshe
p2574
aVkept
p2575
aVwhispering
p2576
aV.
aa(lp2577
Vjosephine
p2578
aVwas
p2579
aVkneeling
p2580
aVbefore
p2581
aVthe
p2582
aVclosed
p2583
aVdoor
p2584
aVwith
p2585
aVher
p2586
aVlips
p2587
aVto
p2588
aVthe
p2589
aVkeyhole
p2590
aV,
aVimploring
p2591
aVfor
p2592
aVadmission
p2593
aV.
aa(lp2594
V``
p2595
aVlouise
p2596
aV,
aVopen
p2597
aVthe
p2598
aVdoor
p2599
aV!
aa(lp2600
Vi
aVbeg
p2601
aV;
aVopen
p2602
aVthe
p2603
aVdoor
p2604
aV--
p2605
aVyou
p2606
aVwill
p2607
aVmake
p2608
aVyourself
p2609
aVill.
p2610
aVwhat
p2611
aVare
p2612
aVyou
p2613
aVdoing
p2614
aV,
aVlouise
p2615
aV?
aa(lp2616
Vfor
p2617
aVheaven
p2618
aV's
p2619
aVsake
p2620
aVopen
p2621
aVthe
p2622
aVdoor
p2623
aV.
aV''
p2624
aa(lp2625
V``
p2626
aVgo
p2627
aVaway
p2628
aV.
aa(lp2629
Vi
aVam
p2630
aVnot
p2631
aVmaking
p2632
aVmyself
p2633
aVill.
p2634
aV''
p2635
aVno
p2636
aV;
aVshe
p2637
aVwas
p2638
aVdrinking
p2639
aVin
p2640
aVa
aVvery
p2641
aVelixir
p2642
aVof
p2643
aVlife
p2644
aVthrough
p2645
aVthat
p2646
aVopen
p2647
aVwindow
p2648
aV.
aa(lp2649
Vher
p2650
aVfancy
p2651
aVwas
p2652
aVrunning
p2653
aVriot
p2654
aValong
p2655
aVthose
p2656
aVdays
p2657
aVahead
p2658
aVof
p2659
aVher
p2660
aV.
aa(lp2661
Vspring
p2662
aVdays
p2663
aV,
aVand
p2664
aVsummer
p2665
aVdays
p2666
aV,
aVand
p2667
aVall
p2668
aVsorts
p2669
aVof
p2670
aVdays
p2671
aVthat
p2672
aVwould
p2673
aVbe
p2674
aVher
p2675
aVown
p2676
aV.
aa(lp2677
Vshe
p2678
aVbreathed
p2679
aVa
aVquick
p2680
aVprayer
p2681
aVthat
p2682
aVlife
p2683
aVmight
p2684
aVbe
p2685
aVlong
p2686
aV.
aa(lp2687
Vit
p2688
aVwas
p2689
aVonly
p2690
aVyesterday
p2691
aVshe
p2692
aVhad
p2693
aVthought
p2694
aVwith
p2695
aVa
aVshudder
p2696
aVthat
p2697
aVlife
p2698
aVmight
p2699
aVbe
p2700
aVlong
p2701
aV.
aa(lp2702
Vshe
p2703
aVarose
p2704
aVat
p2705
aVlength
p2706
aVand
p2707
aVopened
p2708
aVthe
p2709
aVdoor
p2710
aVto
p2711
aVher
p2712
aVsister
p2713
aV's
p2714
aVimportunities
p2715
aV.
aa(lp2716
Vthere
p2717
aVwas
p2718
aVa
aVfeverish
p2719
aVtriumph
p2720
aVin
p2721
aVher
p2722
aVeyes
p2723
aV,
aVand
p2724
aVshe
p2725
aVcarried
p2726
aVherself
p2727
aVunwittingly
p2728
aVlike
p2729
aVa
aVgoddess
p2730
aVof
p2731
aVvictory
p2732
aV.
aa(lp2733
Vshe
p2734
aVclasped
p2735
aVher
p2736
aVsister
p2737
aV's
p2738
aVwaist
p2739
aV,
aVand
p2740
aVtogether
p2741
aVthey
p2742
aVdescended
p2743
aVthe
p2744
aVstairs
p2745
aV.
aa(lp2746
Vrichards
p2747
aVstood
p2748
aVwaiting
p2749
aVfor
p2750
aVthem
p2751
aVat
p2752
aVthe
p2753
aVbottom
p2754
aV.
aa(lp2755
Vsomeone
p2756
aVwas
p2757
aVopening
p2758
aVthe
p2759
aVfront
p2760
aVdoor
p2761
aVwith
p2762
aVa
aVlatchkey
p2763
aV.
aa(lp2764
Vit
p2765
aVwas
p2766
aVbrently
p2767
aVmallard
p2768
aVwho
p2769
aVentered
p2770
aV,
aVa
aVlittle
p2771
aVtravel-
p2772
aVstained
p2773
aV,
aVcomposedly
p2774
aVcarrying
p2775
aVhis
p2776
aVgrip-sack
p2777
aVand
p2778
aVumbrella
p2779
aV.
aa(lp2780
Vhe
p2781
aVhad
p2782
aVbeen
p2783
aVfar
p2784
aVfrom
p2785
aVthe
p2786
aVscene
p2787
aVof
p2788
aVthe
p2789
aVaccident
p2790
aV,
aVand
p2791
aVdid
p2792
aVnot
p2793
aVeven
p2794
aVknow
p2795
aVthere
p2796
aVhad
p2797
aVbeen
p2798
aVone
p2799
aV.
aa(lp2800
Vhe
p2801
aVstood
p2802
aVamazed
p2803
aVat
p2804
aVjosephine
p2805
aV's
p2806
aVpiercing
p2807
aVcry
p2808
aV;
aVat
p2809
aVrichards
p2810
aV'
aVquick
p2811
aVmotion
p2812
aVto
p2813
aVscreen
p2814
aVhim
p2815
aVfrom
p2816
aVthe
p2817
aVview
p2818
aVof
p2819
aVhis
p2820
aVwife
p2821
aV.
aa(lp2822
Vwhen
p2823
aVthe
p2824
aVdoctors
p2825
aVcame
p2826
aVthey
p2827
aVsaid
p2828
aVshe
p2829
aVhad
p2830
aVdied
p2831
aVof
p2832
aVheart
p2833
aVdisease
p2834
aV--
p2835
aVof
p2836
aVthe
p2837
aVjoy
p2838
aVthat
p2839
aVkills
p2840
aV.
aa(lp2841
Vappointment
p2842
aVwith
p2843
aVlove
p2844
aVby
p2845
aVs.l
p2846
aVkishor
p2847
aVsix
p2848
aVminutes
p2849
aVto
p2850
aVsix
p2851
aV,
aVsaid
p2852
aVthe
p2853
aVgreat
p2854
aVround
p2855
aVclock
p2856
aVover
p2857
aVthe
p2858
aVinformation
p2859
aVbooth
p2860
aVin
p2861
aVgrand
p2862
aVcentral
p2863
aVstation
p2864
aV.
aa(lp2865
Vthe
p2866
aVtall
p2867
aVyoung
p2868
aVarmy
p2869
aVlieutenant
p2870
aVwho
p2871
aVhad
p2872
aVjust
p2873
aVcome
p2874
aVfrom
p2875
aVthe
p2876
aVdirection
p2877
aVof
p2878
aVthe
p2879
aVtracks
p2880
aVlifted
p2881
aVhis
p2882
aVsunburned
p2883
aVface
p2884
aV,
aVand
p2885
aVhis
p2886
aVeyes
p2887
aVnarrowed
p2888
aVto
p2889
aVnote
p2890
aVthe
p2891
aVexact
p2892
aVtime
p2893
aV.
aa(lp2894
Vhis
p2895
aVheart
p2896
aVwas
p2897
aVpounding
p2898
aVwith
p2899
aVa
aVbeat
p2900
aVthat
p2901
aVshocked
p2902
aVhim
p2903
aVbecause
p2904
aVhe
p2905
aVcould
p2906
aVnot
p2907
aVcontrol
p2908
aVit
p2909
aV.
aa(lp2910
Vin
p2911
aVsix
p2912
aVminutes
p2913
aVhe
p2914
aVwould
p2915
aVsee
p2916
aVthe
p2917
aVwoman
p2918
aVwho
p2919
aVhad
p2920
aVfilled
p2921
aVsuch
p2922
aVa
aVspecial
p2923
aVplace
p2924
aVin
p2925
aVhis
p2926
aVlife
p2927
aVfor
p2928
aVthe
p2929
aVpast
p2930
aVthirteen
p2931
aVmonths
p2932
aV,
aVthe
p2933
aVwoman
p2934
aVhe
p2935
aVhad
p2936
aVnever
p2937
aVseen
p2938
aV,
aVyet
p2939
aVwhose
p2940
aVwritten
p2941
aVwords
p2942
aVhad
p2943
aVbeen
p2944
aVwith
p2945
aVhim
p2946
aVand
p2947
aVsustained
p2948
aVhim
p2949
aVunfailingly
p2950
aV.
aa(lp2951
Vhe
p2952
aVplaced
p2953
aVhimself
p2954
aVas
p2955
aVclose
p2956
aVas
p2957
aVhe
p2958
aVcould
p2959
aVto
p2960
aVthe
p2961
aVinformation
p2962
aVbooth
p2963
aV,
aVjust
p2964
aVbeyond
p2965
aVthe
p2966
aVring
p2967
aVof
p2968
aVpeople
p2969
aVbesieging
p2970
aVthe
p2971
aVclerks
p2972
aV.
aa(lp2973
Vlieutenant
p2974
aVblandford
p2975
aVremembered
p2976
aVone
p2977
aVnight
p2978
aVin
p2979
aVparticular
p2980
aV,
aVthe
p2981
aVworst
p2982
aVof
p2983
aVthe
p2984
aVfighting
p2985
aV,
aVwhen
p2986
aVhis
p2987
aVplane
p2988
aVhad
p2989
aVbeen
p2990
aVcaught
p2991
aVin
p2992
aVthe
p2993
aVmidst
p2994
aVof
p2995
aVa
aVpack
p2996
aVof
p2997
aVzeros
p2998
aV.
aa(lp2999
Vhe
p3000
aVhad
p3001
aVseen
p3002
aVthe
p3003
aVgrinning
p3004
aVface
p3005
aVof
p3006
aVone
p3007
aVof
p3008
aVthe
p3009
aVenemy
p3010
aVpilots
p3011
aV.
aa(lp3012
Vin
p3013
aVone
p3014
aVof
p3015
aVhis
p3016
aVletters
p3017
aVhe
p3018
aVhad
p3019
aVconfessed
p3020
aVto
p3021
aVher
p3022
aVthat
p3023
aVhe
p3024
aVoften
p3025
aVfelt
p3026
aVfear
p3027
aV,
aVand
p3028
aVonly
p3029
aVa
aVfew
p3030
aVdays
p3031
aVbefore
p3032
aVthis
p3033
aVbattle
p3034
aV,
aVhe
p3035
aVhad
p3036
aVreceived
p3037
aVher
p3038
aVanswer
p3039
aV.
aa(lp3040
V``
p3041
aVof
p3042
aVcourse
p3043
aVyou
p3044
aVfear
p3045
aV...
p3046
aVall
p3047
aVbrave
p3048
aVmen
p3049
aVdo
p3050
aV.
aa(lp3051
Vdid
p3052
aVn't
p3053
aVking
p3054
aVdavid
p3055
aVknow
p3056
aVfear
p3057
aV?
aa(lp3058
Vthat
p3059
aV's
p3060
aVwhy
p3061
aVhe
p3062
aVwrote
p3063
aVthe
p3064
aVtwenty-third
p3065
aVpsalm
p3066
aV.
aa(lp3067
Vnext
p3068
aVtime
p3069
aVyou
p3070
aVdoubt
p3071
aVyourself
p3072
aV,
aVi
aVwant
p3073
aVyou
p3074
aVto
p3075
aVhear
p3076
aVmy
p3077
aVvoice
p3078
aVreciting
p3079
aVto
p3080
aVyou
p3081
aV:
aV``
p3082
aVyea
p3083
aV,
aVthough
p3084
aVi
aVwalk
p3085
aVthrough
p3086
aVthe
p3087
aVvalley
p3088
aVof
p3089
aVthe
p3090
aVshadow
p3091
aVof
p3092
aVdeath
p3093
aV,
aVi
aVshall
p3094
aVfear
p3095
aVno
p3096
aVevil
p3097
aV,
aVfor
p3098
aVthou
p3099
aVart
p3100
aVwith
p3101
aVme
p3102
aV...
p3103
aV''
p3104
aVand
p3105
aVhe
p3106
aVhad
p3107
aVremembered
p3108
aV,
aVhe
p3109
aVhad
p3110
aVheard
p3111
aVher
p3112
aVimagined
p3113
aVvoice
p3114
aV,
aVand
p3115
aVit
p3116
aVhad
p3117
aVrenewed
p3118
aVhis
p3119
aVstrength
p3120
aVand
p3121
aVskill
p3122
aV.
aa(lp3123
Vnow
p3124
aVhe
p3125
aVwas
p3126
aVgoing
p3127
aVto
p3128
aVhear
p3129
aVher
p3130
aVreal
p3131
aVvoice
p3132
aV.
aa(lp3133
Vfour
p3134
aVminutes
p3135
aVto
p3136
aVsix
p3137
aV.
aa(lp3138
Vhis
p3139
aVface
p3140
aVgrew
p3141
aVsharp
p3142
aV.
aa(lp3143
Vunder
p3144
aVthe
p3145
aVimmense
p3146
aV,
aVstarred
p3147
aVroof
p3148
aV,
aVpeople
p3149
aVwere
p3150
aVwalking
p3151
aVfast
p3152
aV,
aVlike
p3153
aVthreads
p3154
aVof
p3155
aVcolor
p3156
aVbeing
p3157
aVwoven
p3158
aVinto
p3159
aVa
aVgray
p3160
aVweb
p3161
aV.
aa(lp3162
Va
aVgirl
p3163
aVpassed
p3164
aVclose
p3165
aVto
p3166
aVhim
p3167
aVand
p3168
aVlieutenant
p3169
aVblandford
p3170
aVstarted
p3171
aV.
aa(lp3172
Vshe
p3173
aVwas
p3174
aVwearing
p3175
aVa
aVred
p3176
aVflower
p3177
aVin
p3178
aVher
p3179
aVsuit
p3180
aVlapel
p3181
aV,
aVbut
p3182
aVit
p3183
aVwas
p3184
aVa
aVcrimson
p3185
aVsweet
p3186
aVpea
p3187
aV,
aVnot
p3188
aVthe
p3189
aVlittle
p3190
aVred
p3191
aVrose
p3192
aVthey
p3193
aVhad
p3194
aVagreed
p3195
aVupon
p3196
aV.
aa(lp3197
Vbesides
p3198
aV,
aVthis
p3199
aVgirl
p3200
aVwas
p3201
aVtoo
p3202
aVyoung
p3203
aVabout
p3204
aVeighteen
p3205
aV,
aVwhereas
p3206
aVhollis
p3207
aVmeynell
p3208
aVhad
p3209
aVfrankly
p3210
aVtold
p3211
aVhim
p3212
aVshe
p3213
aVwas
p3214
aVthirty
p3215
aV.
aa(lp3216
V``
p3217
aVwell
p3218
aV,
aVwhat
p3219
aVof
p3220
aVit
p3221
aV?
aV''
p3222
aa(lp3223
Vhe
p3224
aVhad
p3225
aVanswered
p3226
aV.
aa(lp3227
V``
p3228
aVi
aV'm
p3229
aVthirty-two
p3230
aV.
aV''
p3231
aa(lp3232
Vhe
p3233
aVwas
p3234
aVtwenty-nine
p3235
aV.
aa(lp3236
Vhis
p3237
aVmind
p3238
aVwent
p3239
aVback
p3240
aVto
p3241
aVthat
p3242
aVbook
p3243
aV\u2014
aVthe
p3244
aVbook
p3245
aVthe
p3246
aVlord
p3247
aVhimself
p3248
aVmust
p3249
aVhave
p3250
aVput
p3251
aVinto
p3252
aVhis
p3253
aVhands
p3254
aVout
p3255
aVof
p3256
aVthe
p3257
aVhundreds
p3258
aVof
p3259
aVarmy
p3260
aVlibrary
p3261
aVbooks
p3262
aVsent
p3263
aVto
p3264
aVthe
p3265
aVflorida
p3266
aVtraining
p3267
aVcamp
p3268
aV,
aVof
p3269
aVhuman
p3270
aVbondage
p3271
aV,
aVit
p3272
aVwas
p3273
aV;
aVand
p3274
aVthroughout
p3275
aVthe
p3276
aVbook
p3277
aVwere
p3278
aVnotes
p3279
aVin
p3280
aVa
aVwoman
p3281
aV's
p3282
aVwriting
p3283
aV.
aa(lp3284
Vhe
p3285
aVhad
p3286
aValways
p3287
aVhated
p3288
aVthat
p3289
aVwriting-in-habit
p3290
aVbut
p3291
aVthese
p3292
aVremarks
p3293
aVwere
p3294
aVdifferent
p3295
aV.
aa(lp3296
Vhe
p3297
aVhad
p3298
aVnever
p3299
aVbelieved
p3300
aVthat
p3301
aVa
aVwoman
p3302
aVcould
p3303
aVsee
p3304
aVinto
p3305
aVa
aVman
p3306
aV's
p3307
aVheart
p3308
aVso
p3309
aVtenderly
p3310
aV,
aVso
p3311
aVunderstandingly
p3312
aV.
aa(lp3313
Vher
p3314
aVname
p3315
aVwas
p3316
aVthe
p3317
aVbookplate
p3318
aV:
aVhollis
p3319
aVmeynell
p3320
aV.
aa(lp3321
Vhe
p3322
aVhad
p3323
aVgot
p3324
aVhold
p3325
aVof
p3326
aVa
aVnew
p3327
aVyork
p3328
aVcity
p3329
aVtelephone
p3330
aVphone
p3331
aVbook
p3332
aVand
p3333
aVfound
p3334
aVher
p3335
aVaddress
p3336
aV.
aa(lp3337
Vhe
p3338
aVhad
p3339
aVwritten
p3340
aV,
aVshe
p3341
aVhad
p3342
aVanswer
p3343
aV.
aa(lp3344
Vnext
p3345
aVday
p3346
aVhe
p3347
aVhad
p3348
aVbeen
p3349
aVshipped
p3350
aVout
p3351
aVbut
p3352
aVthey
p3353
aVhad
p3354
aVgone
p3355
aVon
p3356
aVwriting
p3357
aV.
aa(lp3358
Vfor
p3359
aVthirteen
p3360
aVmonths
p3361
aV,
aVshe
p3362
aVhad
p3363
aVfaithfully
p3364
aVreplied
p3365
aV,
aVand
p3366
aVmore
p3367
aVthan
p3368
aVreply
p3369
aV.
aa(lp3370
Vwhen
p3371
aVhis
p3372
aVletters
p3373
aVdid
p3374
aVnot
p3375
aVarrive
p3376
aV,
aVshe
p3377
aVwrote
p3378
aVanyway
p3379
aV,
aVand
p3380
aVnow
p3381
aVhe
p3382
aVbelieved
p3383
aV|
aVloved
p3384
aVher
p3385
aV,
aVand
p3386
aVshe
p3387
aVloved
p3388
aVhim
p3389
aV.
aa(lp3390
Vbut
p3391
aVshe
p3392
aVhad
p3393
aVrefused
p3394
aVall
p3395
aVhis
p3396
aVpleas
p3397
aVto
p3398
aVsend
p3399
aVhim
p3400
aVher
p3401
aVphotograph
p3402
aV.
aa(lp3403
Vthat
p3404
aVseemed
p3405
aVrather
p3406
aVbad
p3407
aV,
aVof
p3408
aVcourse
p3409
aV.
aa(lp3410
Vbut
p3411
aVshe
p3412
aVhad
p3413
aVexplained
p3414
aV:
aV``
p3415
aVif
p3416
aVyour
p3417
aVfeeling
p3418
aVfor
p3419
aVme
p3420
aVhas
p3421
aVany
p3422
aVreality
p3423
aV,
aVany
p3424
aVhonest
p3425
aVbasis
p3426
aV,
aVwhat
p3427
aVi
aVlook
p3428
aVlike
p3429
aVwo
p3430
aVn't
p3431
aVmatter
p3432
aV.
aa(lp3433
Vsuppose
p3434
aVi
aV'm
p3435
aVbeautiful
p3436
aV.
aa(lp3437
Vi
aV'd
p3438
aValways
p3439
aVbe
p3440
aVhaunted
p3441
aVby
p3442
aVthe
p3443
aVfeeling
p3444
aVthat
p3445
aVyou
p3446
aVhad
p3447
aVbeen
p3448
aVtaking
p3449
aVchance
p3450
aVon
p3451
aVjust
p3452
aVthat
p3453
aV,
aVand
p3454
aVthat
p3455
aVkind
p3456
aVof
p3457
aVlove
p3458
aVwould
p3459
aVdisgust
p3460
aVme
p3461
aV.
aa(lp3462
Vsuppose
p3463
aVi\u2019m
p3464
aVplain
p3465
aV(
aVand
p3466
aVyou
p3467
aVmust
p3468
aVadmit
p3469
aVthat
p3470
aVthis
p3471
aVis
p3472
aVmore
p3473
aVlikely
p3474
aV)
aV.
aa(lp3475
Vthen
p3476
aVi
aV'd
p3477
aValways
p3478
aVfear
p3479
aVyou
p3480
aVwere
p3481
aVgoing
p3482
aVon
p3483
aVwriting
p3484
aVto
p3485
aVme
p3486
aVonly
p3487
aVbecause
p3488
aVyou
p3489
aVwere
p3490
aVlonely
p3491
aVand
p3492
aVhad
p3493
aVno
p3494
aVone
p3495
aVelse
p3496
aV.
aa(lp3497
Vno
p3498
aV,
aVdo
p3499
aVn't
p3500
aVask
p3501
aVfor
p3502
aVmy
p3503
aVpicture
p3504
aV.
aa(lp3505
Vwhen
p3506
aVyou
p3507
aVcome
p3508
aVto
p3509
aVnew
p3510
aVyork
p3511
aV,
aVyou
p3512
aVsee
p3513
aVme
p3514
aVand
p3515
aVthen
p3516
aVyou
p3517
aVshall
p3518
aVmake
p3519
aVyour
p3520
aVdecision
p3521
aV.
aa(lp3522
Vremember
p3523
aV,
aVboth
p3524
aVof
p3525
aVus
p3526
aVare
p3527
aVfree
p3528
aVto
p3529
aVstop
p3530
aVor
p3531
aVto
p3532
aVgo
p3533
aVon
p3534
aVafter
p3535
aVthat
p3536
aV\u2014
aVwhichever
p3537
aVwe
p3538
aVchoose
p3539
aV...
p3540
aV''
p3541
aVthe
p3542
aVgirl
p3543
aVin
p3544
aVthe
p3545
aVgreen
p3546
aVsuit
p3547
aVwas
p3548
aVwalking
p3549
aVquickly
p3550
aVaway
p3551
aV.
aa(lp3552
Vone
p3553
aVminute
p3554
aVto
p3555
aVsix
p3556
aV...
p3557
aVthen
p3558
aVlieutenant
p3559
aVblandford
p3560
aV's
p3561
aVheart
p3562
aVleaped
p3563
aVhigher
p3564
aVthan
p3565
aVhis
p3566
aVplane
p3567
aVhad
p3568
aVever
p3569
aVdone
p3570
aV.
aa(lp3571
Va
aVyoung
p3572
aVwoman
p3573
aVwas
p3574
aVcoming
p3575
aVtoward
p3576
aVhim
p3577
aV.
aa(lp3578
Vher
p3579
aVfigure
p3580
aVwas
p3581
aVlong
p3582
aVand
p3583
aVslim
p3584
aV,
aVher
p3585
aVblond
p3586
aVhair
p3587
aVlay
p3588
aVback
p3589
aVin
p3590
aVcurls
p3591
aVfrom
p3592
aVher
p3593
aVdelicate
p3594
aVears
p3595
aV.
aa(lp3596
Vher
p3597
aVeyes
p3598
aVwere
p3599
aVblue
p3600
aVflowers
p3601
aV;
aVher
p3602
aVlips
p3603
aVand
p3604
aVchin
p3605
aVhad
p3606
aVa
aVgentle
p3607
aVfirmness
p3608
aV.
aa(lp3609
Vin
p3610
aVher
p3611
aVpale
p3612
aVgreen
p3613
aVsuit
p3614
aVshe
p3615
aVwas
p3616
aVlike
p3617
aVspringtime
p3618
aVcome
p3619
aValive
p3620
aV.
aa(lp3621
Vhe
p3622
aVstarted
p3623
aVtoward
p3624
aVher
p3625
aV,
aVentirely
p3626
aVforgetting
p3627
aVto
p3628
aVnotice
p3629
aVthat
p3630
aVshe
p3631
aVwas
p3632
aVwearing
p3633
aVno
p3634
aVrose
p3635
aV,
aVand
p3636
aVas
p3637
aVhe
p3638
aVmoved
p3639
aV,
aVa
aVsmall
p3640
aV,
aVprovocative
p3641
aVsmile
p3642
aVcurved
p3643
aVher
p3644
aVlips
p3645
aV.
aa(lp3646
V``
p3647
aVgoing
p3648
aVmy
p3649
aVway
p3650
aV,
aVsoldier
p3651
aV?
aV''
p3652
aa(lp3653
Vshe
p3654
aVmurmured
p3655
aV.
aa(lp3656
Vuncontrollably
p3657
aV,
aVhe
p3658
aVmade
p3659
aVone
p3660
aVstep
p3661
aVcloser
p3662
aVto
p3663
aVher
p3664
aV.
aa(lp3665
Vthen
p3666
aVhe
p3667
aVsaw
p3668
aVho
p3669
aVmeynell
p3670
aV.
aa(lp3671
Vshe
p3672
aVwas
p3673
aVstanding
p3674
aValmost
p3675
aVdirectly
p3676
aVbehind
p3677
aVthe
p3678
aVgirl
p3679
aV,
aVa
aVwoman
p3680
aVwell
p3681
aVp
aVforty
p3682
aV,
aVher
p3683
aVgraying
p3684
aVhair
p3685
aVtucked
p3686
aVunder
p3687
aVa
aVworn
p3688
aVhat
p3689
aV.
aa(lp3690
Vshe
p3691
aVwas
p3692
aVmore
p3693
aVthan
p3694
aVplump
p3695
aV;
aVher
p3696
aVthick-ankled
p3697
aVfeet
p3698
aVwere
p3699
aVthrust
p3700
aVinto
p3701
aVlow-heeled
p3702
aVshoes
p3703
aV.
aa(lp3704
Vbut
p3705
aVwore
p3706
aVa
aVred
p3707
aVrose
p3708
aVin
p3709
aVthe
p3710
aVrumpled
p3711
aVlapel
p3712
aVof
p3713
aVher
p3714
aVbrown
p3715
aVcoat
p3716
aV.
aa(lp3717
Vthe
p3718
aVgirl
p3719
aVin
p3720
aVthe
p3721
aVgreen
p3722
aVsuit
p3723
aVwas
p3724
aVwalking
p3725
aVquickly
p3726
aVaway
p3727
aV.
aa(lp3728
Vblandford
p3729
aVfelt
p3730
aVas
p3731
aVthough
p3732
aVhe
p3733
aVwere
p3734
aVbeing
p3735
aVsplit
p3736
aVin
p3737
aVtwo
p3738
aV,
aVso
p3739
aVkeen
p3740
aVwas
p3741
aVhis
p3742
aVdesire
p3743
aVto
p3744
aVfollow
p3745
aVthe
p3746
aVgirl
p3747
aV,
aVyet
p3748
aVso
p3749
aVdeep
p3750
aVwas
p3751
aVhis
p3752
aVlonging
p3753
aVfor
p3754
aVthe
p3755
aVwoman
p3756
aVwhose
p3757
aVspirit
p3758
aVhad
p3759
aVtruly
p3760
aVcompanioned
p3761
aVand
p3762
aVupheld
p3763
aVhis
p3764
aVown
p3765
aV;
aVand
p3766
aVthere
p3767
aVshe
p3768
aVstood
p3769
aV.
aa(lp3770
Vher
p3771
aVpale
p3772
aV,
aVplump
p3773
aVface
p3774
aVwas
p3775
aVgentle
p3776
aVand
p3777
aVsensible
p3778
aV;
aVhe
p3779
aVcould
p3780
aVsee
p3781
aVthat
p3782
aVnow
p3783
aV.
aa(lp3784
Vher
p3785
aVgray
p3786
aVeyes
p3787
aVhad
p3788
aVa
aVwarm
p3789
aV,
aVkindly
p3790
aVtwinkle
p3791
aV.
aa(lp3792
Vlieutenant
p3793
aVblandford
p3794
aVdid
p3795
aVnot
p3796
aVhesitate
p3797
aV.
aa(lp3798
Vhis
p3799
aVfingers
p3800
aVgripped
p3801
aVthe
p3802
aVsmall
p3803
aV,
aVworn
p3804
aV,
aVblue
p3805
aVleather
p3806
aVcopy
p3807
aVof
p3808
aVof
p3809
aVhuman
p3810
aVbondage
p3811
aVwhich
p3812
aVwas
p3813
aVto
p3814
aVidentify
p3815
aVhim
p3816
aVto
p3817
aVher
p3818
aV.
aa(lp3819
Vthis
p3820
aVwould
p3821
aVnot
p3822
aVbe
p3823
aVlove
p3824
aV,
aVbut
p3825
aVit
p3826
aVwould
p3827
aVbe
p3828
aVsomething
p3829
aVprecious
p3830
aV,
aVsomething
p3831
aVperhaps
p3832
aVeven
p3833
aVrarer
p3834
aVthan
p3835
aVlove
p3836
aV\u2014
aVa
aVfriendship
p3837
aVfor
p3838
aVwhich
p3839
aVhe
p3840
aVhad
p3841
aVbeen
p3842
aVand
p3843
aVmust
p3844
aVever
p3845
aVbe
p3846
aVgrateful
p3847
aV...
p3848
aVhe
p3849
aVsquared
p3850
aVhis
p3851
aVbroad
p3852
aVshoulders
p3853
aV,
aVsaluted
p3854
aV,
aVand
p3855
aVheld
p3856
aVthe
p3857
aVbook
p3858
aVout
p3859
aVtoward
p3860
aVthe
p3861
aVwoman
p3862
aV,
aValthough
p3863
aVeven
p3864
aVwhile
p3865
aVhe
p3866
aVspoke
p3867
aVhe
p3868
aVfelt
p3869
aVchoked
p3870
aVby
p3871
aVthe
p3872
aVbitterness
p3873
aVof
p3874
aVhis
p3875
aVdisappointment
p3876
aV.
aa(lp3877
V``
p3878
aVi
aV'm
p3879
aVlieutenant
p3880
aVjohn
p3881
aVblandford
p3882
aV,
aVand
p3883
aVyou
p3884
aV\u2014
aVyou
p3885
aVare
p3886
aVmiss
p3887
aVmeynell
p3888
aV.
aa(lp3889
Vi
aV'm
p3890
aVso
p3891
aVglad
p3892
aVyou
p3893
aVcould
p3894
aVmeet
p3895
aVme
p3896
aV.
aa(lp3897
Vmay
p3898
aV-
aV\u2014
aVmay
p3899
aVi
aVtake
p3900
aVyou
p3901
aVto
p3902
aVdinner
p3903
aV?
aV''
p3904
aa(lp3905
Vthe
p3906
aVwoman
p3907
aV's
p3908
aVface
p3909
aVbroadened
p3910
aVin
p3911
aVa
aVtolerant
p3912
aVsmile
p3913
aV.
aa(lp3914
V``
p3915
aVi
aVdo
p3916
aVn't
p3917
aVknow
p3918
aVwhat
p3919
aVthis
p3920
aVis
p3921
aVall
p3922
aVabout
p3923
aV,
aVson
p3924
aV,
aV''
p3925
aVshe
p3926
aVanswered
p3927
aV.
aa(lp3928
V``
p3929
aVthat
p3930
aVyoung
p3931
aVlady
p3932
aVin
p3933
aVthe
p3934
aVgreen
p3935
aVsuit
p3936
aV\u2014
aVthe
p3937
aVone
p3938
aVwho
p3939
aVjust
p3940
aVwent
p3941
aVby
p3942
aV\u2014
aVbegged
p3943
aVme
p3944
aVto
p3945
aVwear
p3946
aVthis
p3947
aVrose
p3948
aVon
p3949
aVmy
p3950
aVcoat
p3951
aV.
aa(lp3952
Vand
p3953
aVshe
p3954
aVsaid
p3955
aVthat
p3956
aVif
p3957
aVyou
p3958
aVasked
p3959
aVme
p3960
aVto
p3961
aVgo
p3962
aVout
p3963
aVwith
p3964
aVyou
p3965
aV,
aVi
aVshould
p3966
aVtell
p3967
aVyou
p3968
aVthat
p3969
aVshe
p3970
aV's
p3971
aVwaiting
p3972
aVfor
p3973
aVyou
p3974
aVin
p3975
aVthat
p3976
aVbig
p3977
aVrestaurant
p3978
aVacross
p3979
aVthe
p3980
aVstreet
p3981
aV.
aa(lp3982
Vshe
p3983
aVsaid
p3984
aVit
p3985
aVwas
p3986
aVsome
p3987
aVkind
p3988
aVof
p3989
aVa
aVtest
p3990
aV.
aa(lp3991
Vi
aV've
p3992
aVgot
p3993
aVtwo
p3994
aVboys
p3995
aVwith
p3996
aVuncle
p3997
aVsam
p3998
aVmyself
p3999
aV,
aVso
p4000
aVi
aVdid
p4001
aVn't
p4002
aVmind
p4003
aVto
p4004
aVoblige
p4005
aVyou
p4006
aV.
aV''
p4007
aa(lp4008
Vthe
p4009
aVchaser
p4010
aVby
p4011
aVjohn
p4012
aVcollier
p4013
aValan
p4014
aVausten
p4015
aV,
aVas
p4016
aVnervous
p4017
aVas
p4018
aVa
aVkitten
p4019
aV,
aVwent
p4020
aVup
p4021
aVcertain
p4022
aVdark
p4023
aVand
p4024
aVcreaky
p4025
aVstairs
p4026
aVin
p4027
aVthe
p4028
aVneighborhood
p4029
aVof
p4030
aVpell
p4031
aVstreet
p4032
aV,
aVand
p4033
aVpeered
p4034
aVabout
p4035
aVfor
p4036
aVa
aVlong
p4037
aVtime
p4038
aVon
p4039
aVthe
p4040
aVdime
p4041
aVlanding
p4042
aVbefore
p4043
aVhe
p4044
aVfound
p4045
aVthe
p4046
aVname
p4047
aVhe
p4048
aVwanted
p4049
aVwritten
p4050
aVobscurely
p4051
aVon
p4052
aVone
p4053
aVof
p4054
aVthe
p4055
aVdoors
p4056
aV.
aa(lp4057
Vhe
p4058
aVpushed
p4059
aVopen
p4060
aVthis
p4061
aVdoor
p4062
aV,
aVas
p4063
aVhe
p4064
aVhad
p4065
aVbeen
p4066
aVtold
p4067
aVto
p4068
aVdo
p4069
aV,
aVand
p4070
aVfound
p4071
aVhimself
p4072
aVin
p4073
aVa
aVtiny
p4074
aVroom
p4075
aV,
aVwhich
p4076
aVcontained
p4077
aVno
p4078
aVfurniture
p4079
aVbut
p4080
aVa
aVplain
p4081
aVkitchen
p4082
aVtable
p4083
aV,
aVa
aVrocking-chair
p4084
aV,
aVand
p4085
aVan
p4086
aVordinary
p4087
aVchair
p4088
aV.
aa(lp4089
Von
p4090
aVone
p4091
aVof
p4092
aVthe
p4093
aVdirty
p4094
aVbuff-
p4095
aVcoloured
p4096
aVwalls
p4097
aVwere
p4098
aVa
aVcouple
p4099
aVof
p4100
aVshelves
p4101
aV,
aVcontaining
p4102
aVin
p4103
aVall
p4104
aVperhaps
p4105
aVa
aVdozen
p4106
aVbottles
p4107
aVand
p4108
aVjars
p4109
aV.
aa(lp4110
Van
p4111
aVold
p4112
aVman
p4113
aVsat
p4114
aVin
p4115
aVthe
p4116
aVrocking-chair
p4117
aV,
aVreading
p4118
aVa
aVnewspaper
p4119
aV.
aa(lp4120
Valan
p4121
aV,
aVwithout
p4122
aVa
aVword
p4123
aV,
aVhanded
p4124
aVhim
p4125
aVthe
p4126
aVcard
p4127
aVhe
p4128
aVhad
p4129
aVbeen
p4130
aVgiven
p4131
aV.
aa(lp4132
V``
p4133
aVsit
p4134
aVdown
p4135
aV,
aVmr.
p4136
aVausten
p4137
aV,
aV''
p4138
aVsaid
p4139
aVthe
p4140
aVold
p4141
aVman
p4142
aVvery
p4143
aVpolitely
p4144
aV.
aa(lp4145
V``
p4146
aVi
aVam
p4147
aVglad
p4148
aVto
p4149
aVmake
p4150
aVyour
p4151
aVacquaintance
p4152
aV.
aV''
p4153
aa(lp4154
V``
p4155
aVis
p4156
aVit
p4157
aVtrue
p4158
aV,
aV''
p4159
aVasked
p4160
aValan
p4161
aV,
aV``
p4162
aVthat
p4163
aVyou
p4164
aVhave
p4165
aVa
aVcertain
p4166
aVmixture
p4167
aVthat
p4168
aVhas-er-quite
p4169
aVextraordinary
p4170
aVeffects
p4171
aV?
aV''
p4172
aa(lp4173
V``
p4174
aVmy
p4175
aVdear
p4176
aVsir
p4177
aV,
aV''
p4178
aVreplied
p4179
aVthe
p4180
aVold
p4181
aVman
p4182
aV,
aV``
p4183
aVmy
p4184
aVstock
p4185
aVin
p4186
aVtrade
p4187
aVis
p4188
aVnot
p4189
aVvery
p4190
aVlarge-i
p4191
aVdo
p4192
aVn't
p4193
aVdeal
p4194
aVin
p4195
aVlaxatives
p4196
aVand
p4197
aVteething
p4198
aVmixtures-but
p4199
aVsuch
p4200
aVas
p4201
aVit
p4202
aVis
p4203
aV,
aVit
p4204
aVis
p4205
aVvaried
p4206
aV.
aa(lp4207
Vi
aVthink
p4208
aVnothing
p4209
aVi
aVsell
p4210
aVhas
p4211
aVeffects
p4212
aVwhich
p4213
aVcould
p4214
aVbe
p4215
aVprecisely
p4216
aVdescribed
p4217
aVas
p4218
aVordinary
p4219
aV.
aV''
p4220
aa(lp4221
V``
p4222
aVwell
p4223
aV,
aVthe
p4224
aVfact
p4225
aVis
p4226
aV.
aa(lp4227
V.
aa(lp4228
V.
aV''
p4229
aa(lp4230
Vbegan
p4231
aValan
p4232
aV.
aa(lp4233
V``
p4234
aVhere
p4235
aV,
aVfor
p4236
aVexample
p4237
aV,
aV''
p4238
aVinterrupted
p4239
aVthe
p4240
aVold
p4241
aVman
p4242
aV,
aVreaching
p4243
aVfor
p4244
aVa
aVbottle
p4245
aVfrom
p4246
aVthe
p4247
aVshelf
p4248
aV.
aa(lp4249
V``
p4250
aVhere
p4251
aVis
p4252
aVa
aVliquid
p4253
aVas
p4254
aVcolourless
p4255
aVas
p4256
aVwater
p4257
aV,
aValmost
p4258
aVtasteless
p4259
aV,
aVquite
p4260
aVimperceptible
p4261
aVin
p4262
aVcoffee
p4263
aV,
aVwine
p4264
aV,
aVor
p4265
aVany
p4266
aVother
p4267
aVbeverage
p4268
aV.
aa(lp4269
Vit
p4270
aVis
p4271
aValso
p4272
aVquite
p4273
aVimperceptible
p4274
aVto
p4275
aVany
p4276
aVknown
p4277
aVmethod
p4278
aVof
p4279
aVautopsy
p4280
aV.
aV''
p4281
aa(lp4282
V``
p4283
aVdo
p4284
aVyou
p4285
aVmean
p4286
aVit
p4287
aVis
p4288
aVa
aVpoison
p4289
aV?
aV''
p4290
aa(lp4291
Vcried
p4292
aValan
p4293
aV,
aVvery
p4294
aVmuch
p4295
aVhorrified
p4296
aV.
aa(lp4297
V``
p4298
aVcall
p4299
aVit
p4300
aVa
aVglove-cleaner
p4301
aVif
p4302
aVyou
p4303
aVlike
p4304
aV,
aV''
p4305
aVsaid
p4306
aVthe
p4307
aVold
p4308
aVman
p4309
aVindifferently
p4310
aV.
aa(lp4311
V``
p4312
aVmaybe
p4313
aVit
p4314
aVwill
p4315
aVclean
p4316
aVgloves
p4317
aV.
aa(lp4318
Vi
aVhave
p4319
aVnever
p4320
aVtried
p4321
aV.
aa(lp4322
Vone
p4323
aVmight
p4324
aVcall
p4325
aVit
p4326
aVa
aVlife-cleaner
p4327
aV.
aa(lp4328
Vlives
p4329
aVneed
p4330
aVcleaning
p4331
aVsometimes
p4332
aV.
aV''
p4333
aa(lp4334
V``
p4335
aVi
aVwant
p4336
aVnothing
p4337
aVof
p4338
aVthat
p4339
aVsort
p4340
aV,
aV''
p4341
aVsaid
p4342
aValan
p4343
aV.
aa(lp4344
V``
p4345
aVprobably
p4346
aVit
p4347
aVis
p4348
aVjust
p4349
aVas
p4350
aVwell
p4351
aV,
aV''
p4352
aVsaid
p4353
aVthe
p4354
aVold
p4355
aVman
p4356
aV.
aa(lp4357
V``
p4358
aVdo
p4359
aVyou
p4360
aVknow
p4361
aVthe
p4362
aVprice
p4363
aVof
p4364
aVthis
p4365
aV?
aa(lp4366
Vfor
p4367
aVone
p4368
aVteaspoonful
p4369
aV,
aVwhich
p4370
aVis
p4371
aVsufficient
p4372
aV,
aVi
aVask
p4373
aVfive
p4374
aVthousand
p4375
aVdollars
p4376
aV.
aa(lp4377
Vnever
p4378
aVless
p4379
aV.
aa(lp4380
Vnot
p4381
aVa
aVpenny
p4382
aVless
p4383
aV.
aV''
p4384
aa(lp4385
V``
p4386
aVi
aVhope
p4387
aVall
p4388
aVyour
p4389
aVmixtures
p4390
aVare
p4391
aVnot
p4392
aVas
p4393
aVexpensive
p4394
aV,
aV''
p4395
aVsaid
p4396
aValan
p4397
aVapprehensively
p4398
aV.
aa(lp4399
V``
p4400
aVoh
p4401
aVdear
p4402
aV,
aVno
p4403
aV,
aV''
p4404
aVsaid
p4405
aVthe
p4406
aVold
p4407
aVman
p4408
aV.
aa(lp4409
V``
p4410
aVit
p4411
aVwould
p4412
aVbe
p4413
aVno
p4414
aVgood
p4415
aVcharging
p4416
aVthat
p4417
aVsort
p4418
aVof
p4419
aVprice
p4420
aVfor
p4421
aVa
aVlove
p4422
aVpotion
p4423
aV,
aVfor
p4424
aVexample
p4425
aV.
aa(lp4426
Vyoung
p4427
aVpeople
p4428
aVwho
p4429
aVneed
p4430
aVa
aVlove
p4431
aVpotion
p4432
aVvery
p4433
aVseldom
p4434
aVhave
p4435
aVfive
p4436
aVthousand
p4437
aVdollars
p4438
aV.
aa(lp4439
Votherwise
p4440
aVthey
p4441
aVwould
p4442
aVnot
p4443
aVneed
p4444
aVa
aVlove
p4445
aVpotion
p4446
aV.
aV''
p4447
aa(lp4448
V``
p4449
aVi
aVam
p4450
aVglad
p4451
aVto
p4452
aVhear
p4453
aVthat
p4454
aV,
aV''
p4455
aVsaid
p4456
aValan
p4457
aV.
aa(lp4458
V``
p4459
aVi
aVlook
p4460
aVat
p4461
aVit
p4462
aVlike
p4463
aVthis
p4464
aV,
aV''
p4465
aVsaid
p4466
aVthe
p4467
aVold
p4468
aVman
p4469
aV.
aa(lp4470
V``
p4471
aVplease
p4472
aVa
aVcustomer
p4473
aVwith
p4474
aVone
p4475
aVarticle
p4476
aV,
aVand
p4477
aVhe
p4478
aVwill
p4479
aVcome
p4480
aVback
p4481
aVwhen
p4482
aVhe
p4483
aVneeds
p4484
aVanother
p4485
aV.
aa(lp4486
Veven
p4487
aVif
p4488
aVit
p4489
aVis
p4490
aVmore
p4491
aVcostly
p4492
aV.
aa(lp4493
Vhe
p4494
aVwill
p4495
aVsave
p4496
aVup
p4497
aVfor
p4498
aVit
p4499
aV,
aVif
p4500
aVnecessary
p4501
aV.
aV''
p4502
aa(lp4503
V``
p4504
aVso
p4505
aV,
aV''
p4506
aVsaid
p4507
aValan
p4508
aV,
aV``
p4509
aVyou
p4510
aVreally
p4511
aVdo
p4512
aVsell
p4513
aVlove
p4514
aVpotions
p4515
aV?
aV''
p4516
aa(lp4517
V``
p4518
aVif
p4519
aVi
aVdid
p4520
aVnot
p4521
aVsell
p4522
aVlove
p4523
aVpotions
p4524
aV,
aV''
p4525
aVsaid
p4526
aVthe
p4527
aVold
p4528
aVman
p4529
aV,
aVreaching
p4530
aVfor
p4531
aVanother
p4532
aVbottle
p4533
aV,
aV``
p4534
aVi
aVshould
p4535
aVnot
p4536
aVhave
p4537
aVmentioned
p4538
aVthe
p4539
aVother
p4540
aVmatter
p4541
aVto
p4542
aVyou
p4543
aV.
aa(lp4544
Vit
p4545
aVis
p4546
aVonly
p4547
aVwhen
p4548
aVone
p4549
aVis
p4550
aVin
p4551
aVa
aVposition
p4552
aVto
p4553
aVoblige
p4554
aVthat
p4555
aVone
p4556
aVcan
p4557
aVafford
p4558
aVto
p4559
aVbe
p4560
aVso
p4561
aVconfidential
p4562
aV.
aV''
p4563
aa(lp4564
V``
p4565
aVand
p4566
aVthese
p4567
aVpotions
p4568
aV,
aV''
p4569
aVsaid
p4570
aValan
p4571
aV.
aa(lp4572
V``
p4573
aVthey
p4574
aVare
p4575
aVnot
p4576
aVjust-just-er-
p4577
aV''
p4578
aV''
p4579
aVoh
p4580
aV,
aVno
p4581
aV,
aV''
p4582
aVsaid
p4583
aVthe
p4584
aVold
p4585
aVman
p4586
aV.
aa(lp4587
V``
p4588
aVtheir
p4589
aVeffects
p4590
aVare
p4591
aVpermanent
p4592
aV,
aVand
p4593
aVextend
p4594
aVfar
p4595
aVbeyond
p4596
aVthe
p4597
aVmere
p4598
aVcasual
p4599
aVimpulse
p4600
aV.
aa(lp4601
Vbut
p4602
aVthey
p4603
aVinclude
p4604
aVit
p4605
aV.
aa(lp4606
Voh
p4607
aV,
aVyes
p4608
aVthey
p4609
aVinclude
p4610
aVit
p4611
aV.
aa(lp4612
Vbountifully
p4613
aV,
aVinsistently
p4614
aV.
aa(lp4615
Veverlastingly
p4616
aV.
aV''
p4617
aa(lp4618
V``
p4619
aVdear
p4620
aVme
p4621
aV!
aV''
p4622
aa(lp4623
Vsaid
p4624
aValan
p4625
aV,
aVattempting
p4626
aVa
aVlook
p4627
aVof
p4628
aVscientific
p4629
aVdetachment
p4630
aV.
aa(lp4631
V``
p4632
aVhow
p4633
aVvery
p4634
aVinteresting
p4635
aV!
aV''
p4636
aa(lp4637
V``
p4638
aVbut
p4639
aVconsider
p4640
aVthe
p4641
aVspiritual
p4642
aVside
p4643
aV,
aV''
p4644
aVsaid
p4645
aVthe
p4646
aVold
p4647
aVman
p4648
aV.
aa(lp4649
V``
p4650
aVi
aVdo
p4651
aV,
aVindeed
p4652
aV,
aV''
p4653
aVsaid
p4654
aValan
p4655
aV.
aa(lp4656
V``
p4657
aVfor
p4658
aVindifference
p4659
aV,
aV''
p4660
aVsaid
p4661
aVthe
p4662
aVold
p4663
aVman
p4664
aV,
aVthey
p4665
aVsubstitute
p4666
aVdevotion
p4667
aV.
aa(lp4668
Vfor
p4669
aVscorn
p4670
aV,
aVadoration
p4671
aV.
aa(lp4672
Vgive
p4673
aVone
p4674
aVtiny
p4675
aVmeasure
p4676
aVof
p4677
aVthis
p4678
aVto
p4679
aVthe
p4680
aVyoung
p4681
aVlady-its
p4682
aVflavour
p4683
aVis
p4684
aVimperceptible
p4685
aVin
p4686
aVorange
p4687
aVjuice
p4688
aV,
aVsoup
p4689
aV,
aVor
p4690
aVcocktails-and
p4691
aVhowever
p4692
aVgay
p4693
aVand
p4694
aVgiddy
p4695
aVshe
p4696
aVis
p4697
aV,
aVshe
p4698
aVwill
p4699
aVchange
p4700
aValtogether
p4701
aV.
aa(lp4702
Vshe
p4703
aVwill
p4704
aVwant
p4705
aVnothing
p4706
aVbut
p4707
aVsolitude
p4708
aVand
p4709
aVyou
p4710
aV.
aV''
p4711
aa(lp4712
V``
p4713
aVi
aVcan
p4714
aVhardly
p4715
aVbelieve
p4716
aVit
p4717
aV,
aV''
p4718
aVsaid
p4719
aValan
p4720
aV.
aa(lp4721
V``
p4722
aVshe
p4723
aVis
p4724
aVso
p4725
aVfond
p4726
aVof
p4727
aVparties
p4728
aV.
aV''
p4729
aa(lp4730
V``
p4731
aVshe
p4732
aVwill
p4733
aVnot
p4734
aVlike
p4735
aVthem
p4736
aVany
p4737
aVmore
p4738
aV,
aV''
p4739
aVsaid
p4740
aVthe
p4741
aVold
p4742
aVman
p4743
aV.
aa(lp4744
V``
p4745
aVshe
p4746
aVwill
p4747
aVbe
p4748
aVafraid
p4749
aVof
p4750
aVthe
p4751
aVpretty
p4752
aVgirls
p4753
aVyou
p4754
aVmay
p4755
aVmeet
p4756
aV.
aV''
p4757
aa(lp4758
V``
p4759
aVshe
p4760
aVwill
p4761
aVactually
p4762
aVbe
p4763
aVjealous
p4764
aV?
aV''
p4765
aa(lp4766
Vcried
p4767
aValan
p4768
aVin
p4769
aVa
aVrapture
p4770
aV.
aa(lp4771
V``
p4772
aVof
p4773
aVme
p4774
aV?
aV''
p4775
aa(lp4776
V``
p4777
aVyes
p4778
aV,
aVshe
p4779
aVwill
p4780
aVwant
p4781
aVto
p4782
aVbe
p4783
aVeverything
p4784
aVto
p4785
aVyou
p4786
aV.
aV''
p4787
aa(lp4788
V``
p4789
aVshe
p4790
aVis
p4791
aV,
aValready
p4792
aV.
aa(lp4793
Vonly
p4794
aVshe
p4795
aVdoes
p4796
aVn't
p4797
aVcare
p4798
aVabout
p4799
aVit
p4800
aV.
aV''
p4801
aa(lp4802
V``
p4803
aVshe
p4804
aVwill
p4805
aV,
aVwhen
p4806
aVshe
p4807
aVhas
p4808
aVtaken
p4809
aVthis
p4810
aV.
aa(lp4811
Vshe
p4812
aVwill
p4813
aVcare
p4814
aVintensely
p4815
aV.
aa(lp4816
Vyou
p4817
aVwill
p4818
aVbe
p4819
aVher
p4820
aVsole
p4821
aVinterest
p4822
aVin
p4823
aVlife
p4824
aV.
aV''
p4825
aa(lp4826
V``
p4827
aVwonderful
p4828
aV!
aV''
p4829
aa(lp4830
Vcried
p4831
aValan
p4832
aV.
aa(lp4833
V``
p4834
aVshe
p4835
aVwill
p4836
aVwant
p4837
aVto
p4838
aVknow
p4839
aVall
p4840
aVyou
p4841
aVdo
p4842
aV,
aV''
p4843
aVsaid
p4844
aVthe
p4845
aVold
p4846
aVman
p4847
aV.
aa(lp4848
V``
p4849
aVall
p4850
aVthat
p4851
aVhas
p4852
aVhappened
p4853
aVto
p4854
aVyou
p4855
aVduring
p4856
aVthe
p4857
aVday
p4858
aV.
aa(lp4859
Vevery
p4860
aVword
p4861
aVof
p4862
aVit
p4863
aV.
aa(lp4864
Vshe
p4865
aVwill
p4866
aVwant
p4867
aVto
p4868
aVknow
p4869
aVwhat
p4870
aVyou
p4871
aVare
p4872
aVthinking
p4873
aVabout
p4874
aV,
aVwhy
p4875
aVyou
p4876
aVsmile
p4877
aVsuddenly
p4878
aV,
aVwhy
p4879
aVyou
p4880
aVare
p4881
aVlooking
p4882
aVsad
p4883
aV.
aV''
p4884
aa(lp4885
V``
p4886
aVthat
p4887
aVis
p4888
aVlove
p4889
aV!
aV''
p4890
aa(lp4891
Vcried
p4892
aValan
p4893
aV.
aa(lp4894
V``
p4895
aVyes
p4896
aV,
aV''
p4897
aVsaid
p4898
aVthe
p4899
aVold
p4900
aVman
p4901
aV.
aa(lp4902
V``
p4903
aVhow
p4904
aVcarefully
p4905
aVshe
p4906
aVwill
p4907
aVlook
p4908
aVafter
p4909
aVyou
p4910
aV!
aa(lp4911
Vshe
p4912
aVwill
p4913
aVnever
p4914
aVallow
p4915
aVyou
p4916
aVto
p4917
aVbe
p4918
aVtired
p4919
aV,
aVto
p4920
aVsit
p4921
aVin
p4922
aVa
aVdraught
p4923
aV,
aVto
p4924
aVneglect
p4925
aVyour
p4926
aVfood
p4927
aV.
aa(lp4928
Vif
p4929
aVyou
p4930
aVare
p4931
aVan
p4932
aVhour
p4933
aVlate
p4934
aV,
aVshe
p4935
aVwill
p4936
aVbe
p4937
aVterrified
p4938
aV.
aa(lp4939
Vshe
p4940
aVwill
p4941
aVthink
p4942
aVyou
p4943
aVare
p4944
aVkilled
p4945
aV,
aVor
p4946
aVthat
p4947
aVsome
p4948
aVsiren
p4949
aVhas
p4950
aVcaught
p4951
aVyou
p4952
aV.
aV''
p4953
aa(lp4954
V``
p4955
aVi
aVcan
p4956
aVhardly
p4957
aVimagine
p4958
aVdiana
p4959
aVlike
p4960
aVthat
p4961
aV!
aV''
p4962
aa(lp4963
Vcried
p4964
aValan
p4965
aV,
aVoverwhelmed
p4966
aVwith
p4967
aVjoy
p4968
aV.
aa(lp4969
V``
p4970
aVyou
p4971
aVwill
p4972
aVnot
p4973
aVhave
p4974
aVto
p4975
aVuse
p4976
aVyour
p4977
aVimagination
p4978
aV,
aV''
p4979
aVsaid
p4980
aVthe
p4981
aVold
p4982
aVman
p4983
aV.
aa(lp4984
V``
p4985
aVand
p4986
aV,
aVby
p4987
aVthe
p4988
aVway
p4989
aV,
aVsince
p4990
aVthere
p4991
aVare
p4992
aValways
p4993
aVsirens
p4994
aV,
aVif
p4995
aVby
p4996
aVany
p4997
aVchance
p4998
aVyou
p4999
aVshould
p5000
aV,
aVlater
p5001
aVon
p5002
aV,
aVslip
p5003
aVa
aVlittle
p5004
aV,
aVyou
p5005
aVneed
p5006
aVnot
p5007
aVworry
p5008
aV.
aa(lp5009
Vshe
p5010
aVwill
p5011
aVforgive
p5012
aVyou
p5013
aV,
aVin
p5014
aVthe
p5015
aVend
p5016
aV.
aa(lp5017
Vshe
p5018
aVwill
p5019
aVbe
p5020
aVterribly
p5021
aVhurt
p5022
aV,
aVof
p5023
aVcourse
p5024
aV,
aVbut
p5025
aVshe
p5026
aVwill
p5027
aVforgive
p5028
aVyou-in
p5029
aVthe
p5030
aVend
p5031
aV.
aV''
p5032
aa(lp5033
V``
p5034
aVthat
p5035
aVwill
p5036
aVnot
p5037
aVhappen
p5038
aV,
aV''
p5039
aVsaid
p5040
aValan
p5041
aVfervently
p5042
aV.
aa(lp5043
V``
p5044
aVof
p5045
aVcourse
p5046
aVnot
p5047
aV,
aV''
p5048
aVsaid
p5049
aVthe
p5050
aVold
p5051
aVman
p5052
aV.
aa(lp5053
V``
p5054
aVbut
p5055
aV,
aVif
p5056
aVit
p5057
aVdid
p5058
aV,
aVyou
p5059
aVneed
p5060
aVnot
p5061
aVworry
p5062
aV.
aa(lp5063
Vshe
p5064
aVwould
p5065
aVnever
p5066
aVdivorce
p5067
aVyou
p5068
aV.
aa(lp5069
Voh
p5070
aV,
aVno
p5071
aV!
aa(lp5072
Vand
p5073
aV,
aVof
p5074
aVcourse
p5075
aV,
aVshe
p5076
aVwill
p5077
aVnever
p5078
aVgive
p5079
aVyou
p5080
aVthe
p5081
aVleast
p5082
aV,
aVthe
p5083
aVvery
p5084
aVleast
p5085
aV,
aVgrounds
p5086
aVfor
p5087
aVuneasiness
p5088
aV.
aV''
p5089
aa(lp5090
V``
p5091
aVand
p5092
aVhow
p5093
aVmuch
p5094
aV,
aV''
p5095
aVsaid
p5096
aValan
p5097
aV,
aV``
p5098
aVis
p5099
aVthis
p5100
aVwonderful
p5101
aVmixture
p5102
aV?
aV''
p5103
aa(lp5104
V``
p5105
aVit
p5106
aVis
p5107
aVnot
p5108
aVas
p5109
aVdear
p5110
aV,
aV''
p5111
aVsaid
p5112
aVthe
p5113
aVold
p5114
aVman
p5115
aV,
aV``
p5116
aVas
p5117
aVthe
p5118
aVglove-cleaner
p5119
aV,
aVor
p5120
aVlife-cleaner
p5121
aV,
aVas
p5122
aVi
aVsometimes
p5123
aVcall
p5124
aVit
p5125
aV.
aa(lp5126
Vno
p5127
aV.
aa(lp5128
Vthat
p5129
aVis
p5130
aVfive
p5131
aVthousand
p5132
aVdollars
p5133
aV,
aVnever
p5134
aVa
aVpenny
p5135
aVless
p5136
aV.
aa(lp5137
Vone
p5138
aVhas
p5139
aVto
p5140
aVbe
p5141
aVolder
p5142
aVthan
p5143
aVyou
p5144
aVare
p5145
aV,
aVto
p5146
aVindulge
p5147
aVin
p5148
aVthat
p5149
aVsort
p5150
aVof
p5151
aVthing
p5152
aV.
aa(lp5153
Vone
p5154
aVhas
p5155
aVto
p5156
aVsave
p5157
aVup
p5158
aVfor
p5159
aVit
p5160
aV.
aV''
p5161
aa(lp5162
V``
p5163
aVbut
p5164
aVthe
p5165
aVlove
p5166
aVpotion
p5167
aV?
aV''
p5168
aa(lp5169
Vsaid
p5170
aValan
p5171
aV.
aa(lp5172
V``
p5173
aVoh
p5174
aV,
aVthat
p5175
aV,
aV''
p5176
aVsaid
p5177
aVthe
p5178
aVold
p5179
aVman
p5180
aV,
aVopening
p5181
aVthe
p5182
aVdrawer
p5183
aVin
p5184
aVthe
p5185
aVkitchen
p5186
aVtable
p5187
aV,
aVand
p5188
aVtaking
p5189
aVout
p5190
aVa
aVtiny
p5191
aV,
aVrather
p5192
aVdirty-
p5193
aVlooking
p5194
aVphial
p5195
aV.
aa(lp5196
V``
p5197
aVthat
p5198
aVis
p5199
aVjust
p5200
aVa
aVdollar
p5201
aV.
aV''
p5202
aa(lp5203
V``
p5204
aVi
aVca
p5205
aVn't
p5206
aVtell
p5207
aVyou
p5208
aVhow
p5209
aVgrateful
p5210
aVi
aVam
p5211
aV,
aV''
p5212
aVsaid
p5213
aValan
p5214
aV,
aVwatching
p5215
aVhim
p5216
aVfill
p5217
aVit
p5218
aV.
aa(lp5219
V``
p5220
aVi
aVlike
p5221
aVto
p5222
aVoblige
p5223
aV,
aV''
p5224
aVsaid
p5225
aVthe
p5226
aVold
p5227
aVman
p5228
aV.
aa(lp5229
V``
p5230
aVthen
p5231
aVcustomers
p5232
aVcome
p5233
aVback
p5234
aV,
aVlater
p5235
aVin
p5236
aVlife
p5237
aV,
aVwhen
p5238
aVthey
p5239
aVare
p5240
aVbetter
p5241
aVoff
p5242
aV,
aVand
p5243
aVwant
p5244
aVmore
p5245
aVexpensive
p5246
aVthings
p5247
aV.
aa(lp5248
Vhere
p5249
aVyou
p5250
aVare
p5251
aV.
aa(lp5252
Vyou
p5253
aVwill
p5254
aVfind
p5255
aVit
p5256
aVvery
p5257
aVeffective
p5258
aV.
aV''
p5259
aa(lp5260
V``
p5261
aVthank
p5262
aVyou
p5263
aVagain
p5264
aV,
aV''
p5265
aVsaid
p5266
aValan
p5267
aV.
aa(lp5268
V``
p5269
aVgood-bye
p5270
aV.
aV''
p5271
aa(lp5272
V``
p5273
aVau
p5274
aVrevoir
p5275
aV,
aV''
p5276
aVsaid
p5277
aVthe
p5278
aVman
p5279
aV.
aa(lp5280
Vthe
p5281
aVjockey
p5282
aVby
p5283
aVcarson
p5284
aVmccullers
p5285
aVthe
p5286
aVjockey
p5287
aVcame
p5288
aVto
p5289
aVthe
p5290
aVdoorway
p5291
aVof
p5292
aVthe
p5293
aVdining
p5294
aVroom
p5295
aV,
aVthen
p5296
aVafter
p5297
aVa
aVmoment
p5298
aVstepped
p5299
aVto
p5300
aVone
p5301
aVside
p5302
aVand
p5303
aVstood
p5304
aVmotionless
p5305
aV,
aVwith
p5306
aVhis
p5307
aVback
p5308
aVto
p5309
aVthe
p5310
aVwall
p5311
aV.
aa(lp5312
Vthe
p5313
aVroom
p5314
aVwas
p5315
aVcrowded
p5316
aV,
aVas
p5317
aVthis
p5318
aVwas
p5319
aVthe
p5320
aVthird
p5321
aVday
p5322
aVof
p5323
aVthe
p5324
aVseason
p5325
aVand
p5326
aVall
p5327
aVthe
p5328
aVhotels
p5329
aVin
p5330
aVthe
p5331
aVtown
p5332
aVwere
p5333
aVfull
p5334
aV.
aa(lp5335
Vin
p5336
aVthe
p5337
aVdining
p5338
aVroom
p5339
aVbouquets
p5340
aVof
p5341
aVaugust
p5342
aVroses
p5343
aVscattered
p5344
aVtheir
p5345
aVpetals
p5346
aVon
p5347
aVthe
p5348
aVwhite
p5349
aVtable
p5350
aVlinen
p5351
aVand
p5352
aVfrom
p5353
aVthe
p5354
aVadjoining
p5355
aVbar
p5356
aVcame
p5357
aVa
aVwarm
p5358
aV,
aVdrunken
p5359
aVwash
p5360
aVof
p5361
aVvoices
p5362
aV.
aa(lp5363
Vthe
p5364
aVjockey
p5365
aVwaited
p5366
aVwith
p5367
aVhis
p5368
aVback
p5369
aVto
p5370
aVthe
p5371
aVwall
p5372
aVand
p5373
aVscrutinized
p5374
aVthe
p5375
aVroom
p5376
aVwith
p5377
aVpinched
p5378
aV,
aVcrpy
p5379
aVeyes
p5380
aV.
aa(lp5381
Vhe
p5382
aVexamined
p5383
aVthe
p5384
aVroom
p5385
aVuntil
p5386
aVat
p5387
aVlast
p5388
aVhis
p5389
aVeyes
p5390
aVreached
p5391
aVa
aVtable
p5392
aVin
p5393
aVa
aVcorner
p5394
aVdiagonally
p5395
aVacross
p5396
aVfrom
p5397
aVhim
p5398
aV,
aVat
p5399
aVwhich
p5400
aVthree
p5401
aVmen
p5402
aVwere
p5403
aVsitting
p5404
aV.
aa(lp5405
Vas
p5406
aVhe
p5407
aVwatched
p5408
aV,
aVthe
p5409
aVjockey
p5410
aVraised
p5411
aVhis
p5412
aVchin
p5413
aVand
p5414
aVtilted
p5415
aVhis
p5416
aVhead
p5417
aVback
p5418
aVto
p5419
aVone
p5420
aVside
p5421
aV,
aVhis
p5422
aVdwarfed
p5423
aVbody
p5424
aVgrew
p5425
aVrigid
p5426
aV,
aVand
p5427
aVhis
p5428
aVhands
p5429
aVstiffened
p5430
aVso
p5431
aVthat
p5432
aVthe
p5433
aVfingers
p5434
aVcurled
p5435
aVinward
p5436
aVlike
p5437
aVgray
p5438
aVclaws
p5439
aV.
aa(lp5440
Vtense
p5441
aVagainst
p5442
aVthe
p5443
aVwall
p5444
aVof
p5445
aVthe
p5446
aVdining
p5447
aVroom
p5448
aV,
aVhe
p5449
aVwatched
p5450
aVand
p5451
aVwaited
p5452
aVin
p5453
aVthis
p5454
aVway
p5455
aV.
aa(lp5456
Vhe
p5457
aVwas
p5458
aVwearing
p5459
aVa
aVsuit
p5460
aVof
p5461
aVgreen
p5462
aVchinese
p5463
aVsilk
p5464
aVthat
p5465
aVevening
p5466
aV,
aVtailored
p5467
aVprecisely
p5468
aVand
p5469
aVthe
p5470
aVsize
p5471
aVof
p5472
aVa
aVcostume
p5473
aVoutfit
p5474
aVfor
p5475
aVa
aVchild
p5476
aV.
aa(lp5477
Vthe
p5478
aVshirt
p5479
aVwas
p5480
aVyellow
p5481
aV,
aVthe
p5482
aVtie
p5483
aVstriped
p5484
aVwith
p5485
aVpastel
p5486
aVcolors
p5487
aV.
aa(lp5488
Vhe
p5489
aVhad
p5490
aVno
p5491
aVhat
p5492
aVwith
p5493
aVhim
p5494
aVand
p5495
aVwore
p5496
aVhis
p5497
aVhair
p5498
aVbrushed
p5499
aVdown
p5500
aVin
p5501
aVa
aVstiff
p5502
aV,
aVwet
p5503
aVbang
p5504
aVon
p5505
aVhis
p5506
aVforehead
p5507
aV.
aa(lp5508
Vhis
p5509
aVface
p5510
aVwas
p5511
aVdrawn
p5512
aV,
aVageless
p5513
aV,
aVand
p5514
aVgray
p5515
aV.
aa(lp5516
Vthere
p5517
aVwere
p5518
aVshadowed
p5519
aVhollows
p5520
aVat
p5521
aVhis
p5522
aVtemples
p5523
aVand
p5524
aVhis
p5525
aVmouth
p5526
aVwas
p5527
aVset
p5528
aVin
p5529
aVa
aVwiry
p5530
aVsmile
p5531
aV.
aa(lp5532
Vafter
p5533
aVa
aVtime
p5534
aVhe
p5535
aVwas
p5536
aVaware
p5537
aVthat
p5538
aVhe
p5539
aVhad
p5540
aVbeen
p5541
aVseen
p5542
aVby
p5543
aVone
p5544
aVof
p5545
aVthe
p5546
aVthree
p5547
aVmen
p5548
aVhe
p5549
aVhad
p5550
aVbeen
p5551
aVwatching
p5552
aV.
aa(lp5553
Vbut
p5554
aVthe
p5555
aVjockey
p5556
aVdid
p5557
aVnot
p5558
aVnod
p5559
aV;
aVhe
p5560
aVonly
p5561
aVraised
p5562
aVhis
p5563
aVchin
p5564
aVstill
p5565
aVhigher
p5566
aVand
p5567
aVhooked
p5568
aVthe
p5569
aVthumb
p5570
aVof
p5571
aVhis
p5572
aVtense
p5573
aVhand
p5574
aVin
p5575
aVthe
p5576
aVpocket
p5577
aVof
p5578
aVhis
p5579
aVcoat
p5580
aV.
aa(lp5581
Vthe
p5582
aVthree
p5583
aVmen
p5584
aVat
p5585
aVthe
p5586
aVcorner
p5587
aVtable
p5588
aVwere
p5589
aVa
aVtrainer
p5590
aV,
aVa
aVbookie
p5591
aV,
aVand
p5592
aVa
aVrich
p5593
aVman
p5594
aV.
aa(lp5595
Vthe
p5596
aVtrainer
p5597
aVwas
p5598
aVsylvester
p5599
aV--
p5600
aVa
aVlarge
p5601
aV,
aVloosely
p5602
aVbuilt
p5603
aVfellow
p5604
aVwith
p5605
aVa
aVflushed
p5606
aVnose
p5607
aVand
p5608
aVslow
p5609
aVblue
p5610
aVeyes
p5611
aV.
aa(lp5612
Vthe
p5613
aVbookie
p5614
aVwas
p5615
aVsimmons
p5616
aV.
aa(lp5617
Vthe
p5618
aVrich
p5619
aVman
p5620
aVwas
p5621
aVthe
p5622
aVowner
p5623
aVof
p5624
aVa
aVhorse
p5625
aVnamed
p5626
aVseltzer
p5627
aV,
aVwhich
p5628
aVthe
p5629
aVjockey
p5630
aVhad
p5631
aVridden
p5632
aVthat
p5633
aVafternoon
p5634
aV.
aa(lp5635
Vthe
p5636
aVthree
p5637
aVof
p5638
aVthem
p5639
aVdrank
p5640
aVwhiskey
p5641
aVwith
p5642
aVsoda
p5643
aV,
aVand
p5644
aVa
aVwhite-coated
p5645
aVwaiter
p5646
aVhad
p5647
aVjust
p5648
aVbrought
p5649
aVon
p5650
aVthe
p5651
aVmain
p5652
aVcourse
p5653
aVof
p5654
aVthe
p5655
aVdinner
p5656
aV.
aa(lp5657
Vit
p5658
aVwas
p5659
aVsylvester
p5660
aVwho
p5661
aVfirst
p5662
aVsaw
p5663
aVthe
p5664
aVjockey
p5665
aV.
aa(lp5666
Vhe
p5667
aVlooked
p5668
aVaway
p5669
aVquickly
p5670
aV,
aVput
p5671
aVdown
p5672
aVhis
p5673
aVwhiskey
p5674
aVglass
p5675
aV,
aVand
p5676
aVnervously
p5677
aVmashed
p5678
aVthe
p5679
aVtip
p5680
aVof
p5681
aVhis
p5682
aVred
p5683
aVnose
p5684
aVwith
p5685
aVhis
p5686
aVthumb
p5687
aV.
aa(lp5688
V``
p5689
aVit
p5690
aV's
p5691
aVbitsy
p5692
aVbarlow
p5693
aV,
aV''
p5694
aVhe
p5695
aVsaid
p5696
aV.
aa(lp5697
V``
p5698
aVstanding
p5699
aVover
p5700
aVthere
p5701
aVacross
p5702
aVthe
p5703
aVroom
p5704
aV.
aa(lp5705
Vjust
p5706
aVwatching
p5707
aVus
p5708
aV.
aV''
p5709
aa(lp5710
V``
p5711
aVoh
p5712
aV,
aVthe
p5713
aVjockey
p5714
aV,
aV''
p5715
aVsaid
p5716
aVthe
p5717
aVrich
p5718
aVman
p5719
aV.
aa(lp5720
Vhe
p5721
aVwas
p5722
aVfacing
p5723
aVthe
p5724
aVwall
p5725
aVand
p5726
aVhe
p5727
aVhalf
p5728
aVturned
p5729
aVhis
p5730
aVhead
p5731
aVto
p5732
aVlook
p5733
aVbehind
p5734
aVhim
p5735
aV.
aa(lp5736
V``
p5737
aVask
p5738
aVhim
p5739
aVover
p5740
aV.
aV''
p5741
aa(lp5742
V``
p5743
aVgod
p5744
aVno
p5745
aV,
aV''
p5746
aVsylvester
p5747
aVsaid
p5748
aV.
aa(lp5749
V``
p5750
aVhe
p5751
aV's
p5752
aVcrazy
p5753
aV,
aV''
p5754
aVsimmons
p5755
aVsaid
p5756
aV.
aa(lp5757
Vthe
p5758
aVbookie
p5759
aV's
p5760
aVvoice
p5761
aVwas
p5762
aVflat
p5763
aVand
p5764
aVwithout
p5765
aVinflection
p5766
aV.
aa(lp5767
Vhe
p5768
aVhad
p5769
aVthe
p5770
aVface
p5771
aVof
p5772
aVa
aVborn
p5773
aVgambler
p5774
aV,
aVcarefully
p5775
aVadjusted
p5776
aV,
aVthe
p5777
aVexpression
p5778
aVa
aVpermanent
p5779
aVdeadlock
p5780
aVbetween
p5781
aVfear
p5782
aVand
p5783
aVgreed
p5784
aV.
aa(lp5785
V``
p5786
aVwell
p5787
aV,
aVi
aVwould
p5788
aVn't
p5789
aVcall
p5790
aVhim
p5791
aVthat
p5792
aVexactly
p5793
aV,
aV''
p5794
aVsaid
p5795
aVsylvester
p5796
aV.
aa(lp5797
V``
p5798
aVi
aV've
p5799
aVknown
p5800
aVhim
p5801
aVa
aVlong
p5802
aVtime
p5803
aV.
aa(lp5804
Vhe
p5805
aVwas
p5806
aVo.k
p5807
aV.
aa(lp5808
Vuntil
p5809
aVabout
p5810
aVsix
p5811
aVmonths
p5812
aVago
p5813
aV.
aa(lp5814
Vbut
p5815
aVif
p5816
aVhe
p5817
aVgoes
p5818
aVon
p5819
aVlike
p5820
aVthis
p5821
aV,
aVi
aVca
p5822
aVn't
p5823
aVsee
p5824
aVhim
p5825
aVlasting
p5826
aVanother
p5827
aVyear
p5828
aV.
aa(lp5829
Vi
aVjust
p5830
aVca
p5831
aVn't
p5832
aV.
aV''
p5833
aa(lp5834
V``
p5835
aVit
p5836
aVwas
p5837
aVwhat
p5838
aVhappened
p5839
aVin
p5840
aVmiami
p5841
aV,
aV''
p5842
aVsaid
p5843
aVsimmons
p5844
aV.
aa(lp5845
V``
p5846
aVwhat
p5847
aV?
aV''
p5848
aa(lp5849
Vasked
p5850
aVthe
p5851
aVrich
p5852
aVman
p5853
aV.
aa(lp5854
Vsylvester
p5855
aVglanced
p5856
aVacross
p5857
aVthe
p5858
aVroom
p5859
aVat
p5860
aVthe
p5861
aVjockey
p5862
aVand
p5863
aVwet
p5864
aVthe
p5865
aVcorner
p5866
aVof
p5867
aVhis
p5868
aVmouth
p5869
aVwith
p5870
aVhis
p5871
aVred
p5872
aV,
aVfleshy
p5873
aVtongue
p5874
aV.
aa(lp5875
V``
p5876
aVa
aVaccident
p5877
aV.
aa(lp5878
Va
aVkid
p5879
aVgot
p5880
aVhurt
p5881
aVon
p5882
aVthe
p5883
aVtrack
p5884
aV.
aa(lp5885
Vbroke
p5886
aVa
aVleg
p5887
aVand
p5888
aVa
aVhip
p5889
aV.
aa(lp5890
Vhe
p5891
aVwas
p5892
aVa
aVparticular
p5893
aVpal
p5894
aVof
p5895
aVbitsy
p5896
aV's
p5897
aV.
aa(lp5898
Va
aVirish
p5899
aVkid
p5900
aV.
aa(lp5901
Vnot
p5902
aVa
aVbad
p5903
aVrider
p5904
aV,
aVeither
p5905
aV.
aV''
p5906
aa(lp5907
V``
p5908
aVthat
p5909
aV's
p5910
aVa
aVpity
p5911
aV,
aV''
p5912
aVsaid
p5913
aVthe
p5914
aVrich
p5915
aVman
p5916
aV.
aa(lp5917
V``
p5918
aVyeah
p5919
aV.
aa(lp5920
Vthey
p5921
aVwere
p5922
aVparticular
p5923
aVfriends
p5924
aV,
aV''
p5925
aVsylvester
p5926
aVsaid
p5927
aV.
aa(lp5928
V``
p5929
aVyou
p5930
aVwould
p5931
aValways
p5932
aVfind
p5933
aVhim
p5934
aVup
p5935
aVin
p5936
aVbitsy
p5937
aV's
p5938
aVhotel
p5939
aVroom
p5940
aV.
aa(lp5941
Vthey
p5942
aVwould
p5943
aVbe
p5944
aVplaying
p5945
aVrummy
p5946
aVor
p5947
aVelse
p5948
aVlying
p5949
aVon
p5950
aVthe
p5951
aVfloor
p5952
aVreading
p5953
aVthe
p5954
aVsports
p5955
aVpage
p5956
aVtogether
p5957
aV.
aV''
p5958
aa(lp5959
V``
p5960
aVwell
p5961
aV,
aVthose
p5962
aVthings
p5963
aVhappen
p5964
aV,
aV''
p5965
aVsaid
p5966
aVthe
p5967
aVrich
p5968
aVman
p5969
aV.
aa(lp5970
Vsimmons
p5971
aVcut
p5972
aVinto
p5973
aVhis
p5974
aVbeefsteak
p5975
aV.
aa(lp5976
Vhe
p5977
aVheld
p5978
aVhis
p5979
aVfork
p5980
aVprongs
p5981
aVdownward
p5982
aVon
p5983
aVthe
p5984
aVplate
p5985
aVand
p5986
aVcarefully
p5987
aVpiled
p5988
aVon
p5989
aVmushrooms
p5990
aVwith
p5991
aVthe
p5992
aVblade
p5993
aVof
p5994
aVhis
p5995
aVknife
p5996
aV.
aa(lp5997
V``
p5998
aVhe
p5999
aV's
p6000
aVcrazy
p6001
aV,
aV''
p6002
aVhe
p6003
aVrepeated
p6004
aV.
aa(lp6005
V``
p6006
aVhe
p6007
aVgives
p6008
aVme
p6009
aVthe
p6010
aVcreeps
p6011
aV.
aV''
p6012
aa(lp6013
Vall
p6014
aVthe
p6015
aVtables
p6016
aVin
p6017
aVthe
p6018
aVdining
p6019
aVroom
p6020
aVwere
p6021
aVoccupied
p6022
aV.
aa(lp6023
Vthere
p6024
aVwas
p6025
aVa
aVparty
p6026
aVat
p6027
aVthe
p6028
aVbanquet
p6029
aVtable
p6030
aVin
p6031
aVthe
p6032
aVcenter
p6033
aV,
aVand
p6034
aVgreen-white
p6035
aVaugust
p6036
aVmoths
p6037
aVhad
p6038
aVfound
p6039
aVtheir
p6040
aVway
p6041
aVin
p6042
aVfrom
p6043
aVthe
p6044
aVnight
p6045
aVand
p6046
aVfluttered
p6047
aVabout
p6048
aVthe
p6049
aVclear
p6050
aVcandle
p6051
aVflames
p6052
aV.
aa(lp6053
Vtwo
p6054
aVgirls
p6055
aVwearing
p6056
aVflannel
p6057
aVslacks
p6058
aVand
p6059
aVblazers
p6060
aVwalked
p6061
aVarm
p6062
aVin
p6063
aVarm
p6064
aVacross
p6065
aVthe
p6066
aVroom
p6067
aVinto
p6068
aVthe
p6069
aVbar
p6070
aV.
aa(lp6071
Vfrom
p6072
aVthe
p6073
aVmain
p6074
aVstreet
p6075
aVoutside
p6076
aVcame
p6077
aVthe
p6078
aVechoes
p6079
aVof
p6080
aVholiday
p6081
aVhysteria
p6082
aV.
aa(lp6083
V``
p6084
aVthey
p6085
aVclaim
p6086
aVthat
p6087
aVin
p6088
aVaugust
p6089
aVsaratoga
p6090
aVis
p6091
aVthe
p6092
aVwealthiest
p6093
aVtown
p6094
aVper
p6095
aVcapita
p6096
aVin
p6097
aVthe
p6098
aVworld
p6099
aV.
aV''
p6100
aa(lp6101
Vsylvester
p6102
aVturned
p6103
aVto
p6104
aVthe
p6105
aVrich
p6106
aVman
p6107
aV.
aa(lp6108
V``
p6109
aVwhat
p6110
aVdo
p6111
aVyou
p6112
aVthink
p6113
aV?
aV''
p6114
aa(lp6115
V``
p6116
aVi
aVwould
p6117
aVn't
p6118
aVknow
p6119
aV,
aV''
p6120
aVsaid
p6121
aVthe
p6122
aVrich
p6123
aVman
p6124
aV.
aa(lp6125
V``
p6126
aVit
p6127
aVmay
p6128
aVvery
p6129
aVwell
p6130
aVbe
p6131
aVso
p6132
aV.
aV''
p6133
aa(lp6134
Vdaintily
p6135
aV,
aVsimmons
p6136
aVwiped
p6137
aVhis
p6138
aVgreasy
p6139
aVmouth
p6140
aVwith
p6141
aVthe
p6142
aVtip
p6143
aVof
p6144
aVhis
p6145
aVforefinger
p6146
aV.
aa(lp6147
V``
p6148
aVhow
p6149
aVabout
p6150
aVhollywood
p6151
aV?
aa(lp6152
Vand
p6153
aVwall
p6154
aVstreet
p6155
aV--
p6156
aV''
p6157
aV''
p6158
aVwait
p6159
aV,
aV''
p6160
aVsaid
p6161
aVsylvester
p6162
aV.
aa(lp6163
V``
p6164
aVhe
p6165
aV's
p6166
aVdecided
p6167
aVto
p6168
aVcome
p6169
aVover
p6170
aVhere
p6171
aV.
aV''
p6172
aa(lp6173
Vthe
p6174
aVjockey
p6175
aVhad
p6176
aVleft
p6177
aVthe
p6178
aVwall
p6179
aVand
p6180
aVwas
p6181
aVapproaching
p6182
aVthe
p6183
aVtable
p6184
aVin
p6185
aVthe
p6186
aVcorner
p6187
aV.
aa(lp6188
Vhe
p6189
aVwalked
p6190
aVwith
p6191
aVa
aVprim
p6192
aVstrut
p6193
aV,
aVswinging
p6194
aVout
p6195
aVhis
p6196
aVlegs
p6197
aVin
p6198
aVa
aVhalf-circle
p6199
aVwith
p6200
aVeach
p6201
aVstep
p6202
aV,
aVhis
p6203
aVheels
p6204
aVbiting
p6205
aVsmartly
p6206
aVinto
p6207
aVthe
p6208
aVred
p6209
aVvelvet
p6210
aVcarpet
p6211
aVon
p6212
aVthe
p6213
aVfloor
p6214
aV.
aa(lp6215
Von
p6216
aVthe
p6217
aVway
p6218
aVover
p6219
aVhe
p6220
aVbrushed
p6221
aVagainst
p6222
aVthe
p6223
aVelbow
p6224
aVof
p6225
aVa
aVfat
p6226
aVwoman
p6227
aVin
p6228
aVwhite
p6229
aVsatin
p6230
aVat
p6231
aVthe
p6232
aVbanquet
p6233
aVtable
p6234
aV;
aVhe
p6235
aVstepped
p6236
aVback
p6237
aVand
p6238
aVbowed
p6239
aVwith
p6240
aVdandified
p6241
aVcourtesy
p6242
aV,
aVhis
p6243
aVeyes
p6244
aVquite
p6245
aVclosed
p6246
aV.
aa(lp6247
Vwhen
p6248
aVhe
p6249
aVhad
p6250
aVcrossed
p6251
aVthe
p6252
aVroom
p6253
aVhe
p6254
aVdrew
p6255
aVup
p6256
aVa
aVchair
p6257
aVand
p6258
aVsat
p6259
aVat
p6260
aVa
aVcorner
p6261
aVof
p6262
aVthe
p6263
aVtable
p6264
aV,
aVbetween
p6265
aVsylvester
p6266
aVand
p6267
aVthe
p6268
aVrich
p6269
aVman
p6270
aV,
aVwithout
p6271
aVa
aVnod
p6272
aVof
p6273
aVgreeting
p6274
aVor
p6275
aVa
aVchange
p6276
aVin
p6277
aVhis
p6278
aVset
p6279
aV,
aVgray
p6280
aVface
p6281
aV.
aa(lp6282
V``
p6283
aVhad
p6284
aVdinner
p6285
aV?
aV''
p6286
aa(lp6287
Vsylvester
p6288
aVasked
p6289
aV.
aa(lp6290
V``
p6291
aVsome
p6292
aVpeople
p6293
aVmight
p6294
aVcall
p6295
aVit
p6296
aVthat
p6297
aV.
aV''
p6298
aa(lp6299
Vthe
p6300
aVjockey
p6301
aV's
p6302
aVvoice
p6303
aVwas
p6304
aVhigh
p6305
aV,
aVbitter
p6306
aV,
aVclear
p6307
aV.
aa(lp6308
Vsylvester
p6309
aVput
p6310
aVhis
p6311
aVknife
p6312
aVand
p6313
aVfork
p6314
aVdown
p6315
aVcarefully
p6316
aVon
p6317
aVhis
p6318
aVplate
p6319
aV.
aa(lp6320
Vthe
p6321
aVrich
p6322
aVman
p6323
aVshifted
p6324
aVhis
p6325
aVposition
p6326
aV,
aVturning
p6327
aVsidewise
p6328
aVin
p6329
aVhis
p6330
aVchair
p6331
aVand
p6332
aVcrossing
p6333
aVhis
p6334
aVlegs
p6335
aV.
aa(lp6336
Vhe
p6337
aVwas
p6338
aVdressed
p6339
aVin
p6340
aVtwill
p6341
aVriding
p6342
aVpants
p6343
aV,
aVunpolished
p6344
aVboots
p6345
aV,
aVand
p6346
aVa
aVshabby
p6347
aVbrown
p6348
aVjacket
p6349
aV--
p6350
aVthis
p6351
aVwas
p6352
aVhis
p6353
aVoutfit
p6354
aVday
p6355
aVand
p6356
aVnight
p6357
aVin
p6358
aVthe
p6359
aVracing
p6360
aVseason
p6361
aV,
aValthough
p6362
aVhe
p6363
aVwas
p6364
aVnever
p6365
aVseen
p6366
aVon
p6367
aVa
aVhorse
p6368
aV.
aa(lp6369
Vsimmons
p6370
aVwent
p6371
aVon
p6372
aVwith
p6373
aVhis
p6374
aVdinner
p6375
aV.
aa(lp6376
V``
p6377
aVlike
p6378
aVa
aVspot
p6379
aVof
p6380
aVseltzer
p6381
aVwater
p6382
aV?
aV''
p6383
aa(lp6384
Vasked
p6385
aVsylvester
p6386
aV.
aa(lp6387
V``
p6388
aVor
p6389
aVsomething
p6390
aVlike
p6391
aVthat
p6392
aV?
aV''
p6393
aa(lp6394
Vthe
p6395
aVjockey
p6396
aVdid
p6397
aVn't
p6398
aVanswer
p6399
aV.
aa(lp6400
Vhe
p6401
aVdrew
p6402
aVa
aVgold
p6403
aVcigarette
p6404
aVcase
p6405
aVfrom
p6406
aVhis
p6407
aVpocket
p6408
aVand
p6409
aVsnapped
p6410
aVit
p6411
aVopen
p6412
aV.
aa(lp6413
Vinside
p6414
aVwere
p6415
aVa
aVfew
p6416
aVcigarettes
p6417
aVand
p6418
aVa
aVtiny
p6419
aVgold
p6420
aVpenknife
p6421
aV.
aa(lp6422
Vhe
p6423
aVused
p6424
aVthe
p6425
aVknife
p6426
aVto
p6427
aVcut
p6428
aVa
aVcigarette
p6429
aVin
p6430
aVhalf
p6431
aV.
aa(lp6432
Vwhen
p6433
aVhe
p6434
aVhad
p6435
aVlighted
p6436
aVhis
p6437
aVsmoke
p6438
aVhe
p6439
aVheld
p6440
aVup
p6441
aVhis
p6442
aVhand
p6443
aVto
p6444
aVa
aVwaiter
p6445
aVpassing
p6446
aVby
p6447
aVthe
p6448
aVtable
p6449
aV.
aa(lp6450
V``
p6451
aVkentucky
p6452
aVbourbon
p6453
aV,
aVplease
p6454
aV.
aV''
p6455
aa(lp6456
V``
p6457
aVnow
p6458
aV,
aVlisten
p6459
aV,
aVkid
p6460
aV,
aV''
p6461
aVsaid
p6462
aVsylvester
p6463
aV.
aa(lp6464
V``
p6465
aVdo
p6466
aVn't
p6467
aVkid
p6468
aVme
p6469
aV.
aV''
p6470
aa(lp6471
V``
p6472
aVbe
p6473
aVreasonable
p6474
aV.
aa(lp6475
Vyou
p6476
aVknow
p6477
aVyou
p6478
aVgot
p6479
aVto
p6480
aVbehave
p6481
aVreasonable
p6482
aV.
aV''
p6483
aa(lp6484
Vthe
p6485
aVjockey
p6486
aVdrew
p6487
aVup
p6488
aVthe
p6489
aVleft
p6490
aVcorner
p6491
aVof
p6492
aVhis
p6493
aVmouth
p6494
aVin
p6495
aVa
aVstiff
p6496
aVjeer
p6497
aV.
aa(lp6498
Vhis
p6499
aVeyes
p6500
aVlowered
p6501
aVto
p6502
aVthe
p6503
aVfood
p6504
aVspread
p6505
aVout
p6506
aVon
p6507
aVthe
p6508
aVtable
p6509
aV,
aVbut
p6510
aVinstantly
p6511
aVhe
p6512
aVlooked
p6513
aVup
p6514
aVagain
p6515
aV.
aa(lp6516
Vbefore
p6517
aVthe
p6518
aVrich
p6519
aVman
p6520
aVwas
p6521
aVa
aVfish
p6522
aVcasserole
p6523
aV,
aVbaked
p6524
aVin
p6525
aVa
aVcream
p6526
aVsauce
p6527
aVand
p6528
aVgarnished
p6529
aVwith
p6530
aVparsley
p6531
aV.
aa(lp6532
Vsylvester
p6533
aVhad
p6534
aVordered
p6535
aVeggs
p6536
aVbenedict
p6537
aV.
aa(lp6538
Vthere
p6539
aVwas
p6540
aVasparagus
p6541
aV,
aVfresh
p6542
aVbuttered
p6543
aVcorn
p6544
aV,
aVand
p6545
aVa
aVside
p6546
aVdish
p6547
aVof
p6548
aVwet
p6549
aVblack
p6550
aVolives
p6551
aV.
aa(lp6552
Va
aVplate
p6553
aVof
p6554
aVfrench-fried
p6555
aVpotatoes
p6556
aVwas
p6557
aVin
p6558
aVthe
p6559
aVcorner
p6560
aVof
p6561
aVthe
p6562
aVtable
p6563
aVbefore
p6564
aVthe
p6565
aVjockey
p6566
aV.
aa(lp6567
Vhe
p6568
aVdid
p6569
aVn't
p6570
aVlook
p6571
aVat
p6572
aVthe
p6573
aVfood
p6574
aVagain
p6575
aV,
aVbut
p6576
aVkept
p6577
aVhis
p6578
aVpinched
p6579
aVeyes
p6580
aVon
p6581
aVthe
p6582
aVcenter
p6583
aVpiece
p6584
aVof
p6585
aVfull-blown
p6586
aVlavender
p6587
aVroses
p6588
aV.
aa(lp6589
V``
p6590
aVi
aVdo
p6591
aVn't
p6592
aVsuppose
p6593
aVyou
p6594
aVremember
p6595
aVa
aVcertain
p6596
aVperson
p6597
aVby
p6598
aVthe
p6599
aVname
p6600
aVof
p6601
aVmcguire
p6602
aV,
aV''
p6603
aVhe
p6604
aVsaid
p6605
aV.
aa(lp6606
V``
p6607
aVnow
p6608
aV,
aVlisten
p6609
aV,
aV''
p6610
aVsaid
p6611
aVsylvester
p6612
aV.
aa(lp6613
Vthe
p6614
aVwaiter
p6615
aVbrought
p6616
aVthe
p6617
aVwhiskey
p6618
aV,
aVand
p6619
aVthe
p6620
aVjockey
p6621
aVsat
p6622
aVfondling
p6623
aVthe
p6624
aVglass
p6625
aVwith
p6626
aVhis
p6627
aVsmall
p6628
aV,
aVstrong
p6629
aV,
aVcallused
p6630
aVhands
p6631
aV.
aa(lp6632
Von
p6633
aVhis
p6634
aVwrist
p6635
aVwas
p6636
aVa
aVgold
p6637
aVlink
p6638
aVbracelet
p6639
aVthat
p6640
aVclinked
p6641
aVagainst
p6642
aVthe
p6643
aVtable
p6644
aVedge
p6645
aV.
aa(lp6646
Vafter
p6647
aVturning
p6648
aVthe
p6649
aVglass
p6650
aVbetween
p6651
aVhis
p6652
aVpalms
p6653
aV,
aVthe
p6654
aVjockey
p6655
aVsuddenly
p6656
aVdrank
p6657
aVthe
p6658
aVwhiskey
p6659
aVneat
p6660
aVin
p6661
aVtwo
p6662
aVhard
p6663
aVswallows
p6664
aV.
aa(lp6665
Vhe
p6666
aVset
p6667
aVdown
p6668
aVthe
p6669
aVglass
p6670
aVsharply
p6671
aV.
aa(lp6672
V``
p6673
aVno
p6674
aV,
aVi
aVdo
p6675
aVn't
p6676
aVsuppose
p6677
aVyour
p6678
aVmemory
p6679
aVis
p6680
aVthat
p6681
aVlong
p6682
aVand
p6683
aVextensive
p6684
aV,
aV''
p6685
aVhe
p6686
aVsaid
p6687
aV.
aa(lp6688
V``
p6689
aVsure
p6690
aVenough
p6691
aV,
aVbitsy
p6692
aV,
aV''
p6693
aVsaid
p6694
aVsylvester
p6695
aV.
aa(lp6696
V``
p6697
aVwhat
p6698
aVmakes
p6699
aVyou
p6700
aVact
p6701
aVlike
p6702
aVthis
p6703
aV?
aa(lp6704
Vyou
p6705
aVhear
p6706
aVfrom
p6707
aVthe
p6708
aVkid
p6709
aVtoday
p6710
aV?
aV''
p6711
aa(lp6712
V``
p6713
aVi
aVreceived
p6714
aVa
aVletter
p6715
aV,
aV''
p6716
aVthe
p6717
aVjockey
p6718
aVsaid
p6719
aV.
aa(lp6720
V``
p6721
aVthe
p6722
aVcertain
p6723
aVperson
p6724
aVwe
p6725
aVwere
p6726
aVspeaking
p6727
aVabout
p6728
aVwas
p6729
aVtaken
p6730
aVout
p6731
aVfrom
p6732
aVthe
p6733
aVcast
p6734
aVon
p6735
aVwednesday
p6736
aV.
aa(lp6737
Vone
p6738
aVleg
p6739
aVis
p6740
aVtwo
p6741
aVinches
p6742
aVshorter
p6743
aVthan
p6744
aVthe
p6745
aVother
p6746
aVone
p6747
aV.
aa(lp6748
Vthat
p6749
aV's
p6750
aVall
p6751
aV.
aV''
p6752
aa(lp6753
Vsylvester
p6754
aVclucked
p6755
aVhis
p6756
aVtongue
p6757
aVand
p6758
aVshook
p6759
aVhis
p6760
aVhead
p6761
aV.
aa(lp6762
V``
p6763
aVi
aVrealize
p6764
aVhow
p6765
aVyou
p6766
aVfeel
p6767
aV.
aV''
p6768
aa(lp6769
V``
p6770
aVdo
p6771
aVyou
p6772
aV?
aV''
p6773
aa(lp6774
Vthe
p6775
aVjockey
p6776
aVwas
p6777
aVlooking
p6778
aVat
p6779
aVthe
p6780
aVdishes
p6781
aVon
p6782
aVthe
p6783
aVtable
p6784
aV.
aa(lp6785
Vhis
p6786
aVgaze
p6787
aVpassed
p6788
aVfrom
p6789
aVthe
p6790
aVfish
p6791
aVcasserole
p6792
aVto
p6793
aVthe
p6794
aVcorn
p6795
aV,
aVand
p6796
aVfinally
p6797
aVfixed
p6798
aVon
p6799
aVthe
p6800
aVplate
p6801
aVof
p6802
aVfried
p6803
aVpotatoes
p6804
aV.
aa(lp6805
Vhis
p6806
aVface
p6807
aVtightened
p6808
aVand
p6809
aVquickly
p6810
aVhe
p6811
aVlooked
p6812
aVup
p6813
aVagain
p6814
aV.
aa(lp6815
Va
aVrose
p6816
aVshattered
p6817
aVand
p6818
aVhe
p6819
aVpicked
p6820
aVup
p6821
aVone
p6822
aVof
p6823
aVthe
p6824
aVpetals
p6825
aV,
aVbruised
p6826
aVit
p6827
aVbetween
p6828
aVhis
p6829
aVthumb
p6830
aVand
p6831
aVforefinger
p6832
aV,
aVand
p6833
aVput
p6834
aVit
p6835
aVin
p6836
aVhis
p6837
aVmouth
p6838
aV.
aa(lp6839
V``
p6840
aVwell
p6841
aV,
aVthose
p6842
aVthings
p6843
aVhappen
p6844
aV,
aV''
p6845
aVsaid
p6846
aVthe
p6847
aVrich
p6848
aVman
p6849
aV.
aa(lp6850
Vthe
p6851
aVtrainer
p6852
aVand
p6853
aVthe
p6854
aVbookie
p6855
aVhad
p6856
aVfinished
p6857
aVeating
p6858
aV,
aVbut
p6859
aVthere
p6860
aVwas
p6861
aVfood
p6862
aVleft
p6863
aVon
p6864
aVthe
p6865
aVserving
p6866
aVdishes
p6867
aVbefore
p6868
aVtheir
p6869
aVplates
p6870
aV.
aa(lp6871
Vthe
p6872
aVrich
p6873
aVman
p6874
aVdipped
p6875
aVhis
p6876
aVbuttery
p6877
aVfingers
p6878
aVin
p6879
aVhis
p6880
aVwater
p6881
aVglass
p6882
aVand
p6883
aVwiped
p6884
aVthem
p6885
aVwith
p6886
aVhis
p6887
aVnapkin
p6888
aV.
aa(lp6889
V``
p6890
aVwell
p6891
aV,
aV''
p6892
aVsaid
p6893
aVthe
p6894
aVjockey
p6895
aV.
aa(lp6896
V``
p6897
aVdoes
p6898
aVn't
p6899
aVsomebody
p6900
aVwant
p6901
aVme
p6902
aVto
p6903
aVpass
p6904
aVthem
p6905
aVsomething
p6906
aV?
aa(lp6907
Vor
p6908
aVmaybe
p6909
aVperhaps
p6910
aVyou
p6911
aVdesire
p6912
aVto
p6913
aVre-order
p6914
aV.
aa(lp6915
Vanother
p6916
aVhunk
p6917
aVof
p6918
aVbeefsteak
p6919
aV,
aVgentlemen
p6920
aV,
aVor
p6921
aV--
p6922
aV''
p6923
aV''
p6924
aVplease
p6925
aV,
aV''
p6926
aVsaid
p6927
aVsylvester
p6928
aV.
aa(lp6929
V``
p6930
aVbe
p6931
aVreasonable
p6932
aV.
aa(lp6933
Vwhy
p6934
aVdo
p6935
aVn't
p6936
aVyou
p6937
aVgo
p6938
aVon
p6939
aVupstairs
p6940
aV?
aV''
p6941
aa(lp6942
V``
p6943
aVyes
p6944
aV,
aVwhy
p6945
aVdo
p6946
aVn't
p6947
aVi
aV?
aV''
p6948
aa(lp6949
Vthe
p6950
aVjockey
p6951
aVsaid
p6952
aV.
aa(lp6953
Vhis
p6954
aVprim
p6955
aVvoice
p6956
aVhad
p6957
aVrisen
p6958
aVhigher
p6959
aVand
p6960
aVthere
p6961
aVwas
p6962
aVabout
p6963
aVit
p6964
aVthe
p6965
aVsharp
p6966
aVwhine
p6967
aVof
p6968
aVhysteria
p6969
aV.
aa(lp6970
V``
p6971
aVwhy
p6972
aVdo
p6973
aVn't
p6974
aVi
aVgo
p6975
aVup
p6976
aVto
p6977
aVmy
p6978
aVgod-damn
p6979
aVroom
p6980
aVand
p6981
aVwalk
p6982
aVaround
p6983
aVand
p6984
aVwrite
p6985
aVsome
p6986
aVletters
p6987
aVand
p6988
aVgo
p6989
aVto
p6990
aVbed
p6991
aVlike
p6992
aVa
aVgood
p6993
aVboy
p6994
aV?
aa(lp6995
Vwhy
p6996
aVdo
p6997
aVn't
p6998
aVi
aVjust
p6999
aV--
p7000
aV''
p7001
aVhe
p7002
aVpushed
p7003
aVhis
p7004
aVchair
p7005
aVback
p7006
aVand
p7007
aVgot
p7008
aVup
p7009
aV.
aa(lp7010
V``
p7011
aVoh
p7012
aV,
aVfoo
p7013
aV,
aV''
p7014
aVhe
p7015
aVsaid
p7016
aV.
aa(lp7017
V``
p7018
aVfoo
p7019
aVto
p7020
aVyou
p7021
aV.
aa(lp7022
Vi
aVwant
p7023
aVa
aVdrink
p7024
aV.
aV''
p7025
aa(lp7026
V``
p7027
aVall
p7028
aVi
aVcan
p7029
aVsay
p7030
aVis
p7031
aVit
p7032
aV's
p7033
aVyour
p7034
aVfuneral
p7035
aV,
aV''
p7036
aVsaid
p7037
aVsylvester
p7038
aV.
aa(lp7039
V``
p7040
aVyou
p7041
aVknow
p7042
aVwhat
p7043
aVit
p7044
aVdoes
p7045
aVto
p7046
aVyou
p7047
aV.
aa(lp7048
Vyou
p7049
aVknow
p7050
aVwell
p7051
aVenough
p7052
aV.
aV''
p7053
aa(lp7054
Vthe
p7055
aVjockey
p7056
aVcrossed
p7057
aVthe
p7058
aVdining
p7059
aVroom
p7060
aVand
p7061
aVwent
p7062
aVinto
p7063
aVthe
p7064
aVbar
p7065
aV.
aa(lp7066
Vhe
p7067
aVordered
p7068
aVa
aVmanhattan
p7069
aV,
aVand
p7070
aVsylvester
p7071
aVwatched
p7072
aVhim
p7073
aVstand
p7074
aVwith
p7075
aVhis
p7076
aVheels
p7077
aVpressed
p7078
aVtight
p7079
aVtogether
p7080
aV,
aVhis
p7081
aVbody
p7082
aVhard
p7083
aVas
p7084
aVa
aVlead
p7085
aVsoldier
p7086
aV's
p7087
aV,
aVholding
p7088
aVhis
p7089
aVlittle
p7090
aVfinger
p7091
aVout
p7092
aVfrom
p7093
aVthe
p7094
aVcocktail
p7095
aVglass
p7096
aVand
p7097
aVsipping
p7098
aVthe
p7099
aVdrink
p7100
aVslowly
p7101
aV.
aa(lp7102
V``
p7103
aVhe
p7104
aV's
p7105
aVcrazy
p7106
aV,
aV''
p7107
aVsaid
p7108
aVsimmons
p7109
aV.
aa(lp7110
V``
p7111
aVlike
p7112
aVi
aVsaid
p7113
aV.
aV''
p7114
aa(lp7115
Vsylvester
p7116
aVturned
p7117
aVto
p7118
aVthe
p7119
aVrich
p7120
aVman
p7121
aV.
aa(lp7122
V``
p7123
aVif
p7124
aVhe
p7125
aVeats
p7126
aVa
aVlamb
p7127
aVchop
p7128
aV,
aVyou
p7129
aVcan
p7130
aVsee
p7131
aVthe
p7132
aVshape
p7133
aVof
p7134
aVit
p7135
aVin
p7136
aVhis
p7137
aVstomach
p7138
aVa
aVhour
p7139
aVafterward
p7140
aV.
aa(lp7141
Vhe
p7142
aVca
p7143
aVn't
p7144
aVsweat
p7145
aVthings
p7146
aVout
p7147
aVof
p7148
aVhim
p7149
aVanymore
p7150
aV.
aa(lp7151
Vhe
p7152
aV's
p7153
aVa
aVhundred
p7154
aVand
p7155
aVtwelve
p7156
aVand
p7157
aVa
aVhalf
p7158
aV.
aa(lp7159
Vhe
p7160
aV's
p7161
aVgained
p7162
aVthree
p7163
aVpounds
p7164
aVsince
p7165
aVwe
p7166
aVleft
p7167
aVmiami
p7168
aV.
aV''
p7169
aa(lp7170
V``
p7171
aVa
aVjockey
p7172
aVshould
p7173
aVn't
p7174
aVdrink
p7175
aV,
aV''
p7176
aVsaid
p7177
aVthe
p7178
aVrich
p7179
aVman
p7180
aV.
aa(lp7181
V``
p7182
aVthe
p7183
aVfood
p7184
aVdo
p7185
aVn't
p7186
aVsatisfy
p7187
aVhim
p7188
aVlike
p7189
aVit
p7190
aVused
p7191
aVto
p7192
aVand
p7193
aVhe
p7194
aVca
p7195
aVn't
p7196
aVsweat
p7197
aVit
p7198
aVout
p7199
aV.
aa(lp7200
Vif
p7201
aVhe
p7202
aVeats
p7203
aVa
aVlamb
p7204
aVchop
p7205
aV,
aVyou
p7206
aVcan
p7207
aVwatch
p7208
aVit
p7209
aVtooching
p7210
aVout
p7211
aVin
p7212
aVhis
p7213
aVstomach
p7214
aVand
p7215
aVit
p7216
aVdo
p7217
aVn't
p7218
aVgo
p7219
aVdown
p7220
aV.
aV''
p7221
aa(lp7222
Vthe
p7223
aVjockey
p7224
aVfinished
p7225
aVhis
p7226
aVmanhattan
p7227
aV.
aa(lp7228
Vhe
p7229
aVswallowed
p7230
aV,
aVcrushed
p7231
aVthe
p7232
aVcherry
p7233
aVin
p7234
aVthe
p7235
aVbottom
p7236
aVof
p7237
aVthe
p7238
aVglass
p7239
aVwith
p7240
aVhis
p7241
aVthumb
p7242
aV,
aVthen
p7243
aVpushed
p7244
aVthe
p7245
aVglass
p7246
aVaway
p7247
aVfrom
p7248
aVhim
p7249
aV.
aa(lp7250
Vthe
p7251
aVtwo
p7252
aVgirls
p7253
aVin
p7254
aVblazers
p7255
aVwere
p7256
aVstanding
p7257
aVat
p7258
aVhis
p7259
aVleft
p7260
aV,
aVtheir
p7261
aVfaces
p7262
aVturned
p7263
aVtoward
p7264
aVeach
p7265
aVother
p7266
aV,
aVand
p7267
aVat
p7268
aVthe
p7269
aVother
p7270
aVend
p7271
aVof
p7272
aVthe
p7273
aVbar
p7274
aVtwo
p7275
aVtouts
p7276
aVhad
p7277
aVstarted
p7278
aVan
p7279
aVargument
p7280
aVabout
p7281
aVwhich
p7282
aVwas
p7283
aVthe
p7284
aVhighest
p7285
aVmountain
p7286
aVin
p7287
aVthe
p7288
aVworld
p7289
aV.
aa(lp7290
Veveryone
p7291
aVwas
p7292
aVwith
p7293
aVsomebody
p7294
aVelse
p7295
aV;
aVthere
p7296
aVwas
p7297
aVno
p7298
aVother
p7299
aVperson
p7300
aVdrinking
p7301
aValone
p7302
aVthat
p7303
aVnight
p7304
aV.
aa(lp7305
Vthe
p7306
aVjockey
p7307
aVpaid
p7308
aVwith
p7309
aVa
aVbrand-new
p7310
aVfifty-dollar
p7311
aVbill
p7312
aVand
p7313
aVdid
p7314
aVn't
p7315
aVcount
p7316
aVthe
p7317
aVchange
p7318
aV.
aa(lp7319
Vhe
p7320
aVwalked
p7321
aVback
p7322
aVto
p7323
aVthe
p7324
aVdining
p7325
aVroom
p7326
aVand
p7327
aVto
p7328
aVthe
p7329
aVtable
p7330
aVat
p7331
aVwhich
p7332
aVthe
p7333
aVthree
p7334
aVmen
p7335
aVwere
p7336
aVsitting
p7337
aV,
aVbut
p7338
aVhe
p7339
aVdid
p7340
aVnot
p7341
aVsit
p7342
aVdown
p7343
aV.
aa(lp7344
V``
p7345
aVno
p7346
aV,
aVi
aVwould
p7347
aVn't
p7348
aVpresume
p7349
aVto
p7350
aVthink
p7351
aVyour
p7352
aVmemory
p7353
aVis
p7354
aVthat
p7355
aVextensive
p7356
aV,
aV''
p7357
aVhe
p7358
aVsaid
p7359
aV.
aa(lp7360
Vhe
p7361
aVwas
p7362
aVso
p7363
aVsmall
p7364
aVthat
p7365
aVthe
p7366
aVedge
p7367
aVof
p7368
aVthe
p7369
aVtable
p7370
aVtop
p7371
aVreached
p7372
aValmost
p7373
aVto
p7374
aVhis
p7375
aVbelt
p7376
aV,
aVand
p7377
aVwhen
p7378
aVhe
p7379
aVgripped
p7380
aVthe
p7381
aVcorner
p7382
aVwith
p7383
aVhis
p7384
aVwiry
p7385
aVhands
p7386
aVhe
p7387
aVdid
p7388
aVn't
p7389
aVhave
p7390
aVto
p7391
aVstoop
p7392
aV.
aa(lp7393
V``
p7394
aVno
p7395
aV,
aVyou
p7396
aV're
p7397
aVtoo
p7398
aVbusy
p7399
aVgobbling
p7400
aVup
p7401
aVdinners
p7402
aVin
p7403
aVdining
p7404
aVrooms
p7405
aV.
aa(lp7406
Vyou
p7407
aV''
p7408
aVre
p7409
aVtoo
p7410
aV--
p7411
aV''
p7412
aV''
p7413
aVhonestly
p7414
aV,
aV''
p7415
aVbegged
p7416
aVsylvester
p7417
aV.
aa(lp7418
V``
p7419
aVyou
p7420
aVgot
p7421
aVto
p7422
aVbehave
p7423
aVreasonable
p7424
aV.
aV''
p7425
aa(lp7426
V``
p7427
aVreasonable
p7428
aV!
aa(lp7429
Vreasonable
p7430
aV!
aV''
p7431
aa(lp7432
Vthe
p7433
aVjockey
p7434
aV's
p7435
aVgray
p7436
aVface
p7437
aVquivered
p7438
aV,
aVthen
p7439
aVset
p7440
aVin
p7441
aVa
aVmean
p7442
aV,
aVfrozen
p7443
aVgrin
p7444
aV.
aa(lp7445
Vhe
p7446
aVshook
p7447
aVthe
p7448
aVtable
p7449
aVso
p7450
aVthat
p7451
aVthe
p7452
aVplates
p7453
aVrattled
p7454
aV,
aVand
p7455
aVfor
p7456
aVa
aVmoment
p7457
aVit
p7458
aVseemed
p7459
aVthat
p7460
aVhe
p7461
aVwould
p7462
aVpush
p7463
aVit
p7464
aVover
p7465
aV.
aa(lp7466
Vbut
p7467
aVsuddenly
p7468
aVhe
p7469
aVstopped
p7470
aV.
aa(lp7471
Vhis
p7472
aVhand
p7473
aVreached
p7474
aVout
p7475
aVtoward
p7476
aVthe
p7477
aVplate
p7478
aVnearest
p7479
aVto
p7480
aVhim
p7481
aVand
p7482
aVdeliberately
p7483
aVhe
p7484
aVput
p7485
aVa
aVfew
p7486
aVof
p7487
aVthe
p7488
aVfrench-fried
p7489
aVpotatoes
p7490
aVin
p7491
aVhis
p7492
aVmouth
p7493
aV.
aa(lp7494
Vhe
p7495
aVchewed
p7496
aVslowly
p7497
aV,
aVhis
p7498
aVupper
p7499
aVlip
p7500
aVraised
p7501
aV,
aVthen
p7502
aVhe
p7503
aVturned
p7504
aVand
p7505
aVspat
p7506
aVout
p7507
aVthe
p7508
aVpulpy
p7509
aVmouthful
p7510
aVon
p7511
aVthe
p7512
aVsmooth
p7513
aVred
p7514
aVcarpet
p7515
aVwhich
p7516
aVcovered
p7517
aVthe
p7518
aVfloor
p7519
aV.
aa(lp7520
V``
p7521
aVlibertines
p7522
aV,
aV''
p7523
aVhe
p7524
aVsaid
p7525
aV,
aVand
p7526
aVhis
p7527
aVvoice
p7528
aVwas
p7529
aVthin
p7530
aVand
p7531
aVbroken
p7532
aV.
aa(lp7533
Vhe
p7534
aVrolled
p7535
aVthe
p7536
aVword
p7537
aVin
p7538
aVhis
p7539
aVmouth
p7540
aV,
aVas
p7541
aVthough
p7542
aVit
p7543
aVhad
p7544
aVa
aVflavor
p7545
aVand
p7546
aVa
aVsubstance
p7547
aVthat
p7548
aVgratified
p7549
aVhim
p7550
aV.
aa(lp7551
V``
p7552
aVyou
p7553
aVlibertines
p7554
aV,
aV''
p7555
aVhe
p7556
aVsaid
p7557
aVagain
p7558
aV,
aVand
p7559
aVturned
p7560
aVand
p7561
aVwalked
p7562
aVwith
p7563
aVhis
p7564
aVrigid
p7565
aVswagger
p7566
aVout
p7567
aVof
p7568
aVthe
p7569
aVdining
p7570
aVroom
p7571
aV.
aa(lp7572
Vsylvester
p7573
aVshrugged
p7574
aVone
p7575
aVof
p7576
aVhis
p7577
aVloose
p7578
aV,
aVheavy
p7579
aVshoulders
p7580
aV.
aa(lp7581
Vthe
p7582
aVrich
p7583
aVman
p7584
aVsopped
p7585
aVup
p7586
aVsome
p7587
aVwater
p7588
aVthat
p7589
aVhad
p7590
aVbeen
p7591
aVspilled
p7592
aVon
p7593
aVthe
p7594
aVtablecloth
p7595
aV,
aVand
p7596
aVthey
p7597
aVdid
p7598
aVn't
p7599
aVspeak
p7600
aVuntil
p7601
aVthe
p7602
aVwaiter
p7603
aVcame
p7604
aVto
p7605
aVclear
p7606
aVaway
p7607
aV.
aa(lp7608
Vthe
p7609
aVjapanese
p7610
aVquince
p7611
aV(
aV1910
p7612
aV)
aVby
p7613
aVjohn
p7614
aVgalsworthy
p7615
aVas
p7616
aVmr.
p7617
aVnilson
p7618
aV,
aVwell
p7619
aVknown
p7620
aVin
p7621
aVthe
p7622
aVcity
p7623
aV,
aVopened
p7624
aVthe
p7625
aVwindow
p7626
aVof
p7627
aVhis
p7628
aVdressing
p7629
aVroom
p7630
aVon
p7631
aVcampden
p7632
aVhill
p7633
aV,
aVhe
p7634
aVexperienced
p7635
aVa
aVpeculiar
p7636
aVsweetish
p7637
aVsensation
p7638
aVin
p7639
aVthe
p7640
aVback
p7641
aVof
p7642
aVhis
p7643
aVthroat
p7644
aV,
aVand
p7645
aVa
aVfeeling
p7646
aVof
p7647
aVemptiness
p7648
aVjust
p7649
aVunder
p7650
aVhis
p7651
aVfifth
p7652
aVrib
p7653
aV.
aa(lp7654
Vhooking
p7655
aVthe
p7656
aVwindow
p7657
aVback
p7658
aV,
aVhe
p7659
aVnoticed
p7660
aVthat
p7661
aVa
aVlittle
p7662
aVtree
p7663
aVin
p7664
aVthe
p7665
aVsquare
p7666
aVgardens
p7667
aVhad
p7668
aVcome
p7669
aVout
p7670
aVin
p7671
aVblossom
p7672
aV,
aVand
p7673
aVthat
p7674
aVthe
p7675
aVthermometer
p7676
aVstood
p7677
aVat
p7678
aVsixty
p7679
aV.
aa(lp7680
V\u201cperfect
p7681
aVmorning
p7682
aV,
aV\u201d
aVhe
p7683
aVthought
p7684
aV;
aV\u201cspring
p7685
aVat
p7686
aVlast
p7687
aV!
aV\u201d
aVresuming
p7688
aVsome
p7689
aVmeditations
p7690
aVon
p7691
aVthe
p7692
aVprice
p7693
aVof
p7694
aVtintos
p7695
aV,
aVhe
p7696
aVtook
p7697
aVup
p7698
aVan
p7699
aVivory-backed
p7700
aVhandglass
p7701
aVand
p7702
aVscrutinised
p7703
aVhis
p7704
aVface
p7705
aV.
aa(lp7706
Vhis
p7707
aVfirm
p7708
aV,
aVwell-coloured
p7709
aVcheeks
p7710
aV,
aVwith
p7711
aVtheir
p7712
aVneat
p7713
aVbrown
p7714
aVmoustaches
p7715
aV,
aVand
p7716
aVhis
p7717
aVround
p7718
aV,
aVwell-opened
p7719
aV,
aVclear
p7720
aVgrey
p7721
aVeyes
p7722
aV,
aVwore
p7723
aVa
aVreassuring
p7724
aVappearance
p7725
aVof
p7726
aVgood
p7727
aVhealth
p7728
aV.
aa(lp7729
Vputting
p7730
aVon
p7731
aVhis
p7732
aVblack
p7733
aVfrock
p7734
aVcoat
p7735
aV,
aVhe
p7736
aVwent
p7737
aV,
aVdownstairs
p7738
aV.
aa(lp7739
Vin
p7740
aVthe
p7741
aVdining
p7742
aVroom
p7743
aVhis
p7744
aVmorning
p7745
aVpaper
p7746
aVwas
p7747
aVlaid
p7748
aVout
p7749
aVon
p7750
aVthe
p7751
aVsideboard
p7752
aV.
aa(lp7753
Vmr.
p7754
aVnilson
p7755
aVhad
p7756
aVscarcely
p7757
aVtaken
p7758
aVit
p7759
aVin
p7760
aVhis
p7761
aVhand
p7762
aVwhen
p7763
aVhe
p7764
aVagain
p7765
aVbecame
p7766
aVaware
p7767
aVof
p7768
aVthat
p7769
aVqueer
p7770
aV.feeling
p7771
aV.
aa(lp7772
Vsomewhat
p7773
aVconcerned
p7774
aV,
aVhe
p7775
aVwent
p7776
aVto
p7777
aVthe
p7778
aVfrench
p7779
aVwindow
p7780
aVand
p7781
aVdescended
p7782
aVthe
p7783
aVscrolled
p7784
aViron
p7785
aVsteps
p7786
aVinto
p7787
aVthe
p7788
aVfresh
p7789
aVair
p7790
aV.
aa(lp7791
Va
aVcuckoo
p7792
aVclock
p7793
aVstruck
p7794
aVeight
p7795
aV.
aa(lp7796
V\u201chalf
p7797
aVan
p7798
aVhour
p7799
aVto
p7800
aVbreakfast
p7801
aV,
aV\u201d
aVhe
p7802
aVthought
p7803
aV;
aV\u201ci\u2019ll
p7804
aVtake
p7805
aVa
aVturn
p7806
aVin
p7807
aVthe
p7808
aVgardens.\u201d
p7809
aVhe
p7810
aVhad
p7811
aVthem
p7812
aVto
p7813
aVhimself
p7814
aV,
aVand
p7815
aVproceeded
p7816
aVto
p7817
aVpace
p7818
aVthe
p7819
aVcircular
p7820
aVpath
p7821
aVwith
p7822
aVhis
p7823
aVmorning
p7824
aVpaper
p7825
aVclasped
p7826
aVbehind
p7827
aVhim
p7828
aV.
aa(lp7829
Vhe
p7830
aVhad
p7831
aVscarcely
p7832
aVmade
p7833
aVtwo
p7834
aVrevolutions
p7835
aV,
aVhowever
p7836
aV,
aVwhen
p7837
aVit
p7838
aVwas
p7839
aVborne
p7840
aVin
p7841
aVon
p7842
aVhim
p7843
aVthat
p7844
aV,
aVinstead
p7845
aVof
p7846
aVgoing
p7847
aVaway
p7848
aVin
p7849
aVthe
p7850
aVfresh
p7851
aVair
p7852
aV,
aVthe
p7853
aVfeeling
p7854
aVhad
p7855
aVincreased
p7856
aV.
aa(lp7857
Vhe
p7858
aVdrew
p7859
aVseveral
p7860
aVdeep
p7861
aVbreaths
p7862
aV,
aVhaving
p7863
aVheard
p7864
aVdeep
p7865
aVbreathing
p7866
aVrecommended
p7867
aVby
p7868
aVhis
p7869
aVwife\u2019s
p7870
aVdoctor
p7871
aV;
aVbut
p7872
aVthey
p7873
aVaugmented
p7874
aVrather
p7875
aVthan
p7876
aVdiminished
p7877
aVthe
p7878
aVsensation\u2014
p7879
aVas
p7880
aVof
p7881
aVsome
p7882
aVsweetish
p7883
aVliquor
p7884
aVin
p7885
aVcourse
p7886
aVwithin
p7887
aVhim
p7888
aV,
aVtogether
p7889
aVwith
p7890
aVa
aVfaint
p7891
aVaching
p7892
aVjust
p7893
aVabove
p7894
aVhis
p7895
aVheart
p7896
aV.
aa(lp7897
Vrunning
p7898
aVover
p7899
aVwhat
p7900
aVhe
p7901
aVhad
p7902
aVeaten
p7903
aVthe
p7904
aVnight
p7905
aVbefore
p7906
aV,
aVhe
p7907
aVcould
p7908
aVrecollect
p7909
aVno
p7910
aVunusual
p7911
aVdish
p7912
aV,
aVand
p7913
aVit
p7914
aVoccurred
p7915
aVto
p7916
aVhim
p7917
aVthat
p7918
aVit
p7919
aVmight
p7920
aVpossibly
p7921
aVbe
p7922
aVsome
p7923
aVsmell
p7924
aVaffecting
p7925
aVhim
p7926
aV.
aa(lp7927
Vbut
p7928
aVhe
p7929
aVcould
p7930
aVdetect
p7931
aVnothing
p7932
aVexcept
p7933
aVa
aVfaint
p7934
aVsweet
p7935
aVlemony
p7936
aVscent
p7937
aV,
aVrather
p7938
aVagreeable
p7939
aVthan
p7940
aVotherwise
p7941
aV,
aVwhich
p7942
aVevidently
p7943
aVemanated
p7944
aVfrom
p7945
aVthe
p7946
aVbushes
p7947
aVbudding
p7948
aVin
p7949
aVthe
p7950
aVsunshine
p7951
aV.
aa(lp7952
Vhe
p7953
aVwas
p7954
aVon
p7955
aVthe
p7956
aVpoint
p7957
aVof
p7958
aVresuming
p7959
aVhis
p7960
aVpromenade
p7961
aV,
aVwhen
p7962
aVa
aVblackbird
p7963
aVclose
p7964
aVby
p7965
aVburst
p7966
aVinto
p7967
aVsong
p7968
aV,
aVand
p7969
aV,
aVlooking
p7970
aVup
p7971
aV,
aVmr.
p7972
aVnilson
p7973
aVsaw
p7974
aVat
p7975
aVa
aVdistance
p7976
aVof
p7977
aVperhaps
p7978
aVfive
p7979
aVyards
p7980
aVa
aVlittle
p7981
aVtree
p7982
aV,
aVin
p7983
aVthe
p7984
aVheart
p7985
aVof
p7986
aVwhose
p7987
aVbranches
p7988
aVthe
p7989
aVbird
p7990
aVwas
p7991
aVperched
p7992
aV.
aa(lp7993
Vhe
p7994
aVstood
p7995
aVstaring
p7996
aVcuriously
p7997
aVat
p7998
aVthis
p7999
aVtree
p8000
aV,
aVrecognising
p8001
aVit
p8002
aVfor
p8003
aVthat
p8004
aVwhich
p8005
aVhe
p8006
aVhad
p8007
aVnoticed
p8008
aVfrom
p8009
aVhis
p8010
aVwindow
p8011
aV.
aa(lp8012
Vit
p8013
aVwas
p8014
aVcovered
p8015
aVwith
p8016
aVyoung
p8017
aVblossoms
p8018
aV,
aVpink
p8019
aVand
p8020
aVwhite
p8021
aV,
aVand
p8022
aVlittle
p8023
aVbright
p8024
aVgreen
p8025
aVleaves
p8026
aVboth
p8027
aVround
p8028
aVand
p8029
aVspiky
p8030
aV;
aVand
p8031
aVon
p8032
aVall
p8033
aVthis
p8034
aVblossom
p8035
aVand
p8036
aVthese
p8037
aVleaves
p8038
aVthe
p8039
aVsunlight
p8040
aVglistened
p8041
aV.
aa(lp8042
Vmr.
p8043
aVnilson
p8044
aVsmiled
p8045
aV;
aVthe
p8046
aVlittle
p8047
aVtree
p8048
aVwas
p8049
aVso
p8050
aValive
p8051
aVand
p8052
aVpretty
p8053
aV!
aa(lp8054
Vand
p8055
aVinstead
p8056
aVof
p8057
aVpassing
p8058
aVon
p8059
aV,
aVhe
p8060
aVstayed
p8061
aVthere
p8062
aVsmiling
p8063
aVat
p8064
aVthe
p8065
aVtree
p8066
aV.
aa(lp8067
V\u201cmorning
p8068
aVlike
p8069
aVthis
p8070
aV!
aV\u201d
aVhe
p8071
aVthought
p8072
aV;
aV\u201cand
p8073
aVhere
p8074
aVi
aVam
p8075
aVthe
p8076
aVonly
p8077
aVperson
p8078
aVin
p8079
aVthe
p8080
aVsquare
p8081
aVwho
p8082
aVhas
p8083
aVthe
p8084
aV-to
p8085
aVcome
p8086
aVout
p8087
aVand\u2014
p8088
aV!
aV\u201d
aVbut
p8089
aVhe
p8090
aVhad
p8091
aVno
p8092
aVsooner
p8093
aVconceived
p8094
aVthis
p8095
aVthought
p8096
aVthan
p8097
aVhe
p8098
aVsaw
p8099
aVquite
p8100
aVnear
p8101
aVhim
p8102
aVa
aVman
p8103
aVwith
p8104
aVhis
p8105
aVhands
p8106
aVbehind
p8107
aVhim
p8108
aV,
aVwho
p8109
aVwas
p8110
aValso
p8111
aVstaring
p8112
aVup
p8113
aVand
p8114
aVsmiling
p8115
aVat
p8116
aVthe
p8117
aVlittle
p8118
aVtree
p8119
aV.
aa(lp8120
Vrather
p8121
aVtaken
p8122
aVaback
p8123
aV,
aVmr.
p8124
aVnilson
p8125
aVceased
p8126
aVto
p8127
aVsmile
p8128
aV,
aVand
p8129
aVlooked
p8130
aVfurtively
p8131
aVat
p8132
aVthe
p8133
aVstranger
p8134
aV.
aa(lp8135
Vit
p8136
aVwas
p8137
aVhis
p8138
aVnext-door
p8139
aVneighbour
p8140
aV,
aVmr.
p8141
aVtandram
p8142
aV,
aVwell
p8143
aVknown
p8144
aVin
p8145
aVthe
p8146
aVcity
p8147
aV,
aVwho
p8148
aVhad
p8149
aVoccupied
p8150
aVthe
p8151
aVadjoining
p8152
aVhouse
p8153
aVfor
p8154
aVsome
p8155
aVfive
p8156
aVyears
p8157
aV.
aa(lp8158
Vmr.
p8159
aVnilson
p8160
aVperceived
p8161
aVat
p8162
aVonce
p8163
aVthe
p8164
aVawkwardness
p8165
aVof
p8166
aVhis
p8167
aVposition
p8168
aV,
aVfor
p8169
aV,
aVbeing
p8170
aVmarried
p8171
aV,
aVthey
p8172
aVhad
p8173
aVnot
p8174
aVyet
p8175
aVhad
p8176
aVoccasion
p8177
aVto
p8178
aVspeak
p8179
aVto
p8180
aVone
p8181
aVanother
p8182
aV.
aa(lp8183
Vdoubtful
p8184
aVas
p8185
aVto
p8186
aVhis
p8187
aVproper
p8188
aVconduct
p8189
aV,
aVhe
p8190
aVdecided
p8191
aVat
p8192
aVlast
p8193
aVto
p8194
aVmurmur
p8195
aV:
aV\u201cfine
p8196
aVmorning
p8197
aV!
aV\u201d
aVand
p8198
aVwas
p8199
aVpassing
p8200
aVon
p8201
aV,
aVwhen
p8202
aVmr.
p8203
aVtandram
p8204
aVanswered
p8205
aV:
aV\u201cbeautiful
p8206
aV,
aVfor
p8207
aVthe
p8208
aVtime
p8209
aVof
p8210
aVyear
p8211
aV!
aV\u201d
aVdetecting
p8212
aVa
aVslight
p8213
aVnervousness
p8214
aVin
p8215
aVhis
p8216
aVneighbour\u2019s
p8217
aVvoice
p8218
aV,
aVmr.
p8219
aVnilson
p8220
aVwas
p8221
aVemboldened
p8222
aVto
p8223
aVregard
p8224
aVhim
p8225
aVopenly
p8226
aV.
aa(lp8227
Vhe
p8228
aVwas
p8229
aVof
p8230
aVabout
p8231
aVmr.
p8232
aVnilson\u2019s
p8233
aVown
p8234
aVheight
p8235
aV,
aVwith
p8236
aVfirm
p8237
aVwell-coloured
p8238
aVcheeks
p8239
aV,
aVneat
p8240
aVbrown
p8241
aVmoustaches
p8242
aV,
aVclear
p8243
aVgrey
p8244
aVeyes
p8245
aV;
aVand
p8246
aVwas
p8247
aVwearing
p8248
aVa
aVfrock
p8249
aVcoat
p8250
aV.
aa(lp8251
Vmr.
p8252
aVnilson
p8253
aVnoticed
p8254
aVthat
p8255
aVhe
p8256
aVhad
p8257
aVhis
p8258
aVmorning
p8259
aVpaper
p8260
aVclasped
p8261
aVbehind
p8262
aVhim
p8263
aVas
p8264
aVhe
p8265
aVlooked
p8266
aVup
p8267
aVat
p8268
aVthe
p8269
aVlittle
p8270
aVtree
p8271
aV.
aa(lp8272
Vand
p8273
aV,
aVvisited
p8274
aVsomehow
p8275
aVby
p8276
aVthe
p8277
aVfeeling
p8278
aVthat
p8279
aVhe
p8280
aVhad
p8281
aVbeen
p8282
aVcaught
p8283
aVout
p8284
aV,
aVhe
p8285
aVsaid
p8286
aVabruptly
p8287
aV:
aV\u201cer\u2014can
p8288
aVyou
p8289
aVgive
p8290
aVme
p8291
aVthe
p8292
aVname
p8293
aVof
p8294
aVthat
p8295
aVtree
p8296
aV?
aV\u201d
aVmr.
p8297
aVtandram
p8298
aVanswered
p8299
aV:
aV\u201ci
p8300
aVwas
p8301
aVabout
p8302
aVto
p8303
aVask
p8304
aVyou
p8305
aVthat
p8306
aV,
aV\u201d
aVand
p8307
aVstepped
p8308
aVtowards
p8309
aVit
p8310
aV.
aa(lp8311
Vmr.
p8312
aVnilson
p8313
aValso
p8314
aVapproached
p8315
aVthe
p8316
aVtree
p8317
aV.
aa(lp8318
V\u201csure
p8319
aVto
p8320
aVhave
p8321
aVits
p8322
aVname
p8323
aVon
p8324
aV,
aVi
aVshould
p8325
aVthink
p8326
aV,
aV\u201d
aVhe
p8327
aVsaid
p8328
aV.
aa(lp8329
Vmr.
p8330
aVtandram
p8331
aVwas
p8332
aVthe
p8333
aVfirst
p8334
aVto
p8335
aVsee
p8336
aVthe
p8337
aVlittle
p8338
aVlabel
p8339
aV,
aVclose
p8340
aVto
p8341
aVwhere
p8342
aVblackbird
p8343
aVhad
p8344
aVbeen
p8345
aVsitting
p8346
aV.
aa(lp8347
Vhe
p8348
aVread
p8349
aVit
p8350
aVout
p8351
aV.
aa(lp8352
V\u201cjapanese
p8353
aVquince
p8354
aV!
aV\u201d
aV\u201cah
p8355
aV!
aV\u201d
aVsaid
p8356
aVmr.
p8357
aVnilson
p8358
aV,
aV\u201cthought
p8359
aVso
p8360
aV.
aa(lp8361
Vearly
p8362
aVflowerers.\u201d
p8363
aV\u201cvery
p8364
aV,
aV\u201d
aVassented
p8365
aVmr.
p8366
aVtandram
p8367
aV,
aVand
p8368
aVadded
p8369
aV:
aV\u201cquite
p8370
aVa
aVfeelin\u2019
p8371
aVin
p8372
aVthe
p8373
aVair
p8374
aVtoday.\u201d
p8375
aVmr.
p8376
aVnilson
p8377
aVnodded
p8378
aV.
aa(lp8379
V\u201cit
p8380
aVwas
p8381
aVa
aVblackbird
p8382
aVsingin\u2019
p8383
aV,
aV\u201d
aVhe
p8384
aVsaid
p8385
aV.
aa(lp8386
V\u201cblackbirds
p8387
aV,
aV\u201d
aVanswered
p8388
aVmr.
p8389
aVtandram
p8390
aV.
aa(lp8391
V\u201ci
p8392
aVprefer
p8393
aVthem
p8394
aVto
p8395
aVthrushes
p8396
aVmyself
p8397
aV;
aVmore
p8398
aVbody
p8399
aVin
p8400
aVthe
p8401
aVnote.\u201d
p8402
aVand
p8403
aVhe
p8404
aVlooked
p8405
aVat
p8406
aVmr.
p8407
aVnilson
p8408
aVin
p8409
aVan
p8410
aValmost
p8411
aVfriendly
p8412
aVway
p8413
aV.
aa(lp8414
V\u201cquite
p8415
aV,
aV\u201d
aVmurmured
p8416
aVmr.
p8417
aVnilson
p8418
aV.
aa(lp8419
V\u201cthese
p8420
aVexotics
p8421
aV,
aVthey
p8422
aVdon\u2019t
p8423
aVbear
p8424
aVfruit
p8425
aV.
aa(lp8426
Vpretty
p8427
aVblossom
p8428
aV!
aV\u201d
aVand
p8429
aVhe
p8430
aVagain
p8431
aVglanced
p8432
aVup
p8433
aVat
p8434
aVthe
p8435
aVblossom
p8436
aV,
aVthinking
p8437
aV:
aV\u201cnice
p8438
aVfellow
p8439
aV,
aVthis
p8440
aV,
aVi
aVrather
p8441
aVlike
p8442
aVhim.\u201d
p8443
aVmr.
p8444
aVtandram
p8445
aValso
p8446
aVgazed
p8447
aVat
p8448
aVthe
p8449
aVblossom
p8450
aV.
aa(lp8451
Vand
p8452
aVthe
p8453
aVlittle
p8454
aVtree
p8455
aV,
aVas
p8456
aVif
p8457
aVappreciating
p8458
aVtheir
p8459
aVattention
p8460
aV,
aVquivered
p8461
aVand
p8462
aVglowed
p8463
aV.
aa(lp8464
Vfrom
p8465
aVa
aVdistance
p8466
aVthe
p8467
aVblackbird
p8468
aVgave
p8469
aVa
aVloud
p8470
aV,
aVclear
p8471
aVcall
p8472
aV.
aa(lp8473
Vmr.
p8474
aVnilson
p8475
aVdropped
p8476
aVhis
p8477
aVeyes
p8478
aV.
aa(lp8479
Vit
p8480
aVstruck
p8481
aVhim
p8482
aVsuddenly
p8483
aVthat
p8484
aVmr.
p8485
aVtandram
p8486
aVlooked
p8487
aVa
aVlittle
p8488
aVfoolish
p8489
aV;
aVand
p8490
aV,
aVas
p8491
aVif
p8492
aVhe
p8493
aVhad
p8494
aVseen
p8495
aVhimself
p8496
aV,
aVhe
p8497
aVsaid
p8498
aV:
aV\u201ci
p8499
aVmust
p8500
aVbe
p8501
aVgoing
p8502
aVin
p8503
aV.
aa(lp8504
Vgood
p8505
aVmorning
p8506
aV!
aV\u201d
aVa
aVshade
p8507
aVpassed
p8508
aVover
p8509
aVmr.
p8510
aVtandram\u2019s
p8511
aVface
p8512
aV,
aVas
p8513
aVif
p8514
aVhe
p8515
aV,
aVtoo
p8516
aV,
aVhad
p8517
aVsuddenly
p8518
aVnoticed
p8519
aVsomething
p8520
aVabout
p8521
aVmr.
p8522
aVnilson
p8523
aV.
aa(lp8524
V\u201cgood
p8525
aVmorning
p8526
aV,
aV\u201d
aVhe
p8527
aVreplied
p8528
aV,
aVand
p8529
aVclasping
p8530
aVtheir
p8531
aVjournals
p8532
aVto
p8533
aVtheir
p8534
aVbacks
p8535
aVthey
p8536
aVseparated
p8537
aV.
aa(lp8538
Vmr.
p8539
aVnilson
p8540
aVretraced
p8541
aVhis
p8542
aVsteps
p8543
aVtowards
p8544
aVhis
p8545
aVgarden
p8546
aVwindow
p8547
aV,
aVwalking
p8548
aVslowly
p8549
aVso
p8550
aVas
p8551
aVto
p8552
aVavoid
p8553
aVarriving
p8554
aVat
p8555
aVthe
p8556
aVsame
p8557
aVtime
p8558
aVas
p8559
aVhis
p8560
aVneighbour
p8561
aV.
aa(lp8562
Vhaving
p8563
aVseen
p8564
aVmr.
p8565
aVtandram
p8566
aVmount
p8567
aVhis
p8568
aVscrolled
p8569
aViron
p8570
aVsteps
p8571
aV,
aVhe
p8572
aVascended
p8573
aVhis
p8574
aVown
p8575
aVin
p8576
aVturn
p8577
aV.
aa(lp8578
Von
p8579
aVthe
p8580
aVtop
p8581
aVstep
p8582
aVhe
p8583
aVpaused
p8584
aV.
aa(lp8585
Vwith
p8586
aVthe
p8587
aVslanting
p8588
aVspring
p8589
aVsunlight
p8590
aVdarting
p8591
aVand
p8592
aVquivering
p8593
aVinto
p8594
aVit
p8595
aV,
aVthe
p8596
aVjapanese
p8597
aVquince
p8598
aVseemed
p8599
aVmore
p8600
aVliving
p8601
aVthan
p8602
aVa
aVtree
p8603
aV.
aa(lp8604
Vthe
p8605
aVblackbird
p8606
aVhad
p8607
aVreturned
p8608
aVto
p8609
aVit
p8610
aV,
aVand
p8611
aVwas
p8612
aVchanting
p8613
aVout
p8614
aVhis
p8615
aVheart
p8616
aV.
aa(lp8617
Vmr.
p8618
aVnilson
p8619
aVsighed
p8620
aV;
aVagain
p8621
aVhe
p8622
aVfelt
p8623
aVthat
p8624
aVqueer
p8625
aVsensation
p8626
aV,
aVthat
p8627
aVchoky
p8628
aVfeeling
p8629
aVin
p8630
aVhis
p8631
aVthroat
p8632
aV.
aa(lp8633
Vthe
p8634
aVsound
p8635
aVof
p8636
aVa
aVcough
p8637
aVor
p8638
aVsigh
p8639
aVattracted
p8640
aVhis
p8641
aVattention
p8642
aV.
aa(lp8643
Vthere
p8644
aV,
aVin
p8645
aVthe
p8646
aVshadow
p8647
aVof
p8648
aVhis
p8649
aVfrench
p8650
aVwindow
p8651
aV,
aVstood
p8652
aVmr.
p8653
aVtandram
p8654
aV,
aValso
p8655
aVlooking
p8656
aVforth
p8657
aVacross
p8658
aVthe
p8659
aVgardens
p8660
aVat
p8661
aVthe
p8662
aVlittle
p8663
aVquince
p8664
aVtree
p8665
aV.
aa(lp8666
Vunaccountably
p8667
aVupset
p8668
aV,
aVmr.
p8669
aVnilson
p8670
aVturned
p8671
aVabruptly
p8672
aVinto
p8673
aVthe
p8674
aVhouse
p8675
aV,
aVand
p8676
aVopened
p8677
aVhis
p8678
aVmorning
p8679
aVpaper
p8680
aV.
aasb.